ARM GAS  /tmp/ccaR7BRn.s 			page 1


 GNU assembler version 2.41.0 (arm-none-eabi)
	 using BFD version (Arm GNU Toolchain 13.2.rel1 (Build arm-13.7)) 2.41.0.20231009.
 options passed	: -I -I -I -I -I -I -I -EL -march=armv7e-m+fp.dp -mfloat-abi=hard -mfpu=fpv5-d16 -meabi=5 -aghlms=src/rsynth_2005/holmes.lst 
 input file    	: /tmp/ccaR7BRn.s
 output file   	: src/rsynth_2005/holmes.o
 target        	: arm-none-eabi
 time stamp    	: 2025-03-08T13:36:01.000+0100

ARM GAS  /tmp/ccaR7BRn.s 			page 2


   1              		.cpu cortex-m7
   2              		.arch armv7e-m
   3              		.fpu fpv5-d16
   4              		.eabi_attribute 28, 1
   5              		.eabi_attribute 20, 1
   6              		.eabi_attribute 21, 1
   7              		.eabi_attribute 23, 3
   8              		.eabi_attribute 24, 1
   9              		.eabi_attribute 25, 1
  10              		.eabi_attribute 26, 1
  11              		.eabi_attribute 30, 2
  12              		.eabi_attribute 34, 1
  13              		.eabi_attribute 18, 4
  14              		.file	"holmes.c"
  15              		.text
  16              		.section	.text.set_trans.isra.0,"ax",%progbits
  17              		.align	1
  18              		.p2align 2,,3
  19              		.syntax unified
  20              		.thumb
  21              		.thumb_func
  22              		.type	set_trans.isra.0, %function
  23              	set_trans.isra.0:
  24              		@ args = 4, pretend = 0, frame = 0
  25              		@ frame_needed = 0, uses_anonymous_args = 0
  26 0000 10B5     		push	{r4, lr}
  27 0002 01F1020C 		add	ip, r1, #2
  28 0006 029C     		ldr	r4, [sp, #8]
  29 0008 02EBCC0E 		add	lr, r2, ip, lsl #3
  30 000c 74B3     		cbz	r4, .L2
  31 000e 9EF80940 		ldrb	r4, [lr, #9]	@ zero_extendqisi2
  32 0012 07EE904A 		vmov	s15, r4	@ int
  33 0016 F8EEE77A 		vcvt.f32.s32	s15, s15
  34              	.L3:
  35 001a 27EE800A 		vmul.f32	s0, s15, s0
  36 001e 03EBCC03 		add	r3, r3, ip, lsl #3
  37 0022 00EBC100 		add	r0, r0, r1, lsl #3
  38 0026 D3ED017A 		vldr.32	s15, [r3, #4]
  39 002a C900     		lsls	r1, r1, #3
  40 002c BDEEC07A 		vcvt.s32.f32	s14, s0
  41 0030 17EE103A 		vmov	r3, s14	@ int
  42 0034 80ED017A 		vstr.32	s14, [r0, #4]	@ int
  43 0038 ABB1     		cbz	r3, .L4
  44 003a 0A44     		add	r2, r2, r1
  45 003c DFED0F5A 		vldr.32	s11, .L10
  46 0040 F7EE006A 		vmov.f32	s13, #1.0e+0
  47 0044 137E     		ldrb	r3, [r2, #24]	@ zero_extendqisi2
  48 0046 92ED056A 		vldr.32	s12, [r2, #20]
  49 004a 07EE103A 		vmov	s14, r3	@ int
  50 004e B8EEC77A 		vcvt.f32.s32	s14, s14
  51 0052 27EE257A 		vmul.f32	s14, s14, s11
  52 0056 76EEC76A 		vsub.f32	s13, s13, s14
  53 005a 67EE277A 		vmul.f32	s15, s14, s15
  54 005e 26EE867A 		vmul.f32	s14, s13, s12
  55 0062 77EE277A 		vadd.f32	s15, s14, s15
  56              	.L4:
  57 0066 C0ED007A 		vstr.32	s15, [r0]
ARM GAS  /tmp/ccaR7BRn.s 			page 3


  58 006a 10BD     		pop	{r4, pc}
  59              	.L2:
  60 006c 9EF80A40 		ldrb	r4, [lr, #10]	@ zero_extendqisi2
  61 0070 07EE904A 		vmov	s15, r4	@ int
  62 0074 F8EEE77A 		vcvt.f32.s32	s15, s15
  63 0078 CFE7     		b	.L3
  64              	.L11:
  65 007a 00BF     		.align	2
  66              	.L10:
  67 007c 0AD7233C 		.word	1008981770
  68              		.size	set_trans.isra.0, .-set_trans.isra.0
  69              		.section	.text.linear,"ax",%progbits
  70              		.align	1
  71              		.p2align 2,,3
  72              		.global	linear
  73              		.syntax unified
  74              		.thumb
  75              		.thumb_func
  76              		.type	linear, %function
  77              	linear:
  78              		@ args = 0, pretend = 0, frame = 0
  79              		@ frame_needed = 0, uses_anonymous_args = 0
  80              		@ link register save eliminated.
  81 0000 0028     		cmp	r0, #0
  82 0002 03DD     		ble	.L12
  83 0004 8842     		cmp	r0, r1
  84 0006 02DB     		blt	.L16
  85 0008 B0EE600A 		vmov.f32	s0, s1
  86              	.L12:
  87 000c 7047     		bx	lr
  88              	.L16:
  89 000e 07EE900A 		vmov	s15, r0	@ int
  90 0012 07EE101A 		vmov	s14, r1	@ int
  91 0016 70EEC00A 		vsub.f32	s1, s1, s0
  92 001a F8EEE77A 		vcvt.f32.s32	s15, s15
  93 001e B8EEC77A 		vcvt.f32.s32	s14, s14
  94 0022 C7EE876A 		vdiv.f32	s13, s15, s14
  95 0026 66EEA07A 		vmul.f32	s15, s13, s1
  96 002a 37EE800A 		vadd.f32	s0, s15, s0
  97 002e 7047     		bx	lr
  98              		.size	linear, .-linear
  99              		.section	.text.interpolate,"ax",%progbits
 100              		.align	1
 101              		.p2align 2,,3
 102              		.global	interpolate
 103              		.syntax unified
 104              		.thumb
 105              		.thumb_func
 106              		.type	interpolate, %function
 107              	interpolate:
 108              		@ args = 8, pretend = 0, frame = 0
 109              		@ frame_needed = 0, uses_anonymous_args = 0
 110              		@ link register save eliminated.
 111 0000 70B4     		push	{r4, r5, r6}
 112 0002 5568     		ldr	r5, [r2, #4]
 113 0004 F0EE406A 		vmov.f32	s13, s0
 114 0008 5E68     		ldr	r6, [r3, #4]
ARM GAS  /tmp/ccaR7BRn.s 			page 4


 115 000a 049C     		ldr	r4, [sp, #16]
 116 000c A819     		adds	r0, r5, r6
 117 000e 0399     		ldr	r1, [sp, #12]
 118 0010 201A     		subs	r0, r4, r0
 119 0012 07EE900A 		vmov	s15, r0	@ int
 120 0016 B8EEE77A 		vcvt.f32.s32	s14, s15
 121 001a B5EEC07A 		vcmpe.f32	s14, #0
 122 001e F1EE10FA 		vmrs	APSR_nzcv, FPSCR
 123 0022 41DB     		blt	.L29
 124 0024 8D42     		cmp	r5, r1
 125 0026 25DC     		bgt	.L31
 126 0028 491B     		subs	r1, r1, r5
 127 002a 07EE901A 		vmov	s15, r1	@ int
 128 002e F8EEE77A 		vcvt.f32.s32	s15, s15
 129 0032 F4EEC77A 		vcmpe.f32	s15, s14
 130 0036 F1EE10FA 		vmrs	APSR_nzcv, FPSCR
 131 003a 31D9     		bls	.L25
 132 003c 77EEC77A 		vsub.f32	s15, s15, s14
 133 0040 FDEEE77A 		vcvt.s32.f32	s15, s15
 134 0044 17EE902A 		vmov	r2, s15	@ int
 135 0048 002A     		cmp	r2, #0
 136 004a 29DD     		ble	.L25
 137 004c 9642     		cmp	r6, r2
 138 004e 93ED000A 		vldr.32	s0, [r3]
 139 0052 0DDD     		ble	.L17
 140 0054 07EE106A 		vmov	s14, r6	@ int
 141 0058 F8EEE77A 		vcvt.f32.s32	s15, s15
 142 005c 30EE660A 		vsub.f32	s0, s0, s13
 143 0060 B8EEC77A 		vcvt.f32.s32	s14, s14
 144 0064 87EE876A 		vdiv.f32	s12, s15, s14
 145 0068 66EE007A 		vmul.f32	s15, s12, s0
 146 006c 37EEA60A 		vadd.f32	s0, s15, s13
 147              	.L17:
 148 0070 70BC     		pop	{r4, r5, r6}
 149 0072 7047     		bx	lr
 150              	.L31:
 151 0074 0029     		cmp	r1, #0
 152 0076 92ED000A 		vldr.32	s0, [r2]
 153 007a F9DD     		ble	.L17
 154 007c 07EE105A 		vmov	s14, r5	@ int
 155 0080 07EE901A 		vmov	s15, r1	@ int
 156 0084 76EEC06A 		vsub.f32	s13, s13, s0
 157 0088 F8EEE77A 		vcvt.f32.s32	s15, s15
 158 008c B8EEC77A 		vcvt.f32.s32	s14, s14
 159 0090 70BC     		pop	{r4, r5, r6}
 160 0092 87EE876A 		vdiv.f32	s12, s15, s14
 161 0096 66EE267A 		vmul.f32	s15, s12, s13
 162 009a 30EE270A 		vadd.f32	s0, s0, s15
 163 009e 7047     		bx	lr
 164              	.L25:
 165 00a0 B0EE660A 		vmov.f32	s0, s13
 166 00a4 70BC     		pop	{r4, r5, r6}
 167 00a6 7047     		bx	lr
 168              	.L29:
 169 00a8 07EE901A 		vmov	s15, r1	@ int
 170 00ac F7EE005A 		vmov.f32	s11, #1.0e+0
 171 00b0 0029     		cmp	r1, #0
ARM GAS  /tmp/ccaR7BRn.s 			page 5


 172 00b2 92ED006A 		vldr.32	s12, [r2]
 173 00b6 B8EEE77A 		vcvt.f32.s32	s14, s15
 174 00ba 07EE904A 		vmov	s15, r4	@ int
 175 00be B8EEE75A 		vcvt.f32.s32	s10, s15
 176 00c2 C7EE057A 		vdiv.f32	s15, s14, s10
 177 00c6 75EEE75A 		vsub.f32	s11, s11, s15
 178 00ca 0DDD     		ble	.L22
 179 00cc 8D42     		cmp	r5, r1
 180 00ce 31DD     		ble	.L26
 181 00d0 07EE905A 		vmov	s15, r5	@ int
 182 00d4 70EE464A 		vsub.f32	s9, s0, s12
 183 00d8 F8EEE77A 		vcvt.f32.s32	s15, s15
 184 00dc 87EE275A 		vdiv.f32	s10, s14, s15
 185 00e0 65EE247A 		vmul.f32	s15, s10, s9
 186 00e4 36EE276A 		vadd.f32	s12, s12, s15
 187              	.L22:
 188 00e8 641A     		subs	r4, r4, r1
 189 00ea 93ED005A 		vldr.32	s10, [r3]
 190 00ee 002C     		cmp	r4, #0
 191 00f0 1DDD     		ble	.L27
 192 00f2 A642     		cmp	r6, r4
 193 00f4 0FDD     		ble	.L23
 194 00f6 07EE904A 		vmov	s15, r4	@ int
 195 00fa 07EE106A 		vmov	s14, r6	@ int
 196 00fe 76EEC56A 		vsub.f32	s13, s13, s10
 197 0102 F8EEE77A 		vcvt.f32.s32	s15, s15
 198 0106 B8EEC77A 		vcvt.f32.s32	s14, s14
 199 010a C7EE874A 		vdiv.f32	s9, s15, s14
 200 010e 64EEA67A 		vmul.f32	s15, s9, s13
 201 0112 77EE856A 		vadd.f32	s13, s15, s10
 202              	.L23:
 203 0116 B7EE000A 		vmov.f32	s0, #1.0e+0
 204 011a 25EE866A 		vmul.f32	s12, s11, s12
 205 011e 30EE650A 		vsub.f32	s0, s0, s11
 206 0122 70BC     		pop	{r4, r5, r6}
 207 0124 20EE260A 		vmul.f32	s0, s0, s13
 208 0128 30EE060A 		vadd.f32	s0, s0, s12
 209 012c 7047     		bx	lr
 210              	.L27:
 211 012e F0EE456A 		vmov.f32	s13, s10
 212 0132 F0E7     		b	.L23
 213              	.L26:
 214 0134 B0EE406A 		vmov.f32	s12, s0
 215 0138 D6E7     		b	.L22
 216              		.size	interpolate, .-interpolate
 217 013a 00BF     		.section	.text.rsynth_newsay_single,"ax",%progbits
 218              		.align	1
 219              		.p2align 2,,3
 220              		.global	rsynth_newsay_single
 221              		.syntax unified
 222              		.thumb
 223              		.thumb_func
 224              		.type	rsynth_newsay_single, %function
 225              	rsynth_newsay_single:
 226              		@ args = 0, pretend = 0, frame = 8
 227              		@ frame_needed = 0, uses_anonymous_args = 0
 228              		@ link register save eliminated.
ARM GAS  /tmp/ccaR7BRn.s 			page 6


 229 0000 2C49     		ldr	r1, .L38
 230 0002 F7EE007A 		vmov.f32	s15, #1.0e+0
 231 0006 2C4A     		ldr	r2, .L38+4
 232 0008 2C4B     		ldr	r3, .L38+8
 233 000a D2ED006A 		vldr.32	s13, [r2]
 234 000e 93ED007A 		vldr.32	s14, [r3]
 235 0012 0023     		movs	r3, #0
 236 0014 DFED2A5A 		vldr.32	s11, .L38+12
 237 0018 9FED2A6A 		vldr.32	s12, .L38+16
 238 001c 66EEA56A 		vmul.f32	s13, s13, s11
 239 0020 294A     		ldr	r2, .L38+20
 240 0022 27EE067A 		vmul.f32	s14, s14, s12
 241 0026 10B4     		push	{r4}
 242 0028 91F802C0 		ldrb	ip, [r1, #2]	@ zero_extendqisi2
 243 002c FCEEE66A 		vcvt.u32.f32	s13, s13
 244 0030 CC78     		ldrb	r4, [r1, #3]	@ zero_extendqisi2
 245 0032 83B0     		sub	sp, sp, #12
 246 0034 6CF30703 		bfi	r3, ip, #0, #8
 247 0038 37EE277A 		vadd.f32	s14, s14, s15
 248 003c CDED016A 		vstr.32	s13, [sp, #4]	@ int
 249 0040 64F30F23 		bfi	r3, r4, #8, #8
 250 0044 214C     		ldr	r4, .L38+24
 251 0046 BCEEC77A 		vcvt.u32.f32	s14, s14
 252 004a 1460     		str	r4, [r2]	@ float
 253 004c 0424     		movs	r4, #4
 254 004e 204A     		ldr	r2, .L38+28
 255 0050 1470     		strb	r4, [r2]
 256 0052 9DF80420 		ldrb	r2, [sp, #4]	@ zero_extendqisi2
 257 0056 532A     		cmp	r2, #83
 258 0058 28BF     		it	cs
 259 005a 5322     		movcs	r2, #83
 260 005c 0128     		cmp	r0, #1
 261 005e 62F31743 		bfi	r3, r2, #16, #8
 262 0062 17EE102A 		vmov	r2, s14	@ int
 263 0066 62F31F63 		bfi	r3, r2, #24, #8
 264 006a 0B60     		str	r3, [r1]
 265 006c 0DD0     		beq	.L37
 266              	.L33:
 267 006e 0023     		movs	r3, #0
 268 0070 1849     		ldr	r1, .L38+32
 269 0072 194C     		ldr	r4, .L38+36
 270 0074 1948     		ldr	r0, .L38+40
 271 0076 1A4A     		ldr	r2, .L38+44
 272 0078 0B60     		str	r3, [r1]
 273 007a 0121     		movs	r1, #1
 274 007c 2370     		strb	r3, [r4]
 275 007e 0360     		str	r3, [r0]
 276 0080 1170     		strb	r1, [r2]
 277 0082 03B0     		add	sp, sp, #12
 278              		@ sp needed
 279 0084 5DF8044B 		ldr	r4, [sp], #4
 280 0088 7047     		bx	lr
 281              	.L37:
 282 008a 1649     		ldr	r1, .L38+48
 283 008c 164B     		ldr	r3, .L38+52
 284 008e 91ED067A 		vldr.32	s14, [r1, #24]
 285 0092 164A     		ldr	r2, .L38+56
ARM GAS  /tmp/ccaR7BRn.s 			page 7


 286 0094 03F1D800 		add	r0, r3, #216
 287 0098 77EEC77A 		vsub.f32	s15, s15, s14
 288              	.L34:
 289 009c 83ED007A 		vstr.32	s14, [r3]
 290 00a0 0C33     		adds	r3, r3, #12
 291 00a2 43ED027A 		vstr.32	s15, [r3, #-8]
 292 00a6 0832     		adds	r2, r2, #8
 293 00a8 D168     		ldr	r1, [r2, #12]	@ float
 294 00aa 8342     		cmp	r3, r0
 295 00ac 43F8041C 		str	r1, [r3, #-4]	@ float
 296 00b0 F4D1     		bne	.L34
 297 00b2 DCE7     		b	.L33
 298              	.L39:
 299              		.align	2
 300              	.L38:
 301 00b4 00000000 		.word	element
 302 00b8 00000000 		.word	_selz
 303 00bc 00000000 		.word	_sely
 304 00c0 0000AE42 		.word	1118699520
 305 00c4 00000042 		.word	1107296256
 306 00c8 00000000 		.word	ampl
 307 00cc 3333333F 		.word	1060320051
 308 00d0 00000000 		.word	nelm
 309 00d4 00000000 		.word	tf0
 310 00d8 00000000 		.word	i
 311 00dc 00000000 		.word	ntf0
 312 00e0 00000000 		.word	nextelement
 313 00e4 00000000 		.word	rsynthi
 314 00e8 00000000 		.word	flt
 315 00ec 00000000 		.word	Elementz
 316              		.size	rsynth_newsay_single, .-rsynth_newsay_single
 317              		.section	.text.rsynth_newsay_singlex,"ax",%progbits
 318              		.align	1
 319              		.p2align 2,,3
 320              		.global	rsynth_newsay_singlex
 321              		.syntax unified
 322              		.thumb
 323              		.thumb_func
 324              		.type	rsynth_newsay_singlex, %function
 325              	rsynth_newsay_singlex:
 326              		@ args = 0, pretend = 0, frame = 0
 327              		@ frame_needed = 0, uses_anonymous_args = 0
 328              		@ link register save eliminated.
 329 0000 0120     		movs	r0, #1
 330 0002 FFF7FEBF 		b	rsynth_newsay_single
 331              		.size	rsynth_newsay_singlex, .-rsynth_newsay_singlex
 332 0006 00BF     		.section	.text.rsynth_newsay,"ax",%progbits
 333              		.align	1
 334              		.p2align 2,,3
 335              		.global	rsynth_newsay
 336              		.syntax unified
 337              		.thumb
 338              		.thumb_func
 339              		.type	rsynth_newsay, %function
 340              	rsynth_newsay:
 341              		@ args = 0, pretend = 0, frame = 8
 342              		@ frame_needed = 0, uses_anonymous_args = 0
ARM GAS  /tmp/ccaR7BRn.s 			page 8


 343              		@ link register save eliminated.
 344 0000 274A     		ldr	r2, .L45
 345 0002 B7EE006A 		vmov.f32	s12, #1.0e+0
 346 0006 9FED277A 		vldr.32	s14, .L45+4
 347 000a D2ED006A 		vldr.32	s13, [r2]
 348 000e 264A     		ldr	r2, .L45+8
 349 0010 66EE876A 		vmul.f32	s13, s13, s14
 350 0014 2549     		ldr	r1, .L45+12
 351 0016 2648     		ldr	r0, .L45+16
 352 0018 264B     		ldr	r3, .L45+20
 353 001a FCEEE66A 		vcvt.u32.f32	s13, s13
 354 001e D3ED067A 		vldr.32	s15, [r3, #24]
 355 0022 254B     		ldr	r3, .L45+24
 356 0024 36EE677A 		vsub.f32	s14, s12, s15
 357 0028 10B4     		push	{r4}
 358 002a 83B0     		sub	sp, sp, #12
 359 002c 82ED006A 		vstr.32	s12, [r2]
 360 0030 224C     		ldr	r4, .L45+28
 361 0032 CDED016A 		vstr.32	s13, [sp, #4]	@ int
 362 0036 9DF80420 		ldrb	r2, [sp, #4]	@ zero_extendqisi2
 363 003a 7F2A     		cmp	r2, #127
 364 003c 28BF     		it	cs
 365 003e 7F22     		movcs	r2, #127
 366 0040 C2F17F02 		rsb	r2, r2, #127
 367 0044 D2B2     		uxtb	r2, r2
 368 0046 54F82220 		ldr	r2, [r4, r2, lsl #2]
 369 004a 92F84040 		ldrb	r4, [r2, #64]	@ zero_extendqisi2
 370 004e 0C70     		strb	r4, [r1]
 371 0050 02F10C04 		add	r4, r2, #12
 372 0054 1168     		ldr	r1, [r2]	@ float
 373 0056 0432     		adds	r2, r2, #4
 374 0058 0460     		str	r4, [r0]
 375 005a 1948     		ldr	r0, .L45+32
 376 005c 194C     		ldr	r4, .L45+36
 377 005e 0260     		str	r2, [r0]
 378 0060 1948     		ldr	r0, .L45+40
 379 0062 1A4A     		ldr	r2, .L45+44
 380 0064 0160     		str	r1, [r0]	@ float
 381 0066 03F1D800 		add	r0, r3, #216
 382 006a 2160     		str	r1, [r4]	@ float
 383              	.L42:
 384 006c C3ED007A 		vstr.32	s15, [r3]
 385 0070 0C33     		adds	r3, r3, #12
 386 0072 03ED027A 		vstr.32	s14, [r3, #-8]
 387 0076 0832     		adds	r2, r2, #8
 388 0078 D168     		ldr	r1, [r2, #12]	@ float
 389 007a 8342     		cmp	r3, r0
 390 007c 43F8041C 		str	r1, [r3, #-4]	@ float
 391 0080 F4D1     		bne	.L42
 392 0082 0023     		movs	r3, #0
 393 0084 1249     		ldr	r1, .L45+48
 394 0086 134C     		ldr	r4, .L45+52
 395 0088 1348     		ldr	r0, .L45+56
 396 008a 144A     		ldr	r2, .L45+60
 397 008c 0B60     		str	r3, [r1]
 398 008e 0121     		movs	r1, #1
 399 0090 2370     		strb	r3, [r4]
ARM GAS  /tmp/ccaR7BRn.s 			page 9


 400 0092 0360     		str	r3, [r0]
 401 0094 1170     		strb	r1, [r2]
 402 0096 03B0     		add	sp, sp, #12
 403              		@ sp needed
 404 0098 5DF8044B 		ldr	r4, [sp], #4
 405 009c 7047     		bx	lr
 406              	.L46:
 407 009e 00BF     		.align	2
 408              	.L45:
 409 00a0 00000000 		.word	_selz
 410 00a4 00000343 		.word	1124270080
 411 00a8 00000000 		.word	ampl
 412 00ac 00000000 		.word	nelm
 413 00b0 00000000 		.word	elm
 414 00b4 00000000 		.word	rsynthi
 415 00b8 00000000 		.word	flt
 416 00bc 00000000 		.word	rsynth_vocab
 417 00c0 00000000 		.word	f0
 418 00c4 00000000 		.word	f0s
 419 00c8 00000000 		.word	f0e
 420 00cc 00000000 		.word	Elementz
 421 00d0 00000000 		.word	tf0
 422 00d4 00000000 		.word	i
 423 00d8 00000000 		.word	ntf0
 424 00dc 00000000 		.word	nextelement
 425              		.size	rsynth_newsay, .-rsynth_newsay
 426              		.section	.text.rsynth_newsay_elm,"ax",%progbits
 427              		.align	1
 428              		.p2align 2,,3
 429              		.global	rsynth_newsay_elm
 430              		.syntax unified
 431              		.thumb
 432              		.thumb_func
 433              		.type	rsynth_newsay_elm, %function
 434              	rsynth_newsay_elm:
 435              		@ args = 0, pretend = 0, frame = 0
 436              		@ frame_needed = 0, uses_anonymous_args = 0
 437              		@ link register save eliminated.
 438 0000 154A     		ldr	r2, .L51
 439 0002 F7EE006A 		vmov.f32	s13, #1.0e+0
 440 0006 1548     		ldr	r0, .L51+4
 441 0008 D2ED067A 		vldr.32	s15, [r2, #24]
 442 000c D168     		ldr	r1, [r2, #12]
 443 000e 6A22     		movs	r2, #106
 444 0010 134B     		ldr	r3, .L51+8
 445 0012 36EEE77A 		vsub.f32	s14, s13, s15
 446 0016 4968     		ldr	r1, [r1, #4]	@ float
 447 0018 10B4     		push	{r4}
 448 001a 124C     		ldr	r4, .L51+12
 449 001c C0ED006A 		vstr.32	s13, [r0]
 450 0020 03F1D800 		add	r0, r3, #216
 451 0024 2270     		strb	r2, [r4]
 452 0026 104A     		ldr	r2, .L51+16
 453 0028 104C     		ldr	r4, .L51+20
 454 002a 1160     		str	r1, [r2]	@ float
 455 002c 104A     		ldr	r2, .L51+24
 456 002e 2160     		str	r1, [r4]	@ float
ARM GAS  /tmp/ccaR7BRn.s 			page 10


 457              	.L48:
 458 0030 C3ED007A 		vstr.32	s15, [r3]
 459 0034 0C33     		adds	r3, r3, #12
 460 0036 03ED027A 		vstr.32	s14, [r3, #-8]
 461 003a 0832     		adds	r2, r2, #8
 462 003c D168     		ldr	r1, [r2, #12]	@ float
 463 003e 8342     		cmp	r3, r0
 464 0040 43F8041C 		str	r1, [r3, #-4]	@ float
 465 0044 F4D1     		bne	.L48
 466 0046 0B49     		ldr	r1, .L51+28
 467 0048 0020     		movs	r0, #0
 468 004a 0B4B     		ldr	r3, .L51+32
 469 004c 0122     		movs	r2, #1
 470 004e 0870     		strb	r0, [r1]
 471 0050 1A70     		strb	r2, [r3]
 472 0052 5DF8044B 		ldr	r4, [sp], #4
 473 0056 7047     		bx	lr
 474              	.L52:
 475              		.align	2
 476              	.L51:
 477 0058 00000000 		.word	rsynthi
 478 005c 00000000 		.word	ampl
 479 0060 00000000 		.word	flt
 480 0064 00000000 		.word	nelm
 481 0068 00000000 		.word	f0s
 482 006c 00000000 		.word	f0e
 483 0070 00000000 		.word	Elementz
 484 0074 00000000 		.word	i
 485 0078 00000000 		.word	nextelement
 486              		.size	rsynth_newsay_elm, .-rsynth_newsay_elm
 487              		.section	.text.rsynth_get_sample,"ax",%progbits
 488              		.align	1
 489              		.p2align 2,,3
 490              		.global	rsynth_get_sample
 491              		.syntax unified
 492              		.thumb
 493              		.thumb_func
 494              		.type	rsynth_get_sample, %function
 495              	rsynth_get_sample:
 496              		@ args = 0, pretend = 0, frame = 24
 497              		@ frame_needed = 0, uses_anonymous_args = 0
 498 0000 AC4B     		ldr	r3, .L93
 499 0002 2DE9F04F 		push	{r4, r5, r6, r7, r8, r9, r10, fp, lr}
 500 0006 93ED055A 		vldr.32	s10, [r3, #20]
 501 000a 89B0     		sub	sp, sp, #36
 502 000c AA4B     		ldr	r3, .L93+4
 503 000e AB4D     		ldr	r5, .L93+8
 504 0010 AB4E     		ldr	r6, .L93+12
 505 0012 1978     		ldrb	r1, [r3]	@ zero_extendqisi2
 506 0014 2A78     		ldrb	r2, [r5]	@ zero_extendqisi2
 507 0016 3378     		ldrb	r3, [r6]	@ zero_extendqisi2
 508 0018 9A42     		cmp	r2, r3
 509 001a 5AD9     		bls	.L54
 510 001c 0129     		cmp	r1, #1
 511 001e 56D0     		beq	.L55
 512 0020 A84A     		ldr	r2, .L93+16
 513              	.L56:
ARM GAS  /tmp/ccaR7BRn.s 			page 11


 514 0022 A94B     		ldr	r3, .L93+20
 515 0024 0593     		str	r3, [sp, #20]
 516 0026 1B78     		ldrb	r3, [r3]	@ zero_extendqisi2
 517 0028 012B     		cmp	r3, #1
 518 002a 00F08781 		beq	.L66
 519              	.L92:
 520 002e A74B     		ldr	r3, .L93+24
 521 0030 D3ED006A 		vldr.32	s13, [r3]
 522              	.L67:
 523 0034 A64B     		ldr	r3, .L93+28
 524 0036 9FEDA77A 		vldr.32	s14, .L93+32
 525 003a D3ED007A 		vldr.32	s15, [r3]
 526 003e 40F2FF33 		movw	r3, #1023
 527 0042 0292     		str	r2, [sp, #8]
 528 0044 67EE877A 		vmul.f32	s15, s15, s14
 529 0048 A34C     		ldr	r4, .L93+36
 530 004a A449     		ldr	r1, .L93+40
 531 004c 9948     		ldr	r0, .L93
 532 004e FDEEE77A 		vcvt.s32.f32	s15, s15
 533 0052 17EE902A 		vmov	r2, s15	@ int
 534 0056 9A42     		cmp	r2, r3
 535 0058 D4BF     		ite	le
 536 005a 9B1A     		suble	r3, r3, r2
 537 005c DB1A     		subgt	r3, r3, r3
 538 005e 04EB8303 		add	r3, r4, r3, lsl #2
 539 0062 93ED000A 		vldr.32	s0, [r3]
 540 0066 26EE800A 		vmul.f32	s0, s13, s0
 541 006a FFF7FEFF 		bl	rsynth_frame_single
 542 006e 029A     		ldr	r2, [sp, #8]
 543 0070 9FED9B6A 		vldr.32	s12, .L93+44
 544 0074 1388     		ldrh	r3, [r2]
 545 0076 8F49     		ldr	r1, .L93
 546 0078 0133     		adds	r3, r3, #1
 547 007a 91ED027A 		vldr.32	s14, [r1, #8]	@ int
 548 007e 1BB2     		sxth	r3, r3
 549 0080 9849     		ldr	r1, .L93+48
 550 0082 B8EEC77A 		vcvt.f32.s32	s14, s14
 551 0086 07EE903A 		vmov	s15, r3	@ int
 552 008a 1380     		strh	r3, [r2]	@ movhi
 553 008c 964B     		ldr	r3, .L93+52
 554 008e F8EEE76A 		vcvt.f32.s32	s13, s15
 555 0092 D3ED007A 		vldr.32	s15, [r3]
 556 0096 67EE867A 		vmul.f32	s15, s15, s12
 557 009a FDEEE77A 		vcvt.s32.f32	s15, s15
 558 009e 17EE903A 		vmov	r3, s15	@ int
 559 00a2 7F2B     		cmp	r3, #127
 560 00a4 A8BF     		it	ge
 561 00a6 7F23     		movge	r3, #127
 562 00a8 01EB8303 		add	r3, r1, r3, lsl #2
 563 00ac D3ED007A 		vldr.32	s15, [r3]
 564 00b0 67EE277A 		vmul.f32	s15, s14, s15
 565 00b4 F4EEE76A 		vcmpe.f32	s13, s15
 566 00b8 F1EE10FA 		vmrs	APSR_nzcv, FPSCR
 567 00bc 04DB     		blt	.L74
 568 00be 0121     		movs	r1, #1
 569 00c0 0023     		movs	r3, #0
 570 00c2 059C     		ldr	r4, [sp, #20]
ARM GAS  /tmp/ccaR7BRn.s 			page 12


 571 00c4 1380     		strh	r3, [r2]	@ movhi
 572 00c6 2170     		strb	r1, [r4]
 573              	.L74:
 574 00c8 09B0     		add	sp, sp, #36
 575              		@ sp needed
 576 00ca BDE8F08F 		pop	{r4, r5, r6, r7, r8, r9, r10, fp, pc}
 577              	.L55:
 578 00ce FFF7FEFF 		bl	rsynth_newsay
 579              	.L54:
 580 00d2 794B     		ldr	r3, .L93+4
 581 00d4 7B4A     		ldr	r2, .L93+16
 582 00d6 1B78     		ldrb	r3, [r3]	@ zero_extendqisi2
 583 00d8 012B     		cmp	r3, #1
 584 00da A2D1     		bne	.L56
 585 00dc 834B     		ldr	r3, .L93+56
 586 00de 0021     		movs	r1, #0
 587 00e0 DFF838C2 		ldr	ip, .L93+104
 588 00e4 1F68     		ldr	r7, [r3]
 589 00e6 2B78     		ldrb	r3, [r5]	@ zero_extendqisi2
 590 00e8 1180     		strh	r1, [r2]	@ movhi
 591 00ea 591C     		adds	r1, r3, #1
 592 00ec FC5C     		ldrb	r4, [r7, r3]	@ zero_extendqisi2
 593 00ee 0233     		adds	r3, r3, #2
 594 00f0 C9B2     		uxtb	r1, r1
 595 00f2 DBB2     		uxtb	r3, r3
 596 00f4 785C     		ldrb	r0, [r7, r1]	@ zero_extendqisi2
 597 00f6 04EB8401 		add	r1, r4, r4, lsl #2
 598 00fa 2B70     		strb	r3, [r5]
 599 00fc 04EBC104 		add	r4, r4, r1, lsl #3
 600 0100 0CEB840A 		add	r10, ip, r4, lsl #2
 601 0104 7A4C     		ldr	r4, .L93+60
 602 0106 C4F800A0 		str	r10, [r4]
 603 010a 7A4C     		ldr	r4, .L93+64
 604 010c 2070     		strb	r0, [r4]
 605 010e 0028     		cmp	r0, #0
 606 0110 00F00A81 		beq	.L58
 607 0114 3478     		ldrb	r4, [r6]	@ zero_extendqisi2
 608 0116 9C42     		cmp	r4, r3
 609 0118 00F2C480 		bhi	.L87
 610              	.L59:
 611 011c 764B     		ldr	r3, .L93+68
 612 011e 0025     		movs	r5, #0
 613 0120 0AF11B09 		add	r9, r10, #27
 614 0124 0CF11B08 		add	r8, ip, #27
 615 0128 1C68     		ldr	r4, [r3]
 616 012a 4FF0010B 		mov	fp, #1
 617 012e 0492     		str	r2, [sp, #16]
 618 0130 2346     		mov	r3, r4
 619 0132 04F11B07 		add	r7, r4, #27
 620 0136 2C46     		mov	r4, r5
 621 0138 1D46     		mov	r5, r3
 622 013a CDE902C0 		strd	ip, r0, [sp, #8]
 623 013e 18E0     		b	.L64
 624              	.L89:
 625 0140 2B46     		mov	r3, r5
 626 0142 0092     		str	r2, [sp]
 627 0144 2146     		mov	r1, r4
ARM GAS  /tmp/ccaR7BRn.s 			page 13


 628 0146 5246     		mov	r2, r10
 629 0148 6C48     		ldr	r0, .L93+72
 630 014a FFF7FEFF 		bl	set_trans.isra.0
 631 014e 18F83430 		ldrb	r3, [r8, r4, lsl #3]	@ zero_extendqisi2
 632 0152 B0EE450A 		vmov.f32	s0, s10
 633 0156 0022     		movs	r2, #0
 634 0158 B342     		cmp	r3, r6
 635 015a 22D9     		bls	.L62
 636              	.L90:
 637 015c 2146     		mov	r1, r4
 638 015e 0134     		adds	r4, r4, #1
 639 0160 5346     		mov	r3, r10
 640 0162 029A     		ldr	r2, [sp, #8]
 641 0164 6648     		ldr	r0, .L93+76
 642 0166 CDF800B0 		str	fp, [sp]
 643 016a FFF7FEFF 		bl	set_trans.isra.0
 644 016e 122C     		cmp	r4, #18
 645 0170 21D0     		beq	.L88
 646              	.L64:
 647 0172 17F83430 		ldrb	r3, [r7, r4, lsl #3]	@ zero_extendqisi2
 648 0176 B0EE450A 		vmov.f32	s0, s10
 649 017a 19F83460 		ldrb	r6, [r9, r4, lsl #3]	@ zero_extendqisi2
 650 017e 0022     		movs	r2, #0
 651 0180 B342     		cmp	r3, r6
 652 0182 5346     		mov	r3, r10
 653 0184 DCD3     		bcc	.L89
 654 0186 2A46     		mov	r2, r5
 655 0188 2146     		mov	r1, r4
 656 018a 5C48     		ldr	r0, .L93+72
 657 018c CDF800B0 		str	fp, [sp]
 658 0190 FFF7FEFF 		bl	set_trans.isra.0
 659 0194 18F83430 		ldrb	r3, [r8, r4, lsl #3]	@ zero_extendqisi2
 660 0198 B0EE450A 		vmov.f32	s0, s10
 661 019c 0022     		movs	r2, #0
 662 019e B342     		cmp	r3, r6
 663 01a0 DCD8     		bhi	.L90
 664              	.L62:
 665 01a2 2146     		mov	r1, r4
 666 01a4 0134     		adds	r4, r4, #1
 667 01a6 0092     		str	r2, [sp]
 668 01a8 5246     		mov	r2, r10
 669 01aa 029B     		ldr	r3, [sp, #8]
 670 01ac 5448     		ldr	r0, .L93+76
 671 01ae FFF7FEFF 		bl	set_trans.isra.0
 672 01b2 122C     		cmp	r4, #18
 673 01b4 DDD1     		bne	.L64
 674              	.L88:
 675 01b6 0023     		movs	r3, #0
 676 01b8 4349     		ldr	r1, .L93+20
 677 01ba DFF864E1 		ldr	lr, .L93+108
 678 01be 9C46     		mov	ip, r3
 679 01c0 0591     		str	r1, [sp, #20]
 680 01c2 CEF80030 		str	r3, [lr]
 681 01c6 0B70     		strb	r3, [r1]
 682 01c8 DDE90302 		ldrd	r0, r2, [sp, #12]
 683              	.L65:
 684 01cc DFF854B1 		ldr	fp, .L93+112
ARM GAS  /tmp/ccaR7BRn.s 			page 14


 685 01d0 5446     		mov	r4, r10
 686 01d2 DAF80030 		ldr	r3, [r10]
 687 01d6 0026     		movs	r6, #0
 688 01d8 4A4D     		ldr	r5, .L93+80
 689 01da 0BF1480A 		add	r10, fp, #72
 690 01de 3F4F     		ldr	r7, .L93+40
 691 01e0 DFF81C91 		ldr	r9, .L93+76
 692 01e4 DFF81481 		ldr	r8, .L93+72
 693 01e8 0393     		str	r3, [sp, #12]
 694 01ea 0490     		str	r0, [sp, #16]
 695 01ec CDF808C0 		str	ip, [sp, #8]
 696 01f0 CDE906E2 		strd	lr, r2, [sp, #24]
 697              	.L69:
 698 01f4 049B     		ldr	r3, [sp, #16]
 699 01f6 08EB0602 		add	r2, r8, r6
 700 01fa 94ED050A 		vldr.32	s0, [r4, #20]
 701 01fe 0C35     		adds	r5, r5, #12
 702 0200 0193     		str	r3, [sp, #4]
 703 0202 0834     		adds	r4, r4, #8
 704 0204 029B     		ldr	r3, [sp, #8]
 705 0206 0398     		ldr	r0, [sp, #12]
 706 0208 0093     		str	r3, [sp]
 707 020a 09EB0603 		add	r3, r9, r6
 708 020e 5BF8041F 		ldr	r1, [fp, #4]!
 709 0212 0836     		adds	r6, r6, #8
 710 0214 FFF7FEFF 		bl	interpolate
 711 0218 55ED016A 		vldr.32	s13, [r5, #-4]
 712 021c 55ED027A 		vldr.32	s15, [r5, #-8]
 713 0220 DA45     		cmp	r10, fp
 714 0222 15ED037A 		vldr.32	s14, [r5, #-12]
 715 0226 67EEA67A 		vmul.f32	s15, s15, s13
 716 022a 20EE070A 		vmul.f32	s0, s0, s14
 717 022e 77EE807A 		vadd.f32	s15, s15, s0
 718 0232 45ED017A 		vstr.32	s15, [r5, #-4]
 719 0236 E7EC017A 		vstmia.32	r7!, {s15}
 720 023a DBD1     		bne	.L69
 721 023c 324C     		ldr	r4, .L93+84
 722 023e 334E     		ldr	r6, .L93+88
 723 0240 2368     		ldr	r3, [r4]
 724 0242 3168     		ldr	r1, [r6]
 725 0244 324D     		ldr	r5, .L93+92
 726 0246 9942     		cmp	r1, r3
 727 0248 DDF808C0 		ldr	ip, [sp, #8]
 728 024c 95ED007A 		vldr.32	s14, [r5]
 729 0250 DDE906E2 		ldrd	lr, r2, [sp, #24]
 730 0254 40F08E80 		bne	.L91
 731 0258 2E4F     		ldr	r7, .L93+96
 732 025a 3B68     		ldr	r3, [r7]
 733 025c 0833     		adds	r3, r3, #8
 734              	.L73:
 735 025e 53ED027A 		vldr.32	s15, [r3, #-8]
 736 0262 1846     		mov	r0, r3
 737 0264 0833     		adds	r3, r3, #8
 738 0266 F0EE476A 		vmov.f32	s13, s14
 739 026a FCEEE77A 		vcvt.u32.f32	s15, s15
 740 026e 13ED037A 		vldr.32	s14, [r3, #-12]
 741 0272 17EE901A 		vmov	r1, s15	@ int
ARM GAS  /tmp/ccaR7BRn.s 			page 15


 742 0276 0029     		cmp	r1, #0
 743 0278 F1D0     		beq	.L73
 744 027a 274B     		ldr	r3, .L93+100
 745 027c 3860     		str	r0, [r7]
 746 027e 0120     		movs	r0, #1
 747 0280 C6ED007A 		vstr.32	s15, [r6]	@ int
 748 0284 85ED007A 		vstr.32	s14, [r5]
 749 0288 C3ED006A 		vstr.32	s13, [r3]
 750              	.L71:
 751 028c 0CF10103 		add	r3, ip, #1
 752 0290 0949     		ldr	r1, .L93+4
 753 0292 2060     		str	r0, [r4]
 754 0294 CEF80030 		str	r3, [lr]
 755 0298 0C4B     		ldr	r3, .L93+24
 756 029a C3ED006A 		vstr.32	s13, [r3]
 757 029e 0023     		movs	r3, #0
 758 02a0 0B70     		strb	r3, [r1]
 759 02a2 C7E6     		b	.L67
 760              	.L87:
 761 02a4 FB5C     		ldrb	r3, [r7, r3]	@ zero_extendqisi2
 762 02a6 03EB8304 		add	r4, r3, r3, lsl #2
 763 02aa 03EBC403 		add	r3, r3, r4, lsl #3
 764 02ae 0CEB830C 		add	ip, ip, r3, lsl #2
 765 02b2 33E7     		b	.L59
 766              	.L94:
 767              		.align	2
 768              	.L93:
 769 02b4 00000000 		.word	rsynthi
 770 02b8 00000000 		.word	nextelement
 771 02bc 00000000 		.word	i
 772 02c0 00000000 		.word	nelm
 773 02c4 00000000 		.word	samplenumber.34
 774 02c8 00000000 		.word	newframe.27
 775 02cc 00000000 		.word	F0Hz.25
 776 02d0 00000000 		.word	_selx
 777 02d4 00808044 		.word	1149272064
 778 02d8 00000000 		.word	logspeed
 779 02dc 00000000 		.word	ep.26
 780 02e0 00000343 		.word	1124270080
 781 02e4 00000000 		.word	logpitch
 782 02e8 00000000 		.word	_sely
 783 02ec 00000000 		.word	elm
 784 02f0 00000000 		.word	ce.33
 785 02f4 00000000 		.word	dur.32
 786 02f8 00000000 		.word	le.31
 787 02fc 00000000 		.word	start.30
 788 0300 00000000 		.word	end.29
 789 0304 00000000 		.word	flt
 790 0308 00000000 		.word	tf0
 791 030c 00000000 		.word	ntf0
 792 0310 00000000 		.word	f0e
 793 0314 00000000 		.word	f0
 794 0318 00000000 		.word	f0s
 795 031c 00000000 		.word	Elementz
 796 0320 00000000 		.word	t.28
 797 0324 FCFFFFFF 		.word	Ep_namez-4
 798              	.L58:
ARM GAS  /tmp/ccaR7BRn.s 			page 16


 799 0328 0292     		str	r2, [sp, #8]
 800 032a FFF7FEFF 		bl	rsynth_get_sample
 801 032e 204B     		ldr	r3, .L95
 802 0330 029A     		ldr	r2, [sp, #8]
 803 0332 0593     		str	r3, [sp, #20]
 804 0334 1B78     		ldrb	r3, [r3]	@ zero_extendqisi2
 805 0336 012B     		cmp	r3, #1
 806 0338 7FF479AE 		bne	.L92
 807              	.L66:
 808 033c 1D49     		ldr	r1, .L95+4
 809 033e 0024     		movs	r4, #0
 810 0340 DFF888E0 		ldr	lr, .L95+28
 811 0344 0878     		ldrb	r0, [r1]	@ zero_extendqisi2
 812 0346 DEF800C0 		ldr	ip, [lr]
 813 034a 1B49     		ldr	r1, .L95+8
 814 034c 6045     		cmp	r0, ip
 815 034e D1F800A0 		ldr	r10, [r1]
 816 0352 0599     		ldr	r1, [sp, #20]
 817 0354 0C70     		strb	r4, [r1]
 818 0356 3FF639AF 		bhi	.L65
 819 035a 0292     		str	r2, [sp, #8]
 820 035c 174A     		ldr	r2, .L95+12
 821 035e 1370     		strb	r3, [r2]
 822 0360 174B     		ldr	r3, .L95+16
 823 0362 C3F800A0 		str	r10, [r3]
 824 0366 FFF7FEFF 		bl	rsynth_get_sample
 825 036a 164B     		ldr	r3, .L95+20
 826 036c 029A     		ldr	r2, [sp, #8]
 827 036e D3ED006A 		vldr.32	s13, [r3]
 828 0372 5FE6     		b	.L67
 829              	.L91:
 830 0374 1448     		ldr	r0, .L95+24
 831 0376 002B     		cmp	r3, #0
 832 0378 D0ED006A 		vldr.32	s13, [r0]
 833 037c 03F10100 		add	r0, r3, #1
 834 0380 84DD     		ble	.L71
 835 0382 9942     		cmp	r1, r3
 836 0384 10DD     		ble	.L77
 837 0386 07EE903A 		vmov	s15, r3	@ int
 838 038a 06EE101A 		vmov	s12, r1	@ int
 839 038e 37EE667A 		vsub.f32	s14, s14, s13
 840 0392 F8EEE77A 		vcvt.f32.s32	s15, s15
 841 0396 B8EEC66A 		vcvt.f32.s32	s12, s12
 842 039a C7EE865A 		vdiv.f32	s11, s15, s12
 843 039e 65EE877A 		vmul.f32	s15, s11, s14
 844 03a2 76EEA76A 		vadd.f32	s13, s13, s15
 845 03a6 71E7     		b	.L71
 846              	.L77:
 847 03a8 F0EE476A 		vmov.f32	s13, s14
 848 03ac 6EE7     		b	.L71
 849              	.L96:
 850 03ae 00BF     		.align	2
 851              	.L95:
 852 03b0 00000000 		.word	newframe.27
 853 03b4 00000000 		.word	dur.32
 854 03b8 00000000 		.word	ce.33
 855 03bc 00000000 		.word	nextelement
ARM GAS  /tmp/ccaR7BRn.s 			page 17


 856 03c0 00000000 		.word	le.31
 857 03c4 00000000 		.word	F0Hz.25
 858 03c8 00000000 		.word	f0s
 859 03cc 00000000 		.word	t.28
 860              		.size	rsynth_get_sample, .-rsynth_get_sample
 861              		.section	.text.rsynth_get_sample_sing,"ax",%progbits
 862              		.align	1
 863              		.p2align 2,,3
 864              		.global	rsynth_get_sample_sing
 865              		.syntax unified
 866              		.thumb
 867              		.thumb_func
 868              		.type	rsynth_get_sample_sing, %function
 869              	rsynth_get_sample_sing:
 870              		@ args = 0, pretend = 0, frame = 24
 871              		@ frame_needed = 0, uses_anonymous_args = 0
 872 0000 A14B     		ldr	r3, .L127
 873 0002 2DE9F04F 		push	{r4, r5, r6, r7, r8, r9, r10, fp, lr}
 874 0006 93ED055A 		vldr.32	s10, [r3, #20]
 875 000a 89B0     		sub	sp, sp, #36
 876 000c 9F4B     		ldr	r3, .L127+4
 877 000e A04D     		ldr	r5, .L127+8
 878 0010 A04C     		ldr	r4, .L127+12
 879 0012 1978     		ldrb	r1, [r3]	@ zero_extendqisi2
 880 0014 2A78     		ldrb	r2, [r5]	@ zero_extendqisi2
 881 0016 2378     		ldrb	r3, [r4]	@ zero_extendqisi2
 882 0018 9A42     		cmp	r2, r3
 883 001a 5AD9     		bls	.L98
 884 001c 0129     		cmp	r1, #1
 885 001e 56D0     		beq	.L99
 886 0020 9D4A     		ldr	r2, .L127+16
 887              	.L100:
 888 0022 9E4B     		ldr	r3, .L127+20
 889 0024 0593     		str	r3, [sp, #20]
 890 0026 1B78     		ldrb	r3, [r3]	@ zero_extendqisi2
 891 0028 012B     		cmp	r3, #1
 892 002a 00F01981 		beq	.L122
 893              	.L110:
 894 002e 9C4B     		ldr	r3, .L127+24
 895 0030 9FED9C7A 		vldr.32	s14, .L127+28
 896 0034 D3ED007A 		vldr.32	s15, [r3]
 897 0038 40F2FF33 		movw	r3, #1023
 898 003c 0292     		str	r2, [sp, #8]
 899 003e 67EE877A 		vmul.f32	s15, s15, s14
 900 0042 914C     		ldr	r4, .L127
 901 0044 9848     		ldr	r0, .L127+32
 902 0046 E168     		ldr	r1, [r4, #12]
 903 0048 FDEEE77A 		vcvt.s32.f32	s15, s15
 904 004c 91ED010A 		vldr.32	s0, [r1, #4]
 905 0050 9649     		ldr	r1, .L127+36
 906 0052 17EE902A 		vmov	r2, s15	@ int
 907 0056 9A42     		cmp	r2, r3
 908 0058 D4BF     		ite	le
 909 005a 9B1A     		suble	r3, r3, r2
 910 005c DB1A     		subgt	r3, r3, r3
 911 005e 00EB8303 		add	r3, r0, r3, lsl #2
 912 0062 2046     		mov	r0, r4
ARM GAS  /tmp/ccaR7BRn.s 			page 18


 913 0064 D3ED007A 		vldr.32	s15, [r3]
 914 0068 20EE270A 		vmul.f32	s0, s0, s15
 915 006c FFF7FEFF 		bl	rsynth_frame_single
 916 0070 029A     		ldr	r2, [sp, #8]
 917 0072 9FED8F6A 		vldr.32	s12, .L127+40
 918 0076 1388     		ldrh	r3, [r2]
 919 0078 8E49     		ldr	r1, .L127+44
 920 007a 0133     		adds	r3, r3, #1
 921 007c 94ED027A 		vldr.32	s14, [r4, #8]	@ int
 922 0080 1BB2     		sxth	r3, r3
 923 0082 B8EEC77A 		vcvt.f32.s32	s14, s14
 924 0086 07EE903A 		vmov	s15, r3	@ int
 925 008a 1380     		strh	r3, [r2]	@ movhi
 926 008c 8A4B     		ldr	r3, .L127+48
 927 008e F8EEE76A 		vcvt.f32.s32	s13, s15
 928 0092 D3ED007A 		vldr.32	s15, [r3]
 929 0096 67EE867A 		vmul.f32	s15, s15, s12
 930 009a FDEEE77A 		vcvt.s32.f32	s15, s15
 931 009e 17EE903A 		vmov	r3, s15	@ int
 932 00a2 7F2B     		cmp	r3, #127
 933 00a4 A8BF     		it	ge
 934 00a6 7F23     		movge	r3, #127
 935 00a8 01EB8303 		add	r3, r1, r3, lsl #2
 936 00ac D3ED007A 		vldr.32	s15, [r3]
 937 00b0 67EE277A 		vmul.f32	s15, s14, s15
 938 00b4 F4EEE76A 		vcmpe.f32	s13, s15
 939 00b8 F1EE10FA 		vmrs	APSR_nzcv, FPSCR
 940 00bc 04DB     		blt	.L113
 941 00be 0121     		movs	r1, #1
 942 00c0 0023     		movs	r3, #0
 943 00c2 059C     		ldr	r4, [sp, #20]
 944 00c4 1380     		strh	r3, [r2]	@ movhi
 945 00c6 2170     		strb	r1, [r4]
 946              	.L113:
 947 00c8 09B0     		add	sp, sp, #36
 948              		@ sp needed
 949 00ca BDE8F08F 		pop	{r4, r5, r6, r7, r8, r9, r10, fp, pc}
 950              	.L99:
 951 00ce FFF7FEFF 		bl	rsynth_newsay
 952              	.L98:
 953 00d2 6E4B     		ldr	r3, .L127+4
 954 00d4 704A     		ldr	r2, .L127+16
 955 00d6 1B78     		ldrb	r3, [r3]	@ zero_extendqisi2
 956 00d8 012B     		cmp	r3, #1
 957 00da A2D1     		bne	.L100
 958 00dc 774B     		ldr	r3, .L127+52
 959 00de 0021     		movs	r1, #0
 960 00e0 2878     		ldrb	r0, [r5]	@ zero_extendqisi2
 961 00e2 1E68     		ldr	r6, [r3]
 962 00e4 471C     		adds	r7, r0, #1
 963 00e6 1180     		strh	r1, [r2]	@ movhi
 964 00e8 315C     		ldrb	r1, [r6, r0]	@ zero_extendqisi2
 965 00ea 0230     		adds	r0, r0, #2
 966 00ec FFB2     		uxtb	r7, r7
 967 00ee 744B     		ldr	r3, .L127+56
 968 00f0 C0B2     		uxtb	r0, r0
 969 00f2 16F807C0 		ldrb	ip, [r6, r7]	@ zero_extendqisi2
ARM GAS  /tmp/ccaR7BRn.s 			page 19


 970 00f6 2870     		strb	r0, [r5]
 971 00f8 01EB8105 		add	r5, r1, r1, lsl #2
 972 00fc 714F     		ldr	r7, .L127+60
 973 00fe 01EBC501 		add	r1, r1, r5, lsl #3
 974 0102 714D     		ldr	r5, .L127+64
 975 0104 87F800C0 		strb	ip, [r7]
 976 0108 03EB810B 		add	fp, r3, r1, lsl #2
 977 010c C5F800B0 		str	fp, [r5]
 978 0110 BCF1000F 		cmp	ip, #0
 979 0114 00F09A80 		beq	.L102
 980 0118 2478     		ldrb	r4, [r4]	@ zero_extendqisi2
 981 011a 8442     		cmp	r4, r0
 982 011c 38D8     		bhi	.L123
 983 011e 9A46     		mov	r10, r3
 984              	.L103:
 985 0120 6A4F     		ldr	r7, .L127+68
 986 0122 0024     		movs	r4, #0
 987 0124 0495     		str	r5, [sp, #16]
 988 0126 0BF11B09 		add	r9, fp, #27
 989 012a 0AF11B08 		add	r8, r10, #27
 990 012e A7F11B06 		sub	r6, r7, #27
 991 0132 2546     		mov	r5, r4
 992 0134 CDE902C2 		strd	ip, r2, [sp, #8]
 993 0138 17E0     		b	.L108
 994              	.L125:
 995 013a 0090     		str	r0, [sp]
 996 013c 5A46     		mov	r2, fp
 997 013e 2946     		mov	r1, r5
 998 0140 6348     		ldr	r0, .L127+72
 999 0142 FFF7FEFF 		bl	set_trans.isra.0
 1000              	.L105:
 1001 0146 18F83530 		ldrb	r3, [r8, r5, lsl #3]	@ zero_extendqisi2
 1002 014a B0EE450A 		vmov.f32	s0, s10
 1003 014e 0120     		movs	r0, #1
 1004 0150 0022     		movs	r2, #0
 1005 0152 A342     		cmp	r3, r4
 1006 0154 24D9     		bls	.L106
 1007 0156 2946     		mov	r1, r5
 1008 0158 0135     		adds	r5, r5, #1
 1009 015a 0090     		str	r0, [sp]
 1010 015c 5B46     		mov	r3, fp
 1011 015e 5246     		mov	r2, r10
 1012 0160 5C48     		ldr	r0, .L127+76
 1013 0162 FFF7FEFF 		bl	set_trans.isra.0
 1014 0166 122D     		cmp	r5, #18
 1015 0168 24D0     		beq	.L124
 1016              	.L108:
 1017 016a 17F83530 		ldrb	r3, [r7, r5, lsl #3]	@ zero_extendqisi2
 1018 016e B0EE450A 		vmov.f32	s0, s10
 1019 0172 19F83540 		ldrb	r4, [r9, r5, lsl #3]	@ zero_extendqisi2
 1020 0176 0020     		movs	r0, #0
 1021 0178 0122     		movs	r2, #1
 1022 017a A342     		cmp	r3, r4
 1023 017c 3346     		mov	r3, r6
 1024 017e DCD3     		bcc	.L125
 1025 0180 0092     		str	r2, [sp]
 1026 0182 5B46     		mov	r3, fp
ARM GAS  /tmp/ccaR7BRn.s 			page 20


 1027 0184 3246     		mov	r2, r6
 1028 0186 2946     		mov	r1, r5
 1029 0188 5148     		ldr	r0, .L127+72
 1030 018a FFF7FEFF 		bl	set_trans.isra.0
 1031 018e DAE7     		b	.L105
 1032              	.L123:
 1033 0190 305C     		ldrb	r0, [r6, r0]	@ zero_extendqisi2
 1034 0192 00EB8004 		add	r4, r0, r0, lsl #2
 1035 0196 00EBC400 		add	r0, r0, r4, lsl #3
 1036 019a 03EB800A 		add	r10, r3, r0, lsl #2
 1037 019e BFE7     		b	.L103
 1038              	.L106:
 1039 01a0 2946     		mov	r1, r5
 1040 01a2 0135     		adds	r5, r5, #1
 1041 01a4 0092     		str	r2, [sp]
 1042 01a6 5346     		mov	r3, r10
 1043 01a8 5A46     		mov	r2, fp
 1044 01aa 4A48     		ldr	r0, .L127+76
 1045 01ac FFF7FEFF 		bl	set_trans.isra.0
 1046 01b0 122D     		cmp	r5, #18
 1047 01b2 DAD1     		bne	.L108
 1048              	.L124:
 1049 01b4 394B     		ldr	r3, .L127+20
 1050 01b6 0021     		movs	r1, #0
 1051 01b8 049D     		ldr	r5, [sp, #16]
 1052 01ba 4748     		ldr	r0, .L127+80
 1053 01bc 0593     		str	r3, [sp, #20]
 1054 01be 1970     		strb	r1, [r3]
 1055 01c0 DDE902C2 		ldrd	ip, r2, [sp, #8]
 1056              	.L109:
 1057 01c4 2E68     		ldr	r6, [r5]
 1058 01c6 0025     		movs	r5, #0
 1059 01c8 DFF818B1 		ldr	fp, .L127+92
 1060 01cc 3368     		ldr	r3, [r6]
 1061 01ce 434C     		ldr	r4, .L127+84
 1062 01d0 0BF1480A 		add	r10, fp, #72
 1063 01d4 354F     		ldr	r7, .L127+36
 1064 01d6 DFF8FC90 		ldr	r9, .L127+76
 1065 01da DFF8F480 		ldr	r8, .L127+72
 1066 01de 0393     		str	r3, [sp, #12]
 1067 01e0 CDF810C0 		str	ip, [sp, #16]
 1068 01e4 0291     		str	r1, [sp, #8]
 1069 01e6 CDE90620 		strd	r2, r0, [sp, #24]
 1070              	.L112:
 1071 01ea 049B     		ldr	r3, [sp, #16]
 1072 01ec 08EB0502 		add	r2, r8, r5
 1073 01f0 96ED050A 		vldr.32	s0, [r6, #20]
 1074 01f4 0C34     		adds	r4, r4, #12
 1075 01f6 0193     		str	r3, [sp, #4]
 1076 01f8 0836     		adds	r6, r6, #8
 1077 01fa 029B     		ldr	r3, [sp, #8]
 1078 01fc 0398     		ldr	r0, [sp, #12]
 1079 01fe 0093     		str	r3, [sp]
 1080 0200 09EB0503 		add	r3, r9, r5
 1081 0204 5BF8041F 		ldr	r1, [fp, #4]!
 1082 0208 0835     		adds	r5, r5, #8
 1083 020a FFF7FEFF 		bl	interpolate
ARM GAS  /tmp/ccaR7BRn.s 			page 21


 1084 020e 54ED016A 		vldr.32	s13, [r4, #-4]
 1085 0212 54ED027A 		vldr.32	s15, [r4, #-8]
 1086 0216 DA45     		cmp	r10, fp
 1087 0218 14ED037A 		vldr.32	s14, [r4, #-12]
 1088 021c 67EEA67A 		vmul.f32	s15, s15, s13
 1089 0220 20EE070A 		vmul.f32	s0, s0, s14
 1090 0224 77EE807A 		vadd.f32	s15, s15, s0
 1091 0228 44ED017A 		vstr.32	s15, [r4, #-4]
 1092 022c E7EC017A 		vstmia.32	r7!, {s15}
 1093 0230 DBD1     		bne	.L112
 1094 0232 0299     		ldr	r1, [sp, #8]
 1095 0234 0023     		movs	r3, #0
 1096 0236 DDE90620 		ldrd	r2, r0, [sp, #24]
 1097 023a 0131     		adds	r1, r1, #1
 1098 023c 0160     		str	r1, [r0]
 1099 023e 2849     		ldr	r1, .L127+88
 1100 0240 1248     		ldr	r0, .L127+4
 1101 0242 0370     		strb	r3, [r0]
 1102 0244 0B68     		ldr	r3, [r1]
 1103 0246 0133     		adds	r3, r3, #1
 1104 0248 0B60     		str	r3, [r1]
 1105 024a F0E6     		b	.L110
 1106              	.L102:
 1107 024c 0292     		str	r2, [sp, #8]
 1108 024e FFF7FEFF 		bl	rsynth_get_sample_sing
 1109 0252 124B     		ldr	r3, .L127+20
 1110 0254 029A     		ldr	r2, [sp, #8]
 1111 0256 0593     		str	r3, [sp, #20]
 1112 0258 1B78     		ldrb	r3, [r3]	@ zero_extendqisi2
 1113 025a 012B     		cmp	r3, #1
 1114 025c 7FF4E7AE 		bne	.L110
 1115              	.L122:
 1116 0260 1849     		ldr	r1, .L127+60
 1117 0262 1D48     		ldr	r0, .L127+80
 1118 0264 91F800C0 		ldrb	ip, [r1]	@ zero_extendqisi2
 1119 0268 0021     		movs	r1, #0
 1120 026a 0C4C     		ldr	r4, .L127+20
 1121 026c 2170     		strb	r1, [r4]
 1122 026e 0168     		ldr	r1, [r0]
 1123 0270 8C45     		cmp	ip, r1
 1124 0272 06D8     		bhi	.L126
 1125 0274 0292     		str	r2, [sp, #8]
 1126 0276 054A     		ldr	r2, .L127+4
 1127 0278 1370     		strb	r3, [r2]
 1128 027a FFF7FEFF 		bl	rsynth_get_sample_sing
 1129 027e 029A     		ldr	r2, [sp, #8]
 1130 0280 D5E6     		b	.L110
 1131              	.L126:
 1132 0282 114D     		ldr	r5, .L127+64
 1133 0284 9EE7     		b	.L109
 1134              	.L128:
 1135 0286 00BF     		.align	2
 1136              	.L127:
 1137 0288 00000000 		.word	rsynthi
 1138 028c 00000000 		.word	nextelement
 1139 0290 00000000 		.word	i
 1140 0294 00000000 		.word	nelm
ARM GAS  /tmp/ccaR7BRn.s 			page 22


 1141 0298 00000000 		.word	samplenumber.24
 1142 029c 00000000 		.word	newframe.18
 1143 02a0 00000000 		.word	_selx
 1144 02a4 00808044 		.word	1149272064
 1145 02a8 00000000 		.word	logspeed
 1146 02ac 00000000 		.word	ep.17
 1147 02b0 00000343 		.word	1124270080
 1148 02b4 00000000 		.word	logpitch
 1149 02b8 00000000 		.word	_sely
 1150 02bc 00000000 		.word	elm
 1151 02c0 00000000 		.word	Elementz
 1152 02c4 00000000 		.word	dur.22
 1153 02c8 00000000 		.word	ce.23
 1154 02cc 1B000000 		.word	Elementz+27
 1155 02d0 00000000 		.word	start.21
 1156 02d4 00000000 		.word	end.20
 1157 02d8 00000000 		.word	t.19
 1158 02dc 00000000 		.word	flt
 1159 02e0 00000000 		.word	tf0
 1160 02e4 FCFFFFFF 		.word	Ep_namez-4
 1161              		.size	rsynth_get_sample_sing, .-rsynth_get_sample_sing
 1162              		.section	.text.rsynth_get_sample_single,"ax",%progbits
 1163              		.align	1
 1164              		.p2align 2,,3
 1165              		.global	rsynth_get_sample_single
 1166              		.syntax unified
 1167              		.thumb
 1168              		.thumb_func
 1169              		.type	rsynth_get_sample_single, %function
 1170              	rsynth_get_sample_single:
 1171              		@ args = 0, pretend = 0, frame = 24
 1172              		@ frame_needed = 0, uses_anonymous_args = 0
 1173 0000 2DE9F04F 		push	{r4, r5, r6, r7, r8, r9, r10, fp, lr}
 1174 0004 8E4C     		ldr	r4, .L157
 1175 0006 89B0     		sub	sp, sp, #36
 1176 0008 8E4A     		ldr	r2, .L157+4
 1177 000a 2378     		ldrb	r3, [r4]	@ zero_extendqisi2
 1178 000c 92ED055A 		vldr.32	s10, [r2, #20]
 1179 0010 012B     		cmp	r3, #1
 1180 0012 8D4A     		ldr	r2, .L157+8
 1181 0014 1278     		ldrb	r2, [r2]	@ zero_extendqisi2
 1182 0016 3CD9     		bls	.L130
 1183 0018 012A     		cmp	r2, #1
 1184 001a 37D0     		beq	.L131
 1185 001c 8B4A     		ldr	r2, .L157+12
 1186              	.L132:
 1187 001e 8C4B     		ldr	r3, .L157+16
 1188 0020 0593     		str	r3, [sp, #20]
 1189 0022 1B78     		ldrb	r3, [r3]	@ zero_extendqisi2
 1190 0024 012B     		cmp	r3, #1
 1191 0026 00F0F780 		beq	.L152
 1192              	.L142:
 1193 002a 8A4B     		ldr	r3, .L157+20
 1194 002c 9FED8A7A 		vldr.32	s14, .L157+24
 1195 0030 D3ED007A 		vldr.32	s15, [r3]
 1196 0034 40F2FF33 		movw	r3, #1023
 1197 0038 0292     		str	r2, [sp, #8]
ARM GAS  /tmp/ccaR7BRn.s 			page 23


 1198 003a 67EE877A 		vmul.f32	s15, s15, s14
 1199 003e 814C     		ldr	r4, .L157+4
 1200 0040 8648     		ldr	r0, .L157+28
 1201 0042 E168     		ldr	r1, [r4, #12]
 1202 0044 FDEEE77A 		vcvt.s32.f32	s15, s15
 1203 0048 91ED010A 		vldr.32	s0, [r1, #4]
 1204 004c 8449     		ldr	r1, .L157+32
 1205 004e 17EE902A 		vmov	r2, s15	@ int
 1206 0052 9A42     		cmp	r2, r3
 1207 0054 D4BF     		ite	le
 1208 0056 9B1A     		suble	r3, r3, r2
 1209 0058 DB1A     		subgt	r3, r3, r3
 1210 005a 00EB8303 		add	r3, r0, r3, lsl #2
 1211 005e 2046     		mov	r0, r4
 1212 0060 D3ED007A 		vldr.32	s15, [r3]
 1213 0064 20EE270A 		vmul.f32	s0, s0, s15
 1214 0068 FFF7FEFF 		bl	rsynth_frame_single
 1215 006c 029A     		ldr	r2, [sp, #8]
 1216 006e A168     		ldr	r1, [r4, #8]
 1217 0070 1388     		ldrh	r3, [r2]
 1218 0072 0133     		adds	r3, r3, #1
 1219 0074 1BB2     		sxth	r3, r3
 1220 0076 8B42     		cmp	r3, r1
 1221 0078 1380     		strh	r3, [r2]	@ movhi
 1222 007a 04DB     		blt	.L145
 1223 007c 0121     		movs	r1, #1
 1224 007e 0023     		movs	r3, #0
 1225 0080 059C     		ldr	r4, [sp, #20]
 1226 0082 1380     		strh	r3, [r2]	@ movhi
 1227 0084 2170     		strb	r1, [r4]
 1228              	.L145:
 1229 0086 09B0     		add	sp, sp, #36
 1230              		@ sp needed
 1231 0088 BDE8F08F 		pop	{r4, r5, r6, r7, r8, r9, r10, fp, pc}
 1232              	.L131:
 1233 008c 0020     		movs	r0, #0
 1234 008e FFF7FEFF 		bl	rsynth_newsay_single
 1235              	.L130:
 1236 0092 6D4B     		ldr	r3, .L157+8
 1237 0094 6D4A     		ldr	r2, .L157+12
 1238 0096 1B78     		ldrb	r3, [r3]	@ zero_extendqisi2
 1239 0098 012B     		cmp	r3, #1
 1240 009a C0D1     		bne	.L132
 1241 009c 2078     		ldrb	r0, [r4]	@ zero_extendqisi2
 1242 009e 0023     		movs	r3, #0
 1243 00a0 704E     		ldr	r6, .L157+36
 1244 00a2 411C     		adds	r1, r0, #1
 1245 00a4 1380     		strh	r3, [r2]	@ movhi
 1246 00a6 704B     		ldr	r3, .L157+40
 1247 00a8 C9B2     		uxtb	r1, r1
 1248 00aa 704D     		ldr	r5, .L157+44
 1249 00ac 16F801C0 		ldrb	ip, [r6, r1]	@ zero_extendqisi2
 1250 00b0 315C     		ldrb	r1, [r6, r0]	@ zero_extendqisi2
 1251 00b2 0230     		adds	r0, r0, #2
 1252 00b4 C0B2     		uxtb	r0, r0
 1253 00b6 2070     		strb	r0, [r4]
 1254 00b8 01EB8104 		add	r4, r1, r1, lsl #2
ARM GAS  /tmp/ccaR7BRn.s 			page 24


 1255 00bc 01EBC401 		add	r1, r1, r4, lsl #3
 1256 00c0 6B4C     		ldr	r4, .L157+48
 1257 00c2 03EB810B 		add	fp, r3, r1, lsl #2
 1258 00c6 84F800C0 		strb	ip, [r4]
 1259 00ca C5F800B0 		str	fp, [r5]
 1260 00ce BCF1000F 		cmp	ip, #0
 1261 00d2 00F09780 		beq	.L134
 1262 00d6 674C     		ldr	r4, .L157+52
 1263 00d8 2478     		ldrb	r4, [r4]	@ zero_extendqisi2
 1264 00da 8442     		cmp	r4, r0
 1265 00dc 38D8     		bhi	.L153
 1266 00de 9A46     		mov	r10, r3
 1267              	.L135:
 1268 00e0 654F     		ldr	r7, .L157+56
 1269 00e2 0024     		movs	r4, #0
 1270 00e4 0495     		str	r5, [sp, #16]
 1271 00e6 0BF11B09 		add	r9, fp, #27
 1272 00ea 0AF11B08 		add	r8, r10, #27
 1273 00ee A7F11B06 		sub	r6, r7, #27
 1274 00f2 2546     		mov	r5, r4
 1275 00f4 CDE902C2 		strd	ip, r2, [sp, #8]
 1276 00f8 17E0     		b	.L140
 1277              	.L155:
 1278 00fa 0090     		str	r0, [sp]
 1279 00fc 5A46     		mov	r2, fp
 1280 00fe 2946     		mov	r1, r5
 1281 0100 5E48     		ldr	r0, .L157+60
 1282 0102 FFF7FEFF 		bl	set_trans.isra.0
 1283              	.L137:
 1284 0106 18F83530 		ldrb	r3, [r8, r5, lsl #3]	@ zero_extendqisi2
 1285 010a B0EE450A 		vmov.f32	s0, s10
 1286 010e 0120     		movs	r0, #1
 1287 0110 0022     		movs	r2, #0
 1288 0112 A342     		cmp	r3, r4
 1289 0114 24D9     		bls	.L138
 1290 0116 2946     		mov	r1, r5
 1291 0118 0135     		adds	r5, r5, #1
 1292 011a 0090     		str	r0, [sp]
 1293 011c 5B46     		mov	r3, fp
 1294 011e 5246     		mov	r2, r10
 1295 0120 5748     		ldr	r0, .L157+64
 1296 0122 FFF7FEFF 		bl	set_trans.isra.0
 1297 0126 122D     		cmp	r5, #18
 1298 0128 24D0     		beq	.L154
 1299              	.L140:
 1300 012a 17F83530 		ldrb	r3, [r7, r5, lsl #3]	@ zero_extendqisi2
 1301 012e B0EE450A 		vmov.f32	s0, s10
 1302 0132 19F83540 		ldrb	r4, [r9, r5, lsl #3]	@ zero_extendqisi2
 1303 0136 0020     		movs	r0, #0
 1304 0138 0122     		movs	r2, #1
 1305 013a A342     		cmp	r3, r4
 1306 013c 3346     		mov	r3, r6
 1307 013e DCD3     		bcc	.L155
 1308 0140 0092     		str	r2, [sp]
 1309 0142 5B46     		mov	r3, fp
 1310 0144 3246     		mov	r2, r6
 1311 0146 2946     		mov	r1, r5
ARM GAS  /tmp/ccaR7BRn.s 			page 25


 1312 0148 4C48     		ldr	r0, .L157+60
 1313 014a FFF7FEFF 		bl	set_trans.isra.0
 1314 014e DAE7     		b	.L137
 1315              	.L153:
 1316 0150 305C     		ldrb	r0, [r6, r0]	@ zero_extendqisi2
 1317 0152 00EB8004 		add	r4, r0, r0, lsl #2
 1318 0156 00EBC400 		add	r0, r0, r4, lsl #3
 1319 015a 03EB800A 		add	r10, r3, r0, lsl #2
 1320 015e BFE7     		b	.L135
 1321              	.L138:
 1322 0160 2946     		mov	r1, r5
 1323 0162 0135     		adds	r5, r5, #1
 1324 0164 0092     		str	r2, [sp]
 1325 0166 5346     		mov	r3, r10
 1326 0168 5A46     		mov	r2, fp
 1327 016a 4548     		ldr	r0, .L157+64
 1328 016c FFF7FEFF 		bl	set_trans.isra.0
 1329 0170 122D     		cmp	r5, #18
 1330 0172 DAD1     		bne	.L140
 1331              	.L154:
 1332 0174 364B     		ldr	r3, .L157+16
 1333 0176 0021     		movs	r1, #0
 1334 0178 049D     		ldr	r5, [sp, #16]
 1335 017a 4248     		ldr	r0, .L157+68
 1336 017c 0593     		str	r3, [sp, #20]
 1337 017e 1970     		strb	r1, [r3]
 1338 0180 DDE902C2 		ldrd	ip, r2, [sp, #8]
 1339              	.L141:
 1340 0184 2E68     		ldr	r6, [r5]
 1341 0186 0025     		movs	r5, #0
 1342 0188 DFF800B1 		ldr	fp, .L157+76
 1343 018c 3368     		ldr	r3, [r6]
 1344 018e 3E4C     		ldr	r4, .L157+72
 1345 0190 0BF1480A 		add	r10, fp, #72
 1346 0194 324F     		ldr	r7, .L157+32
 1347 0196 DFF8E890 		ldr	r9, .L157+64
 1348 019a DFF8E080 		ldr	r8, .L157+60
 1349 019e 0393     		str	r3, [sp, #12]
 1350 01a0 CDF810C0 		str	ip, [sp, #16]
 1351 01a4 0291     		str	r1, [sp, #8]
 1352 01a6 CDE90620 		strd	r2, r0, [sp, #24]
 1353              	.L144:
 1354 01aa 049B     		ldr	r3, [sp, #16]
 1355 01ac 08EB0502 		add	r2, r8, r5
 1356 01b0 96ED050A 		vldr.32	s0, [r6, #20]
 1357 01b4 0C34     		adds	r4, r4, #12
 1358 01b6 0193     		str	r3, [sp, #4]
 1359 01b8 0836     		adds	r6, r6, #8
 1360 01ba 029B     		ldr	r3, [sp, #8]
 1361 01bc 0398     		ldr	r0, [sp, #12]
 1362 01be 0093     		str	r3, [sp]
 1363 01c0 09EB0503 		add	r3, r9, r5
 1364 01c4 5BF8041F 		ldr	r1, [fp, #4]!
 1365 01c8 0835     		adds	r5, r5, #8
 1366 01ca FFF7FEFF 		bl	interpolate
 1367 01ce 54ED016A 		vldr.32	s13, [r4, #-4]
 1368 01d2 54ED027A 		vldr.32	s15, [r4, #-8]
ARM GAS  /tmp/ccaR7BRn.s 			page 26


 1369 01d6 DA45     		cmp	r10, fp
 1370 01d8 14ED037A 		vldr.32	s14, [r4, #-12]
 1371 01dc 67EEA67A 		vmul.f32	s15, s15, s13
 1372 01e0 20EE070A 		vmul.f32	s0, s0, s14
 1373 01e4 77EE807A 		vadd.f32	s15, s15, s0
 1374 01e8 44ED017A 		vstr.32	s15, [r4, #-4]
 1375 01ec E7EC017A 		vstmia.32	r7!, {s15}
 1376 01f0 DBD1     		bne	.L144
 1377 01f2 0299     		ldr	r1, [sp, #8]
 1378 01f4 0023     		movs	r3, #0
 1379 01f6 0131     		adds	r1, r1, #1
 1380 01f8 DDE90620 		ldrd	r2, r0, [sp, #24]
 1381 01fc 0160     		str	r1, [r0]
 1382 01fe 1249     		ldr	r1, .L157+8
 1383 0200 0B70     		strb	r3, [r1]
 1384 0202 12E7     		b	.L142
 1385              	.L134:
 1386 0204 0292     		str	r2, [sp, #8]
 1387 0206 FFF7FEFF 		bl	rsynth_get_sample_single
 1388 020a 114B     		ldr	r3, .L157+16
 1389 020c 029A     		ldr	r2, [sp, #8]
 1390 020e 0593     		str	r3, [sp, #20]
 1391 0210 1B78     		ldrb	r3, [r3]	@ zero_extendqisi2
 1392 0212 012B     		cmp	r3, #1
 1393 0214 7FF409AF 		bne	.L142
 1394              	.L152:
 1395 0218 1549     		ldr	r1, .L157+48
 1396 021a 1A48     		ldr	r0, .L157+68
 1397 021c 91F800C0 		ldrb	ip, [r1]	@ zero_extendqisi2
 1398 0220 0021     		movs	r1, #0
 1399 0222 0B4C     		ldr	r4, .L157+16
 1400 0224 2170     		strb	r1, [r4]
 1401 0226 0168     		ldr	r1, [r0]
 1402 0228 8C45     		cmp	ip, r1
 1403 022a 06D8     		bhi	.L156
 1404 022c 0292     		str	r2, [sp, #8]
 1405 022e 064A     		ldr	r2, .L157+8
 1406 0230 1370     		strb	r3, [r2]
 1407 0232 FFF7FEFF 		bl	rsynth_get_sample_single
 1408 0236 029A     		ldr	r2, [sp, #8]
 1409 0238 F7E6     		b	.L142
 1410              	.L156:
 1411 023a 0C4D     		ldr	r5, .L157+44
 1412 023c A2E7     		b	.L141
 1413              	.L158:
 1414 023e 00BF     		.align	2
 1415              	.L157:
 1416 0240 00000000 		.word	i
 1417 0244 00000000 		.word	rsynthi
 1418 0248 00000000 		.word	nextelement
 1419 024c 00000000 		.word	samplenumber.16
 1420 0250 00000000 		.word	newframe.10
 1421 0254 00000000 		.word	_selx
 1422 0258 00608044 		.word	1149263872
 1423 025c 00000000 		.word	logspeed
 1424 0260 00000000 		.word	ep.9
 1425 0264 00000000 		.word	element
ARM GAS  /tmp/ccaR7BRn.s 			page 27


 1426 0268 00000000 		.word	Elementz
 1427 026c 00000000 		.word	ce.15
 1428 0270 00000000 		.word	dur.14
 1429 0274 00000000 		.word	nelm
 1430 0278 1B000000 		.word	Elementz+27
 1431 027c 00000000 		.word	start.13
 1432 0280 00000000 		.word	end.12
 1433 0284 00000000 		.word	t.11
 1434 0288 00000000 		.word	flt
 1435 028c FCFFFFFF 		.word	Ep_namez-4
 1436              		.size	rsynth_get_sample_single, .-rsynth_get_sample_single
 1437              		.section	.text.rsynth_get_sample_elm,"ax",%progbits
 1438              		.align	1
 1439              		.p2align 2,,3
 1440              		.global	rsynth_get_sample_elm
 1441              		.syntax unified
 1442              		.thumb
 1443              		.thumb_func
 1444              		.type	rsynth_get_sample_elm, %function
 1445              	rsynth_get_sample_elm:
 1446              		@ args = 0, pretend = 0, frame = 24
 1447              		@ frame_needed = 0, uses_anonymous_args = 0
 1448 0000 A34B     		ldr	r3, .L189
 1449 0002 DFEDA47A 		vldr.32	s15, .L189+4
 1450 0006 D3ED006A 		vldr.32	s13, [r3]
 1451 000a A34A     		ldr	r2, .L189+8
 1452 000c 66EEA76A 		vmul.f32	s13, s13, s15
 1453 0010 9FEDA26A 		vldr.32	s12, .L189+12
 1454 0014 92ED007A 		vldr.32	s14, [r2]
 1455 0018 A14B     		ldr	r3, .L189+16
 1456 001a 27EE067A 		vmul.f32	s14, s14, s12
 1457 001e DFEDA15A 		vldr.32	s11, .L189+20
 1458 0022 FCEEE66A 		vcvt.u32.f32	s13, s13
 1459 0026 D3ED007A 		vldr.32	s15, [r3]
 1460 002a 9F4B     		ldr	r3, .L189+24
 1461 002c B0EE006A 		vmov.f32	s12, #2.0e+0
 1462 0030 BCEEC77A 		vcvt.u32.f32	s14, s14
 1463 0034 9D49     		ldr	r1, .L189+28
 1464 0036 93ED055A 		vldr.32	s10, [r3, #20]
 1465 003a 67EEA57A 		vmul.f32	s15, s15, s11
 1466 003e 2DE9F04F 		push	{r4, r5, r6, r7, r8, r9, r10, fp, lr}
 1467 0042 89B0     		sub	sp, sp, #36
 1468 0044 77EE867A 		vadd.f32	s15, s15, s12
 1469 0048 994C     		ldr	r4, .L189+32
 1470 004a CDED026A 		vstr.32	s13, [sp, #8]	@ int
 1471 004e 9DF80830 		ldrb	r3, [sp, #8]	@ zero_extendqisi2
 1472 0052 FCEEE77A 		vcvt.u32.f32	s15, s15
 1473 0056 8DED037A 		vstr.32	s14, [sp, #12]	@ int
 1474 005a 342B     		cmp	r3, #52
 1475 005c 9DF80C20 		ldrb	r2, [sp, #12]	@ zero_extendqisi2
 1476 0060 944D     		ldr	r5, .L189+36
 1477 0062 28BF     		it	cs
 1478 0064 3423     		movcs	r3, #52
 1479 0066 532A     		cmp	r2, #83
 1480 0068 934E     		ldr	r6, .L189+40
 1481 006a 28BF     		it	cs
 1482 006c 5322     		movcs	r2, #83
ARM GAS  /tmp/ccaR7BRn.s 			page 28


 1483 006e C3F13403 		rsb	r3, r3, #52
 1484 0072 0978     		ldrb	r1, [r1]	@ zero_extendqisi2
 1485 0074 DBB2     		uxtb	r3, r3
 1486 0076 0132     		adds	r2, r2, #1
 1487 0078 04F81320 		strb	r2, [r4, r3, lsl #1]
 1488 007c 04EB4303 		add	r3, r4, r3, lsl #1
 1489 0080 17EE902A 		vmov	r2, s15	@ int
 1490 0084 5A70     		strb	r2, [r3, #1]
 1491 0086 2A78     		ldrb	r2, [r5]	@ zero_extendqisi2
 1492 0088 3378     		ldrb	r3, [r6]	@ zero_extendqisi2
 1493 008a 9A42     		cmp	r2, r3
 1494 008c 23D9     		bls	.L160
 1495 008e 0129     		cmp	r1, #1
 1496 0090 1FD0     		beq	.L161
 1497              	.L183:
 1498 0092 8A4B     		ldr	r3, .L189+44
 1499 0094 8A4A     		ldr	r2, .L189+48
 1500 0096 0593     		str	r3, [sp, #20]
 1501 0098 1B78     		ldrb	r3, [r3]	@ zero_extendqisi2
 1502 009a 012B     		cmp	r3, #1
 1503 009c 00F0E280 		beq	.L172
 1504              	.L187:
 1505 00a0 884B     		ldr	r3, .L189+52
 1506 00a2 93ED000A 		vldr.32	s0, [r3]
 1507              	.L173:
 1508 00a6 8849     		ldr	r1, .L189+56
 1509 00a8 7F48     		ldr	r0, .L189+24
 1510 00aa 0292     		str	r2, [sp, #8]
 1511 00ac FFF7FEFF 		bl	rsynth_frame_single
 1512 00b0 029A     		ldr	r2, [sp, #8]
 1513 00b2 7D49     		ldr	r1, .L189+24
 1514 00b4 1388     		ldrh	r3, [r2]
 1515 00b6 8968     		ldr	r1, [r1, #8]
 1516 00b8 0133     		adds	r3, r3, #1
 1517 00ba 1BB2     		sxth	r3, r3
 1518 00bc 8B42     		cmp	r3, r1
 1519 00be 1380     		strh	r3, [r2]	@ movhi
 1520 00c0 04DB     		blt	.L176
 1521 00c2 0121     		movs	r1, #1
 1522 00c4 0023     		movs	r3, #0
 1523 00c6 059C     		ldr	r4, [sp, #20]
 1524 00c8 1380     		strh	r3, [r2]	@ movhi
 1525 00ca 2170     		strb	r1, [r4]
 1526              	.L176:
 1527 00cc 09B0     		add	sp, sp, #36
 1528              		@ sp needed
 1529 00ce BDE8F08F 		pop	{r4, r5, r6, r7, r8, r9, r10, fp, pc}
 1530              	.L161:
 1531 00d2 FFF7FEFF 		bl	rsynth_newsay_elm
 1532              	.L160:
 1533 00d6 754B     		ldr	r3, .L189+28
 1534 00d8 1B78     		ldrb	r3, [r3]	@ zero_extendqisi2
 1535 00da 012B     		cmp	r3, #1
 1536 00dc D9D1     		bne	.L183
 1537 00de 2878     		ldrb	r0, [r5]	@ zero_extendqisi2
 1538 00e0 0021     		movs	r1, #0
 1539 00e2 774A     		ldr	r2, .L189+48
ARM GAS  /tmp/ccaR7BRn.s 			page 29


 1540 00e4 471C     		adds	r7, r0, #1
 1541 00e6 794B     		ldr	r3, .L189+60
 1542 00e8 1180     		strh	r1, [r2]	@ movhi
 1543 00ea 215C     		ldrb	r1, [r4, r0]	@ zero_extendqisi2
 1544 00ec 0230     		adds	r0, r0, #2
 1545 00ee FFB2     		uxtb	r7, r7
 1546 00f0 C0B2     		uxtb	r0, r0
 1547 00f2 14F807C0 		ldrb	ip, [r4, r7]	@ zero_extendqisi2
 1548 00f6 2870     		strb	r0, [r5]
 1549 00f8 01EB8105 		add	r5, r1, r1, lsl #2
 1550 00fc 744F     		ldr	r7, .L189+64
 1551 00fe 01EBC501 		add	r1, r1, r5, lsl #3
 1552 0102 744D     		ldr	r5, .L189+68
 1553 0104 87F800C0 		strb	ip, [r7]
 1554 0108 03EB810B 		add	fp, r3, r1, lsl #2
 1555 010c C5F800B0 		str	fp, [r5]
 1556 0110 BCF1000F 		cmp	ip, #0
 1557 0114 00F09C80 		beq	.L164
 1558 0118 3678     		ldrb	r6, [r6]	@ zero_extendqisi2
 1559 011a 8642     		cmp	r6, r0
 1560 011c 37D8     		bhi	.L184
 1561 011e 9A46     		mov	r10, r3
 1562              	.L165:
 1563 0120 6D4F     		ldr	r7, .L189+72
 1564 0122 0BF11B09 		add	r9, fp, #27
 1565 0126 0024     		movs	r4, #0
 1566 0128 0AF11B08 		add	r8, r10, #27
 1567 012c A7F11B06 		sub	r6, r7, #27
 1568 0130 0492     		str	r2, [sp, #16]
 1569 0132 CDE902C5 		strd	ip, r5, [sp, #8]
 1570 0136 17E0     		b	.L170
 1571              	.L186:
 1572 0138 0090     		str	r0, [sp]
 1573 013a 5A46     		mov	r2, fp
 1574 013c 2146     		mov	r1, r4
 1575 013e 6748     		ldr	r0, .L189+76
 1576 0140 FFF7FEFF 		bl	set_trans.isra.0
 1577              	.L167:
 1578 0144 18F83430 		ldrb	r3, [r8, r4, lsl #3]	@ zero_extendqisi2
 1579 0148 B0EE450A 		vmov.f32	s0, s10
 1580 014c 0120     		movs	r0, #1
 1581 014e 0022     		movs	r2, #0
 1582 0150 AB42     		cmp	r3, r5
 1583 0152 24D9     		bls	.L168
 1584 0154 2146     		mov	r1, r4
 1585 0156 0134     		adds	r4, r4, #1
 1586 0158 0090     		str	r0, [sp]
 1587 015a 5B46     		mov	r3, fp
 1588 015c 5246     		mov	r2, r10
 1589 015e 6048     		ldr	r0, .L189+80
 1590 0160 FFF7FEFF 		bl	set_trans.isra.0
 1591 0164 122C     		cmp	r4, #18
 1592 0166 24D0     		beq	.L185
 1593              	.L170:
 1594 0168 17F83430 		ldrb	r3, [r7, r4, lsl #3]	@ zero_extendqisi2
 1595 016c B0EE450A 		vmov.f32	s0, s10
 1596 0170 19F83450 		ldrb	r5, [r9, r4, lsl #3]	@ zero_extendqisi2
ARM GAS  /tmp/ccaR7BRn.s 			page 30


 1597 0174 0020     		movs	r0, #0
 1598 0176 0122     		movs	r2, #1
 1599 0178 AB42     		cmp	r3, r5
 1600 017a 3346     		mov	r3, r6
 1601 017c DCD3     		bcc	.L186
 1602 017e 0092     		str	r2, [sp]
 1603 0180 5B46     		mov	r3, fp
 1604 0182 3246     		mov	r2, r6
 1605 0184 2146     		mov	r1, r4
 1606 0186 5548     		ldr	r0, .L189+76
 1607 0188 FFF7FEFF 		bl	set_trans.isra.0
 1608 018c DAE7     		b	.L167
 1609              	.L184:
 1610 018e 205C     		ldrb	r0, [r4, r0]	@ zero_extendqisi2
 1611 0190 00EB8004 		add	r4, r0, r0, lsl #2
 1612 0194 00EBC400 		add	r0, r0, r4, lsl #3
 1613 0198 03EB800A 		add	r10, r3, r0, lsl #2
 1614 019c C0E7     		b	.L165
 1615              	.L168:
 1616 019e 2146     		mov	r1, r4
 1617 01a0 0134     		adds	r4, r4, #1
 1618 01a2 0092     		str	r2, [sp]
 1619 01a4 5346     		mov	r3, r10
 1620 01a6 5A46     		mov	r2, fp
 1621 01a8 4D48     		ldr	r0, .L189+80
 1622 01aa FFF7FEFF 		bl	set_trans.isra.0
 1623 01ae 122C     		cmp	r4, #18
 1624 01b0 DAD1     		bne	.L170
 1625              	.L185:
 1626 01b2 424B     		ldr	r3, .L189+44
 1627 01b4 0021     		movs	r1, #0
 1628 01b6 049A     		ldr	r2, [sp, #16]
 1629 01b8 4A48     		ldr	r0, .L189+84
 1630 01ba 0593     		str	r3, [sp, #20]
 1631 01bc 1970     		strb	r1, [r3]
 1632 01be DDE902C5 		ldrd	ip, r5, [sp, #8]
 1633              	.L171:
 1634 01c2 2E68     		ldr	r6, [r5]
 1635 01c4 0025     		movs	r5, #0
 1636 01c6 DFF824B1 		ldr	fp, .L189+92
 1637 01ca 3368     		ldr	r3, [r6]
 1638 01cc 464C     		ldr	r4, .L189+88
 1639 01ce 0BF1480A 		add	r10, fp, #72
 1640 01d2 3D4F     		ldr	r7, .L189+56
 1641 01d4 DFF80891 		ldr	r9, .L189+80
 1642 01d8 DFF80081 		ldr	r8, .L189+76
 1643 01dc 0393     		str	r3, [sp, #12]
 1644 01de CDF810C0 		str	ip, [sp, #16]
 1645 01e2 0291     		str	r1, [sp, #8]
 1646 01e4 CDE90602 		strd	r0, r2, [sp, #24]
 1647              	.L175:
 1648 01e8 049B     		ldr	r3, [sp, #16]
 1649 01ea 08EB0502 		add	r2, r8, r5
 1650 01ee 96ED050A 		vldr.32	s0, [r6, #20]
 1651 01f2 0C34     		adds	r4, r4, #12
 1652 01f4 0193     		str	r3, [sp, #4]
 1653 01f6 0836     		adds	r6, r6, #8
ARM GAS  /tmp/ccaR7BRn.s 			page 31


 1654 01f8 029B     		ldr	r3, [sp, #8]
 1655 01fa 0398     		ldr	r0, [sp, #12]
 1656 01fc 0093     		str	r3, [sp]
 1657 01fe 09EB0503 		add	r3, r9, r5
 1658 0202 5BF8041F 		ldr	r1, [fp, #4]!
 1659 0206 0835     		adds	r5, r5, #8
 1660 0208 FFF7FEFF 		bl	interpolate
 1661 020c 54ED016A 		vldr.32	s13, [r4, #-4]
 1662 0210 54ED027A 		vldr.32	s15, [r4, #-8]
 1663 0214 D345     		cmp	fp, r10
 1664 0216 14ED037A 		vldr.32	s14, [r4, #-12]
 1665 021a 67EEA67A 		vmul.f32	s15, s15, s13
 1666 021e 20EE070A 		vmul.f32	s0, s0, s14
 1667 0222 77EE807A 		vadd.f32	s15, s15, s0
 1668 0226 44ED017A 		vstr.32	s15, [r4, #-4]
 1669 022a E7EC017A 		vstmia.32	r7!, {s15}
 1670 022e DBD1     		bne	.L175
 1671 0230 1D4B     		ldr	r3, .L189+24
 1672 0232 0299     		ldr	r1, [sp, #8]
 1673 0234 DB68     		ldr	r3, [r3, #12]
 1674 0236 0131     		adds	r1, r1, #1
 1675 0238 93ED010A 		vldr.32	s0, [r3, #4]
 1676 023c 214B     		ldr	r3, .L189+52
 1677 023e DDE90602 		ldrd	r0, r2, [sp, #24]
 1678 0242 83ED000A 		vstr.32	s0, [r3]
 1679 0246 0023     		movs	r3, #0
 1680 0248 0160     		str	r1, [r0]
 1681 024a 1849     		ldr	r1, .L189+28
 1682 024c 0B70     		strb	r3, [r1]
 1683 024e 2AE7     		b	.L173
 1684              	.L164:
 1685 0250 0292     		str	r2, [sp, #8]
 1686 0252 FFF7FEFF 		bl	rsynth_get_sample_elm
 1687 0256 194B     		ldr	r3, .L189+44
 1688 0258 029A     		ldr	r2, [sp, #8]
 1689 025a 0593     		str	r3, [sp, #20]
 1690 025c 1B78     		ldrb	r3, [r3]	@ zero_extendqisi2
 1691 025e 012B     		cmp	r3, #1
 1692 0260 7FF41EAF 		bne	.L187
 1693              	.L172:
 1694 0264 1A49     		ldr	r1, .L189+64
 1695 0266 1F48     		ldr	r0, .L189+84
 1696 0268 91F800C0 		ldrb	ip, [r1]	@ zero_extendqisi2
 1697 026c 0021     		movs	r1, #0
 1698 026e 059C     		ldr	r4, [sp, #20]
 1699 0270 2170     		strb	r1, [r4]
 1700 0272 0168     		ldr	r1, [r0]
 1701 0274 8C45     		cmp	ip, r1
 1702 0276 09D8     		bhi	.L188
 1703 0278 0292     		str	r2, [sp, #8]
 1704 027a 0C4A     		ldr	r2, .L189+28
 1705 027c 1370     		strb	r3, [r2]
 1706 027e FFF7FEFF 		bl	rsynth_get_sample_elm
 1707 0282 104B     		ldr	r3, .L189+52
 1708 0284 029A     		ldr	r2, [sp, #8]
 1709 0286 93ED000A 		vldr.32	s0, [r3]
 1710 028a 0CE7     		b	.L173
ARM GAS  /tmp/ccaR7BRn.s 			page 32


 1711              	.L188:
 1712 028c 114D     		ldr	r5, .L189+68
 1713 028e 98E7     		b	.L171
 1714              	.L190:
 1715              		.align	2
 1716              	.L189:
 1717 0290 00000000 		.word	_selx
 1718 0294 00006042 		.word	1113587712
 1719 0298 00000000 		.word	_selz
 1720 029c 0000AE42 		.word	1118699520
 1721 02a0 00000000 		.word	_sely
 1722 02a4 00000442 		.word	1107558400
 1723 02a8 00000000 		.word	rsynthi
 1724 02ac 00000000 		.word	nextelement
 1725 02b0 00000000 		.word	test_elm_rsynthy
 1726 02b4 00000000 		.word	i
 1727 02b8 00000000 		.word	nelm
 1728 02bc 00000000 		.word	newframe.2
 1729 02c0 00000000 		.word	samplenumber.8
 1730 02c4 00000000 		.word	F0Hz.0
 1731 02c8 00000000 		.word	ep.1
 1732 02cc 00000000 		.word	Elementz
 1733 02d0 00000000 		.word	dur.6
 1734 02d4 00000000 		.word	ce.7
 1735 02d8 1B000000 		.word	Elementz+27
 1736 02dc 00000000 		.word	start.5
 1737 02e0 00000000 		.word	end.4
 1738 02e4 00000000 		.word	t.3
 1739 02e8 00000000 		.word	flt
 1740 02ec FCFFFFFF 		.word	Ep_namez-4
 1741              		.size	rsynth_get_sample_elm, .-rsynth_get_sample_elm
 1742              		.section	.bss.F0Hz.0,"aw",%nobits
 1743              		.align	2
 1744              		.type	F0Hz.0, %object
 1745              		.size	F0Hz.0, 4
 1746              	F0Hz.0:
 1747 0000 00000000 		.space	4
 1748              		.section	.bss.ep.1,"aw",%nobits
 1749              		.align	2
 1750              		.type	ep.1, %object
 1751              		.size	ep.1, 72
 1752              	ep.1:
 1753 0000 00000000 		.space	72
 1753      00000000 
 1753      00000000 
 1753      00000000 
 1753      00000000 
 1754              		.section	.bss.newframe.2,"aw",%nobits
 1755              		.type	newframe.2, %object
 1756              		.size	newframe.2, 1
 1757              	newframe.2:
 1758 0000 00       		.space	1
 1759              		.section	.bss.t.3,"aw",%nobits
 1760              		.align	2
 1761              		.type	t.3, %object
 1762              		.size	t.3, 4
 1763              	t.3:
ARM GAS  /tmp/ccaR7BRn.s 			page 33


 1764 0000 00000000 		.space	4
 1765              		.section	.bss.end.4,"aw",%nobits
 1766              		.align	2
 1767              		.type	end.4, %object
 1768              		.size	end.4, 144
 1769              	end.4:
 1770 0000 00000000 		.space	144
 1770      00000000 
 1770      00000000 
 1770      00000000 
 1770      00000000 
 1771              		.section	.bss.start.5,"aw",%nobits
 1772              		.align	2
 1773              		.type	start.5, %object
 1774              		.size	start.5, 144
 1775              	start.5:
 1776 0000 00000000 		.space	144
 1776      00000000 
 1776      00000000 
 1776      00000000 
 1776      00000000 
 1777              		.section	.bss.dur.6,"aw",%nobits
 1778              		.type	dur.6, %object
 1779              		.size	dur.6, 1
 1780              	dur.6:
 1781 0000 00       		.space	1
 1782              		.section	.bss.ce.7,"aw",%nobits
 1783              		.align	2
 1784              		.type	ce.7, %object
 1785              		.size	ce.7, 4
 1786              	ce.7:
 1787 0000 00000000 		.space	4
 1788              		.section	.bss.samplenumber.8,"aw",%nobits
 1789              		.align	1
 1790              		.type	samplenumber.8, %object
 1791              		.size	samplenumber.8, 2
 1792              	samplenumber.8:
 1793 0000 0000     		.space	2
 1794              		.section	.bss.ep.9,"aw",%nobits
 1795              		.align	2
 1796              		.type	ep.9, %object
 1797              		.size	ep.9, 72
 1798              	ep.9:
 1799 0000 00000000 		.space	72
 1799      00000000 
 1799      00000000 
 1799      00000000 
 1799      00000000 
 1800              		.section	.bss.newframe.10,"aw",%nobits
 1801              		.type	newframe.10, %object
 1802              		.size	newframe.10, 1
 1803              	newframe.10:
 1804 0000 00       		.space	1
 1805              		.section	.bss.t.11,"aw",%nobits
 1806              		.align	2
 1807              		.type	t.11, %object
 1808              		.size	t.11, 4
ARM GAS  /tmp/ccaR7BRn.s 			page 34


 1809              	t.11:
 1810 0000 00000000 		.space	4
 1811              		.section	.bss.end.12,"aw",%nobits
 1812              		.align	2
 1813              		.type	end.12, %object
 1814              		.size	end.12, 144
 1815              	end.12:
 1816 0000 00000000 		.space	144
 1816      00000000 
 1816      00000000 
 1816      00000000 
 1816      00000000 
 1817              		.section	.bss.start.13,"aw",%nobits
 1818              		.align	2
 1819              		.type	start.13, %object
 1820              		.size	start.13, 144
 1821              	start.13:
 1822 0000 00000000 		.space	144
 1822      00000000 
 1822      00000000 
 1822      00000000 
 1822      00000000 
 1823              		.section	.bss.dur.14,"aw",%nobits
 1824              		.type	dur.14, %object
 1825              		.size	dur.14, 1
 1826              	dur.14:
 1827 0000 00       		.space	1
 1828              		.section	.bss.ce.15,"aw",%nobits
 1829              		.align	2
 1830              		.type	ce.15, %object
 1831              		.size	ce.15, 4
 1832              	ce.15:
 1833 0000 00000000 		.space	4
 1834              		.section	.bss.samplenumber.16,"aw",%nobits
 1835              		.align	1
 1836              		.type	samplenumber.16, %object
 1837              		.size	samplenumber.16, 2
 1838              	samplenumber.16:
 1839 0000 0000     		.space	2
 1840              		.section	.bss.ep.17,"aw",%nobits
 1841              		.align	2
 1842              		.type	ep.17, %object
 1843              		.size	ep.17, 72
 1844              	ep.17:
 1845 0000 00000000 		.space	72
 1845      00000000 
 1845      00000000 
 1845      00000000 
 1845      00000000 
 1846              		.section	.bss.newframe.18,"aw",%nobits
 1847              		.type	newframe.18, %object
 1848              		.size	newframe.18, 1
 1849              	newframe.18:
 1850 0000 00       		.space	1
 1851              		.section	.bss.t.19,"aw",%nobits
 1852              		.align	2
 1853              		.type	t.19, %object
ARM GAS  /tmp/ccaR7BRn.s 			page 35


 1854              		.size	t.19, 4
 1855              	t.19:
 1856 0000 00000000 		.space	4
 1857              		.section	.bss.end.20,"aw",%nobits
 1858              		.align	2
 1859              		.type	end.20, %object
 1860              		.size	end.20, 144
 1861              	end.20:
 1862 0000 00000000 		.space	144
 1862      00000000 
 1862      00000000 
 1862      00000000 
 1862      00000000 
 1863              		.section	.bss.start.21,"aw",%nobits
 1864              		.align	2
 1865              		.type	start.21, %object
 1866              		.size	start.21, 144
 1867              	start.21:
 1868 0000 00000000 		.space	144
 1868      00000000 
 1868      00000000 
 1868      00000000 
 1868      00000000 
 1869              		.section	.bss.dur.22,"aw",%nobits
 1870              		.type	dur.22, %object
 1871              		.size	dur.22, 1
 1872              	dur.22:
 1873 0000 00       		.space	1
 1874              		.section	.bss.ce.23,"aw",%nobits
 1875              		.align	2
 1876              		.type	ce.23, %object
 1877              		.size	ce.23, 4
 1878              	ce.23:
 1879 0000 00000000 		.space	4
 1880              		.section	.bss.samplenumber.24,"aw",%nobits
 1881              		.align	1
 1882              		.type	samplenumber.24, %object
 1883              		.size	samplenumber.24, 2
 1884              	samplenumber.24:
 1885 0000 0000     		.space	2
 1886              		.section	.bss.F0Hz.25,"aw",%nobits
 1887              		.align	2
 1888              		.type	F0Hz.25, %object
 1889              		.size	F0Hz.25, 4
 1890              	F0Hz.25:
 1891 0000 00000000 		.space	4
 1892              		.section	.bss.ep.26,"aw",%nobits
 1893              		.align	2
 1894              		.type	ep.26, %object
 1895              		.size	ep.26, 72
 1896              	ep.26:
 1897 0000 00000000 		.space	72
 1897      00000000 
 1897      00000000 
 1897      00000000 
 1897      00000000 
 1898              		.section	.bss.newframe.27,"aw",%nobits
ARM GAS  /tmp/ccaR7BRn.s 			page 36


 1899              		.type	newframe.27, %object
 1900              		.size	newframe.27, 1
 1901              	newframe.27:
 1902 0000 00       		.space	1
 1903              		.section	.bss.t.28,"aw",%nobits
 1904              		.align	2
 1905              		.type	t.28, %object
 1906              		.size	t.28, 4
 1907              	t.28:
 1908 0000 00000000 		.space	4
 1909              		.section	.bss.end.29,"aw",%nobits
 1910              		.align	2
 1911              		.type	end.29, %object
 1912              		.size	end.29, 144
 1913              	end.29:
 1914 0000 00000000 		.space	144
 1914      00000000 
 1914      00000000 
 1914      00000000 
 1914      00000000 
 1915              		.section	.bss.start.30,"aw",%nobits
 1916              		.align	2
 1917              		.type	start.30, %object
 1918              		.size	start.30, 144
 1919              	start.30:
 1920 0000 00000000 		.space	144
 1920      00000000 
 1920      00000000 
 1920      00000000 
 1920      00000000 
 1921              		.section	.data.le.31,"aw"
 1922              		.align	2
 1923              		.type	le.31, %object
 1924              		.size	le.31, 4
 1925              	le.31:
 1926 0000 00000000 		.word	Elementz
 1927              		.section	.bss.dur.32,"aw",%nobits
 1928              		.type	dur.32, %object
 1929              		.size	dur.32, 1
 1930              	dur.32:
 1931 0000 00       		.space	1
 1932              		.section	.bss.ce.33,"aw",%nobits
 1933              		.align	2
 1934              		.type	ce.33, %object
 1935              		.size	ce.33, 4
 1936              	ce.33:
 1937 0000 00000000 		.space	4
 1938              		.section	.bss.samplenumber.34,"aw",%nobits
 1939              		.align	1
 1940              		.type	samplenumber.34, %object
 1941              		.size	samplenumber.34, 2
 1942              	samplenumber.34:
 1943 0000 0000     		.space	2
 1944              		.global	contour
 1945              		.section	.bss.contour,"aw",%nobits
 1946              		.align	2
 1947              		.type	contour, %object
ARM GAS  /tmp/ccaR7BRn.s 			page 37


 1948              		.size	contour, 12
 1949              	contour:
 1950 0000 00000000 		.space	12
 1950      00000000 
 1950      00000000 
 1951              		.section	.bss.element,"aw",%nobits
 1952              		.align	2
 1953              		.type	element, %object
 1954              		.size	element, 4
 1955              	element:
 1956 0000 00000000 		.space	4
 1957              		.section	.bss.elm,"aw",%nobits
 1958              		.align	2
 1959              		.type	elm, %object
 1960              		.size	elm, 4
 1961              	elm:
 1962 0000 00000000 		.space	4
 1963              		.section	.bss.nelm,"aw",%nobits
 1964              		.type	nelm, %object
 1965              		.size	nelm, 1
 1966              	nelm:
 1967 0000 00       		.space	1
 1968              		.global	rsynth_vocab
 1969              		.section	.data.rsynth_vocab,"aw"
 1970              		.align	2
 1971              		.type	rsynth_vocab, %object
 1972              		.size	rsynth_vocab, 512
 1973              	rsynth_vocab:
 1974 0000 00000000 		.word	rsynth_acid
 1975 0004 00000000 		.word	rsynth_anguish
 1976 0008 00000000 		.word	rsynth_atom
 1977 000c 00000000 		.word	rsynth_beauty
 1978 0010 00000000 		.word	rsynth_biological
 1979 0014 00000000 		.word	rsynth_bit
 1980 0018 00000000 		.word	rsynth_black
 1981 001c 00000000 		.word	rsynth_blood
 1982 0020 00000000 		.word	rsynth_body
 1983 0024 00000000 		.word	rsynth_brain
 1984 0028 00000000 		.word	rsynth_break
 1985 002c 00000000 		.word	rsynth_bug
 1986 0030 00000000 		.word	rsynth_byte
 1987 0034 00000000 		.word	rsynth_central
 1988 0038 00000000 		.word	rsynth_chamber
 1989 003c 00000000 		.word	rsynth_circuit
 1990 0040 00000000 		.word	rsynth_code
 1991 0044 00000000 		.word	rsynth_color
 1992 0048 00000000 		.word	rsynth_communication
 1993 004c 00000000 		.word	rsynth_computer
 1994 0050 00000000 		.word	rsynth_contact
 1995 0054 00000000 		.word	rsynth_core
 1996 0058 00000000 		.word	rsynth_cosmic
 1997 005c 00000000 		.word	rsynth_crash
 1998 0060 00000000 		.word	rsynth_crow
 1999 0064 00000000 		.word	rsynth_crystal
 2000 0068 00000000 		.word	rsynth_curse
 2001 006c 00000000 		.word	rsynth_danger
 2002 0070 00000000 		.word	rsynth_dark
ARM GAS  /tmp/ccaR7BRn.s 			page 38


 2003 0074 00000000 		.word	rsynth_darkness
 2004 0078 00000000 		.word	rsynth_data
 2005 007c 00000000 		.word	rsynth_death
 2006 0080 00000000 		.word	rsynth_decay
 2007 0084 00000000 		.word	rsynth_decompose
 2008 0088 00000000 		.word	rsynth_device
 2009 008c 00000000 		.word	rsynth_digital
 2010 0090 00000000 		.word	rsynth_dirt
 2011 0094 00000000 		.word	rsynth_dissolution
 2012 0098 00000000 		.word	rsynth_double
 2013 009c 00000000 		.word	rsynth_earth
 2014 00a0 00000000 		.word	rsynth_electronic
 2015 00a4 00000000 		.word	rsynth_emotional
 2016 00a8 00000000 		.word	rsynth_error
 2017 00ac 00000000 		.word	rsynth_evidence
 2018 00b0 00000000 		.word	rsynth_execution
 2019 00b4 00000000 		.word	rsynth_failure
 2020 00b8 00000000 		.word	rsynth_flesh
 2021 00bc 00000000 		.word	rsynth_freeze
 2022 00c0 00000000 		.word	rsynth_fucked
 2023 00c4 00000000 		.word	rsynth_geology
 2024 00c8 00000000 		.word	rsynth_girl
 2025 00cc 00000000 		.word	rsynth_god
 2026 00d0 00000000 		.word	rsynth_gold
 2027 00d4 00000000 		.word	rsynth_grave
 2028 00d8 00000000 		.word	rsynth_green
 2029 00dc 00000000 		.word	rsynth_ground
 2030 00e0 00000000 		.word	rsynth_haunt
 2031 00e4 00000000 		.word	rsynth_heart
 2032 00e8 00000000 		.word	rsynth_hear
 2033 00ec 00000000 		.word	rsynth_horror
 2034 00f0 00000000 		.word	rsynth_human
 2035 00f4 00000000 		.word	rsynth_infection
 2036 00f8 00000000 		.word	rsynth_information
 2037 00fc 00000000 		.word	rsynth_interpreter
 2038 0100 00000000 		.word	rsynth_instruction
 2039 0104 00000000 		.word	rsynth_keyboard
 2040 0108 00000000 		.word	rsynth_kill
 2041 010c 00000000 		.word	rsynth_labyrinth
 2042 0110 00000000 		.word	rsynth_laser
 2043 0114 00000000 		.word	rsynth_live
 2044 0118 00000000 		.word	rsynth_love
 2045 011c 00000000 		.word	rsynth_machine
 2046 0120 00000000 		.word	rsynth_mars
 2047 0124 00000000 		.word	rsynth_matter
 2048 0128 00000000 		.word	rsynth_memory
 2049 012c 00000000 		.word	rsynth_metal
 2050 0130 00000000 		.word	rsynth_micro
 2051 0134 00000000 		.word	rsynth_mind
 2052 0138 00000000 		.word	rsynth_module
 2053 013c 00000000 		.word	rsynth_moon
 2054 0140 00000000 		.word	rsynth_negative
 2055 0144 00000000 		.word	rsynth_network
 2056 0148 00000000 		.word	rsynth_night
 2057 014c 00000000 		.word	rsynth_nigredo
 2058 0150 00000000 		.word	rsynth_noise
 2059 0154 00000000 		.word	rsynth_nothing
ARM GAS  /tmp/ccaR7BRn.s 			page 39


 2060 0158 00000000 		.word	rsynth_nuclear
 2061 015c 00000000 		.word	rsynth_obscure
 2062 0160 00000000 		.word	rsynth_off
 2063 0164 00000000 		.word	rsynth_on
 2064 0168 00000000 		.word	rsynth_physical
 2065 016c 00000000 		.word	rsynth_piss
 2066 0170 00000000 		.word	rsynth_pixel
 2067 0174 00000000 		.word	rsynth_plague
 2068 0178 00000000 		.word	rsynth_processor
 2069 017c 00000000 		.word	rsynth_program
 2070 0180 00000000 		.word	rsynth_pure
 2071 0184 00000000 		.word	rsynth_radioactivity
 2072 0188 00000000 		.word	rsynth_raven
 2073 018c 00000000 		.word	rsynth_real
 2074 0190 00000000 		.word	rsynth_red
 2075 0194 00000000 		.word	rsynth_return
 2076 0198 00000000 		.word	rsynth_robot
 2077 019c 00000000 		.word	rsynth_seclusion
 2078 01a0 00000000 		.word	rsynth_sediment
 2079 01a4 00000000 		.word	rsynth_serpent
 2080 01a8 00000000 		.word	rsynth_shell
 2081 01ac 00000000 		.word	rsynth_signal
 2082 01b0 00000000 		.word	rsynth_skin
 2083 01b4 00000000 		.word	rsynth_space
 2084 01b8 00000000 		.word	rsynth_spectral
 2085 01bc 00000000 		.word	rsynth_speak
 2086 01c0 00000000 		.word	rsynth_sun
 2087 01c4 00000000 		.word	rsynth_subject
 2088 01c8 00000000 		.word	rsynth_surface
 2089 01cc 00000000 		.word	rsynth_synthesizer
 2090 01d0 00000000 		.word	rsynth_talk
 2091 01d4 00000000 		.word	rsynth_time
 2092 01d8 00000000 		.word	rsynth_tomb
 2093 01dc 00000000 		.word	rsynth_vacuum
 2094 01e0 00000000 		.word	rsynth_video
 2095 01e4 00000000 		.word	rsynth_virus
 2096 01e8 00000000 		.word	rsynth_voice
 2097 01ec 00000000 		.word	rsynth_vomit
 2098 01f0 00000000 		.word	rsynth_white
 2099 01f4 00000000 		.word	rsynth_world
 2100 01f8 00000000 		.word	rsynth_worming
 2101 01fc 00000000 		.word	rsynth_zero
 2102              		.section	.rodata.rsynth_zero,"a"
 2103              		.align	2
 2104              		.type	rsynth_zero, %object
 2105              		.size	rsynth_zero, 68
 2106              	rsynth_zero:
 2107 0000 CD4C1243 		.word	1125272781
 2108 0004 00001442 		.word	1108606976
 2109 0008 29DC0D43 		.word	1124981801
 2110 000c 20044204 		.ascii	" \004B\004\031\0133\0062\006\001\006\000"
 2110      190B3306 
 2110      32060106 
 2110      00
 2111 0019 00000000 		.space	39
 2111      00000000 
 2111      00000000 
ARM GAS  /tmp/ccaR7BRn.s 			page 40


 2111      00000000 
 2111      00000000 
 2112 0040 0C       		.byte	12
 2113 0041 000000   		.space	3
 2114              		.section	.rodata.rsynth_worming,"a"
 2115              		.align	2
 2116              		.type	rsynth_worming, %object
 2117              		.size	rsynth_worming, 68
 2118              	rsynth_worming:
 2119 0000 CD4C1243 		.word	1125272781
 2120 0004 00005042 		.word	1112539136
 2121 0008 5C0F0C43 		.word	1124863836
 2122 000c 29084B10 		.ascii	")\010K\020\025\010-\006\027\010\001\006\000"
 2122      15082D06 
 2122      17080106 
 2122      00
 2123 0019 00000000 		.space	39
 2123      00000000 
 2123      00000000 
 2123      00000000 
 2123      00000000 
 2124 0040 0C       		.byte	12
 2125 0041 000000   		.space	3
 2126              		.section	.rodata.rsynth_world,"a"
 2127              		.align	2
 2128              		.type	rsynth_world, %object
 2129              		.size	rsynth_world, 68
 2130              	rsynth_world:
 2131 0000 CD4C1243 		.word	1125272781
 2132 0004 00004042 		.word	1111490560
 2133 0008 3E8A0C43 		.word	1124895294
 2134 000c 29084B10 		.ascii	")\010K\020&\010\013\010\014\001\015\001\001\006\000"
 2134      26080B08 
 2134      0C010D01 
 2134      010600
 2135 001b 00000000 		.space	37
 2135      00000000 
 2135      00000000 
 2135      00000000 
 2135      00000000 
 2136 0040 0E       		.byte	14
 2137 0041 000000   		.space	3
 2138              		.section	.rodata.rsynth_white,"a"
 2139              		.align	2
 2140              		.type	rsynth_white, %object
 2141              		.size	rsynth_white, 68
 2142              	rsynth_white:
 2143 0000 CD4C1243 		.word	1125272781
 2144 0004 00003442 		.word	1110704128
 2145 0008 67E60C43 		.word	1124918887
 2146 000c 250A2908 		.ascii	"%\012)\010/\006-\006\010\006\011\001\012\002\001\006"
 2146      2F062D06 
 2146      08060901 
 2146      0A020106 
 2147 001c 00       		.ascii	"\000"
 2148 001d 00000000 		.space	35
 2148      00000000 
ARM GAS  /tmp/ccaR7BRn.s 			page 41


 2148      00000000 
 2148      00000000 
 2148      00000000 
 2149 0040 10       		.byte	16
 2150 0041 000000   		.space	3
 2151              		.section	.rodata.rsynth_vomit,"a"
 2152              		.align	2
 2153              		.type	rsynth_vomit, %object
 2154              		.size	rsynth_vomit, 68
 2155              	rsynth_vomit:
 2156 0000 CD4C1243 		.word	1125272781
 2157 0004 00002042 		.word	1109393408
 2158 0008 00800D43 		.word	1124958208
 2159 000c 1C055206 		.ascii	"\034\005R\006\025\010-\006\010\006\011\001\012\002\001"
 2159      15082D06 
 2159      08060901 
 2159      0A0201
 2160 001b 0600     		.ascii	"\006\000"
 2161 001d 00000000 		.space	35
 2161      00000000 
 2161      00000000 
 2161      00000000 
 2161      00000000 
 2162 0040 10       		.byte	16
 2163 0041 000000   		.space	3
 2164              		.section	.rodata.rsynth_voice,"a"
 2165              		.align	2
 2166              		.type	rsynth_voice, %object
 2167              		.size	rsynth_voice, 68
 2168              	rsynth_voice:
 2169 0000 CD4C1243 		.word	1125272781
 2170 0004 00000C42 		.word	1108082688
 2171 0008 9A190E43 		.word	1124997530
 2172 000c 1C053106 		.ascii	"\034\0051\006-\006\037\014\001\006\000"
 2172      2D061F0C 
 2172      010600
 2173 0017 00000000 		.space	41
 2173      00000000 
 2173      00000000 
 2173      00000000 
 2173      00000000 
 2174 0040 0A       		.byte	10
 2175 0041 000000   		.space	3
 2176              		.section	.rodata.rsynth_virus,"a"
 2177              		.align	2
 2178              		.type	rsynth_virus, %object
 2179              		.size	rsynth_virus, 68
 2180              	rsynth_virus:
 2181 0000 CD4C1243 		.word	1125272781
 2182 0004 00005042 		.word	1112539136
 2183 0008 5C0F0C43 		.word	1124863836
 2184 000c 1C052F06 		.ascii	"\034\005/\006-\006\031\013M\006\037\014\001\006\000"
 2184      2D06190B 
 2184      4D061F0C 
 2184      010600
 2185 001b 00000000 		.space	37
 2185      00000000 
ARM GAS  /tmp/ccaR7BRn.s 			page 42


 2185      00000000 
 2185      00000000 
 2185      00000000 
 2186 0040 0E       		.byte	14
 2187 0041 000000   		.space	3
 2188              		.section	.rodata.rsynth_video,"a"
 2189              		.align	2
 2190              		.type	rsynth_video, %object
 2191              		.size	rsynth_video, 68
 2192              	rsynth_video:
 2193 0000 CD4C1243 		.word	1125272781
 2194 0004 00003842 		.word	1110966272
 2195 0008 AEC70C43 		.word	1124911022
 2196 000c 1C052D06 		.ascii	"\034\005-\006\013\010\014\001\015\0019\0073\0062\006"
 2196      0B080C01 
 2196      0D013907 
 2196      33063206 
 2197 001c 010600   		.ascii	"\001\006\000"
 2198 001f 00000000 		.space	33
 2198      00000000 
 2198      00000000 
 2198      00000000 
 2198      00000000 
 2199 0040 12       		.byte	18
 2200 0041 000000   		.space	3
 2201              		.section	.rodata.rsynth_vacuum,"a"
 2202              		.align	2
 2203              		.type	rsynth_vacuum, %object
 2204              		.size	rsynth_vacuum, 68
 2205              	rsynth_vacuum:
 2206 0000 CD4C1243 		.word	1125272781
 2207 0004 00008442 		.word	1115947008
 2208 0008 48610A43 		.word	1124753736
 2209 000c 1C052B06 		.ascii	"\034\005+\006-\006\016\010\017\001\020\004*\007>\011"
 2209      2D060E08 
 2209      0F011004 
 2209      2A073E09 
 2210 001c 4D061508 		.ascii	"M\006\025\010\001\006\000"
 2210      010600
 2211 0023 00000000 		.space	29
 2211      00000000 
 2211      00000000 
 2211      00000000 
 2211      00000000 
 2212 0040 16       		.byte	22
 2213 0041 000000   		.space	3
 2214              		.section	.rodata.rsynth_tomb,"a"
 2215              		.align	2
 2216              		.type	rsynth_tomb, %object
 2217              		.size	rsynth_tomb, 68
 2218              	rsynth_tomb:
 2219 0000 CD4C1243 		.word	1125272781
 2220 0004 00000442 		.word	1107558400
 2221 0008 0A570E43 		.word	1125013258
 2222 000c 08060901 		.ascii	"\010\006\011\001\012\002N\012\025\010\001\006\000"
 2222      0A024E0A 
 2222      15080106 
ARM GAS  /tmp/ccaR7BRn.s 			page 43


 2222      00
 2223 0019 00000000 		.space	39
 2223      00000000 
 2223      00000000 
 2223      00000000 
 2223      00000000 
 2224 0040 0C       		.byte	12
 2225 0041 000000   		.space	3
 2226              		.section	.rodata.rsynth_time,"a"
 2227              		.align	2
 2228              		.type	rsynth_time, %object
 2229              		.size	rsynth_time, 68
 2230              	rsynth_time:
 2231 0000 CD4C1243 		.word	1125272781
 2232 0004 00000C42 		.word	1108082688
 2233 0008 9A190E43 		.word	1124997530
 2234 000c 08060901 		.ascii	"\010\006\011\001\012\002/\006-\006\025\010\001\006\000"
 2234      0A022F06 
 2234      2D061508 
 2234      010600
 2235 001b 00000000 		.space	37
 2235      00000000 
 2235      00000000 
 2235      00000000 
 2235      00000000 
 2236 0040 0E       		.byte	14
 2237 0041 000000   		.space	3
 2238              		.section	.rodata.rsynth_talk,"a"
 2239              		.align	2
 2240              		.type	rsynth_talk, %object
 2241              		.size	rsynth_talk, 68
 2242              	rsynth_talk:
 2243 0000 CD4C1243 		.word	1125272781
 2244 0004 00001842 		.word	1108869120
 2245 0008 71BD0D43 		.word	1124973937
 2246 000c 08060901 		.ascii	"\010\006\011\001\012\002N\012\016\010\017\001\020\004"
 2246      0A024E0A 
 2246      0E080F01 
 2246      1004
 2247 001a 010600   		.ascii	"\001\006\000"
 2248 001d 00000000 		.space	35
 2248      00000000 
 2248      00000000 
 2248      00000000 
 2248      00000000 
 2249 0040 10       		.byte	16
 2250 0041 000000   		.space	3
 2251              		.section	.rodata.rsynth_synthesizer,"a"
 2252              		.align	2
 2253              		.type	rsynth_synthesizer, %object
 2254              		.size	rsynth_synthesizer, 68
 2255              	rsynth_synthesizer:
 2256 0000 CD4C1243 		.word	1125272781
 2257 0004 0000AA42 		.word	1118437376
 2258 0008 9A190843 		.word	1124604314
 2259 000c 1F0C2D06 		.ascii	"\037\014-\006\026\010\035\017B\004 \004/\006-\006 \004"
 2259      16081D0F 
ARM GAS  /tmp/ccaR7BRn.s 			page 44


 2259      42042004 
 2259      2F062D06 
 2259      2004
 2260 001e 48041A0A 		.ascii	"H\004\032\012\001\006\000"
 2260      010600
 2261 0025 00000000 		.space	27
 2261      00000000 
 2261      00000000 
 2261      00000000 
 2261      00000000 
 2262 0040 18       		.byte	24
 2263 0041 000000   		.space	3
 2264              		.section	.rodata.rsynth_surface,"a"
 2265              		.align	2
 2266              		.type	rsynth_surface, %object
 2267              		.size	rsynth_surface, 68
 2268              	rsynth_surface:
 2269 0000 CD4C1243 		.word	1125272781
 2270 0004 00008C42 		.word	1116471296
 2271 0008 67E60943 		.word	1124722279
 2272 000c 1F0C4B10 		.ascii	"\037\014K\020\033\014+\006-\006\037\014\001\006\000"
 2272      1B0C2B06 
 2272      2D061F0C 
 2272      010600
 2273 001b 00000000 		.space	37
 2273      00000000 
 2273      00000000 
 2273      00000000 
 2273      00000000 
 2274 0040 0E       		.byte	14
 2275 0041 000000   		.space	3
 2276              		.section	.rodata.rsynth_subject,"a"
 2277              		.align	2
 2278              		.type	rsynth_subject, %object
 2279              		.size	rsynth_subject, 68
 2280              	rsynth_subject:
 2281 0000 CD4C1243 		.word	1125272781
 2282 0004 0000A242 		.word	1117913088
 2283 0008 7B940843 		.word	1124635771
 2284 000c 1F0C4D06 		.ascii	"\037\014M\006\005\014\006\001\007\000\013\010\014\001"
 2284      050C0601 
 2284      07000B08 
 2284      0C01
 2285 001a 0D012304 		.ascii	"\015\001#\004#\004B\004\016\010\017\001\020\004\010"
 2285      23044204 
 2285      0E080F01 
 2285      100408
 2286 0029 0609010A 		.ascii	"\006\011\001\012\002\001\006\000"
 2286      02010600 
 2287 0031 00000000 		.space	15
 2287      00000000 
 2287      00000000 
 2287      000000
 2288 0040 24       		.byte	36
 2289 0041 000000   		.space	3
 2290              		.section	.rodata.rsynth_sun,"a"
 2291              		.align	2
ARM GAS  /tmp/ccaR7BRn.s 			page 45


 2292              		.type	rsynth_sun, %object
 2293              		.size	rsynth_sun, 68
 2294              	rsynth_sun:
 2295 0000 CD4C1243 		.word	1125272781
 2296 0004 00000042 		.word	1107296256
 2297 0008 C3750E43 		.word	1125021123
 2298 000c 1F0C4D06 		.ascii	"\037\014M\006\026\010\001\006\000"
 2298      16080106 
 2298      00
 2299 0015 00000000 		.space	43
 2299      00000000 
 2299      00000000 
 2299      00000000 
 2299      00000000 
 2300 0040 08       		.byte	8
 2301 0041 000000   		.space	3
 2302              		.section	.rodata.rsynth_speak,"a"
 2303              		.align	2
 2304              		.type	rsynth_speak, %object
 2305              		.size	rsynth_speak, 68
 2306              	rsynth_speak:
 2307 0000 CD4C1243 		.word	1125272781
 2308 0004 00004442 		.word	1111752704
 2309 0008 856B0C43 		.word	1124887429
 2310 000c 1F0C0208 		.ascii	"\037\014\002\010\003\001\004\0029\007\016\010\017\001"
 2310      03010402 
 2310      39070E08 
 2310      0F01
 2311 001a 10040106 		.ascii	"\020\004\001\006\000"
 2311      00
 2312 001f 00000000 		.space	33
 2312      00000000 
 2312      00000000 
 2312      00000000 
 2312      00000000 
 2313 0040 12       		.byte	18
 2314 0041 000000   		.space	3
 2315              		.section	.rodata.rsynth_spectral,"a"
 2316              		.align	2
 2317              		.type	rsynth_spectral, %object
 2318              		.size	rsynth_spectral, 68
 2319              	rsynth_spectral:
 2320 0000 CD4C1243 		.word	1125272781
 2321 0004 00009C42 		.word	1117519872
 2322 0008 A4F00843 		.word	1124659364
 2323 000c 1F0C0208 		.ascii	"\037\014\002\010\003\001\004\002B\004\016\010\017\001"
 2323      03010402 
 2323      42040E08 
 2323      0F01
 2324 001a 10040806 		.ascii	"\020\004\010\006\011\001\012\002\031\013H\004&\010\001"
 2324      09010A02 
 2324      190B4804 
 2324      260801
 2325 0029 0600     		.ascii	"\006\000"
 2326 002b 00000000 		.space	21
 2326      00000000 
 2326      00000000 
ARM GAS  /tmp/ccaR7BRn.s 			page 46


 2326      00000000 
 2326      00000000 
 2327 0040 1E       		.byte	30
 2328 0041 000000   		.space	3
 2329              		.section	.rodata.rsynth_space,"a"
 2330              		.align	2
 2331              		.type	rsynth_space, %object
 2332              		.size	rsynth_space, 68
 2333              	rsynth_space:
 2334 0000 CD4C1243 		.word	1125272781
 2335 0004 00005442 		.word	1112801280
 2336 0008 A4F00B43 		.word	1124855972
 2337 000c 1F0C0208 		.ascii	"\037\014\002\010\003\001\004\002+\006-\006\037\014\001"
 2337      03010402 
 2337      2B062D06 
 2337      1F0C01
 2338 001b 0600     		.ascii	"\006\000"
 2339 001d 00000000 		.space	35
 2339      00000000 
 2339      00000000 
 2339      00000000 
 2339      00000000 
 2340 0040 10       		.byte	16
 2341 0041 000000   		.space	3
 2342              		.section	.rodata.rsynth_skin,"a"
 2343              		.align	2
 2344              		.type	rsynth_skin, %object
 2345              		.size	rsynth_skin, 68
 2346              	rsynth_skin:
 2347 0000 CD4C1243 		.word	1125272781
 2348 0004 00003442 		.word	1110704128
 2349 0008 67E60C43 		.word	1124918887
 2350 000c 1F0C0E08 		.ascii	"\037\014\016\010\017\001\020\004-\006\026\010\001\006"
 2350      0F011004 
 2350      2D061608 
 2350      0106
 2351 001a 00       		.ascii	"\000"
 2352 001b 00000000 		.space	37
 2352      00000000 
 2352      00000000 
 2352      00000000 
 2352      00000000 
 2353 0040 0E       		.byte	14
 2354 0041 000000   		.space	3
 2355              		.section	.rodata.rsynth_signal,"a"
 2356              		.align	2
 2357              		.type	rsynth_signal, %object
 2358              		.size	rsynth_signal, 68
 2359              	rsynth_signal:
 2360 0000 CD4C1243 		.word	1125272781
 2361 0004 00006C42 		.word	1114374144
 2362 0008 52380B43 		.word	1124808786
 2363 000c 1F0C2D06 		.ascii	"\037\014-\006\021\014\022\001\023\002\026\010H\004&"
 2363      110C1201 
 2363      13021608 
 2363      480426
 2364 001b 08010600 		.ascii	"\010\001\006\000"
ARM GAS  /tmp/ccaR7BRn.s 			page 47


 2365 001f 00000000 		.space	33
 2365      00000000 
 2365      00000000 
 2365      00000000 
 2365      00000000 
 2366 0040 12       		.byte	18
 2367 0041 000000   		.space	3
 2368              		.section	.rodata.rsynth_shell,"a"
 2369              		.align	2
 2370              		.type	rsynth_shell, %object
 2371              		.size	rsynth_shell, 68
 2372              	rsynth_shell:
 2373 0000 CD4C1243 		.word	1125272781
 2374 0004 0000F041 		.word	1106247680
 2375 0008 33B30E43 		.word	1125036851
 2376 000c 220C4204 		.ascii	"\"\014B\004&\010\001\006\000"
 2376      26080106 
 2376      00
 2377 0015 00000000 		.space	43
 2377      00000000 
 2377      00000000 
 2377      00000000 
 2377      00000000 
 2378 0040 08       		.byte	8
 2379 0041 000000   		.space	3
 2380              		.section	.rodata.rsynth_serpent,"a"
 2381              		.align	2
 2382              		.type	rsynth_serpent, %object
 2383              		.size	rsynth_serpent, 68
 2384              	rsynth_serpent:
 2385 0000 CD4C1243 		.word	1125272781
 2386 0004 00008442 		.word	1115947008
 2387 0008 48610A43 		.word	1124753736
 2388 000c 1F0C4B10 		.ascii	"\037\014K\020\002\010\003\001\004\002B\004\026\010\010"
 2388      02080301 
 2388      04024204 
 2388      160808
 2389 001b 0609010A 		.ascii	"\006\011\001\012\002\001\006\000"
 2389      02010600 
 2390 0023 00000000 		.space	29
 2390      00000000 
 2390      00000000 
 2390      00000000 
 2390      00000000 
 2391 0040 16       		.byte	22
 2392 0041 000000   		.space	3
 2393              		.section	.rodata.rsynth_sediment,"a"
 2394              		.align	2
 2395              		.type	rsynth_sediment, %object
 2396              		.size	rsynth_sediment, 68
 2397              	rsynth_sediment:
 2398 0000 CD4C1243 		.word	1125272781
 2399 0004 00009242 		.word	1116864512
 2400 0008 3E8A0943 		.word	1124698686
 2401 000c 1F0C4204 		.ascii	"\037\014B\004\013\010\014\001\015\001/\006-\006\025"
 2401      0B080C01 
 2401      0D012F06 
ARM GAS  /tmp/ccaR7BRn.s 			page 48


 2401      2D0615
 2402 001b 08420416 		.ascii	"\010B\004\026\010\010\006\011\001\012\002\001\006\000"
 2402      08080609 
 2402      010A0201 
 2402      0600
 2403 0029 00000000 		.space	23
 2403      00000000 
 2403      00000000 
 2403      00000000 
 2403      00000000 
 2404 0040 1C       		.byte	28
 2405 0041 000000   		.space	3
 2406              		.section	.rodata.rsynth_seclusion,"a"
 2407              		.align	2
 2408              		.type	rsynth_seclusion, %object
 2409              		.size	rsynth_seclusion, 68
 2410              	rsynth_seclusion:
 2411 0000 CD4C1243 		.word	1125272781
 2412 0004 00008842 		.word	1116209152
 2413 0008 D7230A43 		.word	1124738007
 2414 000c 1F0C4204 		.ascii	"\037\014B\004\016\010\017\001\020\004&\010>\011#\004"
 2414      0E080F01 
 2414      10042608 
 2414      3E092304 
 2415 001c 48041608 		.ascii	"H\004\026\010\001\006\000"
 2415      010600
 2416 0023 00000000 		.space	29
 2416      00000000 
 2416      00000000 
 2416      00000000 
 2416      00000000 
 2417 0040 16       		.byte	22
 2418 0041 000000   		.space	3
 2419              		.section	.rodata.rsynth_robot,"a"
 2420              		.align	2
 2421              		.type	rsynth_robot, %object
 2422              		.size	rsynth_robot, 68
 2423              	rsynth_robot:
 2424 0000 CD4C1243 		.word	1125272781
 2425 0004 00004C42 		.word	1112276992
 2426 0008 152E0C43 		.word	1124871701
 2427 000c 190B5206 		.ascii	"\031\013R\006\005\014\006\001\007\000R\006\010\006\011"
 2427      050C0601 
 2427      07005206 
 2427      080609
 2428 001b 010A0201 		.ascii	"\001\012\002\001\006\000"
 2428      0600
 2429 0021 00000000 		.space	31
 2429      00000000 
 2429      00000000 
 2429      00000000 
 2429      00000000 
 2430 0040 14       		.byte	20
 2431 0041 000000   		.space	3
 2432              		.section	.rodata.rsynth_return,"a"
 2433              		.align	2
 2434              		.type	rsynth_return, %object
ARM GAS  /tmp/ccaR7BRn.s 			page 49


 2435              		.size	rsynth_return, 68
 2436              	rsynth_return:
 2437 0000 CD4C1243 		.word	1125272781
 2438 0004 00006442 		.word	1113849856
 2439 0008 C3750B43 		.word	1124824515
 2440 000c 190B3907 		.ascii	"\031\0139\007\010\006\011\001\012\002K\020\026\010\001"
 2440      08060901 
 2440      0A024B10 
 2440      160801
 2441 001b 0600     		.ascii	"\006\000"
 2442 001d 00000000 		.space	35
 2442      00000000 
 2442      00000000 
 2442      00000000 
 2442      00000000 
 2443 0040 10       		.byte	16
 2444 0041 000000   		.space	3
 2445              		.section	.rodata.rsynth_red,"a"
 2446              		.align	2
 2447              		.type	rsynth_red, %object
 2448              		.size	rsynth_red, 68
 2449              	rsynth_red:
 2450 0000 CD4C1243 		.word	1125272781
 2451 0004 0000F841 		.word	1106771968
 2452 0008 7B940E43 		.word	1125028987
 2453 000c 190B4204 		.ascii	"\031\013B\004\013\010\014\001\015\001\001\006\000"
 2453      0B080C01 
 2453      0D010106 
 2453      00
 2454 0019 00000000 		.space	39
 2454      00000000 
 2454      00000000 
 2454      00000000 
 2454      00000000 
 2455 0040 0C       		.byte	12
 2456 0041 000000   		.space	3
 2457              		.section	.rodata.rsynth_real,"a"
 2458              		.align	2
 2459              		.type	rsynth_real, %object
 2460              		.size	rsynth_real, 68
 2461              	rsynth_real:
 2462 0000 CD4C1243 		.word	1125272781
 2463 0004 00001442 		.word	1108606976
 2464 0008 29DC0D43 		.word	1124981801
 2465 000c 190B3406 		.ascii	"\031\0134\0065\006&\010\001\006\000"
 2465      35062608 
 2465      010600
 2466 0017 00000000 		.space	41
 2466      00000000 
 2466      00000000 
 2466      00000000 
 2466      00000000 
 2467 0040 0A       		.byte	10
 2468 0041 000000   		.space	3
 2469              		.section	.rodata.rsynth_raven,"a"
 2470              		.align	2
 2471              		.type	rsynth_raven, %object
ARM GAS  /tmp/ccaR7BRn.s 			page 50


 2472              		.size	rsynth_raven, 68
 2473              	rsynth_raven:
 2474 0000 CD4C1243 		.word	1125272781
 2475 0004 00003842 		.word	1110966272
 2476 0008 AEC70C43 		.word	1124911022
 2477 000c 190B2B06 		.ascii	"\031\013+\006-\006\034\005B\004\026\010\001\006\000"
 2477      2D061C05 
 2477      42041608 
 2477      010600
 2478 001b 00000000 		.space	37
 2478      00000000 
 2478      00000000 
 2478      00000000 
 2478      00000000 
 2479 0040 0E       		.byte	14
 2480 0041 000000   		.space	3
 2481              		.section	.rodata.rsynth_radioactivity,"a"
 2482              		.align	2
 2483              		.type	rsynth_radioactivity, %object
 2484              		.size	rsynth_radioactivity, 68
 2485              	rsynth_radioactivity:
 2486 0000 CD4C1243 		.word	1125272781
 2487 0004 0000DA42 		.word	1121583104
 2488 0008 52380543 		.word	1124415570
 2489 000c 190B2B06 		.ascii	"\031\013+\006-\006\013\010\014\001\015\0014\0065\006"
 2489      2D060B08 
 2489      0C010D01 
 2489      34063506 
 2490 001c 41040E08 		.ascii	"A\004\016\010\017\001\020\004\010\006\011\001\012\002"
 2490      0F011004 
 2490      08060901 
 2490      0A02
 2491 002a 2D061C05 		.ascii	"-\006\034\005-\006\010\006\011\001\012\002-\006\001"
 2491      2D060806 
 2491      09010A02 
 2491      2D0601
 2492 0039 0600     		.ascii	"\006\000"
 2493 003b 00000000 		.space	5
 2493      00
 2494 0040 2E       		.byte	46
 2495 0041 000000   		.space	3
 2496              		.section	.rodata.rsynth_pure,"a"
 2497              		.align	2
 2498              		.type	rsynth_pure, %object
 2499              		.size	rsynth_pure, 68
 2500              	rsynth_pure:
 2501 0000 CD4C1243 		.word	1125272781
 2502 0004 00001C42 		.word	1109131264
 2503 0008 B99E0D43 		.word	1124966073
 2504 000c 02080301 		.ascii	"\002\010\003\001\004\002*\007A\004\031\013\001\006\000"
 2504      04022A07 
 2504      4104190B 
 2504      010600
 2505 001b 00000000 		.space	37
 2505      00000000 
 2505      00000000 
 2505      00000000 
ARM GAS  /tmp/ccaR7BRn.s 			page 51


 2505      00000000 
 2506 0040 0E       		.byte	14
 2507 0041 000000   		.space	3
 2508              		.section	.rodata.rsynth_program,"a"
 2509              		.align	2
 2510              		.type	rsynth_program, %object
 2511              		.size	rsynth_program, 68
 2512              	rsynth_program:
 2513 0000 CD4C1243 		.word	1125272781
 2514 0004 00009242 		.word	1116864512
 2515 0008 3E8A0943 		.word	1124698686
 2516 000c 02080301 		.ascii	"\002\010\003\001\004\002\031\013R\006\021\014\022\001"
 2516      0402190B 
 2516      5206110C 
 2516      1201
 2517 001a 1302190B 		.ascii	"\023\002\031\013O\005\025\010\001\006\000"
 2517      4F051508 
 2517      010600
 2518 0025 00000000 		.space	27
 2518      00000000 
 2518      00000000 
 2518      00000000 
 2518      00000000 
 2519 0040 18       		.byte	24
 2520 0041 000000   		.space	3
 2521              		.section	.rodata.rsynth_processor,"a"
 2522              		.align	2
 2523              		.type	rsynth_processor, %object
 2524              		.size	rsynth_processor, 68
 2525              	rsynth_processor:
 2526 0000 CD4C1243 		.word	1125272781
 2527 0004 0000A842 		.word	1118306304
 2528 0008 52380843 		.word	1124612178
 2529 000c 02080301 		.ascii	"\002\010\003\001\004\002\031\0133\0062\006\037\014B"
 2529      0402190B 
 2529      33063206 
 2529      1F0C42
 2530 001b 041F0C4B 		.ascii	"\004\037\014K\020\001\006\000"
 2530      10010600 
 2531 0023 00000000 		.space	29
 2531      00000000 
 2531      00000000 
 2531      00000000 
 2531      00000000 
 2532 0040 16       		.byte	22
 2533 0041 000000   		.space	3
 2534              		.section	.rodata.rsynth_plague,"a"
 2535              		.align	2
 2536              		.type	rsynth_plague, %object
 2537              		.size	rsynth_plague, 68
 2538              	rsynth_plague:
 2539 0000 CD4C1243 		.word	1125272781
 2540 0004 00005042 		.word	1112539136
 2541 0008 5C0F0C43 		.word	1124863836
 2542 000c 02080301 		.ascii	"\002\010\003\001\004\002&\010+\006-\006\021\014\022"
 2542      04022608 
 2542      2B062D06 
ARM GAS  /tmp/ccaR7BRn.s 			page 52


 2542      110C12
 2543 001b 01130201 		.ascii	"\001\023\002\001\006\000"
 2543      0600
 2544 0021 00000000 		.space	31
 2544      00000000 
 2544      00000000 
 2544      00000000 
 2544      00000000 
 2545 0040 14       		.byte	20
 2546 0041 000000   		.space	3
 2547              		.section	.rodata.rsynth_pixel,"a"
 2548              		.align	2
 2549              		.type	rsynth_pixel, %object
 2550              		.size	rsynth_pixel, 68
 2551              	rsynth_pixel:
 2552 0000 CD4C1243 		.word	1125272781
 2553 0004 00008442 		.word	1115947008
 2554 0008 48610A43 		.word	1124753736
 2555 000c 02080301 		.ascii	"\002\010\003\001\004\002/\006-\006\016\010\017\001\020"
 2555      04022F06 
 2555      2D060E08 
 2555      0F0110
 2556 001b 041F0C42 		.ascii	"\004\037\014B\004&\010\001\006\000"
 2556      04260801 
 2556      0600
 2557 0025 00000000 		.space	27
 2557      00000000 
 2557      00000000 
 2557      00000000 
 2557      00000000 
 2558 0040 18       		.byte	24
 2559 0041 000000   		.space	3
 2560              		.section	.rodata.rsynth_piss,"a"
 2561              		.align	2
 2562              		.type	rsynth_piss, %object
 2563              		.size	rsynth_piss, 68
 2564              	rsynth_piss:
 2565 0000 CD4C1243 		.word	1125272781
 2566 0004 00000C42 		.word	1108082688
 2567 0008 9A190E43 		.word	1124997530
 2568 000c 02080301 		.ascii	"\002\010\003\001\004\002-\006\037\014\001\006\000"
 2568      04022D06 
 2568      1F0C0106 
 2568      00
 2569 0019 00000000 		.space	39
 2569      00000000 
 2569      00000000 
 2569      00000000 
 2569      00000000 
 2570 0040 0C       		.byte	12
 2571 0041 000000   		.space	3
 2572              		.section	.rodata.rsynth_physical,"a"
 2573              		.align	2
 2574              		.type	rsynth_physical, %object
 2575              		.size	rsynth_physical, 68
 2576              	rsynth_physical:
 2577 0000 CD4C1243 		.word	1125272781
ARM GAS  /tmp/ccaR7BRn.s 			page 53


 2578 0004 00009242 		.word	1116864512
 2579 0008 3E8A0943 		.word	1124698686
 2580 000c 1B0C2D06 		.ascii	"\033\014-\006\037\014/\006-\006\016\010\017\001\020"
 2580      1F0C2F06 
 2580      2D060E08 
 2580      0F0110
 2581 001b 04480426 		.ascii	"\004H\004&\010\001\006\000"
 2581      08010600 
 2582 0023 00000000 		.space	29
 2582      00000000 
 2582      00000000 
 2582      00000000 
 2582      00000000 
 2583 0040 16       		.byte	22
 2584 0041 000000   		.space	3
 2585              		.section	.rodata.rsynth_on,"a"
 2586              		.align	2
 2587              		.type	rsynth_on, %object
 2588              		.size	rsynth_on, 68
 2589              	rsynth_on:
 2590 0000 CD4C1243 		.word	1125272781
 2591 0004 0000A041 		.word	1101004800
 2592 0008 67E60F43 		.word	1125115495
 2593 000c 52061608 		.ascii	"R\006\026\010\001\006\000"
 2593      010600
 2594 0013 00000000 		.space	45
 2594      00000000 
 2594      00000000 
 2594      00000000 
 2594      00000000 
 2595 0040 06       		.byte	6
 2596 0041 000000   		.space	3
 2597              		.section	.rodata.rsynth_off,"a"
 2598              		.align	2
 2599              		.type	rsynth_off, %object
 2600              		.size	rsynth_off, 68
 2601              	rsynth_off:
 2602 0000 CD4C1243 		.word	1125272781
 2603 0004 0000C041 		.word	1103101952
 2604 0008 856B0F43 		.word	1125084037
 2605 000c 52061B0C 		.ascii	"R\006\033\014\001\006\000"
 2605      010600
 2606 0013 00000000 		.space	45
 2606      00000000 
 2606      00000000 
 2606      00000000 
 2606      00000000 
 2607 0040 06       		.byte	6
 2608 0041 000000   		.space	3
 2609              		.section	.rodata.rsynth_obscure,"a"
 2610              		.align	2
 2611              		.type	rsynth_obscure, %object
 2612              		.size	rsynth_obscure, 68
 2613              	rsynth_obscure:
 2614 0000 CD4C1243 		.word	1125272781
 2615 0004 00009042 		.word	1116733440
 2616 0008 F6A80943 		.word	1124706550
ARM GAS  /tmp/ccaR7BRn.s 			page 54


 2617 000c 5206050C 		.ascii	"R\006\005\014\006\001\007\000\037\014\016\010\017\001"
 2617      06010700 
 2617      1F0C0E08 
 2617      0F01
 2618 001a 10042A07 		.ascii	"\020\004*\007A\004\031\013\001\006\000"
 2618      4104190B 
 2618      010600
 2619 0025 00000000 		.space	27
 2619      00000000 
 2619      00000000 
 2619      00000000 
 2619      00000000 
 2620 0040 18       		.byte	24
 2621 0041 000000   		.space	3
 2622              		.section	.rodata.rsynth_nuclear,"a"
 2623              		.align	2
 2624              		.type	rsynth_nuclear, %object
 2625              		.size	rsynth_nuclear, 68
 2626              	rsynth_nuclear:
 2627 0000 CD4C1243 		.word	1125272781
 2628 0004 00007842 		.word	1115160576
 2629 0008 29DC0A43 		.word	1124785193
 2630 000c 16084D06 		.ascii	"\026\010M\006\016\010\017\001\020\004H\004&\0109\007"
 2630      0E080F01 
 2630      10044804 
 2630      26083907 
 2631 001c 1A0A0106 		.ascii	"\032\012\001\006\000"
 2631      00
 2632 0021 00000000 		.space	31
 2632      00000000 
 2632      00000000 
 2632      00000000 
 2632      00000000 
 2633 0040 14       		.byte	20
 2634 0041 000000   		.space	3
 2635              		.section	.rodata.rsynth_nothing,"a"
 2636              		.align	2
 2637              		.type	rsynth_nothing, %object
 2638              		.size	rsynth_nothing, 68
 2639              	rsynth_nothing:
 2640 0000 CD4C1243 		.word	1125272781
 2641 0004 00004442 		.word	1111752704
 2642 0008 856B0C43 		.word	1124887429
 2643 000c 16085206 		.ascii	"\026\010R\006\035\017-\006\027\010\001\006\000"
 2643      1D0F2D06 
 2643      17080106 
 2643      00
 2644 0019 00000000 		.space	39
 2644      00000000 
 2644      00000000 
 2644      00000000 
 2644      00000000 
 2645 0040 0C       		.byte	12
 2646 0041 000000   		.space	3
 2647              		.section	.rodata.rsynth_noise,"a"
 2648              		.align	2
 2649              		.type	rsynth_noise, %object
ARM GAS  /tmp/ccaR7BRn.s 			page 55


 2650              		.size	rsynth_noise, 68
 2651              	rsynth_noise:
 2652 0000 CD4C1243 		.word	1125272781
 2653 0004 0000F041 		.word	1106247680
 2654 0008 33B30E43 		.word	1125036851
 2655 000c 16083106 		.ascii	"\026\0101\006-\006 \004\001\006\000"
 2655      2D062004 
 2655      010600
 2656 0017 00000000 		.space	41
 2656      00000000 
 2656      00000000 
 2656      00000000 
 2656      00000000 
 2657 0040 0A       		.byte	10
 2658 0041 000000   		.space	3
 2659              		.section	.rodata.rsynth_nigredo,"a"
 2660              		.align	2
 2661              		.type	rsynth_nigredo, %object
 2662              		.size	rsynth_nigredo, 68
 2663              	rsynth_nigredo:
 2664 0000 CD4C1243 		.word	1125272781
 2665 0004 00009042 		.word	1116733440
 2666 0008 F6A80943 		.word	1124706550
 2667 000c 16082D06 		.ascii	"\026\010-\006\021\014\022\001\023\002\031\013B\004\013"
 2667      110C1201 
 2667      1302190B 
 2667      42040B
 2668 001b 080C010D 		.ascii	"\010\014\001\015\0013\0062\006\001\006\000"
 2668      01330632 
 2668      06010600 
 2669 0027 00000000 		.space	25
 2669      00000000 
 2669      00000000 
 2669      00000000 
 2669      00000000 
 2670 0040 1A       		.byte	26
 2671 0041 000000   		.space	3
 2672              		.section	.rodata.rsynth_night,"a"
 2673              		.align	2
 2674              		.type	rsynth_night, %object
 2675              		.size	rsynth_night, 68
 2676              	rsynth_night:
 2677 0000 CD4C1243 		.word	1125272781
 2678 0004 00000C42 		.word	1108082688
 2679 0008 9A190E43 		.word	1124997530
 2680 000c 16082F06 		.ascii	"\026\010/\006-\006\010\006\011\001\012\002\001\006\000"
 2680      2D060806 
 2680      09010A02 
 2680      010600
 2681 001b 00000000 		.space	37
 2681      00000000 
 2681      00000000 
 2681      00000000 
 2681      00000000 
 2682 0040 0E       		.byte	14
 2683 0041 000000   		.space	3
 2684              		.section	.rodata.rsynth_network,"a"
ARM GAS  /tmp/ccaR7BRn.s 			page 56


 2685              		.align	2
 2686              		.type	rsynth_network, %object
 2687              		.size	rsynth_network, 68
 2688              	rsynth_network:
 2689 0000 CD4C1243 		.word	1125272781
 2690 0004 00008042 		.word	1115684864
 2691 0008 B99E0A43 		.word	1124769465
 2692 000c 16084204 		.ascii	"\026\010B\004\010\006\011\001\012\002)\010K\020\016"
 2692      08060901 
 2692      0A022908 
 2692      4B100E
 2693 001b 080F0110 		.ascii	"\010\017\001\020\004\001\006\000"
 2693      04010600 
 2694 0023 00000000 		.space	29
 2694      00000000 
 2694      00000000 
 2694      00000000 
 2694      00000000 
 2695 0040 16       		.byte	22
 2696 0041 000000   		.space	3
 2697              		.section	.rodata.rsynth_negative,"a"
 2698              		.align	2
 2699              		.type	rsynth_negative, %object
 2700              		.size	rsynth_negative, 68
 2701              	rsynth_negative:
 2702 0000 CD4C1243 		.word	1125272781
 2703 0004 00008042 		.word	1115684864
 2704 0008 B99E0A43 		.word	1124769465
 2705 000c 16084204 		.ascii	"\026\010B\004\021\014\022\001\023\002O\005\010\006\011"
 2705      110C1201 
 2705      13024F05 
 2705      080609
 2706 001b 010A022F 		.ascii	"\001\012\002/\006-\006\034\005\001\006\000"
 2706      062D061C 
 2706      05010600 
 2707 0027 00000000 		.space	25
 2707      00000000 
 2707      00000000 
 2707      00000000 
 2707      00000000 
 2708 0040 1A       		.byte	26
 2709 0041 000000   		.space	3
 2710              		.section	.rodata.rsynth_moon,"a"
 2711              		.align	2
 2712              		.type	rsynth_moon, %object
 2713              		.size	rsynth_moon, 68
 2714              	rsynth_moon:
 2715 0000 CD4C1243 		.word	1125272781
 2716 0004 0000F841 		.word	1106771968
 2717 0008 7B940E43 		.word	1125028987
 2718 000c 15083E09 		.ascii	"\025\010>\011\026\010\001\006\000"
 2718      16080106 
 2718      00
 2719 0015 00000000 		.space	43
 2719      00000000 
 2719      00000000 
 2719      00000000 
ARM GAS  /tmp/ccaR7BRn.s 			page 57


 2719      00000000 
 2720 0040 08       		.byte	8
 2721 0041 000000   		.space	3
 2722              		.section	.rodata.rsynth_module,"a"
 2723              		.align	2
 2724              		.type	rsynth_module, %object
 2725              		.size	rsynth_module, 68
 2726              	rsynth_module:
 2727 0000 CD4C1243 		.word	1125272781
 2728 0004 00003C42 		.word	1111228416
 2729 0008 F6A80C43 		.word	1124903158
 2730 000c 15085206 		.ascii	"\025\010R\006\013\010\014\001\015\001>\011&\010\001"
 2730      0B080C01 
 2730      0D013E09 
 2730      260801
 2731 001b 0600     		.ascii	"\006\000"
 2732 001d 00000000 		.space	35
 2732      00000000 
 2732      00000000 
 2732      00000000 
 2732      00000000 
 2733 0040 10       		.byte	16
 2734 0041 000000   		.space	3
 2735              		.section	.rodata.rsynth_mind,"a"
 2736              		.align	2
 2737              		.type	rsynth_mind, %object
 2738              		.size	rsynth_mind, 68
 2739              	rsynth_mind:
 2740 0000 CD4C1243 		.word	1125272781
 2741 0004 00003042 		.word	1110441984
 2742 0008 1F050D43 		.word	1124926751
 2743 000c 15082F06 		.ascii	"\025\010/\006-\006\026\010\013\010\014\001\015\001\001"
 2743      2D061608 
 2743      0B080C01 
 2743      0D0101
 2744 001b 0600     		.ascii	"\006\000"
 2745 001d 00000000 		.space	35
 2745      00000000 
 2745      00000000 
 2745      00000000 
 2745      00000000 
 2746 0040 10       		.byte	16
 2747 0041 000000   		.space	3
 2748              		.section	.rodata.rsynth_micro,"a"
 2749              		.align	2
 2750              		.type	rsynth_micro, %object
 2751              		.size	rsynth_micro, 68
 2752              	rsynth_micro:
 2753 0000 CD4C1243 		.word	1125272781
 2754 0004 00006042 		.word	1113587712
 2755 0008 7B940B43 		.word	1124832379
 2756 000c 15082D06 		.ascii	"\025\010-\006\016\010\017\001\020\004\031\0133\0062"
 2756      0E080F01 
 2756      1004190B 
 2756      330632
 2757 001b 06010600 		.ascii	"\006\001\006\000"
 2758 001f 00000000 		.space	33
ARM GAS  /tmp/ccaR7BRn.s 			page 58


 2758      00000000 
 2758      00000000 
 2758      00000000 
 2758      00000000 
 2759 0040 12       		.byte	18
 2760 0041 000000   		.space	3
 2761              		.section	.rodata.rsynth_metal,"a"
 2762              		.align	2
 2763              		.type	rsynth_metal, %object
 2764              		.size	rsynth_metal, 68
 2765              	rsynth_metal:
 2766 0000 CD4C1243 		.word	1125272781
 2767 0004 00001C42 		.word	1109131264
 2768 0008 B99E0D43 		.word	1124966073
 2769 000c 15084204 		.ascii	"\025\010B\004\010\006\011\001\012\002H\004&\010\001"
 2769      08060901 
 2769      0A024804 
 2769      260801
 2770 001b 0600     		.ascii	"\006\000"
 2771 001d 00000000 		.space	35
 2771      00000000 
 2771      00000000 
 2771      00000000 
 2771      00000000 
 2772 0040 10       		.byte	16
 2773 0041 000000   		.space	3
 2774              		.section	.rodata.rsynth_memory,"a"
 2775              		.align	2
 2776              		.type	rsynth_memory, %object
 2777              		.size	rsynth_memory, 68
 2778              	rsynth_memory:
 2779 0000 CD4C1243 		.word	1125272781
 2780 0004 00004442 		.word	1111752704
 2781 0008 856B0C43 		.word	1124887429
 2782 000c 15084204 		.ascii	"\025\010B\004\025\010R\006\031\013-\006\001\006\000"
 2782      15085206 
 2782      190B2D06 
 2782      010600
 2783 001b 00000000 		.space	37
 2783      00000000 
 2783      00000000 
 2783      00000000 
 2783      00000000 
 2784 0040 0E       		.byte	14
 2785 0041 000000   		.space	3
 2786              		.section	.rodata.rsynth_matter,"a"
 2787              		.align	2
 2788              		.type	rsynth_matter, %object
 2789              		.size	rsynth_matter, 68
 2790              	rsynth_matter:
 2791 0000 CD4C1243 		.word	1125272781
 2792 0004 00002842 		.word	1109917696
 2793 0008 90420D43 		.word	1124942480
 2794 000c 15084F05 		.ascii	"\025\010O\005\010\006\011\001\012\002H\004\032\012\001"
 2794      08060901 
 2794      0A024804 
 2794      1A0A01
ARM GAS  /tmp/ccaR7BRn.s 			page 59


 2795 001b 0600     		.ascii	"\006\000"
 2796 001d 00000000 		.space	35
 2796      00000000 
 2796      00000000 
 2796      00000000 
 2796      00000000 
 2797 0040 10       		.byte	16
 2798 0041 000000   		.space	3
 2799              		.section	.rodata.rsynth_mars,"a"
 2800              		.align	2
 2801              		.type	rsynth_mars, %object
 2802              		.size	rsynth_mars, 68
 2803              	rsynth_mars:
 2804 0000 CD4C1243 		.word	1125272781
 2805 0004 00000842 		.word	1107820544
 2806 0008 52380E43 		.word	1125005394
 2807 000c 15084F05 		.ascii	"\025\010O\005\031\013 \004\001\006\000"
 2807      190B2004 
 2807      010600
 2808 0017 00000000 		.space	41
 2808      00000000 
 2808      00000000 
 2808      00000000 
 2808      00000000 
 2809 0040 0A       		.byte	10
 2810 0041 000000   		.space	3
 2811              		.section	.rodata.rsynth_machine,"a"
 2812              		.align	2
 2813              		.type	rsynth_machine, %object
 2814              		.size	rsynth_machine, 68
 2815              	rsynth_machine:
 2816 0000 CD4C1243 		.word	1125272781
 2817 0004 00005442 		.word	1112801280
 2818 0008 A4F00B43 		.word	1124855972
 2819 000c 15084F05 		.ascii	"\025\010O\005\010\006!\010/\006-\006\026\010\001\006"
 2819      08062108 
 2819      2F062D06 
 2819      16080106 
 2820 001c 00       		.ascii	"\000"
 2821 001d 00000000 		.space	35
 2821      00000000 
 2821      00000000 
 2821      00000000 
 2821      00000000 
 2822 0040 10       		.byte	16
 2823 0041 000000   		.space	3
 2824              		.section	.rodata.rsynth_love,"a"
 2825              		.align	2
 2826              		.type	rsynth_love, %object
 2827              		.size	rsynth_love, 68
 2828              	rsynth_love:
 2829 0000 CD4C1243 		.word	1125272781
 2830 0004 0000C841 		.word	1103626240
 2831 0008 CD4C0F43 		.word	1125076173
 2832 000c 26084D06 		.ascii	"&\010M\006\034\005\001\006\000"
 2832      1C050106 
 2832      00
ARM GAS  /tmp/ccaR7BRn.s 			page 60


 2833 0015 00000000 		.space	43
 2833      00000000 
 2833      00000000 
 2833      00000000 
 2833      00000000 
 2834 0040 08       		.byte	8
 2835 0041 000000   		.space	3
 2836              		.section	.rodata.rsynth_live,"a"
 2837              		.align	2
 2838              		.type	rsynth_live, %object
 2839              		.size	rsynth_live, 68
 2840              	rsynth_live:
 2841 0000 CD4C1243 		.word	1125272781
 2842 0004 0000F841 		.word	1106771968
 2843 0008 7B940E43 		.word	1125028987
 2844 000c 26082F06 		.ascii	"&\010/\006-\006\034\005\001\006\000"
 2844      2D061C05 
 2844      010600
 2845 0017 00000000 		.space	41
 2845      00000000 
 2845      00000000 
 2845      00000000 
 2845      00000000 
 2846 0040 0A       		.byte	10
 2847 0041 000000   		.space	3
 2848              		.section	.rodata.rsynth_laser,"a"
 2849              		.align	2
 2850              		.type	rsynth_laser, %object
 2851              		.size	rsynth_laser, 68
 2852              	rsynth_laser:
 2853 0000 CD4C1243 		.word	1125272781
 2854 0004 00005042 		.word	1112539136
 2855 0008 5C0F0C43 		.word	1124863836
 2856 000c 26082B06 		.ascii	"&\010+\006-\006\037\014H\004\032\012\001\006\000"
 2856      2D061F0C 
 2856      48041A0A 
 2856      010600
 2857 001b 00000000 		.space	37
 2857      00000000 
 2857      00000000 
 2857      00000000 
 2857      00000000 
 2858 0040 0E       		.byte	14
 2859 0041 000000   		.space	3
 2860              		.section	.rodata.rsynth_labyrinth,"a"
 2861              		.align	2
 2862              		.type	rsynth_labyrinth, %object
 2863              		.size	rsynth_labyrinth, 68
 2864              	rsynth_labyrinth:
 2865 0000 CD4C1243 		.word	1125272781
 2866 0004 00009C42 		.word	1117519872
 2867 0008 A4F00843 		.word	1124659364
 2868 000c 26084F05 		.ascii	"&\010O\005\005\014\006\001\007\000-\006\031\013-\006"
 2868      050C0601 
 2868      07002D06 
 2868      190B2D06 
 2869 001c 16081D0F 		.ascii	"\026\010\035\017\001\006\000"
ARM GAS  /tmp/ccaR7BRn.s 			page 61


 2869      010600
 2870 0023 00000000 		.space	29
 2870      00000000 
 2870      00000000 
 2870      00000000 
 2870      00000000 
 2871 0040 16       		.byte	22
 2872 0041 000000   		.space	3
 2873              		.section	.rodata.rsynth_kill,"a"
 2874              		.align	2
 2875              		.type	rsynth_kill, %object
 2876              		.size	rsynth_kill, 68
 2877              	rsynth_kill:
 2878 0000 CD4C1243 		.word	1125272781
 2879 0004 00000442 		.word	1107558400
 2880 0008 0A570E43 		.word	1125013258
 2881 000c 0E080F01 		.ascii	"\016\010\017\001\020\004-\006&\010\001\006\000"
 2881      10042D06 
 2881      26080106 
 2881      00
 2882 0019 00000000 		.space	39
 2882      00000000 
 2882      00000000 
 2882      00000000 
 2882      00000000 
 2883 0040 0C       		.byte	12
 2884 0041 000000   		.space	3
 2885              		.section	.rodata.rsynth_keyboard,"a"
 2886              		.align	2
 2887              		.type	rsynth_keyboard, %object
 2888              		.size	rsynth_keyboard, 68
 2889              	rsynth_keyboard:
 2890 0000 CD4C1243 		.word	1125272781
 2891 0004 00009042 		.word	1116733440
 2892 0008 F6A80943 		.word	1124706550
 2893 000c 0E080F01 		.ascii	"\016\010\017\001\020\0049\007\005\014\006\001\007\000"
 2893      10043907 
 2893      050C0601 
 2893      0700
 2894 001a 33063206 		.ascii	"3\0062\006\031\013\013\010\014\001\015\001\001\006\000"
 2894      190B0B08 
 2894      0C010D01 
 2894      010600
 2895 0029 00000000 		.space	23
 2895      00000000 
 2895      00000000 
 2895      00000000 
 2895      00000000 
 2896 0040 1C       		.byte	28
 2897 0041 000000   		.space	3
 2898              		.section	.rodata.rsynth_instruction,"a"
 2899              		.align	2
 2900              		.type	rsynth_instruction, %object
 2901              		.size	rsynth_instruction, 68
 2902              	rsynth_instruction:
 2903 0000 CD4C1243 		.word	1125272781
 2904 0004 0000BE42 		.word	1119748096
ARM GAS  /tmp/ccaR7BRn.s 			page 62


 2905 0008 67E60643 		.word	1124525671
 2906 000c 2D061608 		.ascii	"-\006\026\010\037\014\010\006\011\001\012\002\031\013"
 2906      1F0C0806 
 2906      09010A02 
 2906      190B
 2907 001a 4D060E08 		.ascii	"M\006\016\010\017\001\020\004\"\014H\004\026\010\001"
 2907      0F011004 
 2907      220C4804 
 2907      160801
 2908 0029 0600     		.ascii	"\006\000"
 2909 002b 00000000 		.space	21
 2909      00000000 
 2909      00000000 
 2909      00000000 
 2909      00000000 
 2910 0040 1E       		.byte	30
 2911 0041 000000   		.space	3
 2912              		.section	.rodata.rsynth_interpreter,"a"
 2913              		.align	2
 2914              		.type	rsynth_interpreter, %object
 2915              		.size	rsynth_interpreter, 68
 2916              	rsynth_interpreter:
 2917 0000 CD4C1243 		.word	1125272781
 2918 0004 0000C242 		.word	1120010240
 2919 0008 F6A80643 		.word	1124509942
 2920 000c 2D061608 		.ascii	"-\006\026\010\010\006\011\001\012\002K\020\002\010\003"
 2920      08060901 
 2920      0A024B10 
 2920      020803
 2921 001b 01040219 		.ascii	"\001\004\002\031\0139\007\010\006\011\001\012\002H\004"
 2921      0B390708 
 2921      0609010A 
 2921      024804
 2922 002a 1A0A0106 		.ascii	"\032\012\001\006\000"
 2922      00
 2923 002f 00000000 		.space	17
 2923      00000000 
 2923      00000000 
 2923      00000000 
 2923      00
 2924 0040 22       		.byte	34
 2925 0041 000000   		.space	3
 2926              		.section	.rodata.rsynth_information,"a"
 2927              		.align	2
 2928              		.type	rsynth_information, %object
 2929              		.size	rsynth_information, 68
 2930              	rsynth_information:
 2931 0000 CD4C1243 		.word	1125272781
 2932 0004 0000BA42 		.word	1119485952
 2933 0008 D7230743 		.word	1124541399
 2934 000c 2D061608 		.ascii	"-\006\026\010\033\014R\006\031\013\025\010+\006-\006"
 2934      1B0C5206 
 2934      190B1508 
 2934      2B062D06 
 2935 001c 220C4804 		.ascii	"\"\014H\004\026\010\001\006\000"
 2935      16080106 
 2935      00
ARM GAS  /tmp/ccaR7BRn.s 			page 63


 2936 0025 00000000 		.space	27
 2936      00000000 
 2936      00000000 
 2936      00000000 
 2936      00000000 
 2937 0040 18       		.byte	24
 2938 0041 000000   		.space	3
 2939              		.section	.rodata.rsynth_infection,"a"
 2940              		.align	2
 2941              		.type	rsynth_infection, %object
 2942              		.size	rsynth_infection, 68
 2943              	rsynth_infection:
 2944 0000 CD4C1243 		.word	1125272781
 2945 0004 00009242 		.word	1116864512
 2946 0008 3E8A0943 		.word	1124698686
 2947 000c 2D061608 		.ascii	"-\006\026\010\033\014B\004\016\010\017\001\020\004\""
 2947      1B0C4204 
 2947      0E080F01 
 2947      100422
 2948 001b 0C480416 		.ascii	"\014H\004\026\010\001\006\000"
 2948      08010600 
 2949 0023 00000000 		.space	29
 2949      00000000 
 2949      00000000 
 2949      00000000 
 2949      00000000 
 2950 0040 16       		.byte	22
 2951 0041 000000   		.space	3
 2952              		.section	.rodata.rsynth_human,"a"
 2953              		.align	2
 2954              		.type	rsynth_human, %object
 2955              		.size	rsynth_human, 68
 2956              	rsynth_human:
 2957 0000 CD4C1243 		.word	1125272781
 2958 0004 00005442 		.word	1112801280
 2959 0008 A4F00B43 		.word	1124855972
 2960 000c 250A2A07 		.ascii	"%\012*\007>\011\025\010O\005\026\010\001\006\000"
 2960      3E091508 
 2960      4F051608 
 2960      010600
 2961 001b 00000000 		.space	37
 2961      00000000 
 2961      00000000 
 2961      00000000 
 2961      00000000 
 2962 0040 0E       		.byte	14
 2963 0041 000000   		.space	3
 2964              		.section	.rodata.rsynth_horror,"a"
 2965              		.align	2
 2966              		.type	rsynth_horror, %object
 2967              		.size	rsynth_horror, 68
 2968              	rsynth_horror:
 2969 0000 CD4C1243 		.word	1125272781
 2970 0004 00004442 		.word	1111752704
 2971 0008 856B0C43 		.word	1124887429
 2972 000c 250A5206 		.ascii	"%\012R\006\031\013K\020\001\006\000"
 2972      190B4B10 
ARM GAS  /tmp/ccaR7BRn.s 			page 64


 2972      010600
 2973 0017 00000000 		.space	41
 2973      00000000 
 2973      00000000 
 2973      00000000 
 2973      00000000 
 2974 0040 0A       		.byte	10
 2975 0041 000000   		.space	3
 2976              		.section	.rodata.rsynth_hear,"a"
 2977              		.align	2
 2978              		.type	rsynth_hear, %object
 2979              		.size	rsynth_hear, 68
 2980              	rsynth_hear:
 2981 0000 CD4C1243 		.word	1125272781
 2982 0004 00000442 		.word	1107558400
 2983 0008 0A570E43 		.word	1125013258
 2984 000c 250A3907 		.ascii	"%\0129\007\032\012\001\006\000"
 2984      1A0A0106 
 2984      00
 2985 0015 00000000 		.space	43
 2985      00000000 
 2985      00000000 
 2985      00000000 
 2985      00000000 
 2986 0040 08       		.byte	8
 2987 0041 000000   		.space	3
 2988              		.section	.rodata.rsynth_heart,"a"
 2989              		.align	2
 2990              		.type	rsynth_heart, %object
 2991              		.size	rsynth_heart, 68
 2992              	rsynth_heart:
 2993 0000 CD4C1243 		.word	1125272781
 2994 0004 00002C42 		.word	1110179840
 2995 0008 D7230D43 		.word	1124934615
 2996 000c 250A3907 		.ascii	"%\0129\007\031\013\010\006\011\001\012\002\001\006\000"
 2996      190B0806 
 2996      09010A02 
 2996      010600
 2997 001b 00000000 		.space	37
 2997      00000000 
 2997      00000000 
 2997      00000000 
 2997      00000000 
 2998 0040 0E       		.byte	14
 2999 0041 000000   		.space	3
 3000              		.section	.rodata.rsynth_haunt,"a"
 3001              		.align	2
 3002              		.type	rsynth_haunt, %object
 3003              		.size	rsynth_haunt, 68
 3004              	rsynth_haunt:
 3005 0000 CD4C1243 		.word	1125272781
 3006 0004 00002C42 		.word	1110179840
 3007 0008 D7230D43 		.word	1124934615
 3008 000c 250A4E0A 		.ascii	"%\012N\012\026\010\010\006\011\001\012\002\001\006\000"
 3008      16080806 
 3008      09010A02 
 3008      010600
ARM GAS  /tmp/ccaR7BRn.s 			page 65


 3009 001b 00000000 		.space	37
 3009      00000000 
 3009      00000000 
 3009      00000000 
 3009      00000000 
 3010 0040 0E       		.byte	14
 3011 0041 000000   		.space	3
 3012              		.section	.rodata.rsynth_ground,"a"
 3013              		.align	2
 3014              		.type	rsynth_ground, %object
 3015              		.size	rsynth_ground, 68
 3016              	rsynth_ground:
 3017 0000 CD4C1243 		.word	1125272781
 3018 0004 00007842 		.word	1115160576
 3019 0008 29DC0A43 		.word	1124785193
 3020 000c 110C1201 		.ascii	"\021\014\022\001\023\002\031\013+\0062\006\026\010\013"
 3020      1302190B 
 3020      2B063206 
 3020      16080B
 3021 001b 080C010D 		.ascii	"\010\014\001\015\001\001\006\000"
 3021      01010600 
 3022 0023 00000000 		.space	29
 3022      00000000 
 3022      00000000 
 3022      00000000 
 3022      00000000 
 3023 0040 16       		.byte	22
 3024 0041 000000   		.space	3
 3025              		.section	.rodata.rsynth_green,"a"
 3026              		.align	2
 3027              		.type	rsynth_green, %object
 3028              		.size	rsynth_green, 68
 3029              	rsynth_green:
 3030 0000 CD4C1243 		.word	1125272781
 3031 0004 00003C42 		.word	1111228416
 3032 0008 F6A80C43 		.word	1124903158
 3033 000c 110C1201 		.ascii	"\021\014\022\001\023\002\031\0139\007\026\010\001\006"
 3033      1302190B 
 3033      39071608 
 3033      0106
 3034 001a 00       		.ascii	"\000"
 3035 001b 00000000 		.space	37
 3035      00000000 
 3035      00000000 
 3035      00000000 
 3035      00000000 
 3036 0040 0E       		.byte	14
 3037 0041 000000   		.space	3
 3038              		.section	.rodata.rsynth_grave,"a"
 3039              		.align	2
 3040              		.type	rsynth_grave, %object
 3041              		.size	rsynth_grave, 68
 3042              	rsynth_grave:
 3043 0000 CD4C1243 		.word	1125272781
 3044 0004 00004442 		.word	1111752704
 3045 0008 856B0C43 		.word	1124887429
 3046 000c 110C1201 		.ascii	"\021\014\022\001\023\002\031\013+\006-\006\034\005\001"
ARM GAS  /tmp/ccaR7BRn.s 			page 66


 3046      1302190B 
 3046      2B062D06 
 3046      1C0501
 3047 001b 0600     		.ascii	"\006\000"
 3048 001d 00000000 		.space	35
 3048      00000000 
 3048      00000000 
 3048      00000000 
 3048      00000000 
 3049 0040 10       		.byte	16
 3050 0041 000000   		.space	3
 3051              		.section	.rodata.rsynth_gold,"a"
 3052              		.align	2
 3053              		.type	rsynth_gold, %object
 3054              		.size	rsynth_gold, 68
 3055              	rsynth_gold:
 3056 0000 CD4C1243 		.word	1125272781
 3057 0004 00004C42 		.word	1112276992
 3058 0008 152E0C43 		.word	1124871701
 3059 000c 110C1201 		.ascii	"\021\014\022\001\023\0023\0062\006&\010\013\010\014"
 3059      13023306 
 3059      32062608 
 3059      0B080C
 3060 001b 010D0101 		.ascii	"\001\015\001\001\006\000"
 3060      0600
 3061 0021 00000000 		.space	31
 3061      00000000 
 3061      00000000 
 3061      00000000 
 3061      00000000 
 3062 0040 14       		.byte	20
 3063 0041 000000   		.space	3
 3064              		.section	.rodata.rsynth_god,"a"
 3065              		.align	2
 3066              		.type	rsynth_god, %object
 3067              		.size	rsynth_god, 68
 3068              	rsynth_god:
 3069 0000 CD4C1243 		.word	1125272781
 3070 0004 00001442 		.word	1108606976
 3071 0008 29DC0D43 		.word	1124981801
 3072 000c 110C1201 		.ascii	"\021\014\022\001\023\002R\006\013\010\014\001\015\001"
 3072      13025206 
 3072      0B080C01 
 3072      0D01
 3073 001a 010600   		.ascii	"\001\006\000"
 3074 001d 00000000 		.space	35
 3074      00000000 
 3074      00000000 
 3074      00000000 
 3074      00000000 
 3075 0040 10       		.byte	16
 3076 0041 000000   		.space	3
 3077              		.section	.rodata.rsynth_girl,"a"
 3078              		.align	2
 3079              		.type	rsynth_girl, %object
 3080              		.size	rsynth_girl, 68
 3081              	rsynth_girl:
ARM GAS  /tmp/ccaR7BRn.s 			page 67


 3082 0000 CD4C1243 		.word	1125272781
 3083 0004 00003442 		.word	1110704128
 3084 0008 67E60C43 		.word	1124918887
 3085 000c 110C1201 		.ascii	"\021\014\022\001\023\002K\020&\010\001\006\000"
 3085      13024B10 
 3085      26080106 
 3085      00
 3086 0019 00000000 		.space	39
 3086      00000000 
 3086      00000000 
 3086      00000000 
 3086      00000000 
 3087 0040 0C       		.byte	12
 3088 0041 000000   		.space	3
 3089              		.section	.rodata.rsynth_geology,"a"
 3090              		.align	2
 3091              		.type	rsynth_geology, %object
 3092              		.size	rsynth_geology, 68
 3093              	rsynth_geology:
 3094 0000 CD4C1243 		.word	1125272781
 3095 0004 00009642 		.word	1117126656
 3096 0008 CD4C0943 		.word	1124682957
 3097 000c 0B080C01 		.ascii	"\013\010\014\001\015\001#\004#\0049\007R\006&\010R\006"
 3097      0D012304 
 3097      23043907 
 3097      52062608 
 3097      5206
 3098 001e 0B080C01 		.ascii	"\013\010\014\001\015\001#\004#\004-\006\001\006\000"
 3098      0D012304 
 3098      23042D06 
 3098      010600
 3099 002d 00000000 		.space	19
 3099      00000000 
 3099      00000000 
 3099      00000000 
 3099      000000
 3100 0040 20       		.byte	32
 3101 0041 000000   		.space	3
 3102              		.section	.rodata.rsynth_fucked,"a"
 3103              		.align	2
 3104              		.type	rsynth_fucked, %object
 3105              		.size	rsynth_fucked, 68
 3106              	rsynth_fucked:
 3107 0000 CD4C1243 		.word	1125272781
 3108 0004 00003842 		.word	1110966272
 3109 0008 AEC70C43 		.word	1124911022
 3110 000c 1B0C4D06 		.ascii	"\033\014M\006\016\010\017\001\020\004\010\006\011\001"
 3110      0E080F01 
 3110      10040806 
 3110      0901
 3111 001a 0A020106 		.ascii	"\012\002\001\006\000"
 3111      00
 3112 001f 00000000 		.space	33
 3112      00000000 
 3112      00000000 
 3112      00000000 
 3112      00000000 
ARM GAS  /tmp/ccaR7BRn.s 			page 68


 3113 0040 12       		.byte	18
 3114 0041 000000   		.space	3
 3115              		.section	.rodata.rsynth_freeze,"a"
 3116              		.align	2
 3117              		.type	rsynth_freeze, %object
 3118              		.size	rsynth_freeze, 68
 3119              	rsynth_freeze:
 3120 0000 CD4C1243 		.word	1125272781
 3121 0004 00002042 		.word	1109393408
 3122 0008 00800D43 		.word	1124958208
 3123 000c 1B0C190B 		.ascii	"\033\014\031\0139\007 \004\001\006\000"
 3123      39072004 
 3123      010600
 3124 0017 00000000 		.space	41
 3124      00000000 
 3124      00000000 
 3124      00000000 
 3124      00000000 
 3125 0040 0A       		.byte	10
 3126 0041 000000   		.space	3
 3127              		.section	.rodata.rsynth_flesh,"a"
 3128              		.align	2
 3129              		.type	rsynth_flesh, %object
 3130              		.size	rsynth_flesh, 68
 3131              	rsynth_flesh:
 3132 0000 CD4C1243 		.word	1125272781
 3133 0004 00002842 		.word	1109917696
 3134 0008 90420D43 		.word	1124942480
 3135 000c 1B0C2608 		.ascii	"\033\014&\010B\004\"\014\001\006\000"
 3135      4204220C 
 3135      010600
 3136 0017 00000000 		.space	41
 3136      00000000 
 3136      00000000 
 3136      00000000 
 3136      00000000 
 3137 0040 0A       		.byte	10
 3138 0041 000000   		.space	3
 3139              		.section	.rodata.rsynth_failure,"a"
 3140              		.align	2
 3141              		.type	rsynth_failure, %object
 3142              		.size	rsynth_failure, 68
 3143              	rsynth_failure:
 3144 0000 CD4C1243 		.word	1125272781
 3145 0004 00005442 		.word	1112801280
 3146 0008 A4F00B43 		.word	1124855972
 3147 000c 1B0C2B06 		.ascii	"\033\014+\006-\006&\010A\004\031\013\001\006\000"
 3147      2D062608 
 3147      4104190B 
 3147      010600
 3148 001b 00000000 		.space	37
 3148      00000000 
 3148      00000000 
 3148      00000000 
 3148      00000000 
 3149 0040 0E       		.byte	14
 3150 0041 000000   		.space	3
ARM GAS  /tmp/ccaR7BRn.s 			page 69


 3151              		.section	.rodata.rsynth_execution,"a"
 3152              		.align	2
 3153              		.type	rsynth_execution, %object
 3154              		.size	rsynth_execution, 68
 3155              	rsynth_execution:
 3156 0000 CD4C1243 		.word	1125272781
 3157 0004 0000BE42 		.word	1119748096
 3158 0008 67E60643 		.word	1124525671
 3159 000c 39070E08 		.ascii	"9\007\016\010\017\001\020\004\037\014B\004\016\010\017"
 3159      0F011004 
 3159      1F0C4204 
 3159      0E080F
 3160 001b 0110042A 		.ascii	"\001\020\004*\007>\011\"\014H\004\026\010\001\006\000"
 3160      073E0922 
 3160      0C480416 
 3160      08010600 
 3161 002b 00000000 		.space	21
 3161      00000000 
 3161      00000000 
 3161      00000000 
 3161      00000000 
 3162 0040 1E       		.byte	30
 3163 0041 000000   		.space	3
 3164              		.section	.rodata.rsynth_evidence,"a"
 3165              		.align	2
 3166              		.type	rsynth_evidence, %object
 3167              		.size	rsynth_evidence, 68
 3168              	rsynth_evidence:
 3169 0000 CD4C1243 		.word	1125272781
 3170 0004 00005C42 		.word	1113325568
 3171 0008 33B30B43 		.word	1124840243
 3172 000c 42041C05 		.ascii	"B\004\034\005-\006\013\010\014\001\015\001B\004\026"
 3172      2D060B08 
 3172      0C010D01 
 3172      420416
 3173 001b 081F0C01 		.ascii	"\010\037\014\001\006\000"
 3173      0600
 3174 0021 00000000 		.space	31
 3174      00000000 
 3174      00000000 
 3174      00000000 
 3174      00000000 
 3175 0040 14       		.byte	20
 3176 0041 000000   		.space	3
 3177              		.section	.rodata.rsynth_error,"a"
 3178              		.align	2
 3179              		.type	rsynth_error, %object
 3180              		.size	rsynth_error, 68
 3181              	rsynth_error:
 3182 0000 CD4C1243 		.word	1125272781
 3183 0004 00004442 		.word	1111752704
 3184 0008 856B0C43 		.word	1124887429
 3185 000c 4B10190B 		.ascii	"K\020\031\013K\020\001\006\000"
 3185      4B100106 
 3185      00
 3186 0015 00000000 		.space	43
 3186      00000000 
ARM GAS  /tmp/ccaR7BRn.s 			page 70


 3186      00000000 
 3186      00000000 
 3186      00000000 
 3187 0040 08       		.byte	8
 3188 0041 000000   		.space	3
 3189              		.section	.rodata.rsynth_emotional,"a"
 3190              		.align	2
 3191              		.type	rsynth_emotional, %object
 3192              		.size	rsynth_emotional, 68
 3193              	rsynth_emotional:
 3194 0000 CD4C1243 		.word	1125272781
 3195 0004 00008442 		.word	1115947008
 3196 0008 48610A43 		.word	1124753736
 3197 000c 42041508 		.ascii	"B\004\025\0103\0062\006\"\014H\004\026\010H\004&\010"
 3197      33063206 
 3197      220C4804 
 3197      16084804 
 3197      2608
 3198 001e 010600   		.ascii	"\001\006\000"
 3199 0021 00000000 		.space	31
 3199      00000000 
 3199      00000000 
 3199      00000000 
 3199      00000000 
 3200 0040 14       		.byte	20
 3201 0041 000000   		.space	3
 3202              		.section	.rodata.rsynth_electronic,"a"
 3203              		.align	2
 3204              		.type	rsynth_electronic, %object
 3205              		.size	rsynth_electronic, 68
 3206              	rsynth_electronic:
 3207 0000 CD4C1243 		.word	1125272781
 3208 0004 0000B642 		.word	1119223808
 3209 0008 48610743 		.word	1124557128
 3210 000c 39072608 		.ascii	"9\007&\010B\004\016\010\017\001\020\004\010\006\011"
 3210      42040E08 
 3210      0F011004 
 3210      080609
 3211 001b 010A0219 		.ascii	"\001\012\002\031\013R\006\026\010-\006\016\010\017\001"
 3211      0B520616 
 3211      082D060E 
 3211      080F01
 3212 002a 10040106 		.ascii	"\020\004\001\006\000"
 3212      00
 3213 002f 00000000 		.space	17
 3213      00000000 
 3213      00000000 
 3213      00000000 
 3213      00
 3214 0040 22       		.byte	34
 3215 0041 000000   		.space	3
 3216              		.section	.rodata.rsynth_earth,"a"
 3217              		.align	2
 3218              		.type	rsynth_earth, %object
 3219              		.size	rsynth_earth, 68
 3220              	rsynth_earth:
 3221 0000 CD4C1243 		.word	1125272781
ARM GAS  /tmp/ccaR7BRn.s 			page 71


 3222 0004 00001442 		.word	1108606976
 3223 0008 29DC0D43 		.word	1124981801
 3224 000c 4B101D0F 		.ascii	"K\020\035\017\001\006\000"
 3224      010600
 3225 0013 00000000 		.space	45
 3225      00000000 
 3225      00000000 
 3225      00000000 
 3225      00000000 
 3226 0040 06       		.byte	6
 3227 0041 000000   		.space	3
 3228              		.section	.rodata.rsynth_double,"a"
 3229              		.align	2
 3230              		.type	rsynth_double, %object
 3231              		.size	rsynth_double, 68
 3232              	rsynth_double:
 3233 0000 CD4C1243 		.word	1125272781
 3234 0004 00003C42 		.word	1111228416
 3235 0008 F6A80C43 		.word	1124903158
 3236 000c 0B080C01 		.ascii	"\013\010\014\001\015\001M\006\005\014\006\001\007\000"
 3236      0D014D06 
 3236      050C0601 
 3236      0700
 3237 001a 48042608 		.ascii	"H\004&\010\001\006\000"
 3237      010600
 3238 0021 00000000 		.space	31
 3238      00000000 
 3238      00000000 
 3238      00000000 
 3238      00000000 
 3239 0040 14       		.byte	20
 3240 0041 000000   		.space	3
 3241              		.section	.rodata.rsynth_dissolution,"a"
 3242              		.align	2
 3243              		.type	rsynth_dissolution, %object
 3244              		.size	rsynth_dissolution, 68
 3245              	rsynth_dissolution:
 3246 0000 CD4C1243 		.word	1125272781
 3247 0004 0000A242 		.word	1117913088
 3248 0008 7B940843 		.word	1124635771
 3249 000c 0B080C01 		.ascii	"\013\010\014\001\015\001-\006\037\014R\006&\010>\011"
 3249      0D012D06 
 3249      1F0C5206 
 3249      26083E09 
 3250 001c 220C4804 		.ascii	"\"\014H\004\026\010\001\006\000"
 3250      16080106 
 3250      00
 3251 0025 00000000 		.space	27
 3251      00000000 
 3251      00000000 
 3251      00000000 
 3251      00000000 
 3252 0040 18       		.byte	24
 3253 0041 000000   		.space	3
 3254              		.section	.rodata.rsynth_dirt,"a"
 3255              		.align	2
 3256              		.type	rsynth_dirt, %object
ARM GAS  /tmp/ccaR7BRn.s 			page 72


 3257              		.size	rsynth_dirt, 68
 3258              	rsynth_dirt:
 3259 0000 CD4C1243 		.word	1125272781
 3260 0004 00002442 		.word	1109655552
 3261 0008 48610D43 		.word	1124950344
 3262 000c 0B080C01 		.ascii	"\013\010\014\001\015\001K\020\010\006\011\001\012\002"
 3262      0D014B10 
 3262      08060901 
 3262      0A02
 3263 001a 010600   		.ascii	"\001\006\000"
 3264 001d 00000000 		.space	35
 3264      00000000 
 3264      00000000 
 3264      00000000 
 3264      00000000 
 3265 0040 10       		.byte	16
 3266 0041 000000   		.space	3
 3267              		.section	.rodata.rsynth_digital,"a"
 3268              		.align	2
 3269              		.type	rsynth_digital, %object
 3270              		.size	rsynth_digital, 68
 3271              	rsynth_digital:
 3272 0000 CD4C1243 		.word	1125272781
 3273 0004 00009242 		.word	1116864512
 3274 0008 3E8A0943 		.word	1124698686
 3275 000c 0B080C01 		.ascii	"\013\010\014\001\015\001-\006\013\010\014\001\015\001"
 3275      0D012D06 
 3275      0B080C01 
 3275      0D01
 3276 001a 23042304 		.ascii	"#\004#\004/\006-\006\010\006\011\001\012\002H\004&\010"
 3276      2F062D06 
 3276      08060901 
 3276      0A024804 
 3276      2608
 3277 002c 010600   		.ascii	"\001\006\000"
 3278 002f 00000000 		.space	17
 3278      00000000 
 3278      00000000 
 3278      00000000 
 3278      00
 3279 0040 22       		.byte	34
 3280 0041 000000   		.space	3
 3281              		.section	.rodata.rsynth_device,"a"
 3282              		.align	2
 3283              		.type	rsynth_device, %object
 3284              		.size	rsynth_device, 68
 3285              	rsynth_device:
 3286 0000 CD4C1243 		.word	1125272781
 3287 0004 00004C42 		.word	1112276992
 3288 0008 152E0C43 		.word	1124871701
 3289 000c 0B080C01 		.ascii	"\013\010\014\001\015\001-\006\034\005/\006-\006\037"
 3289      0D012D06 
 3289      1C052F06 
 3289      2D061F
 3290 001b 0C010600 		.ascii	"\014\001\006\000"
 3291 001f 00000000 		.space	33
 3291      00000000 
ARM GAS  /tmp/ccaR7BRn.s 			page 73


 3291      00000000 
 3291      00000000 
 3291      00000000 
 3292 0040 12       		.byte	18
 3293 0041 000000   		.space	3
 3294              		.section	.rodata.rsynth_decompose,"a"
 3295              		.align	2
 3296              		.type	rsynth_decompose, %object
 3297              		.size	rsynth_decompose, 68
 3298              	rsynth_decompose:
 3299 0000 CD4C1243 		.word	1125272781
 3300 0004 00009842 		.word	1117257728
 3301 0008 152E0943 		.word	1124675093
 3302 000c 0B080C01 		.ascii	"\013\010\014\001\015\001-\006\016\010\017\001\020\004"
 3302      0D012D06 
 3302      0E080F01 
 3302      1004
 3303 001a 52061508 		.ascii	"R\006\025\010\002\010\003\001\004\0023\0062\006 \004"
 3303      02080301 
 3303      04023306 
 3303      32062004 
 3304 002a 010600   		.ascii	"\001\006\000"
 3305 002d 00000000 		.space	19
 3305      00000000 
 3305      00000000 
 3305      00000000 
 3305      000000
 3306 0040 20       		.byte	32
 3307 0041 000000   		.space	3
 3308              		.section	.rodata.rsynth_decay,"a"
 3309              		.align	2
 3310              		.type	rsynth_decay, %object
 3311              		.size	rsynth_decay, 68
 3312              	rsynth_decay:
 3313 0000 CD4C1243 		.word	1125272781
 3314 0004 00003C42 		.word	1111228416
 3315 0008 F6A80C43 		.word	1124903158
 3316 000c 0B080C01 		.ascii	"\013\010\014\001\015\001-\006\016\010\017\001\020\004"
 3316      0D012D06 
 3316      0E080F01 
 3316      1004
 3317 001a 2B062D06 		.ascii	"+\006-\006\001\006\000"
 3317      010600
 3318 0021 00000000 		.space	31
 3318      00000000 
 3318      00000000 
 3318      00000000 
 3318      00000000 
 3319 0040 14       		.byte	20
 3320 0041 000000   		.space	3
 3321              		.section	.rodata.rsynth_death,"a"
 3322              		.align	2
 3323              		.type	rsynth_death, %object
 3324              		.size	rsynth_death, 68
 3325              	rsynth_death:
 3326 0000 CD4C1243 		.word	1125272781
 3327 0004 00001842 		.word	1108869120
ARM GAS  /tmp/ccaR7BRn.s 			page 74


 3328 0008 71BD0D43 		.word	1124973937
 3329 000c 0B080C01 		.ascii	"\013\010\014\001\015\0019\007\035\017\001\006\000"
 3329      0D013907 
 3329      1D0F0106 
 3329      00
 3330 0019 00000000 		.space	39
 3330      00000000 
 3330      00000000 
 3330      00000000 
 3330      00000000 
 3331 0040 0C       		.byte	12
 3332 0041 000000   		.space	3
 3333              		.section	.rodata.rsynth_data,"a"
 3334              		.align	2
 3335              		.type	rsynth_data, %object
 3336              		.size	rsynth_data, 68
 3337              	rsynth_data:
 3338 0000 CD4C1243 		.word	1125272781
 3339 0004 00002442 		.word	1109655552
 3340 0008 48610D43 		.word	1124950344
 3341 000c 0B080C01 		.ascii	"\013\010\014\001\015\001+\006-\006\010\006\011\001\012"
 3341      0D012B06 
 3341      2D060806 
 3341      09010A
 3342 001b 02480401 		.ascii	"\002H\004\001\006\000"
 3342      0600
 3343 0021 00000000 		.space	31
 3343      00000000 
 3343      00000000 
 3343      00000000 
 3343      00000000 
 3344 0040 14       		.byte	20
 3345 0041 000000   		.space	3
 3346              		.section	.rodata.rsynth_darkness,"a"
 3347              		.align	2
 3348              		.type	rsynth_darkness, %object
 3349              		.size	rsynth_darkness, 68
 3350              	rsynth_darkness:
 3351 0000 CD4C1243 		.word	1125272781
 3352 0004 00008A42 		.word	1116340224
 3353 0008 1F050A43 		.word	1124730143
 3354 000c 0B080C01 		.ascii	"\013\010\014\001\015\001O\005\031\013\016\010\017\001"
 3354      0D014F05 
 3354      190B0E08 
 3354      0F01
 3355 001a 10041608 		.ascii	"\020\004\026\010B\004\037\014\001\006\000"
 3355      42041F0C 
 3355      010600
 3356 0025 00000000 		.space	27
 3356      00000000 
 3356      00000000 
 3356      00000000 
 3356      00000000 
 3357 0040 18       		.byte	24
 3358 0041 000000   		.space	3
 3359              		.section	.rodata.rsynth_dark,"a"
 3360              		.align	2
ARM GAS  /tmp/ccaR7BRn.s 			page 75


 3361              		.type	rsynth_dark, %object
 3362              		.size	rsynth_dark, 68
 3363              	rsynth_dark:
 3364 0000 CD4C1243 		.word	1125272781
 3365 0004 00003442 		.word	1110704128
 3366 0008 67E60C43 		.word	1124918887
 3367 000c 0B080C01 		.ascii	"\013\010\014\001\015\001O\005\031\013\016\010\017\001"
 3367      0D014F05 
 3367      190B0E08 
 3367      0F01
 3368 001a 10040106 		.ascii	"\020\004\001\006\000"
 3368      00
 3369 001f 00000000 		.space	33
 3369      00000000 
 3369      00000000 
 3369      00000000 
 3369      00000000 
 3370 0040 12       		.byte	18
 3371 0041 000000   		.space	3
 3372              		.section	.rodata.rsynth_danger,"a"
 3373              		.align	2
 3374              		.type	rsynth_danger, %object
 3375              		.size	rsynth_danger, 68
 3376              	rsynth_danger:
 3377 0000 CD4C1243 		.word	1125272781
 3378 0004 00008842 		.word	1116209152
 3379 0008 D7230A43 		.word	1124738007
 3380 000c 0B080C01 		.ascii	"\013\010\014\001\015\001+\006-\006\026\010\013\010\014"
 3380      0D012B06 
 3380      2D061608 
 3380      0B080C
 3381 001b 010D0123 		.ascii	"\001\015\001#\004#\004H\004\032\012\001\006\000"
 3381      04230448 
 3381      041A0A01 
 3381      0600
 3382 0029 00000000 		.space	23
 3382      00000000 
 3382      00000000 
 3382      00000000 
 3382      00000000 
 3383 0040 1C       		.byte	28
 3384 0041 000000   		.space	3
 3385              		.section	.rodata.rsynth_curse,"a"
 3386              		.align	2
 3387              		.type	rsynth_curse, %object
 3388              		.size	rsynth_curse, 68
 3389              	rsynth_curse:
 3390 0000 CD4C1243 		.word	1125272781
 3391 0004 00003C42 		.word	1111228416
 3392 0008 F6A80C43 		.word	1124903158
 3393 000c 0E080F01 		.ascii	"\016\010\017\001\020\004K\020\037\014\001\006\000"
 3393      10044B10 
 3393      1F0C0106 
 3393      00
 3394 0019 00000000 		.space	39
 3394      00000000 
 3394      00000000 
ARM GAS  /tmp/ccaR7BRn.s 			page 76


 3394      00000000 
 3394      00000000 
 3395 0040 0C       		.byte	12
 3396 0041 000000   		.space	3
 3397              		.section	.rodata.rsynth_crystal,"a"
 3398              		.align	2
 3399              		.type	rsynth_crystal, %object
 3400              		.size	rsynth_crystal, 68
 3401              	rsynth_crystal:
 3402 0000 CD4C1243 		.word	1125272781
 3403 0004 00008C42 		.word	1116471296
 3404 0008 67E60943 		.word	1124722279
 3405 000c 0E080F01 		.ascii	"\016\010\017\001\020\004\031\013-\006\037\014\010\006"
 3405      1004190B 
 3405      2D061F0C 
 3405      0806
 3406 001a 09010A02 		.ascii	"\011\001\012\002O\005&\010\001\006\000"
 3406      4F052608 
 3406      010600
 3407 0025 00000000 		.space	27
 3407      00000000 
 3407      00000000 
 3407      00000000 
 3407      00000000 
 3408 0040 18       		.byte	24
 3409 0041 000000   		.space	3
 3410              		.section	.rodata.rsynth_crow,"a"
 3411              		.align	2
 3412              		.type	rsynth_crow, %object
 3413              		.size	rsynth_crow, 68
 3414              	rsynth_crow:
 3415 0000 CD4C1243 		.word	1125272781
 3416 0004 00002842 		.word	1109917696
 3417 0008 90420D43 		.word	1124942480
 3418 000c 0E080F01 		.ascii	"\016\010\017\001\020\004\031\013+\0062\006\001\006\000"
 3418      1004190B 
 3418      2B063206 
 3418      010600
 3419 001b 00000000 		.space	37
 3419      00000000 
 3419      00000000 
 3419      00000000 
 3419      00000000 
 3420 0040 0E       		.byte	14
 3421 0041 000000   		.space	3
 3422              		.section	.rodata.rsynth_crash,"a"
 3423              		.align	2
 3424              		.type	rsynth_crash, %object
 3425              		.size	rsynth_crash, 68
 3426              	rsynth_crash:
 3427 0000 CD4C1243 		.word	1125272781
 3428 0004 00003C42 		.word	1111228416
 3429 0008 F6A80C43 		.word	1124903158
 3430 000c 0E080F01 		.ascii	"\016\010\017\001\020\004\031\013O\005\"\014\001\006"
 3430      1004190B 
 3430      4F05220C 
 3430      0106
ARM GAS  /tmp/ccaR7BRn.s 			page 77


 3431 001a 00       		.ascii	"\000"
 3432 001b 00000000 		.space	37
 3432      00000000 
 3432      00000000 
 3432      00000000 
 3432      00000000 
 3433 0040 0E       		.byte	14
 3434 0041 000000   		.space	3
 3435              		.section	.rodata.rsynth_cosmic,"a"
 3436              		.align	2
 3437              		.type	rsynth_cosmic, %object
 3438              		.size	rsynth_cosmic, 68
 3439              	rsynth_cosmic:
 3440 0000 CD4C1243 		.word	1125272781
 3441 0004 00006042 		.word	1113587712
 3442 0008 7B940B43 		.word	1124832379
 3443 000c 0E080F01 		.ascii	"\016\010\017\001\020\004R\006 \004\025\010-\006\016"
 3443      10045206 
 3443      20041508 
 3443      2D060E
 3444 001b 080F0110 		.ascii	"\010\017\001\020\004\001\006\000"
 3444      04010600 
 3445 0023 00000000 		.space	29
 3445      00000000 
 3445      00000000 
 3445      00000000 
 3445      00000000 
 3446 0040 16       		.byte	22
 3447 0041 000000   		.space	3
 3448              		.section	.rodata.rsynth_core,"a"
 3449              		.align	2
 3450              		.type	rsynth_core, %object
 3451              		.size	rsynth_core, 68
 3452              	rsynth_core:
 3453 0000 CD4C1243 		.word	1125272781
 3454 0004 00002842 		.word	1109917696
 3455 0008 90420D43 		.word	1124942480
 3456 000c 0E080F01 		.ascii	"\016\010\017\001\020\0043\0062\006\031\013\001\006\000"
 3456      10043306 
 3456      3206190B 
 3456      010600
 3457 001b 00000000 		.space	37
 3457      00000000 
 3457      00000000 
 3457      00000000 
 3457      00000000 
 3458 0040 0E       		.byte	14
 3459 0041 000000   		.space	3
 3460              		.section	.rodata.rsynth_contact,"a"
 3461              		.align	2
 3462              		.type	rsynth_contact, %object
 3463              		.size	rsynth_contact, 68
 3464              	rsynth_contact:
 3465 0000 CD4C1243 		.word	1125272781
 3466 0004 00008A42 		.word	1116340224
 3467 0008 1F050A43 		.word	1124730143
 3468 000c 0E080F01 		.ascii	"\016\010\017\001\020\004R\006\026\010\010\006\011\001"
ARM GAS  /tmp/ccaR7BRn.s 			page 78


 3468      10045206 
 3468      16080806 
 3468      0901
 3469 001a 0A024F05 		.ascii	"\012\002O\005\016\010\017\001\020\004\010\006\011\001"
 3469      0E080F01 
 3469      10040806 
 3469      0901
 3470 0028 0A020106 		.ascii	"\012\002\001\006\000"
 3470      00
 3471 002d 00000000 		.space	19
 3471      00000000 
 3471      00000000 
 3471      00000000 
 3471      000000
 3472 0040 20       		.byte	32
 3473 0041 000000   		.space	3
 3474              		.section	.rodata.rsynth_computer,"a"
 3475              		.align	2
 3476              		.type	rsynth_computer, %object
 3477              		.size	rsynth_computer, 68
 3478              	rsynth_computer:
 3479 0000 CD4C1243 		.word	1125272781
 3480 0004 0000A642 		.word	1118175232
 3481 0008 0A570843 		.word	1124620042
 3482 000c 0E080F01 		.ascii	"\016\010\017\001\020\004R\006\025\010\002\010\003\001"
 3482      10045206 
 3482      15080208 
 3482      0301
 3483 001a 04022A07 		.ascii	"\004\002*\007>\011\010\006\011\001\012\002H\004\032"
 3483      3E090806 
 3483      09010A02 
 3483      48041A
 3484 0029 0A010600 		.ascii	"\012\001\006\000"
 3485 002d 00000000 		.space	19
 3485      00000000 
 3485      00000000 
 3485      00000000 
 3485      000000
 3486 0040 20       		.byte	32
 3487 0041 000000   		.space	3
 3488              		.section	.rodata.rsynth_communication,"a"
 3489              		.align	2
 3490              		.type	rsynth_communication, %object
 3491              		.size	rsynth_communication, 68
 3492              	rsynth_communication:
 3493 0000 CD4C1243 		.word	1125272781
 3494 0004 0000EC42 		.word	1122762752
 3495 0008 D7230443 		.word	1124344791
 3496 000c 0E080F01 		.ascii	"\016\010\017\001\020\004R\006\025\010*\007>\011\026"
 3496      10045206 
 3496      15082A07 
 3496      3E0916
 3497 001b 082F062D 		.ascii	"\010/\006-\006\016\010\017\001\020\004+\006-\006\"\014"
 3497      060E080F 
 3497      0110042B 
 3497      062D0622 
 3497      0C
ARM GAS  /tmp/ccaR7BRn.s 			page 79


 3498 002c 48041608 		.ascii	"H\004\026\010\001\006\000"
 3498      010600
 3499 0033 00000000 		.space	13
 3499      00000000 
 3499      00000000 
 3499      00
 3500 0040 26       		.byte	38
 3501 0041 000000   		.space	3
 3502              		.section	.rodata.rsynth_color,"a"
 3503              		.align	2
 3504              		.type	rsynth_color, %object
 3505              		.size	rsynth_color, 68
 3506              	rsynth_color:
 3507 0000 CD4C1243 		.word	1125272781
 3508 0004 00004442 		.word	1111752704
 3509 0008 856B0C43 		.word	1124887429
 3510 000c 0E080F01 		.ascii	"\016\010\017\001\020\004R\006&\010K\020\001\006\000"
 3510      10045206 
 3510      26084B10 
 3510      010600
 3511 001b 00000000 		.space	37
 3511      00000000 
 3511      00000000 
 3511      00000000 
 3511      00000000 
 3512 0040 0E       		.byte	14
 3513 0041 000000   		.space	3
 3514              		.section	.rodata.rsynth_code,"a"
 3515              		.align	2
 3516              		.type	rsynth_code, %object
 3517              		.size	rsynth_code, 68
 3518              	rsynth_code:
 3519 0000 CD4C1243 		.word	1125272781
 3520 0004 00002442 		.word	1109655552
 3521 0008 48610D43 		.word	1124950344
 3522 000c 0E080F01 		.ascii	"\016\010\017\001\020\0043\0062\006\013\010\014\001\015"
 3522      10043306 
 3522      32060B08 
 3522      0C010D
 3523 001b 01010600 		.ascii	"\001\001\006\000"
 3524 001f 00000000 		.space	33
 3524      00000000 
 3524      00000000 
 3524      00000000 
 3524      00000000 
 3525 0040 12       		.byte	18
 3526 0041 000000   		.space	3
 3527              		.section	.rodata.rsynth_circuit,"a"
 3528              		.align	2
 3529              		.type	rsynth_circuit, %object
 3530              		.size	rsynth_circuit, 68
 3531              	rsynth_circuit:
 3532 0000 CD4C1243 		.word	1125272781
 3533 0004 00009C42 		.word	1117519872
 3534 0008 A4F00843 		.word	1124659364
 3535 000c 1F0C4B10 		.ascii	"\037\014K\020\016\010\017\001\020\004*\007>\011-\006"
 3535      0E080F01 
ARM GAS  /tmp/ccaR7BRn.s 			page 80


 3535      10042A07 
 3535      3E092D06 
 3536 001c 08060901 		.ascii	"\010\006\011\001\012\002\001\006\000"
 3536      0A020106 
 3536      00
 3537 0025 00000000 		.space	27
 3537      00000000 
 3537      00000000 
 3537      00000000 
 3537      00000000 
 3538 0040 18       		.byte	24
 3539 0041 000000   		.space	3
 3540              		.section	.rodata.rsynth_chamber,"a"
 3541              		.align	2
 3542              		.type	rsynth_chamber, %object
 3543              		.size	rsynth_chamber, 68
 3544              	rsynth_chamber:
 3545 0000 CD4C1243 		.word	1125272781
 3546 0004 00007042 		.word	1114636288
 3547 0008 9A190B43 		.word	1124800922
 3548 000c 08062108 		.ascii	"\010\006!\010O\005\025\010\005\014\006\001\007\000H"
 3548      4F051508 
 3548      050C0601 
 3548      070048
 3549 001b 041A0A01 		.ascii	"\004\032\012\001\006\000"
 3549      0600
 3550 0021 00000000 		.space	31
 3550      00000000 
 3550      00000000 
 3550      00000000 
 3550      00000000 
 3551 0040 14       		.byte	20
 3552 0041 000000   		.space	3
 3553              		.section	.rodata.rsynth_central,"a"
 3554              		.align	2
 3555              		.type	rsynth_central, %object
 3556              		.size	rsynth_central, 68
 3557              	rsynth_central:
 3558 0000 CD4C1243 		.word	1125272781
 3559 0004 00007842 		.word	1115160576
 3560 0008 29DC0A43 		.word	1124785193
 3561 000c 1F0C4204 		.ascii	"\037\014B\004\026\010\010\006\011\001\012\002\031\013"
 3561      16080806 
 3561      09010A02 
 3561      190B
 3562 001a 48042608 		.ascii	"H\004&\010\001\006\000"
 3562      010600
 3563 0021 00000000 		.space	31
 3563      00000000 
 3563      00000000 
 3563      00000000 
 3563      00000000 
 3564 0040 14       		.byte	20
 3565 0041 000000   		.space	3
 3566              		.section	.rodata.rsynth_byte,"a"
 3567              		.align	2
 3568              		.type	rsynth_byte, %object
ARM GAS  /tmp/ccaR7BRn.s 			page 81


 3569              		.size	rsynth_byte, 68
 3570              	rsynth_byte:
 3571 0000 CD4C1243 		.word	1125272781
 3572 0004 00003C42 		.word	1111228416
 3573 0008 F6A80C43 		.word	1124903158
 3574 000c 050C0601 		.ascii	"\005\014\006\001\007\000/\006-\006\010\006\011\001\012"
 3574      07002F06 
 3574      2D060806 
 3574      09010A
 3575 001b 02390701 		.ascii	"\0029\007\001\006\000"
 3575      0600
 3576 0021 00000000 		.space	31
 3576      00000000 
 3576      00000000 
 3576      00000000 
 3576      00000000 
 3577 0040 14       		.byte	20
 3578 0041 000000   		.space	3
 3579              		.section	.rodata.rsynth_bug,"a"
 3580              		.align	2
 3581              		.type	rsynth_bug, %object
 3582              		.size	rsynth_bug, 68
 3583              	rsynth_bug:
 3584 0000 CD4C1243 		.word	1125272781
 3585 0004 00002042 		.word	1109393408
 3586 0008 00800D43 		.word	1124958208
 3587 000c 050C0601 		.ascii	"\005\014\006\001\007\000M\006\021\014\022\001\023\002"
 3587      07004D06 
 3587      110C1201 
 3587      1302
 3588 001a 010600   		.ascii	"\001\006\000"
 3589 001d 00000000 		.space	35
 3589      00000000 
 3589      00000000 
 3589      00000000 
 3589      00000000 
 3590 0040 10       		.byte	16
 3591 0041 000000   		.space	3
 3592              		.section	.rodata.rsynth_break,"a"
 3593              		.align	2
 3594              		.type	rsynth_break, %object
 3595              		.size	rsynth_break, 68
 3596              	rsynth_break:
 3597 0000 CD4C1243 		.word	1125272781
 3598 0004 00004842 		.word	1112014848
 3599 0008 CD4C0C43 		.word	1124879565
 3600 000c 050C0601 		.ascii	"\005\014\006\001\007\000\031\0139\007\016\010\017\001"
 3600      0700190B 
 3600      39070E08 
 3600      0F01
 3601 001a 10040106 		.ascii	"\020\004\001\006\000"
 3601      00
 3602 001f 00000000 		.space	33
 3602      00000000 
 3602      00000000 
 3602      00000000 
 3602      00000000 
ARM GAS  /tmp/ccaR7BRn.s 			page 82


 3603 0040 12       		.byte	18
 3604 0041 000000   		.space	3
 3605              		.section	.rodata.rsynth_brain,"a"
 3606              		.align	2
 3607              		.type	rsynth_brain, %object
 3608              		.size	rsynth_brain, 68
 3609              	rsynth_brain:
 3610 0000 CD4C1243 		.word	1125272781
 3611 0004 00004842 		.word	1112014848
 3612 0008 CD4C0C43 		.word	1124879565
 3613 000c 050C0601 		.ascii	"\005\014\006\001\007\000\031\013+\006-\006\026\010\001"
 3613      0700190B 
 3613      2B062D06 
 3613      160801
 3614 001b 0600     		.ascii	"\006\000"
 3615 001d 00000000 		.space	35
 3615      00000000 
 3615      00000000 
 3615      00000000 
 3615      00000000 
 3616 0040 10       		.byte	16
 3617 0041 000000   		.space	3
 3618              		.section	.rodata.rsynth_body,"a"
 3619              		.align	2
 3620              		.type	rsynth_body, %object
 3621              		.size	rsynth_body, 68
 3622              	rsynth_body:
 3623 0000 CD4C1243 		.word	1125272781
 3624 0004 00002442 		.word	1109655552
 3625 0008 48610D43 		.word	1124950344
 3626 000c 050C0601 		.ascii	"\005\014\006\001\007\000R\006\013\010\014\001\015\001"
 3626      07005206 
 3626      0B080C01 
 3626      0D01
 3627 001a 2D060106 		.ascii	"-\006\001\006\000"
 3627      00
 3628 001f 00000000 		.space	33
 3628      00000000 
 3628      00000000 
 3628      00000000 
 3628      00000000 
 3629 0040 12       		.byte	18
 3630 0041 000000   		.space	3
 3631              		.section	.rodata.rsynth_blood,"a"
 3632              		.align	2
 3633              		.type	rsynth_blood, %object
 3634              		.size	rsynth_blood, 68
 3635              	rsynth_blood:
 3636 0000 CD4C1243 		.word	1125272781
 3637 0004 00002442 		.word	1109655552
 3638 0008 48610D43 		.word	1124950344
 3639 000c 050C0601 		.ascii	"\005\014\006\001\007\000&\010A\004\013\010\014\001\015"
 3639      07002608 
 3639      41040B08 
 3639      0C010D
 3640 001b 01010600 		.ascii	"\001\001\006\000"
 3641 001f 00000000 		.space	33
ARM GAS  /tmp/ccaR7BRn.s 			page 83


 3641      00000000 
 3641      00000000 
 3641      00000000 
 3641      00000000 
 3642 0040 12       		.byte	18
 3643 0041 000000   		.space	3
 3644              		.section	.rodata.rsynth_black,"a"
 3645              		.align	2
 3646              		.type	rsynth_black, %object
 3647              		.size	rsynth_black, 68
 3648              	rsynth_black:
 3649 0000 CD4C1243 		.word	1125272781
 3650 0004 00003442 		.word	1110704128
 3651 0008 67E60C43 		.word	1124918887
 3652 000c 050C0601 		.ascii	"\005\014\006\001\007\000&\010O\005\016\010\017\001\020"
 3652      07002608 
 3652      4F050E08 
 3652      0F0110
 3653 001b 04010600 		.ascii	"\004\001\006\000"
 3654 001f 00000000 		.space	33
 3654      00000000 
 3654      00000000 
 3654      00000000 
 3654      00000000 
 3655 0040 12       		.byte	18
 3656 0041 000000   		.space	3
 3657              		.section	.rodata.rsynth_bit,"a"
 3658              		.align	2
 3659              		.type	rsynth_bit, %object
 3660              		.size	rsynth_bit, 68
 3661              	rsynth_bit:
 3662 0000 CD4C1243 		.word	1125272781
 3663 0004 00000842 		.word	1107820544
 3664 0008 52380E43 		.word	1125005394
 3665 000c 050C0601 		.ascii	"\005\014\006\001\007\000-\006\010\006\011\001\012\002"
 3665      07002D06 
 3665      08060901 
 3665      0A02
 3666 001a 010600   		.ascii	"\001\006\000"
 3667 001d 00000000 		.space	35
 3667      00000000 
 3667      00000000 
 3667      00000000 
 3667      00000000 
 3668 0040 10       		.byte	16
 3669 0041 000000   		.space	3
 3670              		.section	.rodata.rsynth_biological,"a"
 3671              		.align	2
 3672              		.type	rsynth_biological, %object
 3673              		.size	rsynth_biological, 68
 3674              	rsynth_biological:
 3675 0000 CD4C1243 		.word	1125272781
 3676 0004 0000C842 		.word	1120403456
 3677 0008 CD4C0643 		.word	1124486349
 3678 000c 050C0601 		.ascii	"\005\014\006\001\007\000-\006R\006&\010R\006\013\010"
 3678      07002D06 
 3678      52062608 
ARM GAS  /tmp/ccaR7BRn.s 			page 84


 3678      52060B08 
 3679 001c 0C010D01 		.ascii	"\014\001\015\001#\004#\004/\006-\006\016\010\017\001"
 3679      23042304 
 3679      2F062D06 
 3679      0E080F01 
 3680 002c 10044804 		.ascii	"\020\004H\004&\010\001\006\000"
 3680      26080106 
 3680      00
 3681 0035 00000000 		.space	11
 3681      00000000 
 3681      000000
 3682 0040 28       		.byte	40
 3683 0041 000000   		.space	3
 3684              		.section	.rodata.rsynth_beauty,"a"
 3685              		.align	2
 3686              		.type	rsynth_beauty, %object
 3687              		.size	rsynth_beauty, 68
 3688              	rsynth_beauty:
 3689 0000 CD4C1243 		.word	1125272781
 3690 0004 00004842 		.word	1112014848
 3691 0008 CD4C0C43 		.word	1124879565
 3692 000c 050C0601 		.ascii	"\005\014\006\001\007\000*\007>\011\010\006\011\001\012"
 3692      07002A07 
 3692      3E090806 
 3692      09010A
 3693 001b 022D0601 		.ascii	"\002-\006\001\006\000"
 3693      0600
 3694 0021 00000000 		.space	31
 3694      00000000 
 3694      00000000 
 3694      00000000 
 3694      00000000 
 3695 0040 14       		.byte	20
 3696 0041 000000   		.space	3
 3697              		.section	.rodata.rsynth_atom,"a"
 3698              		.align	2
 3699              		.type	rsynth_atom, %object
 3700              		.size	rsynth_atom, 68
 3701              	rsynth_atom:
 3702 0000 CD4C1243 		.word	1125272781
 3703 0004 00000842 		.word	1107820544
 3704 0008 52380E43 		.word	1125005394
 3705 000c 4F050806 		.ascii	"O\005\010\006\011\001\012\002R\006\025\010\001\006\000"
 3705      09010A02 
 3705      52061508 
 3705      010600
 3706 001b 00000000 		.space	37
 3706      00000000 
 3706      00000000 
 3706      00000000 
 3706      00000000 
 3707 0040 0E       		.byte	14
 3708 0041 000000   		.space	3
 3709              		.section	.rodata.rsynth_anguish,"a"
 3710              		.align	2
 3711              		.type	rsynth_anguish, %object
 3712              		.size	rsynth_anguish, 68
ARM GAS  /tmp/ccaR7BRn.s 			page 85


 3713              	rsynth_anguish:
 3714 0000 CD4C1243 		.word	1125272781
 3715 0004 00007042 		.word	1114636288
 3716 0008 9A190B43 		.word	1124800922
 3717 000c 4F051708 		.ascii	"O\005\027\010\021\014\022\001\023\002)\010-\006\"\014"
 3717      110C1201 
 3717      13022908 
 3717      2D06220C 
 3718 001c 010600   		.ascii	"\001\006\000"
 3719 001f 00000000 		.space	33
 3719      00000000 
 3719      00000000 
 3719      00000000 
 3719      00000000 
 3720 0040 12       		.byte	18
 3721 0041 000000   		.space	3
 3722              		.section	.rodata.rsynth_acid,"a"
 3723              		.align	2
 3724              		.type	rsynth_acid, %object
 3725              		.size	rsynth_acid, 68
 3726              	rsynth_acid:
 3727 0000 CD4C1243 		.word	1125272781
 3728 0004 00001C42 		.word	1109131264
 3729 0008 B99E0D43 		.word	1124966073
 3730 000c 4F051F0C 		.ascii	"O\005\037\014-\006\013\010\014\001\015\001\001\006\000"
 3730      2D060B08 
 3730      0C010D01 
 3730      010600
 3731 001b 00000000 		.space	37
 3731      00000000 
 3731      00000000 
 3731      00000000 
 3731      00000000 
 3732 0040 0E       		.byte	14
 3733 0041 000000   		.space	3
 3734              		.section	.data.nextelement,"aw"
 3735              		.type	nextelement, %object
 3736              		.size	nextelement, 1
 3737              	nextelement:
 3738 0000 01       		.byte	1
 3739              		.section	.bss.i,"aw",%nobits
 3740              		.type	i, %object
 3741              		.size	i, 1
 3742              	i:
 3743 0000 00       		.space	1
 3744              		.section	.bss.ntf0,"aw",%nobits
 3745              		.align	2
 3746              		.type	ntf0, %object
 3747              		.size	ntf0, 4
 3748              	ntf0:
 3749 0000 00000000 		.space	4
 3750              		.section	.bss.tf0,"aw",%nobits
 3751              		.align	2
 3752              		.type	tf0, %object
 3753              		.size	tf0, 4
 3754              	tf0:
 3755 0000 00000000 		.space	4
ARM GAS  /tmp/ccaR7BRn.s 			page 86


 3756              		.section	.bss.f0e,"aw",%nobits
 3757              		.align	2
 3758              		.type	f0e, %object
 3759              		.size	f0e, 4
 3760              	f0e:
 3761 0000 00000000 		.space	4
 3762              		.section	.bss.f0s,"aw",%nobits
 3763              		.align	2
 3764              		.type	f0s, %object
 3765              		.size	f0s, 4
 3766              	f0s:
 3767 0000 00000000 		.space	4
 3768              		.section	.bss.flt,"aw",%nobits
 3769              		.align	2
 3770              		.type	flt, %object
 3771              		.size	flt, 216
 3772              	flt:
 3773 0000 00000000 		.space	216
 3773      00000000 
 3773      00000000 
 3773      00000000 
 3773      00000000 
 3774              		.section	.bss.f0,"aw",%nobits
 3775              		.align	2
 3776              		.type	f0, %object
 3777              		.size	f0, 4
 3778              	f0:
 3779 0000 00000000 		.space	4
 3780              		.global	ampl
 3781              		.section	.bss.ampl,"aw",%nobits
 3782              		.align	2
 3783              		.type	ampl, %object
 3784              		.size	ampl, 4
 3785              	ampl:
 3786 0000 00000000 		.space	4
 3787              		.ident	"GCC: (Arm GNU Toolchain 13.2.rel1 (Build arm-13.7)) 13.2.1 20231009"
ARM GAS  /tmp/ccaR7BRn.s 			page 87

