ARM GAS  /tmp/ccOvjPha.s 			page 1


 GNU assembler version 2.41.0 (arm-none-eabi)
	 using BFD version (Arm GNU Toolchain 13.2.rel1 (Build arm-13.7)) 2.41.0.20231009.
 options passed	: -I -I -I -I -I -I -I -EL -march=armv7e-m+fp.dp -mfloat-abi=hard -mfpu=fpv5-d16 -meabi=5 -aghlms=src/newvotrax.lst 
 input file    	: /tmp/ccOvjPha.s
 output file   	: src/newvotrax.o
 target        	: arm-none-eabi
 time stamp    	: 2025-03-08T13:35:59.000+0100

ARM GAS  /tmp/ccOvjPha.s 			page 2


   1              		.cpu cortex-m7
   2              		.arch armv7e-m
   3              		.fpu fpv5-d16
   4              		.eabi_attribute 28, 1
   5              		.eabi_attribute 20, 1
   6              		.eabi_attribute 21, 1
   7              		.eabi_attribute 23, 3
   8              		.eabi_attribute 24, 1
   9              		.eabi_attribute 25, 1
  10              		.eabi_attribute 26, 1
  11              		.eabi_attribute 30, 2
  12              		.eabi_attribute 34, 1
  13              		.eabi_attribute 18, 4
  14              		.file	"newvotrax.c"
  15              		.text
  16              		.section	.text.writer,"ax",%progbits
  17              		.align	1
  18              		.p2align 2,,3
  19              		.global	writer
  20              		.syntax unified
  21              		.thumb
  22              		.thumb_func
  23              		.type	writer, %function
  24              	writer:
  25              		@ args = 0, pretend = 0, frame = 0
  26              		@ frame_needed = 0, uses_anonymous_args = 0
  27              		@ link register save eliminated.
  28 0000 034B     		ldr	r3, .L3
  29 0002 0021     		movs	r1, #0
  30 0004 034A     		ldr	r2, .L3+4
  31 0006 00F03F00 		and	r0, r0, #63
  32 000a 1170     		strb	r1, [r2]
  33 000c 1870     		strb	r0, [r3]
  34 000e 7047     		bx	lr
  35              	.L4:
  36              		.align	2
  37              	.L3:
  38 0010 00000000 		.word	m_phone
  39 0014 00000000 		.word	m_ar_state
  40              		.size	writer, .-writer
  41              		.section	.text.inflection_w,"ax",%progbits
  42              		.align	1
  43              		.p2align 2,,3
  44              		.global	inflection_w
  45              		.syntax unified
  46              		.thumb
  47              		.thumb_func
  48              		.type	inflection_w, %function
  49              	inflection_w:
  50              		@ args = 0, pretend = 0, frame = 0
  51              		@ frame_needed = 0, uses_anonymous_args = 0
  52              		@ link register save eliminated.
  53 0000 034B     		ldr	r3, .L7
  54 0002 00F00300 		and	r0, r0, #3
  55 0006 1A78     		ldrb	r2, [r3]	@ zero_extendqisi2
  56 0008 8242     		cmp	r2, r0
  57 000a 18BF     		it	ne
ARM GAS  /tmp/ccOvjPha.s 			page 3


  58 000c 1870     		strbne	r0, [r3]
  59 000e 7047     		bx	lr
  60              	.L8:
  61              		.align	2
  62              	.L7:
  63 0010 00000000 		.word	m_inflection
  64              		.size	inflection_w, .-inflection_w
  65              		.section	.text.device_start,"ax",%progbits
  66              		.align	1
  67              		.p2align 2,,3
  68              		.global	device_start
  69              		.syntax unified
  70              		.thumb
  71              		.thumb_func
  72              		.type	device_start, %function
  73              	device_start:
  74              		@ args = 0, pretend = 0, frame = 0
  75              		@ frame_needed = 0, uses_anonymous_args = 0
  76              		@ link register save eliminated.
  77 0000 054A     		ldr	r2, .L10
  78 0002 0649     		ldr	r1, .L10+4
  79 0004 0648     		ldr	r0, .L10+8
  80 0006 DFF824C0 		ldr	ip, .L10+20
  81 000a 064B     		ldr	r3, .L10+12
  82 000c 1160     		str	r1, [r2]	@ float
  83 000e 064A     		ldr	r2, .L10+16
  84 0010 C0F800C0 		str	ip, [r0]	@ float
  85 0014 1A60     		str	r2, [r3]	@ float
  86 0016 7047     		bx	lr
  87              	.L11:
  88              		.align	2
  89              	.L10:
  90 0018 00000000 		.word	m_sclock
  91 001c 00401C47 		.word	1193033728
  92 0020 00000000 		.word	m_mainclock
  93 0024 00000000 		.word	m_cclock
  94 0028 00409C46 		.word	1184645120
  95 002c 00C82F49 		.word	1227868160
  96              		.size	device_start, .-device_start
  97              		.section	.text.phone_commit,"ax",%progbits
  98              		.align	1
  99              		.p2align 2,,3
 100              		.global	phone_commit
 101              		.syntax unified
 102              		.thumb
 103              		.thumb_func
 104              		.type	phone_commit, %function
 105              	phone_commit:
 106              		@ args = 0, pretend = 0, frame = 8
 107              		@ frame_needed = 0, uses_anonymous_args = 0
 108 0000 2DE9F04F 		push	{r4, r5, r6, r7, r8, r9, r10, fp, lr}
 109 0004 8748     		ldr	r0, .L19
 110 0006 0024     		movs	r4, #0
 111 0008 8749     		ldr	r1, .L19+4
 112 000a 83B0     		sub	sp, sp, #12
 113 000c 874A     		ldr	r2, .L19+8
 114 000e 2646     		mov	r6, r4
ARM GAS  /tmp/ccOvjPha.s 			page 4


 115 0010 874B     		ldr	r3, .L19+12
 116 0012 01F50077 		add	r7, r1, #512
 117 0016 0578     		ldrb	r5, [r0]	@ zero_extendqisi2
 118 0018 1480     		strh	r4, [r2]	@ movhi
 119 001a 1C70     		strb	r4, [r3]
 120 001c 02E0     		b	.L16
 121              	.L13:
 122 001e B942     		cmp	r1, r7
 123 0020 00F0FC80 		beq	.L12
 124              	.L16:
 125 0024 4A68     		ldr	r2, [r1, #4]
 126 0026 0831     		adds	r1, r1, #8
 127 0028 C2F30560 		ubfx	r0, r2, #24, #6
 128 002c 51F8083C 		ldr	r3, [r1, #-8]
 129 0030 B442     		cmp	r4, r6
 130 0032 08BF     		it	eq
 131 0034 8542     		cmpeq	r5, r0
 132 0036 F2D1     		bne	.L13
 133 0038 D143     		mvns	r1, r2
 134 003a 9F00     		lsls	r7, r3, #2
 135 003c 5E00     		lsls	r6, r3, #1
 136 003e 3E2D     		cmp	r5, #62
 137 0040 18BF     		it	ne
 138 0042 032D     		cmpne	r5, #3
 139 0044 4FEA4100 		lsl	r0, r1, #1
 140 0048 07F00807 		and	r7, r7, #8
 141 004c 4FEA5104 		lsr	r4, r1, #1
 142 0050 06F00806 		and	r6, r6, #8
 143 0054 00F04000 		and	r0, r0, #64
 144 0058 4FEA5305 		lsr	r5, r3, #1
 145 005c 04F02004 		and	r4, r4, #32
 146 0060 4FEA932E 		lsr	lr, r3, #10
 147 0064 05F00805 		and	r5, r5, #8
 148 0068 4FEAD30A 		lsr	r10, r3, #3
 149 006c 40EA0400 		orr	r0, r0, r4
 150 0070 C1F3C024 		ubfx	r4, r1, #11, #1
 151 0074 0EF0040E 		and	lr, lr, #4
 152 0078 0AF0080A 		and	r10, r10, #8
 153 007c 40EA0400 		orr	r0, r0, r4
 154 0080 4FEAD104 		lsr	r4, r1, #3
 155 0084 5FFA83F8 		uxtb	r8, r3
 156 0088 08BF     		it	eq
 157 008a 4FF00109 		moveq	r9, #1
 158 008e 04F01004 		and	r4, r4, #16
 159 0092 4FEA420B 		lsl	fp, r2, #1
 160 0096 4FEAC80C 		lsl	ip, r8, #3
 161 009a 08F00808 		and	r8, r8, #8
 162 009e 40EA0400 		orr	r0, r0, r4
 163 00a2 4FEA9314 		lsr	r4, r3, #6
 164 00a6 0CF0080C 		and	ip, ip, #8
 165 00aa 0BF0040B 		and	fp, fp, #4
 166 00ae 04F00404 		and	r4, r4, #4
 167 00b2 0190     		str	r0, [sp, #4]
 168 00b4 18BF     		it	ne
 169 00b6 4FF00009 		movne	r9, #0
 170 00ba 2743     		orrs	r7, r7, r4
 171 00bc DC09     		lsrs	r4, r3, #7
ARM GAS  /tmp/ccOvjPha.s 			page 5


 172 00be 04F00404 		and	r4, r4, #4
 173 00c2 2643     		orrs	r6, r6, r4
 174 00c4 5C0A     		lsrs	r4, r3, #9
 175 00c6 04F00404 		and	r4, r4, #4
 176 00ca 2543     		orrs	r5, r5, r4
 177 00cc 9C08     		lsrs	r4, r3, #2
 178 00ce 04F00804 		and	r4, r4, #8
 179 00d2 44EA0E04 		orr	r4, r4, lr
 180 00d6 4FEAD32E 		lsr	lr, r3, #11
 181 00da 0EF0040E 		and	lr, lr, #4
 182 00de 4AEA0E00 		orr	r0, r10, lr
 183 00e2 4FEA420E 		lsl	lr, r2, #1
 184 00e6 4FEA820A 		lsl	r10, r2, #2
 185 00ea 0EF0080E 		and	lr, lr, #8
 186 00ee 0090     		str	r0, [sp]
 187 00f0 0AF0040A 		and	r10, r10, #4
 188 00f4 0198     		ldr	r0, [sp, #4]
 189 00f6 4EEA0A0E 		orr	lr, lr, r10
 190 00fa 4FEA511A 		lsr	r10, r1, #5
 191 00fe 0AF0080A 		and	r10, r10, #8
 192 0102 40EA0A00 		orr	r0, r0, r10
 193 0106 C3F3405A 		ubfx	r10, r3, #21, #1
 194 010a 4CEA0A0C 		orr	ip, ip, r10
 195 010e 4FEA531A 		lsr	r10, r3, #5
 196 0112 0AF0040A 		and	r10, r10, #4
 197 0116 4CEA0A0C 		orr	ip, ip, r10
 198 011a C3F3006A 		ubfx	r10, r3, #24, #1
 199 011e 4AEA080A 		orr	r10, r10, r8
 200 0122 4FEA1328 		lsr	r8, r3, #8
 201 0126 08F00408 		and	r8, r8, #4
 202 012a 4AEA080A 		orr	r10, r10, r8
 203 012e 02F00808 		and	r8, r2, #8
 204 0132 C2F30012 		ubfx	r2, r2, #4, #1
 205 0136 48EA0B08 		orr	r8, r8, fp
 206 013a 4FEAD11B 		lsr	fp, r1, #7
 207 013e 490A     		lsrs	r1, r1, #9
 208 0140 0BF0040B 		and	fp, fp, #4
 209 0144 01F00201 		and	r1, r1, #2
 210 0148 40EA0B0B 		orr	fp, r0, fp
 211 014c C3F34060 		ubfx	r0, r3, #25, #1
 212 0150 4BEA010B 		orr	fp, fp, r1
 213 0154 590B     		lsrs	r1, r3, #13
 214 0156 0543     		orrs	r5, r5, r0
 215 0158 580C     		lsrs	r0, r3, #17
 216 015a 01F00201 		and	r1, r1, #2
 217 015e 00F00200 		and	r0, r0, #2
 218 0162 4CEA010C 		orr	ip, ip, r1
 219 0166 3349     		ldr	r1, .L19+16
 220 0168 0543     		orrs	r5, r5, r0
 221 016a C3F38060 		ubfx	r0, r3, #26, #1
 222 016e 81F800C0 		strb	ip, [r1]
 223 0172 C3F38051 		ubfx	r1, r3, #22, #1
 224 0176 0443     		orrs	r4, r4, r0
 225 0178 980C     		lsrs	r0, r3, #18
 226 017a 0F43     		orrs	r7, r7, r1
 227 017c 990B     		lsrs	r1, r3, #14
 228 017e 00F00200 		and	r0, r0, #2
ARM GAS  /tmp/ccOvjPha.s 			page 6


 229 0182 4FEAD34C 		lsr	ip, r3, #19
 230 0186 01F00201 		and	r1, r1, #2
 231 018a 0443     		orrs	r4, r4, r0
 232 018c C3F3C060 		ubfx	r0, r3, #27, #1
 233 0190 0F43     		orrs	r7, r7, r1
 234 0192 C3F3C051 		ubfx	r1, r3, #23, #1
 235 0196 0CF0020C 		and	ip, ip, #2
 236 019a 0E43     		orrs	r6, r6, r1
 237 019c D90B     		lsrs	r1, r3, #15
 238 019e 01F00201 		and	r1, r1, #2
 239 01a2 0E43     		orrs	r6, r6, r1
 240 01a4 190C     		lsrs	r1, r3, #16
 241 01a6 01F00201 		and	r1, r1, #2
 242 01aa 4AEA010A 		orr	r10, r10, r1
 243 01ae 0099     		ldr	r1, [sp]
 244 01b0 0843     		orrs	r0, r0, r1
 245 01b2 40EA0C00 		orr	r0, r0, ip
 246 01b6 C3F3007C 		ubfx	ip, r3, #28, #1
 247 01ba 4EEA0C0E 		orr	lr, lr, ip
 248 01be 4FEA537C 		lsr	ip, r3, #29
 249 01c2 0CF0020C 		and	ip, ip, #2
 250 01c6 4EEA0C0E 		orr	lr, lr, ip
 251 01ca C3F3407C 		ubfx	ip, r3, #29, #1
 252 01ce 9B0F     		lsrs	r3, r3, #30
 253 01d0 48EA0C08 		orr	r8, r8, ip
 254 01d4 03F00203 		and	r3, r3, #2
 255 01d8 48EA0308 		orr	r8, r8, r3
 256 01dc 164B     		ldr	r3, .L19+20
 257 01de 1F70     		strb	r7, [r3]
 258 01e0 164B     		ldr	r3, .L19+24
 259 01e2 1E70     		strb	r6, [r3]
 260 01e4 164B     		ldr	r3, .L19+28
 261 01e6 83F800A0 		strb	r10, [r3]
 262 01ea 164B     		ldr	r3, .L19+32
 263 01ec 1D70     		strb	r5, [r3]
 264 01ee 164B     		ldr	r3, .L19+36
 265 01f0 1C70     		strb	r4, [r3]
 266 01f2 164B     		ldr	r3, .L19+40
 267 01f4 1870     		strb	r0, [r3]
 268 01f6 164B     		ldr	r3, .L19+44
 269 01f8 83F800E0 		strb	lr, [r3]
 270 01fc 154B     		ldr	r3, .L19+48
 271 01fe 83F80080 		strb	r8, [r3]
 272 0202 154B     		ldr	r3, .L19+52
 273 0204 1A70     		strb	r2, [r3]
 274 0206 154B     		ldr	r3, .L19+56
 275 0208 83F800B0 		strb	fp, [r3]
 276 020c 144B     		ldr	r3, .L19+60
 277 020e 83F80090 		strb	r9, [r3]
 278 0212 BEF1000F 		cmp	lr, #0
 279 0216 01D1     		bne	.L12
 280 0218 124B     		ldr	r3, .L19+64
 281 021a 1A70     		strb	r2, [r3]
 282              	.L12:
 283 021c 03B0     		add	sp, sp, #12
 284              		@ sp needed
 285 021e BDE8F08F 		pop	{r4, r5, r6, r7, r8, r9, r10, fp, pc}
ARM GAS  /tmp/ccOvjPha.s 			page 7


 286              	.L20:
 287 0222 00BF     		.align	2
 288              	.L19:
 289 0224 00000000 		.word	m_phone
 290 0228 00000000 		.word	m_rom
 291 022c 00000000 		.word	m_phonetick
 292 0230 00000000 		.word	m_ticks
 293 0234 00000000 		.word	m_rom_f1
 294 0238 00000000 		.word	m_rom_va
 295 023c 00000000 		.word	m_rom_f2
 296 0240 00000000 		.word	m_rom_fc
 297 0244 00000000 		.word	m_rom_f2q
 298 0248 00000000 		.word	m_rom_f3
 299 024c 00000000 		.word	m_rom_fa
 300 0250 00000000 		.word	m_rom_cld
 301 0254 00000000 		.word	m_rom_vd
 302 0258 00000000 		.word	m_rom_closure
 303 025c 00000000 		.word	m_rom_duration
 304 0260 00000000 		.word	m_rom_pause
 305 0264 00000000 		.word	m_cur_closure
 306              		.size	phone_commit, .-phone_commit
 307              		.section	.text.analog_calc,"ax",%progbits
 308              		.align	1
 309              		.p2align 2,,3
 310              		.global	analog_calc
 311              		.syntax unified
 312              		.thumb
 313              		.thumb_func
 314              		.type	analog_calc, %function
 315              	analog_calc:
 316              		@ args = 0, pretend = 0, frame = 0
 317              		@ frame_needed = 0, uses_anonymous_args = 0
 318              		@ link register save eliminated.
 319 0000 6E4A     		ldr	r2, .L29
 320 0002 6F49     		ldr	r1, .L29+4
 321 0004 6F4B     		ldr	r3, .L29+8
 322 0006 10B4     		push	{r4}
 323 0008 0978     		ldrb	r1, [r1]	@ zero_extendqisi2
 324 000a 1278     		ldrb	r2, [r2]	@ zero_extendqisi2
 325 000c 07EE901A 		vmov	s15, r1	@ int
 326 0010 9C68     		ldr	r4, [r3, #8]	@ float
 327 0012 232A     		cmp	r2, #35
 328 0014 5868     		ldr	r0, [r3, #4]	@ float
 329 0016 F8EEE77A 		vcvt.f32.s32	s15, s15
 330 001a 1968     		ldr	r1, [r3]	@ float
 331 001c 00F2B180 		bhi	.L22
 332 0020 02F0FC02 		and	r2, r2, #252
 333 0024 5960     		str	r1, [r3, #4]	@ float
 334 0026 6849     		ldr	r1, .L29+12
 335 0028 B2EE0E7A 		vmov.f32	s14, #1.5e+1
 336 002c DFED676A 		vldr.32	s13, .L29+16
 337 0030 0A44     		add	r2, r2, r1
 338 0032 DC60     		str	r4, [r3, #12]	@ float
 339 0034 9860     		str	r0, [r3, #8]	@ float
 340 0036 92ED006A 		vldr.32	s12, [r2]
 341 003a 67EE867A 		vmul.f32	s15, s15, s12
 342 003e 87EE876A 		vdiv.f32	s12, s15, s14
ARM GAS  /tmp/ccOvjPha.s 			page 8


 343 0042 83ED006A 		vstr.32	s12, [r3]
 344              	.L23:
 345 0046 624B     		ldr	r3, .L29+20
 346 0048 F2EE0E5A 		vmov.f32	s11, #1.5e+1
 347 004c 6148     		ldr	r0, .L29+24
 348 004e 1B78     		ldrb	r3, [r3]	@ zero_extendqisi2
 349 0050 0168     		ldr	r1, [r0]	@ float
 350 0052 07EE903A 		vmov	s15, r3	@ int
 351 0056 4468     		ldr	r4, [r0, #4]	@ float
 352 0058 5F4A     		ldr	r2, .L29+28
 353 005a 0346     		mov	r3, r0
 354 005c F8EEE77A 		vcvt.f32.s32	s15, s15
 355 0060 4160     		str	r1, [r0, #4]	@ float
 356 0062 9FED5E7A 		vldr.32	s14, .L29+32
 357 0066 00F10C01 		add	r1, r0, #12
 358 006a 8460     		str	r4, [r0, #8]	@ float
 359 006c 67EEA67A 		vmul.f32	s15, s15, s13
 360 0070 C7EEA56A 		vdiv.f32	s13, s15, s11
 361 0074 C0ED006A 		vstr.32	s13, [r0]
 362              	.L24:
 363 0078 F3EC017A 		vldmia.32	r3!, {s15}
 364 007c F2EC016A 		vldmia.32	r2!, {s13}
 365 0080 9942     		cmp	r1, r3
 366 0082 67EEA67A 		vmul.f32	s15, s15, s13
 367 0086 37EE277A 		vadd.f32	s14, s14, s15
 368 008a F5D1     		bne	.L24
 369 008c 5448     		ldr	r0, .L29+36
 370 008e B1EE042A 		vmov.f32	s4, #5.0e+0
 371 0092 544B     		ldr	r3, .L29+40
 372 0094 F2EE0E2A 		vmov.f32	s5, #1.5e+1
 373 0098 D0ED004A 		vldr.32	s9, [r0]
 374 009c B3EE043A 		vmov.f32	s6, #2.0e+1
 375 00a0 D3ED017A 		vldr.32	s15, [r3, #4]
 376 00a4 F1EE0C3A 		vmov.f32	s7, #7.0e+0
 377 00a8 90ED014A 		vldr.32	s8, [r0, #4]
 378 00ac 64EEA77A 		vmul.f32	s15, s9, s15
 379 00b0 93ED025A 		vldr.32	s10, [r3, #8]
 380 00b4 D3ED001A 		vldr.32	s3, [r3]
 381 00b8 24EE055A 		vmul.f32	s10, s8, s10
 382 00bc 4A4A     		ldr	r2, .L29+44
 383 00be 37EE677A 		vsub.f32	s14, s14, s15
 384 00c2 4A4C     		ldr	r4, .L29+48
 385 00c4 1378     		ldrb	r3, [r2]	@ zero_extendqisi2
 386 00c6 4A49     		ldr	r1, .L29+52
 387 00c8 37EE457A 		vsub.f32	s14, s14, s10
 388 00cc 07EE903A 		vmov	s15, r3	@ int
 389 00d0 83F00F03 		eor	r3, r3, #15
 390 00d4 80ED024A 		vstr.32	s8, [r0, #8]
 391 00d8 F8EEE75A 		vcvt.f32.s32	s11, s15
 392 00dc C0ED014A 		vstr.32	s9, [r0, #4]
 393 00e0 87EE215A 		vdiv.f32	s10, s14, s3
 394 00e4 07EE903A 		vmov	s15, r3	@ int
 395 00e8 424B     		ldr	r3, .L29+56
 396 00ea DFED436A 		vldr.32	s13, .L29+60
 397 00ee 1B78     		ldrb	r3, [r3]	@ zero_extendqisi2
 398 00f0 424A     		ldr	r2, .L29+64
 399 00f2 F8EEE77A 		vcvt.f32.s32	s15, s15
ARM GAS  /tmp/ccOvjPha.s 			page 9


 400 00f6 9B08     		lsrs	r3, r3, #2
 401 00f8 83F00703 		eor	r3, r3, #7
 402 00fc 77EE827A 		vadd.f32	s15, s15, s4
 403 0100 07EE103A 		vmov	s14, r3	@ int
 404 0104 3E4B     		ldr	r3, .L29+68
 405 0106 B8EEC77A 		vcvt.f32.s32	s14, s14
 406 010a 65EE855A 		vmul.f32	s11, s11, s10
 407 010e 80ED005A 		vstr.32	s10, [r0]
 408 0112 67EE857A 		vmul.f32	s15, s15, s10
 409 0116 2068     		ldr	r0, [r4]	@ float
 410 0118 85EEA25A 		vdiv.f32	s10, s11, s5
 411 011c 6060     		str	r0, [r4, #4]	@ float
 412 011e 8868     		ldr	r0, [r1, #8]	@ float
 413 0120 C860     		str	r0, [r1, #12]	@ float
 414 0122 4868     		ldr	r0, [r1, #4]	@ float
 415 0124 C7EE835A 		vdiv.f32	s11, s15, s6
 416 0128 8860     		str	r0, [r1, #8]	@ float
 417 012a 0868     		ldr	r0, [r1]	@ float
 418 012c 4860     		str	r0, [r1, #4]	@ float
 419 012e 9068     		ldr	r0, [r2, #8]	@ float
 420 0130 D060     		str	r0, [r2, #12]	@ float
 421 0132 5068     		ldr	r0, [r2, #4]	@ float
 422 0134 9060     		str	r0, [r2, #8]	@ float
 423 0136 75EE067A 		vadd.f32	s15, s10, s12
 424 013a 84ED005A 		vstr.32	s10, [r4]
 425 013e 314C     		ldr	r4, .L29+72
 426 0140 C1ED007A 		vstr.32	s15, [r1]
 427 0144 1168     		ldr	r1, [r2]	@ float
 428 0146 35EEA76A 		vadd.f32	s12, s11, s15
 429 014a 5160     		str	r1, [r2, #4]	@ float
 430 014c 1968     		ldr	r1, [r3]	@ float
 431 014e 67EE067A 		vmul.f32	s15, s14, s12
 432 0152 82ED006A 		vstr.32	s12, [r2]
 433 0156 5960     		str	r1, [r3, #4]	@ float
 434 0158 87EEA37A 		vdiv.f32	s14, s15, s7
 435 015c 67EE267A 		vmul.f32	s15, s14, s13
 436 0160 83ED007A 		vstr.32	s14, [r3]
 437 0164 FDEEE77A 		vcvt.s32.f32	s15, s15
 438 0168 17EE900A 		vmov	r0, s15	@ int
 439 016c A042     		cmp	r0, r4
 440 016e B8BF     		it	lt
 441 0170 2046     		movlt	r0, r4
 442 0172 5DF8044B 		ldr	r4, [sp], #4
 443 0176 B0F5FA4F 		cmp	r0, #32000
 444 017a A8BF     		it	ge
 445 017c 4FF4FA40 		movge	r0, #32000
 446 0180 7047     		bx	lr
 447              	.L22:
 448 0182 DFED166A 		vldr.32	s13, .L29+32
 449 0186 B2EE0E7A 		vmov.f32	s14, #1.5e+1
 450 018a DC60     		str	r4, [r3, #12]	@ float
 451 018c 67EEA67A 		vmul.f32	s15, s15, s13
 452 0190 9860     		str	r0, [r3, #8]	@ float
 453 0192 5960     		str	r1, [r3, #4]	@ float
 454 0194 87EE876A 		vdiv.f32	s12, s15, s14
 455 0198 83ED006A 		vstr.32	s12, [r3]
 456 019c 5306     		lsls	r3, r2, #25
ARM GAS  /tmp/ccOvjPha.s 			page 10


 457 019e 09D5     		bpl	.L25
 458 01a0 194B     		ldr	r3, .L29+76
 459 01a2 DFED1A6A 		vldr.32	s13, .L29+80
 460 01a6 1B78     		ldrb	r3, [r3]	@ zero_extendqisi2
 461 01a8 DFED087A 		vldr.32	s15, .L29+16
 462 01ac 002B     		cmp	r3, #0
 463 01ae 47FEA66A 		vseleq.f32	s13, s15, s13
 464 01b2 48E7     		b	.L23
 465              	.L25:
 466 01b4 DFED056A 		vldr.32	s13, .L29+16
 467 01b8 45E7     		b	.L23
 468              	.L30:
 469 01ba 00BF     		.align	2
 470              	.L29:
 471 01bc 00000000 		.word	m_pitch
 472 01c0 00000000 		.word	m_filt_va
 473 01c4 00000000 		.word	m_voice_1
 474 01c8 00000000 		.word	s_glottal_wave
 475 01cc 00401CC6 		.word	-971227136
 476 01d0 00000000 		.word	m_filt_fa
 477 01d4 00000000 		.word	m_noise_1
 478 01d8 00000000 		.word	m_fn_a
 479 01dc 00000000 		.word	0
 480 01e0 00000000 		.word	m_noise_2
 481 01e4 00000000 		.word	m_fn_b
 482 01e8 00000000 		.word	m_filt_fc
 483 01ec 00000000 		.word	m_noise_3
 484 01f0 00000000 		.word	m_vn_1
 485 01f4 00000000 		.word	m_cur_closure
 486 01f8 00007A46 		.word	1182400512
 487 01fc 00000000 		.word	m_vn_3
 488 0200 00000000 		.word	m_vn_5
 489 0204 0083FFFF 		.word	-32000
 490 0208 00000000 		.word	m_cur_noise
 491 020c 00401C46 		.word	1176256512
 492              		.size	analog_calc, .-analog_calc
 493              		.section	.text.build_standard_filter,"ax",%progbits
 494              		.align	1
 495              		.p2align 2,,3
 496              		.global	build_standard_filter
 497              		.syntax unified
 498              		.thumb
 499              		.thumb_func
 500              		.type	build_standard_filter, %function
 501              	build_standard_filter:
 502              		@ args = 0, pretend = 0, frame = 0
 503              		@ frame_needed = 0, uses_anonymous_args = 0
 504 0000 38B5     		push	{r3, r4, r5, lr}
 505 0002 374B     		ldr	r3, .L33
 506 0004 22EE811A 		vmul.f32	s2, s5, s2
 507 0008 62EEA12A 		vmul.f32	s5, s5, s3
 508 000c 0546     		mov	r5, r0
 509 000e D3ED007A 		vldr.32	s15, [r3]
 510 0012 0C46     		mov	r4, r1
 511 0014 334B     		ldr	r3, .L33+4
 512 0016 27EEA07A 		vmul.f32	s14, s15, s1
 513 001a 67EEA77A 		vmul.f32	s15, s15, s15
ARM GAS  /tmp/ccOvjPha.s 			page 11


 514 001e 67EE026A 		vmul.f32	s13, s14, s4
 515 0022 67EEA07A 		vmul.f32	s15, s15, s1
 516 0026 2DED068B 		vpush.64	{d8, d9, d10}
 517 002a 67EE827A 		vmul.f32	s15, s15, s4
 518 002e 9FED2EAA 		vldr.32	s20, .L33+8
 519 0032 C0EE078A 		vdiv.f32	s17, s0, s14
 520 0036 9FED2D7A 		vldr.32	s14, .L33+12
 521 003a 93ED000A 		vldr.32	s0, [r3]
 522 003e 81EE268A 		vdiv.f32	s16, s2, s13
 523 0042 C2EEA79A 		vdiv.f32	s19, s5, s15
 524 0046 68EE887A 		vmul.f32	s15, s17, s16
 525 004a 77EEE97A 		vsub.f32	s15, s15, s19
 526 004e 69EE8A6A 		vmul.f32	s13, s19, s20
 527 0052 F0EEE77A 		vabs.f32	s15, s15
 528 0056 B1EEE76A 		vsqrt.f32	s12, s15
 529 005a 86EE269A 		vdiv.f32	s18, s12, s13
 530 005e 29EE077A 		vmul.f32	s14, s18, s14
 531 0062 29EE0A9A 		vmul.f32	s18, s18, s20
 532 0066 87EE000A 		vdiv.f32	s0, s14, s0
 533 006a FFF7FEFF 		bl	tanf
 534 006e 89EE007A 		vdiv.f32	s14, s18, s0
 535 0072 F7EE006A 		vmov.f32	s13, #1.0e+0
 536 0076 B0EE086A 		vmov.f32	s12, #3.0e+0
 537 007a 68EE077A 		vmul.f32	s15, s16, s14
 538 007e 67EE075A 		vmul.f32	s11, s14, s14
 539 0082 28EE877A 		vmul.f32	s14, s17, s14
 540 0086 37EEA64A 		vadd.f32	s8, s15, s13
 541 008a 65EEA95A 		vmul.f32	s11, s11, s19
 542 008e 77EE864A 		vadd.f32	s9, s15, s12
 543 0092 36EE675A 		vsub.f32	s10, s12, s15
 544 0096 76EEE77A 		vsub.f32	s15, s13, s15
 545 009a 37EE263A 		vadd.f32	s6, s14, s13
 546 009e 77EE063A 		vadd.f32	s7, s14, s12
 547 00a2 76EEC76A 		vsub.f32	s13, s13, s14
 548 00a6 36EE476A 		vsub.f32	s12, s12, s14
 549 00aa 85ED003A 		vstr.32	s6, [r5]
 550 00ae 34EE254A 		vadd.f32	s8, s8, s11
 551 00b2 C5ED013A 		vstr.32	s7, [r5, #4]
 552 00b6 74EEE54A 		vsub.f32	s9, s9, s11
 553 00ba C5ED036A 		vstr.32	s13, [r5, #12]
 554 00be 35EE657A 		vsub.f32	s14, s10, s11
 555 00c2 85ED026A 		vstr.32	s12, [r5, #8]
 556 00c6 77EEA57A 		vadd.f32	s15, s15, s11
 557 00ca 84ED004A 		vstr.32	s8, [r4]
 558 00ce C4ED014A 		vstr.32	s9, [r4, #4]
 559 00d2 84ED027A 		vstr.32	s14, [r4, #8]
 560 00d6 C4ED037A 		vstr.32	s15, [r4, #12]
 561 00da BDEC068B 		vldm	sp!, {d8-d10}
 562 00de 38BD     		pop	{r3, r4, r5, pc}
 563              	.L34:
 564              		.align	2
 565              	.L33:
 566 00e0 00000000 		.word	m_cclock
 567 00e4 00000000 		.word	m_sclock
 568 00e8 D80FC940 		.word	1086918616
 569 00ec D80F4940 		.word	1078530008
 570              		.size	build_standard_filter, .-build_standard_filter
ARM GAS  /tmp/ccOvjPha.s 			page 12


 571              		.section	.text.build_lowpass_filter,"ax",%progbits
 572              		.align	1
 573              		.p2align 2,,3
 574              		.global	build_lowpass_filter
 575              		.syntax unified
 576              		.thumb
 577              		.thumb_func
 578              		.type	build_lowpass_filter, %function
 579              	build_lowpass_filter:
 580              		@ args = 0, pretend = 0, frame = 0
 581              		@ frame_needed = 0, uses_anonymous_args = 0
 582 0000 38B5     		push	{r3, r4, r5, lr}
 583 0002 184B     		ldr	r3, .L37
 584 0004 0C46     		mov	r4, r1
 585 0006 DFED187A 		vldr.32	s15, .L37+4
 586 000a 0546     		mov	r5, r0
 587 000c 93ED007A 		vldr.32	s14, [r3]
 588 0010 164B     		ldr	r3, .L37+8
 589 0012 20EE070A 		vmul.f32	s0, s0, s14
 590 0016 93ED007A 		vldr.32	s14, [r3]
 591 001a 2DED048B 		vpush.64	{d8, d9}
 592 001e 80EE809A 		vdiv.f32	s18, s1, s0
 593 0022 DFED139A 		vldr.32	s19, .L37+12
 594 0026 B7EE008A 		vmov.f32	s16, #1.0e+0
 595 002a 69EE296A 		vmul.f32	s13, s18, s19
 596 002e C8EE268A 		vdiv.f32	s17, s16, s13
 597 0032 68EEA77A 		vmul.f32	s15, s17, s15
 598 0036 68EEA98A 		vmul.f32	s17, s17, s19
 599 003a 87EE870A 		vdiv.f32	s0, s15, s14
 600 003e FFF7FEFF 		bl	tanf
 601 0042 85ED008A 		vstr.32	s16, [r5]
 602 0046 C8EE807A 		vdiv.f32	s15, s17, s0
 603 004a 67EE897A 		vmul.f32	s15, s15, s18
 604 004e 37EE887A 		vadd.f32	s14, s15, s16
 605 0052 38EE678A 		vsub.f32	s16, s16, s15
 606 0056 84ED007A 		vstr.32	s14, [r4]
 607 005a 84ED018A 		vstr.32	s16, [r4, #4]
 608 005e BDEC048B 		vldm	sp!, {d8-d9}
 609 0062 38BD     		pop	{r3, r4, r5, pc}
 610              	.L38:
 611              		.align	2
 612              	.L37:
 613 0064 00000000 		.word	m_cclock
 614 0068 D80F4940 		.word	1078530008
 615 006c 00000000 		.word	m_sclock
 616 0070 D80FC940 		.word	1086918616
 617              		.size	build_lowpass_filter, .-build_lowpass_filter
 618              		.section	.text.build_noise_shaper_filter,"ax",%progbits
 619              		.align	1
 620              		.p2align 2,,3
 621              		.global	build_noise_shaper_filter
 622              		.syntax unified
 623              		.thumb
 624              		.thumb_func
 625              		.type	build_noise_shaper_filter, %function
 626              	build_noise_shaper_filter:
 627              		@ args = 0, pretend = 0, frame = 0
ARM GAS  /tmp/ccOvjPha.s 			page 13


 628              		@ frame_needed = 0, uses_anonymous_args = 0
 629 0000 38B5     		push	{r3, r4, r5, lr}
 630 0002 324B     		ldr	r3, .L46
 631 0004 20EE800A 		vmul.f32	s0, s1, s0
 632 0008 B7EE007A 		vmov.f32	s14, #1.0e+0
 633 000c 0546     		mov	r5, r0
 634 000e 93ED006A 		vldr.32	s12, [r3]
 635 0012 60EEA17A 		vmul.f32	s15, s1, s3
 636 0016 20EE210A 		vmul.f32	s0, s0, s3
 637 001a 0C46     		mov	r4, r1
 638 001c 66EE026A 		vmul.f32	s13, s12, s4
 639 0020 67EE817A 		vmul.f32	s15, s15, s2
 640 0024 26EE016A 		vmul.f32	s12, s12, s2
 641 0028 2DED068B 		vpush.64	{d8, d9, d10}
 642 002c C0EE269A 		vdiv.f32	s19, s0, s13
 643 0030 87EE829A 		vdiv.f32	s18, s15, s4
 644 0034 66EE208A 		vmul.f32	s17, s12, s1
 645 0038 87EE290A 		vdiv.f32	s0, s14, s19
 646 003c B5EE400A 		vcmp.f32	s0, #0
 647 0040 F1EE10FA 		vmrs	APSR_nzcv, FPSCR
 648 0044 3DD4     		bmi	.L44
 649 0046 B1EEC07A 		vsqrt.f32	s14, s0
 650              	.L42:
 651 004a 9FED21AA 		vldr.32	s20, .L46+4
 652 004e DFED217A 		vldr.32	s15, .L46+8
 653 0052 214B     		ldr	r3, .L46+12
 654 0054 87EE0A8A 		vdiv.f32	s16, s14, s20
 655 0058 93ED000A 		vldr.32	s0, [r3]
 656 005c 68EE277A 		vmul.f32	s15, s16, s15
 657 0060 28EE0A8A 		vmul.f32	s16, s16, s20
 658 0064 87EE800A 		vdiv.f32	s0, s15, s0
 659 0068 FFF7FEFF 		bl	tanf
 660 006c 0023     		movs	r3, #0
 661 006e 6B60     		str	r3, [r5, #4]	@ float
 662 0070 C8EE006A 		vdiv.f32	s13, s16, s0
 663 0074 F7EE007A 		vmov.f32	s15, #1.0e+0
 664 0078 F0EE005A 		vmov.f32	s11, #2.0e+0
 665 007c 26EEA67A 		vmul.f32	s14, s13, s13
 666 0080 28EEA66A 		vmul.f32	s12, s17, s13
 667 0084 69EE266A 		vmul.f32	s13, s18, s13
 668 0088 27EE297A 		vmul.f32	s14, s14, s19
 669 008c 36EE275A 		vadd.f32	s10, s12, s15
 670 0090 77EEC67A 		vsub.f32	s15, s15, s12
 671 0094 C5ED006A 		vstr.32	s13, [r5]
 672 0098 37EE076A 		vadd.f32	s12, s14, s14
 673 009c F1EE664A 		vneg.f32	s9, s13
 674 00a0 77EE877A 		vadd.f32	s15, s15, s14
 675 00a4 75EE076A 		vadd.f32	s13, s10, s14
 676 00a8 75EEC65A 		vsub.f32	s11, s11, s12
 677 00ac C5ED024A 		vstr.32	s9, [r5, #8]
 678 00b0 C4ED027A 		vstr.32	s15, [r4, #8]
 679 00b4 C4ED006A 		vstr.32	s13, [r4]
 680 00b8 C4ED015A 		vstr.32	s11, [r4, #4]
 681 00bc BDEC068B 		vldm	sp!, {d8-d10}
 682 00c0 38BD     		pop	{r3, r4, r5, pc}
 683              	.L44:
 684 00c2 FFF7FEFF 		bl	sqrtf
ARM GAS  /tmp/ccOvjPha.s 			page 14


 685 00c6 B0EE407A 		vmov.f32	s14, s0
 686 00ca BEE7     		b	.L42
 687              	.L47:
 688              		.align	2
 689              	.L46:
 690 00cc 00000000 		.word	m_cclock
 691 00d0 D80FC940 		.word	1086918616
 692 00d4 D80F4940 		.word	1078530008
 693 00d8 00000000 		.word	m_sclock
 694              		.size	build_noise_shaper_filter, .-build_noise_shaper_filter
 695              		.section	.text.filters_commit,"ax",%progbits
 696              		.align	1
 697              		.p2align 2,,3
 698              		.global	filters_commit
 699              		.syntax unified
 700              		.thumb
 701              		.thumb_func
 702              		.type	filters_commit, %function
 703              	filters_commit:
 704              		@ args = 0, pretend = 0, frame = 72
 705              		@ frame_needed = 0, uses_anonymous_args = 0
 706 0000 2DE9F04F 		push	{r4, r5, r6, r7, r8, r9, r10, fp, lr}
 707 0004 AA4B     		ldr	r3, .L99
 708 0006 8046     		mov	r8, r0
 709 0008 DFF89CB3 		ldr	fp, .L99+248
 710 000c 03F1100A 		add	r10, r3, #16
 711 0010 03F12007 		add	r7, r3, #32
 712 0014 03F13409 		add	r9, r3, #52
 713 0018 2DED048B 		vpush.64	{d8, d9}
 714 001c 93B0     		sub	sp, sp, #76
 715 001e 0FCB     		ldm	r3, {r0, r1, r2, r3}
 716 0020 0DF1040C 		add	ip, sp, #4
 717 0024 05AC     		add	r4, sp, #20
 718 0026 0DAE     		add	r6, sp, #52
 719 0028 09AD     		add	r5, sp, #36
 720 002a 8CE80F00 		stm	ip, {r0, r1, r2, r3}
 721 002e 9AE80F00 		ldm	r10, {r0, r1, r2, r3}
 722 0032 B646     		mov	lr, r6
 723 0034 84E80F00 		stm	r4, {r0, r1, r2, r3}
 724 0038 0FCF     		ldmia	r7!, {r0, r1, r2, r3}
 725 003a AEE80F00 		stmia	lr!, {r0, r1, r2, r3}
 726 003e 3B68     		ldr	r3, [r7]
 727 0040 CEF80030 		str	r3, [lr]
 728 0044 99E80F00 		ldm	r9, {r0, r1, r2, r3}
 729 0048 85E80F00 		stm	r5, {r0, r1, r2, r3}
 730 004c 994B     		ldr	r3, .L99+4
 731 004e 9A48     		ldr	r0, .L99+8
 732 0050 1978     		ldrb	r1, [r3]	@ zero_extendqisi2
 733 0052 9A4B     		ldr	r3, .L99+12
 734 0054 0909     		lsrs	r1, r1, #4
 735 0056 1A78     		ldrb	r2, [r3]	@ zero_extendqisi2
 736 0058 994B     		ldr	r3, .L99+16
 737 005a 1209     		lsrs	r2, r2, #4
 738 005c 0170     		strb	r1, [r0]
 739 005e 1B78     		ldrb	r3, [r3]	@ zero_extendqisi2
 740 0060 9849     		ldr	r1, .L99+20
 741 0062 1B09     		lsrs	r3, r3, #4
ARM GAS  /tmp/ccOvjPha.s 			page 15


 742 0064 0A70     		strb	r2, [r1]
 743 0066 8BF80030 		strb	r3, [fp]
 744 006a 974B     		ldr	r3, .L99+24
 745 006c 974A     		ldr	r2, .L99+28
 746 006e 1B78     		ldrb	r3, [r3]	@ zero_extendqisi2
 747 0070 1B09     		lsrs	r3, r3, #4
 748 0072 B8F1000F 		cmp	r8, #0
 749 0076 03D1     		bne	.L49
 750 0078 1178     		ldrb	r1, [r2]	@ zero_extendqisi2
 751 007a 9942     		cmp	r1, r3
 752 007c 00F00C81 		beq	.L95
 753              	.L49:
 754 0080 9FED937A 		vldr.32	s14, .L99+32
 755 0084 1370     		strb	r3, [r2]
 756              	.L53:
 757 0086 13F0010F 		tst	r3, #1
 758 008a 5CF8042B 		ldr	r2, [ip], #4
 759 008e 4FEA5303 		lsr	r3, r3, #1
 760 0092 05D0     		beq	.L52
 761 0094 07EE902A 		vmov	s15, r2	@ int
 762 0098 F8EE677A 		vcvt.f32.u32	s15, s15
 763 009c 37EE277A 		vadd.f32	s14, s14, s15
 764              	.L52:
 765 00a0 6445     		cmp	r4, ip
 766 00a2 F0D1     		bne	.L53
 767 00a4 9FED8B2A 		vldr.32	s4, .L99+36
 768 00a8 8B49     		ldr	r1, .L99+40
 769 00aa 8C48     		ldr	r0, .L99+44
 770 00ac 37EE022A 		vadd.f32	s4, s14, s4
 771 00b0 DFED8B2A 		vldr.32	s5, .L99+48
 772 00b4 DFED8B1A 		vldr.32	s3, .L99+52
 773 00b8 9FED8B1A 		vldr.32	s2, .L99+56
 774 00bc DFED8B0A 		vldr.32	s1, .L99+60
 775 00c0 9FED8B0A 		vldr.32	s0, .L99+64
 776 00c4 FFF7FEFF 		bl	build_standard_filter
 777 00c8 8A48     		ldr	r0, .L99+68
 778 00ca 8B49     		ldr	r1, .L99+72
 779 00cc 0278     		ldrb	r2, [r0]	@ zero_extendqisi2
 780 00ce 0B78     		ldrb	r3, [r1]	@ zero_extendqisi2
 781 00d0 B8F1000F 		cmp	r8, #0
 782 00d4 40F08880 		bne	.L96
 783              	.L54:
 784 00d8 0B78     		ldrb	r3, [r1]	@ zero_extendqisi2
 785 00da 8849     		ldr	r1, .L99+76
 786 00dc 0078     		ldrb	r0, [r0]	@ zero_extendqisi2
 787 00de 1B09     		lsrs	r3, r3, #4
 788 00e0 0F78     		ldrb	r7, [r1]	@ zero_extendqisi2
 789 00e2 C208     		lsrs	r2, r0, #3
 790 00e4 B7EBD00F 		cmp	r7, r0, lsr #3
 791 00e8 8548     		ldr	r0, .L99+80
 792 00ea 00F0D880 		beq	.L93
 793              	.L50:
 794 00ee 9FED781A 		vldr.32	s2, .L99+32
 795 00f2 0A70     		strb	r2, [r1]
 796 00f4 0370     		strb	r3, [r0]
 797              	.L58:
 798 00f6 13F0010F 		tst	r3, #1
ARM GAS  /tmp/ccOvjPha.s 			page 16


 799 00fa 54F8041B 		ldr	r1, [r4], #4
 800 00fe 4FEA5303 		lsr	r3, r3, #1
 801 0102 05D0     		beq	.L57
 802 0104 07EE901A 		vmov	s15, r1	@ int
 803 0108 F8EE677A 		vcvt.f32.u32	s15, s15
 804 010c 31EE271A 		vadd.f32	s2, s2, s15
 805              	.L57:
 806 0110 AC42     		cmp	r4, r5
 807 0112 F0D1     		bne	.L58
 808 0114 DFED7B7A 		vldr.32	s15, .L99+84
 809 0118 1346     		mov	r3, r2
 810 011a 9FED6D7A 		vldr.32	s14, .L99+32
 811 011e 3246     		mov	r2, r6
 812 0120 31EE271A 		vadd.f32	s2, s2, s15
 813 0124 12A8     		add	r0, sp, #72
 814              	.L60:
 815 0126 13F0010F 		tst	r3, #1
 816 012a 52F8041B 		ldr	r1, [r2], #4
 817 012e 4FEA5303 		lsr	r3, r3, #1
 818 0132 05D0     		beq	.L59
 819 0134 07EE901A 		vmov	s15, r1	@ int
 820 0138 F8EE677A 		vcvt.f32.u32	s15, s15
 821 013c 37EE277A 		vadd.f32	s14, s14, s15
 822              	.L59:
 823 0140 9042     		cmp	r0, r2
 824 0142 F0D1     		bne	.L60
 825 0144 9FED702A 		vldr.32	s4, .L99+88
 826 0148 7049     		ldr	r1, .L99+92
 827 014a 37EE022A 		vadd.f32	s4, s14, s4
 828 014e DFED702A 		vldr.32	s5, .L99+96
 829 0152 DFED701A 		vldr.32	s3, .L99+100
 830 0156 DFED700A 		vldr.32	s1, .L99+104
 831 015a 9FED700A 		vldr.32	s0, .L99+108
 832 015e 7048     		ldr	r0, .L99+112
 833 0160 FFF7FEFF 		bl	build_standard_filter
 834 0164 6F4B     		ldr	r3, .L99+116
 835 0166 0022     		movs	r2, #0
 836 0168 4FF07E51 		mov	r1, #1065353216
 837 016c 5A60     		str	r2, [r3, #4]	@ float
 838 016e 1960     		str	r1, [r3]	@ float
 839 0170 6D4B     		ldr	r3, .L99+120
 840 0172 5A60     		str	r2, [r3, #4]	@ float
 841 0174 6D4A     		ldr	r2, .L99+124
 842 0176 1960     		str	r1, [r3]	@ float
 843 0178 1378     		ldrb	r3, [r2]	@ zero_extendqisi2
 844 017a B8F1000F 		cmp	r8, #0
 845 017e 40F09480 		bne	.L97
 846              	.L61:
 847 0182 1178     		ldrb	r1, [r2]	@ zero_extendqisi2
 848 0184 6A4A     		ldr	r2, .L99+128
 849 0186 0B09     		lsrs	r3, r1, #4
 850 0188 1078     		ldrb	r0, [r2]	@ zero_extendqisi2
 851 018a B0EB111F 		cmp	r0, r1, lsr #4
 852 018e 26D0     		beq	.L48
 853              	.L55:
 854 0190 9FED4F7A 		vldr.32	s14, .L99+32
 855 0194 1370     		strb	r3, [r2]
ARM GAS  /tmp/ccOvjPha.s 			page 17


 856              	.L64:
 857 0196 13F0010F 		tst	r3, #1
 858 019a 55F8042B 		ldr	r2, [r5], #4
 859 019e 4FEA5303 		lsr	r3, r3, #1
 860 01a2 05D0     		beq	.L63
 861 01a4 07EE902A 		vmov	s15, r2	@ int
 862 01a8 F8EE677A 		vcvt.f32.u32	s15, s15
 863 01ac 37EE277A 		vadd.f32	s14, s14, s15
 864              	.L63:
 865 01b0 AE42     		cmp	r6, r5
 866 01b2 F0D1     		bne	.L64
 867 01b4 9FED5F2A 		vldr.32	s4, .L99+132
 868 01b8 DFED5F2A 		vldr.32	s5, .L99+136
 869 01bc 37EE022A 		vadd.f32	s4, s14, s4
 870 01c0 DFED5E1A 		vldr.32	s3, .L99+140
 871 01c4 9FED5E1A 		vldr.32	s2, .L99+144
 872 01c8 DFED5E0A 		vldr.32	s1, .L99+148
 873 01cc 9FED400A 		vldr.32	s0, .L99+32
 874 01d0 5D49     		ldr	r1, .L99+152
 875 01d2 5E48     		ldr	r0, .L99+156
 876 01d4 FFF7FEFF 		bl	build_standard_filter
 877 01d8 B8F1000F 		cmp	r8, #0
 878 01dc 09D1     		bne	.L98
 879              	.L48:
 880 01de 13B0     		add	sp, sp, #76
 881              		@ sp needed
 882 01e0 BDEC048B 		vldm	sp!, {d8-d9}
 883 01e4 BDE8F08F 		pop	{r4, r5, r6, r7, r8, r9, r10, fp, pc}
 884              	.L96:
 885 01e8 D208     		lsrs	r2, r2, #3
 886 01ea 4449     		ldr	r1, .L99+76
 887 01ec 1B09     		lsrs	r3, r3, #4
 888 01ee 4448     		ldr	r0, .L99+80
 889 01f0 7DE7     		b	.L50
 890              	.L98:
 891 01f2 DFED572A 		vldr.32	s5, .L99+160
 892 01f6 B7EE008A 		vmov.f32	s16, #1.0e+0
 893 01fa 9FED562A 		vldr.32	s4, .L99+164
 894 01fe DFED561A 		vldr.32	s3, .L99+168
 895 0202 9FED561A 		vldr.32	s2, .L99+172
 896 0206 DFED560A 		vldr.32	s1, .L99+176
 897 020a 5649     		ldr	r1, .L99+180
 898 020c 5648     		ldr	r0, .L99+184
 899 020e 9FED300A 		vldr.32	s0, .L99+32
 900 0212 FFF7FEFF 		bl	build_standard_filter
 901 0216 554B     		ldr	r3, .L99+188
 902 0218 9FED556A 		vldr.32	s12, .L99+192
 903 021c 93ED007A 		vldr.32	s14, [r3]
 904 0220 DFED546A 		vldr.32	s13, .L99+196
 905 0224 27EE067A 		vmul.f32	s14, s14, s12
 906 0228 DFED539A 		vldr.32	s19, .L99+200
 907 022c DFED537A 		vldr.32	s15, .L99+204
 908 0230 534B     		ldr	r3, .L99+208
 909 0232 86EE879A 		vdiv.f32	s18, s13, s14
 910 0236 93ED000A 		vldr.32	s0, [r3]
 911 023a 29EE297A 		vmul.f32	s14, s18, s19
 912 023e C8EE078A 		vdiv.f32	s17, s16, s14
ARM GAS  /tmp/ccOvjPha.s 			page 18


 913 0242 68EEA77A 		vmul.f32	s15, s17, s15
 914 0246 68EEA98A 		vmul.f32	s17, s17, s19
 915 024a 87EE800A 		vdiv.f32	s0, s15, s0
 916 024e FFF7FEFF 		bl	tanf
 917 0252 4C4A     		ldr	r2, .L99+212
 918 0254 4C4B     		ldr	r3, .L99+216
 919 0256 82ED008A 		vstr.32	s16, [r2]
 920 025a 9FED4C2A 		vldr.32	s4, .L99+220
 921 025e C8EE807A 		vdiv.f32	s15, s17, s0
 922 0262 DFED4B1A 		vldr.32	s3, .L99+224
 923 0266 9FED4B1A 		vldr.32	s2, .L99+228
 924 026a DFED4B0A 		vldr.32	s1, .L99+232
 925 026e 9FED4B0A 		vldr.32	s0, .L99+236
 926 0272 4B49     		ldr	r1, .L99+240
 927 0274 4B48     		ldr	r0, .L99+244
 928 0276 67EE897A 		vmul.f32	s15, s15, s18
 929 027a 37EE887A 		vadd.f32	s14, s15, s16
 930 027e 38EE678A 		vsub.f32	s16, s16, s15
 931 0282 83ED007A 		vstr.32	s14, [r3]
 932 0286 83ED018A 		vstr.32	s16, [r3, #4]
 933 028a 13B0     		add	sp, sp, #76
 934              		@ sp needed
 935 028c BDEC048B 		vldm	sp!, {d8-d9}
 936 0290 BDE8F04F 		pop	{r4, r5, r6, r7, r8, r9, r10, fp, lr}
 937 0294 FFF7FEBF 		b	build_noise_shaper_filter
 938              	.L95:
 939 0298 1648     		ldr	r0, .L99+68
 940 029a 1749     		ldr	r1, .L99+72
 941 029c 1CE7     		b	.L54
 942              	.L93:
 943 029e 0778     		ldrb	r7, [r0]	@ zero_extendqisi2
 944 02a0 9F42     		cmp	r7, r3
 945 02a2 7FF424AF 		bne	.L50
 946 02a6 214A     		ldr	r2, .L99+124
 947 02a8 6BE7     		b	.L61
 948              	.L97:
 949 02aa 1B09     		lsrs	r3, r3, #4
 950 02ac 204A     		ldr	r2, .L99+128
 951 02ae 6FE7     		b	.L55
 952              	.L100:
 953              		.align	2
 954              	.L99:
 955 02b0 00000000 		.word	.LANCHOR0
 956 02b4 00000000 		.word	m_cur_fa
 957 02b8 00000000 		.word	m_filt_fa
 958 02bc 00000000 		.word	m_cur_fc
 959 02c0 00000000 		.word	m_cur_va
 960 02c4 00000000 		.word	m_filt_fc
 961 02c8 00000000 		.word	m_cur_f1
 962 02cc 00000000 		.word	m_filt_f1
 963 02d0 00000000 		.word	0
 964 02d4 00800E45 		.word	1158578176
 965 02d8 00000000 		.word	m_f1_b
 966 02dc 00000000 		.word	m_f1_a
 967 02e0 00602248 		.word	1210212352
 968 02e4 00634B47 		.word	1196122880
 969 02e8 00406D44 		.word	1148010496
ARM GAS  /tmp/ccOvjPha.s 			page 19


 970 02ec 00543846 		.word	1178096640
 971 02f0 00BC2F46 		.word	1177533440
 972 02f4 00000000 		.word	m_cur_f2
 973 02f8 00000000 		.word	m_cur_f2q
 974 02fc 00000000 		.word	m_filt_f2
 975 0300 00000000 		.word	m_filt_f2q
 976 0304 00404F44 		.word	1146044416
 977 0308 00001345 		.word	1158873088
 978 030c 00000000 		.word	m_f2v_b
 979 0310 00DE0547 		.word	1191566848
 980 0314 00241547 		.word	1192567808
 981 0318 00C4E346 		.word	1189331968
 982 031c 0010C246 		.word	1187123200
 983 0320 00000000 		.word	m_f2v_a
 984 0324 00000000 		.word	m_f2n_a
 985 0328 00000000 		.word	m_f2n_b
 986 032c 00000000 		.word	m_cur_f3
 987 0330 00000000 		.word	m_filt_f3
 988 0334 00800446 		.word	1174700032
 989 0338 00634347 		.word	1195598592
 990 033c 00189346 		.word	1184045056
 991 0340 00005944 		.word	1146683392
 992 0344 00748946 		.word	1183413248
 993 0348 00000000 		.word	m_f3_b
 994 034c 00000000 		.word	m_f3_a
 995 0350 00C8E345 		.word	1172555776
 996 0354 00B80546 		.word	1174779904
 997 0358 00A2A746 		.word	1185391104
 998 035c 00A09144 		.word	1150394368
 999 0360 0014E146 		.word	1189155840
 1000 0364 00000000 		.word	m_f4_b
 1001 0368 00000000 		.word	m_f4_a
 1002 036c 00000000 		.word	m_cclock
 1003 0370 00408C44 		.word	1150042112
 1004 0374 00B6B446 		.word	1186248192
 1005 0378 D80FC940 		.word	1086918616
 1006 037c D80F4940 		.word	1078530008
 1007 0380 00000000 		.word	m_sclock
 1008 0384 00000000 		.word	m_fx_a
 1009 0388 00000000 		.word	m_fx_b
 1010 038c 000C5C46 		.word	1180437504
 1011 0390 00CC1446 		.word	1175768064
 1012 0394 00080446 		.word	1174669312
 1013 0398 00186846 		.word	1181227008
 1014 039c 00307246 		.word	1181888512
 1015 03a0 00000000 		.word	m_fn_b
 1016 03a4 00000000 		.word	m_fn_a
 1017 03a8 00000000 		.word	m_filt_va
 1018              		.size	filters_commit, .-filters_commit
 1019              		.section	.text.device_reset,"ax",%progbits
 1020              		.align	1
 1021              		.p2align 2,,3
 1022              		.global	device_reset
 1023              		.syntax unified
 1024              		.thumb
 1025              		.thumb_func
 1026              		.type	device_reset, %function
ARM GAS  /tmp/ccOvjPha.s 			page 20


 1027              	device_reset:
 1028              		@ args = 0, pretend = 0, frame = 0
 1029              		@ frame_needed = 0, uses_anonymous_args = 0
 1030 0000 70B5     		push	{r4, r5, r6, lr}
 1031 0002 3849     		ldr	r1, .L103
 1032 0004 0024     		movs	r4, #0
 1033 0006 3F20     		movs	r0, #63
 1034 0008 374A     		ldr	r2, .L103+4
 1035 000a 384B     		ldr	r3, .L103+8
 1036 000c 0870     		strb	r0, [r1]
 1037 000e 1470     		strb	r4, [r2]
 1038 0010 1C60     		str	r4, [r3]
 1039 0012 FFF7FEFF 		bl	phone_commit
 1040 0016 364A     		ldr	r2, .L103+12
 1041 0018 364B     		ldr	r3, .L103+16
 1042 001a 3748     		ldr	r0, .L103+20
 1043 001c 1470     		strb	r4, [r2]
 1044 001e 1C70     		strb	r4, [r3]
 1045 0020 3649     		ldr	r1, .L103+24
 1046 0022 374A     		ldr	r2, .L103+28
 1047 0024 374B     		ldr	r3, .L103+32
 1048 0026 0470     		strb	r4, [r0]
 1049 0028 3748     		ldr	r0, .L103+36
 1050 002a 0C70     		strb	r4, [r1]
 1051 002c 1470     		strb	r4, [r2]
 1052 002e 1C70     		strb	r4, [r3]
 1053 0030 3649     		ldr	r1, .L103+40
 1054 0032 374A     		ldr	r2, .L103+44
 1055 0034 374B     		ldr	r3, .L103+48
 1056 0036 0470     		strb	r4, [r0]
 1057 0038 3748     		ldr	r0, .L103+52
 1058 003a 0C70     		strb	r4, [r1]
 1059 003c 1470     		strb	r4, [r2]
 1060 003e 3749     		ldr	r1, .L103+56
 1061 0040 374A     		ldr	r2, .L103+60
 1062 0042 1C70     		strb	r4, [r3]
 1063 0044 374E     		ldr	r6, .L103+64
 1064 0046 384B     		ldr	r3, .L103+68
 1065 0048 0470     		strb	r4, [r0]
 1066 004a 0120     		movs	r0, #1
 1067 004c 0C70     		strb	r4, [r1]
 1068 004e 1470     		strb	r4, [r2]
 1069 0050 1C70     		strb	r4, [r3]
 1070 0052 FFF7FEFF 		bl	filters_commit
 1071 0056 3470     		strb	r4, [r6]
 1072 0058 4FF0010C 		mov	ip, #1
 1073 005c 334E     		ldr	r6, .L103+72
 1074 005e 3449     		ldr	r1, .L103+76
 1075 0060 3470     		strb	r4, [r6]
 1076 0062 344A     		ldr	r2, .L103+80
 1077 0064 344B     		ldr	r3, .L103+84
 1078 0066 3548     		ldr	r0, .L103+88
 1079 0068 354E     		ldr	r6, .L103+92
 1080 006a 8460     		str	r4, [r0, #8]
 1081 006c 86F800C0 		strb	ip, [r6]
 1082 0070 344D     		ldr	r5, .L103+96
 1083 0072 354E     		ldr	r6, .L103+100
ARM GAS  /tmp/ccOvjPha.s 			page 21


 1084 0074 2C70     		strb	r4, [r5]
 1085 0076 3480     		strh	r4, [r6]	@ movhi
 1086 0078 344D     		ldr	r5, .L103+104
 1087 007a 354E     		ldr	r6, .L103+108
 1088 007c C1E90044 		strd	r4, r4, [r1]
 1089 0080 C1E90244 		strd	r4, r4, [r1, #8]
 1090 0084 C2E90044 		strd	r4, r4, [r2]
 1091 0088 3249     		ldr	r1, .L103+112
 1092 008a 3470     		strb	r4, [r6]
 1093 008c 8C60     		str	r4, [r1, #8]
 1094 008e C3E90044 		strd	r4, r4, [r3]
 1095 0092 C0E90044 		strd	r4, r4, [r0]
 1096 0096 C2E90244 		strd	r4, r4, [r2, #8]
 1097 009a 2F48     		ldr	r0, .L103+116
 1098 009c 2F4A     		ldr	r2, .L103+120
 1099 009e C3E90244 		strd	r4, r4, [r3, #8]
 1100 00a2 2F4B     		ldr	r3, .L103+124
 1101 00a4 C1E90044 		strd	r4, r4, [r1]
 1102 00a8 C2E90044 		strd	r4, r4, [r2]
 1103 00ac 2D49     		ldr	r1, .L103+128
 1104 00ae 2E4A     		ldr	r2, .L103+132
 1105 00b0 C3E90044 		strd	r4, r4, [r3]
 1106 00b4 C0E90044 		strd	r4, r4, [r0]
 1107 00b8 2C4B     		ldr	r3, .L103+136
 1108 00ba C0E90244 		strd	r4, r4, [r0, #8]
 1109 00be 2C48     		ldr	r0, .L103+140
 1110 00c0 C1E90044 		strd	r4, r4, [r1]
 1111 00c4 C1E90244 		strd	r4, r4, [r1, #8]
 1112 00c8 C2E90044 		strd	r4, r4, [r2]
 1113 00cc C2E90244 		strd	r4, r4, [r2, #8]
 1114 00d0 C3E90044 		strd	r4, r4, [r3]
 1115 00d4 C3E90244 		strd	r4, r4, [r3, #8]
 1116 00d8 C5E90044 		strd	r4, r4, [r5]
 1117 00dc C0E90044 		strd	r4, r4, [r0]
 1118 00e0 70BD     		pop	{r4, r5, r6, pc}
 1119              	.L104:
 1120 00e2 00BF     		.align	2
 1121              	.L103:
 1122 00e4 00000000 		.word	m_phone
 1123 00e8 00000000 		.word	m_inflection
 1124 00ec 00000000 		.word	m_sample_count
 1125 00f0 00000000 		.word	m_cur_va_orig
 1126 00f4 00000000 		.word	m_cur_fc_orig
 1127 00f8 00000000 		.word	m_cur_fa_orig
 1128 00fc 00000000 		.word	m_cur_va
 1129 0100 00000000 		.word	m_cur_fc
 1130 0104 00000000 		.word	m_cur_fa
 1131 0108 00000000 		.word	m_cur_f3_orig
 1132 010c 00000000 		.word	m_cur_f2q_orig
 1133 0110 00000000 		.word	m_cur_f2_orig
 1134 0114 00000000 		.word	m_cur_f1_orig
 1135 0118 00000000 		.word	m_cur_f3
 1136 011c 00000000 		.word	m_cur_f2q
 1137 0120 00000000 		.word	m_cur_f2
 1138 0124 00000000 		.word	m_closure
 1139 0128 00000000 		.word	m_cur_f1
 1140 012c 00000000 		.word	m_update_counter
ARM GAS  /tmp/ccOvjPha.s 			page 22


 1141 0130 00000000 		.word	m_voice_1
 1142 0134 00000000 		.word	m_voice_2
 1143 0138 00000000 		.word	m_voice_3
 1144 013c 00000000 		.word	m_noise_1
 1145 0140 00000000 		.word	m_cur_closure
 1146 0144 00000000 		.word	m_pitch
 1147 0148 00000000 		.word	m_noise
 1148 014c 00000000 		.word	m_vn_5
 1149 0150 00000000 		.word	m_cur_noise
 1150 0154 00000000 		.word	m_noise_2
 1151 0158 00000000 		.word	m_vn_1
 1152 015c 00000000 		.word	m_noise_3
 1153 0160 00000000 		.word	m_noise_4
 1154 0164 00000000 		.word	m_vn_2
 1155 0168 00000000 		.word	m_vn_3
 1156 016c 00000000 		.word	m_vn_4
 1157 0170 00000000 		.word	m_vn_6
 1158              		.size	device_reset, .-device_reset
 1159              		.section	.text.chip_update_bend,"ax",%progbits
 1160              		.align	1
 1161              		.p2align 2,,3
 1162              		.global	chip_update_bend
 1163              		.syntax unified
 1164              		.thumb
 1165              		.thumb_func
 1166              		.type	chip_update_bend, %function
 1167              	chip_update_bend:
 1168              		@ args = 0, pretend = 0, frame = 8
 1169              		@ frame_needed = 0, uses_anonymous_args = 0
 1170 0000 BD48     		ldr	r0, .L153
 1171 0002 30B5     		push	{r4, r5, lr}
 1172 0004 0178     		ldrb	r1, [r0]	@ zero_extendqisi2
 1173 0006 83B0     		sub	sp, sp, #12
 1174 0008 1029     		cmp	r1, #16
 1175 000a 0CD0     		beq	.L145
 1176 000c BB4C     		ldr	r4, .L153+4
 1177 000e BC4A     		ldr	r2, .L153+8
 1178 0010 2388     		ldrh	r3, [r4]
 1179 0012 1278     		ldrb	r2, [r2]	@ zero_extendqisi2
 1180 0014 0133     		adds	r3, r3, #1
 1181 0016 9200     		lsls	r2, r2, #2
 1182 0018 9BB2     		uxth	r3, r3
 1183 001a 42F00102 		orr	r2, r2, #1
 1184 001e 2380     		strh	r3, [r4]	@ movhi
 1185 0020 9342     		cmp	r3, r2
 1186 0022 00F04E81 		beq	.L108
 1187              	.L145:
 1188 0026 B74B     		ldr	r3, .L153+12
 1189 0028 1C78     		ldrb	r4, [r3]	@ zero_extendqisi2
 1190              	.L107:
 1191 002a B749     		ldr	r1, .L153+16
 1192 002c B74A     		ldr	r2, .L153+20
 1193 002e 0B78     		ldrb	r3, [r1]	@ zero_extendqisi2
 1194 0030 1278     		ldrb	r2, [r2]	@ zero_extendqisi2
 1195 0032 0133     		adds	r3, r3, #1
 1196 0034 DBB2     		uxtb	r3, r3
 1197 0036 302B     		cmp	r3, #48
ARM GAS  /tmp/ccOvjPha.s 			page 23


 1198 0038 0B70     		strb	r3, [r1]
 1199 003a 00F0B181 		beq	.L148
 1200 003e 282B     		cmp	r3, #40
 1201 0040 40F00981 		bne	.L112
 1202 0044 B24B     		ldr	r3, .L153+24
 1203 0046 1B78     		ldrb	r3, [r3]	@ zero_extendqisi2
 1204 0048 4BB1     		cbz	r3, .L113
 1205 004a B24B     		ldr	r3, .L153+28
 1206 004c 1B78     		ldrb	r3, [r3]	@ zero_extendqisi2
 1207 004e 002B     		cmp	r3, #0
 1208 0050 40F04681 		bne	.L115
 1209 0054 B04B     		ldr	r3, .L153+32
 1210 0056 1B78     		ldrb	r3, [r3]	@ zero_extendqisi2
 1211 0058 002B     		cmp	r3, #0
 1212 005a 40F04181 		bne	.L115
 1213              	.L113:
 1214 005e AF49     		ldr	r1, .L153+36
 1215 0060 AF4B     		ldr	r3, .L153+40
 1216 0062 0D78     		ldrb	r5, [r1]	@ zero_extendqisi2
 1217 0064 1B78     		ldrb	r3, [r3]	@ zero_extendqisi2
 1218 0066 AF48     		ldr	r0, .L153+44
 1219 0068 05EB4303 		add	r3, r5, r3, lsl #1
 1220 006c DFEDAE1A 		vldr.32	s3, .L153+48
 1221 0070 DFEDAE7A 		vldr.32	s15, .L153+52
 1222 0074 A3EBD503 		sub	r3, r3, r5, lsr #3
 1223 0078 0578     		ldrb	r5, [r0]	@ zero_extendqisi2
 1224 007a 9FEDAD7A 		vldr.32	s14, .L153+56
 1225 007e DBB2     		uxtb	r3, r3
 1226 0080 0B70     		strb	r3, [r1]
 1227 0082 06EE903A 		vmov	s13, r3	@ int
 1228 0086 AB4B     		ldr	r3, .L153+60
 1229 0088 AB49     		ldr	r1, .L153+64
 1230 008a B8EEE64A 		vcvt.f32.s32	s8, s13
 1231 008e 1B78     		ldrb	r3, [r3]	@ zero_extendqisi2
 1232 0090 05EB4303 		add	r3, r5, r3, lsl #1
 1233 0094 A3EBD503 		sub	r3, r3, r5, lsr #3
 1234 0098 0D78     		ldrb	r5, [r1]	@ zero_extendqisi2
 1235 009a DBB2     		uxtb	r3, r3
 1236 009c 0370     		strb	r3, [r0]
 1237 009e 06EE903A 		vmov	s13, r3	@ int
 1238 00a2 A64B     		ldr	r3, .L153+68
 1239 00a4 A648     		ldr	r0, .L153+72
 1240 00a6 B8EEE62A 		vcvt.f32.s32	s4, s13
 1241 00aa 1B78     		ldrb	r3, [r3]	@ zero_extendqisi2
 1242 00ac 05EB4303 		add	r3, r5, r3, lsl #1
 1243 00b0 A3EBD503 		sub	r3, r3, r5, lsr #3
 1244 00b4 0578     		ldrb	r5, [r0]	@ zero_extendqisi2
 1245 00b6 DBB2     		uxtb	r3, r3
 1246 00b8 0B70     		strb	r3, [r1]
 1247 00ba 06EE903A 		vmov	s13, r3	@ int
 1248 00be A14B     		ldr	r3, .L153+76
 1249 00c0 A149     		ldr	r1, .L153+80
 1250 00c2 F8EEE62A 		vcvt.f32.s32	s5, s13
 1251 00c6 1B78     		ldrb	r3, [r3]	@ zero_extendqisi2
 1252 00c8 05EB4303 		add	r3, r5, r3, lsl #1
 1253 00cc A3EBD503 		sub	r3, r3, r5, lsr #3
 1254 00d0 9E4D     		ldr	r5, .L153+84
ARM GAS  /tmp/ccOvjPha.s 			page 24


 1255 00d2 DBB2     		uxtb	r3, r3
 1256 00d4 06EE903A 		vmov	s13, r3	@ int
 1257 00d8 0370     		strb	r3, [r0]
 1258 00da 9D4B     		ldr	r3, .L153+88
 1259 00dc 0878     		ldrb	r0, [r1]	@ zero_extendqisi2
 1260 00de F8EEE63A 		vcvt.f32.s32	s7, s13
 1261 00e2 1B78     		ldrb	r3, [r3]	@ zero_extendqisi2
 1262 00e4 00EB4303 		add	r3, r0, r3, lsl #1
 1263 00e8 A3EBD003 		sub	r3, r3, r0, lsr #3
 1264 00ec 9948     		ldr	r0, .L153+92
 1265 00ee DBB2     		uxtb	r3, r3
 1266 00f0 0B70     		strb	r3, [r1]
 1267 00f2 C2EB0211 		rsb	r1, r2, r2, lsl #4
 1268 00f6 06EE903A 		vmov	s13, r3	@ int
 1269 00fa 1301     		lsls	r3, r2, #4
 1270 00fc 00EB8111 		add	r1, r0, r1, lsl #6
 1271 0100 B8EEE63A 		vcvt.f32.s32	s6, s13
 1272 0104 D1ED024A 		vldr.32	s9, [r1, #8]
 1273 0108 D1ED035A 		vldr.32	s11, [r1, #12]
 1274 010c 64EEA14A 		vmul.f32	s9, s9, s3
 1275 0110 91ED046A 		vldr.32	s12, [r1, #16]
 1276 0114 D1ED056A 		vldr.32	s13, [r1, #20]
 1277 0118 65EEA75A 		vmul.f32	s11, s11, s15
 1278 011c 91ED065A 		vldr.32	s10, [r1, #24]
 1279 0120 26EE276A 		vmul.f32	s12, s12, s15
 1280 0124 66EEA76A 		vmul.f32	s13, s13, s15
 1281 0128 25EE275A 		vmul.f32	s10, s10, s15
 1282 012c 77EEE47A 		vsub.f32	s15, s15, s9
 1283 0130 77EE655A 		vsub.f32	s11, s14, s11
 1284 0134 37EE466A 		vsub.f32	s12, s14, s12
 1285 0138 77EE827A 		vadd.f32	s15, s15, s4
 1286 013c 75EEA25A 		vadd.f32	s11, s11, s5
 1287 0140 77EE666A 		vsub.f32	s13, s14, s13
 1288 0144 FCEEE77A 		vcvt.u32.f32	s15, s15
 1289 0148 36EE036A 		vadd.f32	s12, s12, s6
 1290 014c 37EE457A 		vsub.f32	s14, s14, s10
 1291 0150 17EE901A 		vmov	r1, s15	@ int
 1292 0154 FCEEE57A 		vcvt.u32.f32	s15, s11
 1293 0158 76EEA36A 		vadd.f32	s13, s13, s7
 1294 015c 2970     		strb	r1, [r5]
 1295 015e 37EE047A 		vadd.f32	s14, s14, s8
 1296 0162 17EE901A 		vmov	r1, s15	@ int
 1297 0166 FCEEC67A 		vcvt.u32.f32	s15, s12
 1298 016a 7B4D     		ldr	r5, .L153+96
 1299 016c 2970     		strb	r1, [r5]
 1300 016e 17EE901A 		vmov	r1, s15	@ int
 1301 0172 FCEEE67A 		vcvt.u32.f32	s15, s13
 1302 0176 794D     		ldr	r5, .L153+100
 1303 0178 2970     		strb	r1, [r5]
 1304 017a 17EE901A 		vmov	r1, s15	@ int
 1305 017e FCEEC77A 		vcvt.u32.f32	s15, s14
 1306 0182 774D     		ldr	r5, .L153+104
 1307 0184 2970     		strb	r1, [r5]
 1308 0186 17EE901A 		vmov	r1, s15	@ int
 1309 018a 764D     		ldr	r5, .L153+108
 1310 018c 2970     		strb	r1, [r5]
 1311              	.L116:
ARM GAS  /tmp/ccOvjPha.s 			page 25


 1312 018e 4CB9     		cbnz	r4, .L119
 1313 0190 6049     		ldr	r1, .L153+28
 1314 0192 0978     		ldrb	r1, [r1]	@ zero_extendqisi2
 1315 0194 0029     		cmp	r1, #0
 1316 0196 40F0A880 		bne	.L122
 1317 019a 5F49     		ldr	r1, .L153+32
 1318 019c 0978     		ldrb	r1, [r1]	@ zero_extendqisi2
 1319 019e 0029     		cmp	r1, #0
 1320 01a0 40F0A380 		bne	.L122
 1321              	.L119:
 1322 01a4 704C     		ldr	r4, .L153+112
 1323 01a6 2178     		ldrb	r1, [r4]	@ zero_extendqisi2
 1324 01a8 1C29     		cmp	r1, #28
 1325 01aa 01D0     		beq	.L121
 1326 01ac 0131     		adds	r1, r1, #1
 1327 01ae 2170     		strb	r1, [r4]
 1328              	.L121:
 1329 01b0 9B1A     		subs	r3, r3, r2
 1330 01b2 DFED6E6A 		vldr.32	s13, .L153+116
 1331 01b6 6E4A     		ldr	r2, .L153+120
 1332 01b8 00EB8313 		add	r3, r0, r3, lsl #6
 1333 01bc 6D49     		ldr	r1, .L153+124
 1334 01be 6E48     		ldr	r0, .L153+128
 1335 01c0 93ED007A 		vldr.32	s14, [r3]
 1336 01c4 1378     		ldrb	r3, [r2]	@ zero_extendqisi2
 1337 01c6 27EE267A 		vmul.f32	s14, s14, s13
 1338 01ca 0278     		ldrb	r2, [r0]	@ zero_extendqisi2
 1339 01cc 07EE903A 		vmov	s15, r3	@ int
 1340 01d0 6A4B     		ldr	r3, .L153+132
 1341 01d2 0132     		adds	r2, r2, #1
 1342 01d4 BCEEC77A 		vcvt.u32.f32	s14, s14
 1343 01d8 1C78     		ldrb	r4, [r3]	@ zero_extendqisi2
 1344 01da F8EEE77A 		vcvt.f32.s32	s15, s15
 1345 01de 02F07F02 		and	r2, r2, #127
 1346 01e2 8DED017A 		vstr.32	s14, [sp, #4]	@ int
 1347 01e6 9DF80430 		ldrb	r3, [sp, #4]	@ zero_extendqisi2
 1348 01ea 0270     		strb	r2, [r0]
 1349 01ec 7F2B     		cmp	r3, #127
 1350 01ee 28BF     		it	cs
 1351 01f0 7F23     		movcs	r3, #127
 1352 01f2 C3F17F03 		rsb	r3, r3, #127
 1353 01f6 DBB2     		uxtb	r3, r3
 1354 01f8 01EB8303 		add	r3, r1, r3, lsl #2
 1355 01fc 93ED007A 		vldr.32	s14, [r3]
 1356 0200 67EE877A 		vmul.f32	s15, s15, s14
 1357 0204 FDEEE77A 		vcvt.s32.f32	s15, s15
 1358 0208 17EE903A 		vmov	r3, s15	@ int
 1359 020c 83EA0413 		eor	r3, r3, r4, lsl #4
 1360 0210 83F07F03 		eor	r3, r3, #127
 1361 0214 9A42     		cmp	r2, r3
 1362 0216 6CD0     		beq	.L149
 1363 0218 9208     		lsrs	r2, r2, #2
 1364 021a 012A     		cmp	r2, #1
 1365 021c 00F0F080 		beq	.L150
 1366              	.L124:
 1367 0220 5749     		ldr	r1, .L153+136
 1368 0222 5848     		ldr	r0, .L153+140
ARM GAS  /tmp/ccOvjPha.s 			page 26


 1369 0224 0B78     		ldrb	r3, [r1]	@ zero_extendqisi2
 1370 0226 B0F800C0 		ldrh	ip, [r0]
 1371 022a 2BB1     		cbz	r3, .L125
 1372 022c 47F6FF73 		movw	r3, #32767
 1373 0230 BCEB0303 		subs	r3, ip, r3
 1374 0234 18BF     		it	ne
 1375 0236 0123     		movne	r3, #1
 1376              	.L125:
 1377 0238 47F6FE72 		movw	r2, #32766
 1378 023c 02EA4C02 		and	r2, r2, ip, lsl #1
 1379 0240 1343     		orrs	r3, r3, r2
 1380 0242 5A0B     		lsrs	r2, r3, #13
 1381 0244 0380     		strh	r3, [r0]	@ movhi
 1382 0246 82EA9333 		eor	r3, r2, r3, lsr #14
 1383 024a DB43     		mvns	r3, r3
 1384 024c 03F00103 		and	r3, r3, #1
 1385 0250 0B70     		strb	r3, [r1]
 1386 0252 03B0     		add	sp, sp, #12
 1387              		@ sp needed
 1388 0254 30BD     		pop	{r4, r5, pc}
 1389              	.L112:
 1390 0256 1B07     		lsls	r3, r3, #28
 1391 0258 40F0D680 		bne	.L151
 1392 025c 4A4B     		ldr	r3, .L153+144
 1393 025e 90F800C0 		ldrb	ip, [r0]	@ zero_extendqisi2
 1394 0262 1B78     		ldrb	r3, [r3]	@ zero_extendqisi2
 1395 0264 6345     		cmp	r3, ip
 1396 0266 40F2A480 		bls	.L141
 1397              	.L152:
 1398 026a 3A48     		ldr	r0, .L153+92
 1399 026c 1301     		lsls	r3, r2, #4
 1400              	.L117:
 1401 026e 4749     		ldr	r1, .L153+148
 1402 0270 0978     		ldrb	r1, [r1]	@ zero_extendqisi2
 1403 0272 6145     		cmp	r1, ip
 1404 0274 8BD8     		bhi	.L116
 1405 0276 A3EB020C 		sub	ip, r3, r2
 1406 027a 454D     		ldr	r5, .L153+152
 1407 027c 4549     		ldr	r1, .L153+156
 1408 027e 00EB8C1C 		add	ip, r0, ip, lsl #6
 1409 0282 DFED2A6A 		vldr.32	s13, .L153+52
 1410 0286 0978     		ldrb	r1, [r1]	@ zero_extendqisi2
 1411 0288 9CED017A 		vldr.32	s14, [ip, #4]
 1412 028c 95F800C0 		ldrb	ip, [r5]	@ zero_extendqisi2
 1413 0290 27EE267A 		vmul.f32	s14, s14, s13
 1414 0294 DFED267A 		vldr.32	s15, .L153+56
 1415 0298 0CEB4101 		add	r1, ip, r1, lsl #1
 1416 029c A1EBDC01 		sub	r1, r1, ip, lsr #3
 1417 02a0 37EEC77A 		vsub.f32	s14, s15, s14
 1418 02a4 C9B2     		uxtb	r1, r1
 1419 02a6 07EE901A 		vmov	s15, r1	@ int
 1420 02aa 2970     		strb	r1, [r5]
 1421 02ac 3A4D     		ldr	r5, .L153+160
 1422 02ae F8EEE77A 		vcvt.f32.s32	s15, s15
 1423 02b2 77EE277A 		vadd.f32	s15, s14, s15
 1424 02b6 FCEEE77A 		vcvt.u32.f32	s15, s15
 1425 02ba 17EE901A 		vmov	r1, s15	@ int
ARM GAS  /tmp/ccOvjPha.s 			page 27


 1426 02be 2970     		strb	r1, [r5]
 1427 02c0 65E7     		b	.L116
 1428              	.L108:
 1429 02c2 0131     		adds	r1, r1, #1
 1430 02c4 314B     		ldr	r3, .L153+148
 1431 02c6 0022     		movs	r2, #0
 1432 02c8 C9B2     		uxtb	r1, r1
 1433 02ca 1B78     		ldrb	r3, [r3]	@ zero_extendqisi2
 1434 02cc 2280     		strh	r2, [r4]	@ movhi
 1435 02ce 8B42     		cmp	r3, r1
 1436 02d0 0170     		strb	r1, [r0]
 1437 02d2 7FF4A8AE 		bne	.L145
 1438 02d6 314A     		ldr	r2, .L153+164
 1439 02d8 0A4B     		ldr	r3, .L153+12
 1440 02da 1478     		ldrb	r4, [r2]	@ zero_extendqisi2
 1441 02dc 1C70     		strb	r4, [r3]
 1442 02de A4E6     		b	.L107
 1443              	.L115:
 1444 02e0 1C48     		ldr	r0, .L153+92
 1445 02e2 1301     		lsls	r3, r2, #4
 1446 02e4 002C     		cmp	r4, #0
 1447 02e6 7FF45DAF 		bne	.L119
 1448              	.L122:
 1449 02ea 1F49     		ldr	r1, .L153+112
 1450 02ec 0024     		movs	r4, #0
 1451 02ee 0C70     		strb	r4, [r1]
 1452 02f0 5EE7     		b	.L121
 1453              	.L149:
 1454 02f2 0023     		movs	r3, #0
 1455 02f4 0370     		strb	r3, [r0]
 1456 02f6 93E7     		b	.L124
 1457              	.L154:
 1458              		.align	2
 1459              	.L153:
 1460 02f8 00000000 		.word	m_ticks
 1461 02fc 00000000 		.word	m_phonetick
 1462 0300 00000000 		.word	m_rom_duration
 1463 0304 00000000 		.word	m_cur_closure
 1464 0308 00000000 		.word	m_update_counter
 1465 030c 00000000 		.word	_intmode
 1466 0310 00000000 		.word	m_rom_pause
 1467 0314 00000000 		.word	m_filt_fa
 1468 0318 00000000 		.word	m_filt_va
 1469 031c 00000000 		.word	m_cur_fc_orig
 1470 0320 00000000 		.word	m_rom_fc
 1471 0324 00000000 		.word	m_cur_f1_orig
 1472 0328 00008043 		.word	1132462080
 1473 032c 00000043 		.word	1124073472
 1474 0330 00008042 		.word	1115684864
 1475 0334 00000000 		.word	m_rom_f1
 1476 0338 00000000 		.word	m_cur_f2_orig
 1477 033c 00000000 		.word	m_rom_f2
 1478 0340 00000000 		.word	m_cur_f2q_orig
 1479 0344 00000000 		.word	m_rom_f2q
 1480 0348 00000000 		.word	m_cur_f3_orig
 1481 034c 00000000 		.word	m_cur_f1
 1482 0350 00000000 		.word	m_rom_f3
ARM GAS  /tmp/ccOvjPha.s 			page 28


 1483 0354 00000000 		.word	exy
 1484 0358 00000000 		.word	m_cur_f2
 1485 035c 00000000 		.word	m_cur_f3
 1486 0360 00000000 		.word	m_cur_f2q
 1487 0364 00000000 		.word	m_cur_fc
 1488 0368 00000000 		.word	m_closure
 1489 036c 00000343 		.word	1124270080
 1490 0370 00000000 		.word	m_filt_f1
 1491 0374 00000000 		.word	logpitch
 1492 0378 00000000 		.word	m_pitch
 1493 037c 00000000 		.word	m_inflection
 1494 0380 00000000 		.word	m_cur_noise
 1495 0384 00000000 		.word	m_noise
 1496 0388 00000000 		.word	m_rom_vd
 1497 038c 00000000 		.word	m_rom_cld
 1498 0390 00000000 		.word	m_cur_va_orig
 1499 0394 00000000 		.word	m_rom_va
 1500 0398 00000000 		.word	m_cur_va
 1501 039c 00000000 		.word	m_rom_closure
 1502              	.L148:
 1503 03a0 0023     		movs	r3, #0
 1504 03a2 90F800C0 		ldrb	ip, [r0]	@ zero_extendqisi2
 1505 03a6 0B70     		strb	r3, [r1]
 1506 03a8 194B     		ldr	r3, .L155
 1507 03aa 1B78     		ldrb	r3, [r3]	@ zero_extendqisi2
 1508 03ac 6345     		cmp	r3, ip
 1509 03ae 3FF65CAF 		bhi	.L152
 1510              	.L141:
 1511 03b2 1849     		ldr	r1, .L155+4
 1512 03b4 184B     		ldr	r3, .L155+8
 1513 03b6 0878     		ldrb	r0, [r1]	@ zero_extendqisi2
 1514 03b8 1B78     		ldrb	r3, [r3]	@ zero_extendqisi2
 1515 03ba 9FED186A 		vldr.32	s12, .L155+12
 1516 03be 00EB4303 		add	r3, r0, r3, lsl #1
 1517 03c2 DFED177A 		vldr.32	s15, .L155+16
 1518 03c6 174D     		ldr	r5, .L155+20
 1519 03c8 A3EBD003 		sub	r3, r3, r0, lsr #3
 1520 03cc 1648     		ldr	r0, .L155+24
 1521 03ce DBB2     		uxtb	r3, r3
 1522 03d0 07EE103A 		vmov	s14, r3	@ int
 1523 03d4 0B70     		strb	r3, [r1]
 1524 03d6 C2EB0213 		rsb	r3, r2, r2, lsl #4
 1525 03da F8EEC76A 		vcvt.f32.s32	s13, s14
 1526 03de 00EB8313 		add	r3, r0, r3, lsl #6
 1527 03e2 93ED077A 		vldr.32	s14, [r3, #28]
 1528 03e6 1301     		lsls	r3, r2, #4
 1529 03e8 27EE067A 		vmul.f32	s14, s14, s12
 1530 03ec 77EEC77A 		vsub.f32	s15, s15, s14
 1531 03f0 77EEA67A 		vadd.f32	s15, s15, s13
 1532 03f4 FCEEE77A 		vcvt.u32.f32	s15, s15
 1533 03f8 17EE901A 		vmov	r1, s15	@ int
 1534 03fc 2970     		strb	r1, [r5]
 1535 03fe 36E7     		b	.L117
 1536              	.L150:
 1537 0400 0020     		movs	r0, #0
 1538 0402 FFF7FEFF 		bl	filters_commit
 1539 0406 0BE7     		b	.L124
ARM GAS  /tmp/ccOvjPha.s 			page 29


 1540              	.L151:
 1541 0408 0748     		ldr	r0, .L155+24
 1542 040a 1301     		lsls	r3, r2, #4
 1543 040c BFE6     		b	.L116
 1544              	.L156:
 1545 040e 00BF     		.align	2
 1546              	.L155:
 1547 0410 00000000 		.word	m_rom_vd
 1548 0414 00000000 		.word	m_cur_fa_orig
 1549 0418 00000000 		.word	m_rom_fa
 1550 041c 00000043 		.word	1124073472
 1551 0420 00008042 		.word	1115684864
 1552 0424 00000000 		.word	m_cur_fa
 1553 0428 00000000 		.word	exy
 1554              		.size	chip_update_bend, .-chip_update_bend
 1555              		.section	.text.chip_update_raw,"ax",%progbits
 1556              		.align	1
 1557              		.p2align 2,,3
 1558              		.global	chip_update_raw
 1559              		.syntax unified
 1560              		.thumb
 1561              		.thumb_func
 1562              		.type	chip_update_raw, %function
 1563              	chip_update_raw:
 1564              		@ args = 0, pretend = 0, frame = 8
 1565              		@ frame_needed = 0, uses_anonymous_args = 0
 1566 0000 5D49     		ldr	r1, .L165
 1567 0002 5E4A     		ldr	r2, .L165+4
 1568 0004 D1ED006A 		vldr.32	s13, [r1]
 1569 0008 9FED5D7A 		vldr.32	s14, .L165+8
 1570 000c 5D4B     		ldr	r3, .L165+12
 1571 000e 66EE876A 		vmul.f32	s13, s13, s14
 1572 0012 DFED5D3A 		vldr.32	s7, .L165+16
 1573 0016 B7EE007A 		vmov.f32	s14, #1.0e+0
 1574 001a 5C49     		ldr	r1, .L165+20
 1575 001c 5C48     		ldr	r0, .L165+24
 1576 001e FCEEE66A 		vcvt.u32.f32	s13, s13
 1577 0022 10B5     		push	{r4, lr}
 1578 0024 1278     		ldrb	r2, [r2]	@ zero_extendqisi2
 1579 0026 82B0     		sub	sp, sp, #8
 1580 0028 5A4C     		ldr	r4, .L165+28
 1581 002a 07EE902A 		vmov	s15, r2	@ int
 1582 002e 1A78     		ldrb	r2, [r3]	@ zero_extendqisi2
 1583 0030 594B     		ldr	r3, .L165+32
 1584 0032 C2EB0212 		rsb	r2, r2, r2, lsl #4
 1585 0036 CDED016A 		vstr.32	s13, [sp, #4]	@ int
 1586 003a F8EEE77A 		vcvt.f32.s32	s15, s15
 1587 003e 03EB8213 		add	r3, r3, r2, lsl #6
 1588 0042 0278     		ldrb	r2, [r0]	@ zero_extendqisi2
 1589 0044 93ED003A 		vldr.32	s6, [r3]
 1590 0048 77EEA77A 		vadd.f32	s15, s15, s15
 1591 004c 93ED014A 		vldr.32	s8, [r3, #4]
 1592 0050 0132     		adds	r2, r2, #1
 1593 0052 D3ED024A 		vldr.32	s9, [r3, #8]
 1594 0056 93ED035A 		vldr.32	s10, [r3, #12]
 1595 005a 37EE444A 		vsub.f32	s8, s14, s8
 1596 005e D3ED045A 		vldr.32	s11, [r3, #16]
ARM GAS  /tmp/ccOvjPha.s 			page 30


 1597 0062 77EE644A 		vsub.f32	s9, s14, s9
 1598 0066 93ED056A 		vldr.32	s12, [r3, #20]
 1599 006a 37EE455A 		vsub.f32	s10, s14, s10
 1600 006e D3ED066A 		vldr.32	s13, [r3, #24]
 1601 0072 24EE234A 		vmul.f32	s8, s8, s7
 1602 0076 9DF80430 		ldrb	r3, [sp, #4]	@ zero_extendqisi2
 1603 007a 64EEA34A 		vmul.f32	s9, s9, s7
 1604 007e 77EE655A 		vsub.f32	s11, s14, s11
 1605 0082 02F07F02 		and	r2, r2, #127
 1606 0086 7F2B     		cmp	r3, #127
 1607 0088 BCEEC44A 		vcvt.u32.f32	s8, s8
 1608 008c 25EE235A 		vmul.f32	s10, s10, s7
 1609 0090 0270     		strb	r2, [r0]
 1610 0092 28BF     		it	cs
 1611 0094 7F23     		movcs	r3, #127
 1612 0096 37EE466A 		vsub.f32	s12, s14, s12
 1613 009a FCEEE44A 		vcvt.u32.f32	s9, s9
 1614 009e C3F17F03 		rsb	r3, r3, #127
 1615 00a2 65EEA35A 		vmul.f32	s11, s11, s7
 1616 00a6 77EE666A 		vsub.f32	s13, s14, s13
 1617 00aa DBB2     		uxtb	r3, r3
 1618 00ac BCEEC55A 		vcvt.u32.f32	s10, s10
 1619 00b0 37EE437A 		vsub.f32	s14, s14, s6
 1620 00b4 01EB8303 		add	r3, r1, r3, lsl #2
 1621 00b8 3849     		ldr	r1, .L165+36
 1622 00ba 26EE236A 		vmul.f32	s12, s12, s7
 1623 00be 91F800C0 		ldrb	ip, [r1]	@ zero_extendqisi2
 1624 00c2 14EE101A 		vmov	r1, s8	@ int
 1625 00c6 93ED003A 		vldr.32	s6, [r3]
 1626 00ca 14EE903A 		vmov	r3, s9	@ int
 1627 00ce 2170     		strb	r1, [r4]
 1628 00d0 FCEEE55A 		vcvt.u32.f32	s11, s11
 1629 00d4 3249     		ldr	r1, .L165+40
 1630 00d6 66EEA36A 		vmul.f32	s13, s13, s7
 1631 00da 324C     		ldr	r4, .L165+44
 1632 00dc BCEEC66A 		vcvt.u32.f32	s12, s12
 1633 00e0 0B70     		strb	r3, [r1]
 1634 00e2 15EE101A 		vmov	r1, s10	@ int
 1635 00e6 15EE903A 		vmov	r3, s11	@ int
 1636 00ea 27EE237A 		vmul.f32	s14, s14, s7
 1637 00ee 2170     		strb	r1, [r4]
 1638 00f0 FCEEE66A 		vcvt.u32.f32	s13, s13
 1639 00f4 2C49     		ldr	r1, .L165+48
 1640 00f6 67EE837A 		vmul.f32	s15, s15, s6
 1641 00fa 2C4C     		ldr	r4, .L165+52
 1642 00fc BCEEC77A 		vcvt.u32.f32	s14, s14
 1643 0100 0B70     		strb	r3, [r1]
 1644 0102 16EE101A 		vmov	r1, s12	@ int
 1645 0106 16EE903A 		vmov	r3, s13	@ int
 1646 010a FDEEE77A 		vcvt.s32.f32	s15, s15
 1647 010e 2170     		strb	r1, [r4]
 1648 0110 2749     		ldr	r1, .L165+56
 1649 0112 0B70     		strb	r3, [r1]
 1650 0114 17EE103A 		vmov	r3, s14	@ int
 1651 0118 2649     		ldr	r1, .L165+60
 1652 011a 0B70     		strb	r3, [r1]
 1653 011c 17EE903A 		vmov	r3, s15	@ int
ARM GAS  /tmp/ccOvjPha.s 			page 31


 1654 0120 83EA0C13 		eor	r3, r3, ip, lsl #4
 1655 0124 83F07F03 		eor	r3, r3, #127
 1656 0128 9A42     		cmp	r2, r3
 1657 012a 21D0     		beq	.L163
 1658 012c 9208     		lsrs	r2, r2, #2
 1659 012e 012A     		cmp	r2, #1
 1660 0130 1AD0     		beq	.L164
 1661              	.L159:
 1662 0132 2149     		ldr	r1, .L165+64
 1663 0134 2148     		ldr	r0, .L165+68
 1664 0136 0B78     		ldrb	r3, [r1]	@ zero_extendqisi2
 1665 0138 B0F800C0 		ldrh	ip, [r0]
 1666 013c 2BB1     		cbz	r3, .L160
 1667 013e 47F6FF73 		movw	r3, #32767
 1668 0142 BCEB0303 		subs	r3, ip, r3
 1669 0146 18BF     		it	ne
 1670 0148 0123     		movne	r3, #1
 1671              	.L160:
 1672 014a 47F6FE72 		movw	r2, #32766
 1673 014e 02EA4C02 		and	r2, r2, ip, lsl #1
 1674 0152 1343     		orrs	r3, r3, r2
 1675 0154 5A0B     		lsrs	r2, r3, #13
 1676 0156 0380     		strh	r3, [r0]	@ movhi
 1677 0158 82EA9333 		eor	r3, r2, r3, lsr #14
 1678 015c DB43     		mvns	r3, r3
 1679 015e 03F00103 		and	r3, r3, #1
 1680 0162 0B70     		strb	r3, [r1]
 1681 0164 02B0     		add	sp, sp, #8
 1682              		@ sp needed
 1683 0166 10BD     		pop	{r4, pc}
 1684              	.L164:
 1685 0168 0020     		movs	r0, #0
 1686 016a FFF7FEFF 		bl	filters_commit
 1687 016e E0E7     		b	.L159
 1688              	.L163:
 1689 0170 0023     		movs	r3, #0
 1690 0172 0370     		strb	r3, [r0]
 1691 0174 DDE7     		b	.L159
 1692              	.L166:
 1693 0176 00BF     		.align	2
 1694              	.L165:
 1695 0178 00000000 		.word	_selz
 1696 017c 00000000 		.word	m_filt_f1
 1697 0180 00000343 		.word	1124270080
 1698 0184 00000000 		.word	_intmode
 1699 0188 00007F43 		.word	1132396544
 1700 018c 00000000 		.word	logpitch
 1701 0190 00000000 		.word	m_pitch
 1702 0194 00000000 		.word	m_cur_f1
 1703 0198 00000000 		.word	exy
 1704 019c 00000000 		.word	m_inflection
 1705 01a0 00000000 		.word	m_cur_f2
 1706 01a4 00000000 		.word	m_cur_f3
 1707 01a8 00000000 		.word	m_cur_f2q
 1708 01ac 00000000 		.word	m_cur_fc
 1709 01b0 00000000 		.word	m_cur_fa
 1710 01b4 00000000 		.word	m_cur_va
ARM GAS  /tmp/ccOvjPha.s 			page 32


 1711 01b8 00000000 		.word	m_cur_noise
 1712 01bc 00000000 		.word	m_noise
 1713              		.size	chip_update_raw, .-chip_update_raw
 1714              		.section	.text.chip_update,"ax",%progbits
 1715              		.align	1
 1716              		.p2align 2,,3
 1717              		.global	chip_update
 1718              		.syntax unified
 1719              		.thumb
 1720              		.thumb_func
 1721              		.type	chip_update, %function
 1722              	chip_update:
 1723              		@ args = 0, pretend = 0, frame = 8
 1724              		@ frame_needed = 0, uses_anonymous_args = 0
 1725 0000 8548     		ldr	r0, .L213
 1726 0002 30B5     		push	{r4, r5, lr}
 1727 0004 0178     		ldrb	r1, [r0]	@ zero_extendqisi2
 1728 0006 83B0     		sub	sp, sp, #12
 1729 0008 1029     		cmp	r1, #16
 1730 000a 0CD0     		beq	.L210
 1731 000c 834C     		ldr	r4, .L213+4
 1732 000e 844A     		ldr	r2, .L213+8
 1733 0010 2388     		ldrh	r3, [r4]
 1734 0012 1278     		ldrb	r2, [r2]	@ zero_extendqisi2
 1735 0014 0133     		adds	r3, r3, #1
 1736 0016 9200     		lsls	r2, r2, #2
 1737 0018 9BB2     		uxth	r3, r3
 1738 001a 42F00102 		orr	r2, r2, #1
 1739 001e 2380     		strh	r3, [r4]	@ movhi
 1740 0020 9342     		cmp	r3, r2
 1741 0022 00F0CD80 		beq	.L170
 1742              	.L210:
 1743 0026 7F4B     		ldr	r3, .L213+12
 1744 0028 1978     		ldrb	r1, [r3]	@ zero_extendqisi2
 1745              	.L169:
 1746 002a 7F4A     		ldr	r2, .L213+16
 1747 002c 1378     		ldrb	r3, [r2]	@ zero_extendqisi2
 1748 002e 0133     		adds	r3, r3, #1
 1749 0030 DBB2     		uxtb	r3, r3
 1750 0032 302B     		cmp	r3, #48
 1751 0034 1370     		strb	r3, [r2]
 1752 0036 00F0E880 		beq	.L211
 1753 003a 282B     		cmp	r3, #40
 1754 003c 40F0A280 		bne	.L174
 1755 0040 7A4B     		ldr	r3, .L213+20
 1756 0042 1B78     		ldrb	r3, [r3]	@ zero_extendqisi2
 1757 0044 4BB1     		cbz	r3, .L175
 1758 0046 7A4B     		ldr	r3, .L213+24
 1759 0048 1B78     		ldrb	r3, [r3]	@ zero_extendqisi2
 1760 004a 002B     		cmp	r3, #0
 1761 004c 40F0C780 		bne	.L177
 1762 0050 784B     		ldr	r3, .L213+28
 1763 0052 1B78     		ldrb	r3, [r3]	@ zero_extendqisi2
 1764 0054 002B     		cmp	r3, #0
 1765 0056 40F0C280 		bne	.L177
 1766              	.L175:
 1767 005a 774C     		ldr	r4, .L213+32
ARM GAS  /tmp/ccOvjPha.s 			page 33


 1768 005c 774A     		ldr	r2, .L213+36
 1769 005e 2578     		ldrb	r5, [r4]	@ zero_extendqisi2
 1770 0060 1278     		ldrb	r2, [r2]	@ zero_extendqisi2
 1771 0062 7748     		ldr	r0, .L213+40
 1772 0064 05EB4202 		add	r2, r5, r2, lsl #1
 1773 0068 764B     		ldr	r3, .L213+44
 1774 006a A2EBD502 		sub	r2, r2, r5, lsr #3
 1775 006e 1B78     		ldrb	r3, [r3]	@ zero_extendqisi2
 1776 0070 754D     		ldr	r5, .L213+48
 1777 0072 2270     		strb	r2, [r4]
 1778 0074 0278     		ldrb	r2, [r0]	@ zero_extendqisi2
 1779 0076 2C78     		ldrb	r4, [r5]	@ zero_extendqisi2
 1780 0078 02EB4303 		add	r3, r2, r3, lsl #1
 1781 007c A3EBD203 		sub	r3, r3, r2, lsr #3
 1782 0080 724A     		ldr	r2, .L213+52
 1783 0082 0370     		strb	r3, [r0]
 1784 0084 724B     		ldr	r3, .L213+56
 1785 0086 92F800C0 		ldrb	ip, [r2]	@ zero_extendqisi2
 1786 008a 1B78     		ldrb	r3, [r3]	@ zero_extendqisi2
 1787 008c 7148     		ldr	r0, .L213+60
 1788 008e 0CEB4303 		add	r3, ip, r3, lsl #1
 1789 0092 A3EBDC03 		sub	r3, r3, ip, lsr #3
 1790 0096 1370     		strb	r3, [r2]
 1791 0098 6F4B     		ldr	r3, .L213+64
 1792 009a 1A78     		ldrb	r2, [r3]	@ zero_extendqisi2
 1793 009c 6F4B     		ldr	r3, .L213+68
 1794 009e 04EB4202 		add	r2, r4, r2, lsl #1
 1795 00a2 1B78     		ldrb	r3, [r3]	@ zero_extendqisi2
 1796 00a4 A2EBD402 		sub	r2, r2, r4, lsr #3
 1797 00a8 0478     		ldrb	r4, [r0]	@ zero_extendqisi2
 1798 00aa 04EB4303 		add	r3, r4, r3, lsl #1
 1799 00ae 2A70     		strb	r2, [r5]
 1800 00b0 A3EBD403 		sub	r3, r3, r4, lsr #3
 1801 00b4 0370     		strb	r3, [r0]
 1802              	.L178:
 1803 00b6 49B9     		cbnz	r1, .L181
 1804 00b8 5D4B     		ldr	r3, .L213+24
 1805 00ba 1B78     		ldrb	r3, [r3]	@ zero_extendqisi2
 1806 00bc 002B     		cmp	r3, #0
 1807 00be 40F09180 		bne	.L184
 1808 00c2 5C4B     		ldr	r3, .L213+28
 1809 00c4 1B78     		ldrb	r3, [r3]	@ zero_extendqisi2
 1810 00c6 002B     		cmp	r3, #0
 1811 00c8 40F08C80 		bne	.L184
 1812              	.L181:
 1813 00cc 644A     		ldr	r2, .L213+72
 1814 00ce 1378     		ldrb	r3, [r2]	@ zero_extendqisi2
 1815 00d0 1C2B     		cmp	r3, #28
 1816 00d2 01D0     		beq	.L183
 1817 00d4 0133     		adds	r3, r3, #1
 1818 00d6 1370     		strb	r3, [r2]
 1819              	.L183:
 1820 00d8 624B     		ldr	r3, .L213+76
 1821 00da 9FED637A 		vldr.32	s14, .L213+80
 1822 00de D3ED007A 		vldr.32	s15, [r3]
 1823 00e2 624B     		ldr	r3, .L213+84
 1824 00e4 67EE877A 		vmul.f32	s15, s15, s14
ARM GAS  /tmp/ccOvjPha.s 			page 34


 1825 00e8 6148     		ldr	r0, .L213+88
 1826 00ea 1C78     		ldrb	r4, [r3]	@ zero_extendqisi2
 1827 00ec 0278     		ldrb	r2, [r0]	@ zero_extendqisi2
 1828 00ee FCEEE77A 		vcvt.u32.f32	s15, s15
 1829 00f2 6049     		ldr	r1, .L213+92
 1830 00f4 0132     		adds	r2, r2, #1
 1831 00f6 CDED017A 		vstr.32	s15, [sp, #4]	@ int
 1832 00fa 02F07F02 		and	r2, r2, #127
 1833 00fe 9DF80430 		ldrb	r3, [sp, #4]	@ zero_extendqisi2
 1834 0102 0270     		strb	r2, [r0]
 1835 0104 7F2B     		cmp	r3, #127
 1836 0106 28BF     		it	cs
 1837 0108 7F23     		movcs	r3, #127
 1838 010a C3F17F03 		rsb	r3, r3, #127
 1839 010e DBB2     		uxtb	r3, r3
 1840 0110 01EB8303 		add	r3, r1, r3, lsl #2
 1841 0114 93ED007A 		vldr.32	s14, [r3]
 1842 0118 002C     		cmp	r4, #0
 1843 011a 67D1     		bne	.L185
 1844 011c 5649     		ldr	r1, .L213+96
 1845 011e 574B     		ldr	r3, .L213+100
 1846 0120 0978     		ldrb	r1, [r1]	@ zero_extendqisi2
 1847 0122 07EE901A 		vmov	s15, r1	@ int
 1848 0126 1978     		ldrb	r1, [r3]	@ zero_extendqisi2
 1849 0128 F8EEE77A 		vcvt.f32.s32	s15, s15
 1850 012c 77EEA77A 		vadd.f32	s15, s15, s15
 1851 0130 67EE877A 		vmul.f32	s15, s15, s14
 1852 0134 FDEEE77A 		vcvt.s32.f32	s15, s15
 1853 0138 17EE903A 		vmov	r3, s15	@ int
 1854 013c 83EA0113 		eor	r3, r3, r1, lsl #4
 1855 0140 83F07F03 		eor	r3, r3, #127
 1856 0144 9342     		cmp	r3, r2
 1857 0146 5DD0     		beq	.L188
 1858              	.L186:
 1859 0148 9208     		lsrs	r2, r2, #2
 1860 014a 012A     		cmp	r2, #1
 1861 014c 60D0     		beq	.L212
 1862              	.L190:
 1863 014e 4C49     		ldr	r1, .L213+104
 1864 0150 4C48     		ldr	r0, .L213+108
 1865 0152 0B78     		ldrb	r3, [r1]	@ zero_extendqisi2
 1866 0154 B0F800C0 		ldrh	ip, [r0]
 1867 0158 2BB1     		cbz	r3, .L189
 1868 015a 47F6FF73 		movw	r3, #32767
 1869 015e BCEB0303 		subs	r3, ip, r3
 1870 0162 18BF     		it	ne
 1871 0164 0123     		movne	r3, #1
 1872              	.L189:
 1873 0166 47F6FE72 		movw	r2, #32766
 1874 016a 02EA4C02 		and	r2, r2, ip, lsl #1
 1875 016e 1343     		orrs	r3, r3, r2
 1876 0170 5A0B     		lsrs	r2, r3, #13
 1877 0172 0380     		strh	r3, [r0]	@ movhi
 1878 0174 82EA9333 		eor	r3, r2, r3, lsr #14
 1879 0178 DB43     		mvns	r3, r3
 1880 017a 03F00103 		and	r3, r3, #1
 1881 017e 0B70     		strb	r3, [r1]
ARM GAS  /tmp/ccOvjPha.s 			page 35


 1882 0180 03B0     		add	sp, sp, #12
 1883              		@ sp needed
 1884 0182 30BD     		pop	{r4, r5, pc}
 1885              	.L174:
 1886 0184 1B07     		lsls	r3, r3, #28
 1887 0186 96D1     		bne	.L178
 1888              	.L173:
 1889 0188 3F4A     		ldr	r2, .L213+112
 1890 018a 0378     		ldrb	r3, [r0]	@ zero_extendqisi2
 1891 018c 1278     		ldrb	r2, [r2]	@ zero_extendqisi2
 1892 018e 9A42     		cmp	r2, r3
 1893 0190 08D8     		bhi	.L179
 1894 0192 3E48     		ldr	r0, .L213+116
 1895 0194 3E4A     		ldr	r2, .L213+120
 1896 0196 0478     		ldrb	r4, [r0]	@ zero_extendqisi2
 1897 0198 1278     		ldrb	r2, [r2]	@ zero_extendqisi2
 1898 019a 04EB4202 		add	r2, r4, r2, lsl #1
 1899 019e A2EBD402 		sub	r2, r2, r4, lsr #3
 1900 01a2 0270     		strb	r2, [r0]
 1901              	.L179:
 1902 01a4 3B4A     		ldr	r2, .L213+124
 1903 01a6 1278     		ldrb	r2, [r2]	@ zero_extendqisi2
 1904 01a8 9A42     		cmp	r2, r3
 1905 01aa 84D8     		bhi	.L178
 1906 01ac 3A4A     		ldr	r2, .L213+128
 1907 01ae 3B4B     		ldr	r3, .L213+132
 1908 01b0 1078     		ldrb	r0, [r2]	@ zero_extendqisi2
 1909 01b2 1B78     		ldrb	r3, [r3]	@ zero_extendqisi2
 1910 01b4 00EB4303 		add	r3, r0, r3, lsl #1
 1911 01b8 A3EBD003 		sub	r3, r3, r0, lsr #3
 1912 01bc 1370     		strb	r3, [r2]
 1913 01be 7AE7     		b	.L178
 1914              	.L170:
 1915 01c0 0131     		adds	r1, r1, #1
 1916 01c2 344B     		ldr	r3, .L213+124
 1917 01c4 0022     		movs	r2, #0
 1918 01c6 C9B2     		uxtb	r1, r1
 1919 01c8 1B78     		ldrb	r3, [r3]	@ zero_extendqisi2
 1920 01ca 2280     		strh	r2, [r4]	@ movhi
 1921 01cc 8B42     		cmp	r3, r1
 1922 01ce 0170     		strb	r1, [r0]
 1923 01d0 7FF429AF 		bne	.L210
 1924 01d4 324A     		ldr	r2, .L213+136
 1925 01d6 134B     		ldr	r3, .L213+12
 1926 01d8 1178     		ldrb	r1, [r2]	@ zero_extendqisi2
 1927 01da 1970     		strb	r1, [r3]
 1928 01dc 25E7     		b	.L169
 1929              	.L177:
 1930 01de 0029     		cmp	r1, #0
 1931 01e0 7FF474AF 		bne	.L181
 1932              	.L184:
 1933 01e4 1E4B     		ldr	r3, .L213+72
 1934 01e6 0022     		movs	r2, #0
 1935 01e8 1A70     		strb	r2, [r3]
 1936 01ea 75E7     		b	.L183
 1937              	.L185:
 1938 01ec F2EE087A 		vmov.f32	s15, #1.2e+1
ARM GAS  /tmp/ccOvjPha.s 			page 36


 1939 01f0 27EE277A 		vmul.f32	s14, s14, s15
 1940 01f4 BDEEC77A 		vcvt.s32.f32	s14, s14
 1941 01f8 17EE103A 		vmov	r3, s14	@ int
 1942 01fc 83F07F03 		eor	r3, r3, #127
 1943 0200 9342     		cmp	r3, r2
 1944 0202 A1D1     		bne	.L186
 1945              	.L188:
 1946 0204 0023     		movs	r3, #0
 1947 0206 0370     		strb	r3, [r0]
 1948 0208 A1E7     		b	.L190
 1949              	.L211:
 1950 020a 0023     		movs	r3, #0
 1951 020c 1370     		strb	r3, [r2]
 1952 020e BBE7     		b	.L173
 1953              	.L212:
 1954 0210 0020     		movs	r0, #0
 1955 0212 FFF7FEFF 		bl	filters_commit
 1956 0216 9AE7     		b	.L190
 1957              	.L214:
 1958              		.align	2
 1959              	.L213:
 1960 0218 00000000 		.word	m_ticks
 1961 021c 00000000 		.word	m_phonetick
 1962 0220 00000000 		.word	m_rom_duration
 1963 0224 00000000 		.word	m_cur_closure
 1964 0228 00000000 		.word	m_update_counter
 1965 022c 00000000 		.word	m_rom_pause
 1966 0230 00000000 		.word	m_filt_fa
 1967 0234 00000000 		.word	m_filt_va
 1968 0238 00000000 		.word	m_cur_fc
 1969 023c 00000000 		.word	m_rom_fc
 1970 0240 00000000 		.word	m_cur_f1
 1971 0244 00000000 		.word	m_rom_f1
 1972 0248 00000000 		.word	m_cur_f2q
 1973 024c 00000000 		.word	m_cur_f2
 1974 0250 00000000 		.word	m_rom_f2
 1975 0254 00000000 		.word	m_cur_f3
 1976 0258 00000000 		.word	m_rom_f2q
 1977 025c 00000000 		.word	m_rom_f3
 1978 0260 00000000 		.word	m_closure
 1979 0264 00000000 		.word	_selz
 1980 0268 00000343 		.word	1124270080
 1981 026c 00000000 		.word	modus
 1982 0270 00000000 		.word	m_pitch
 1983 0274 00000000 		.word	logpitch
 1984 0278 00000000 		.word	m_filt_f1
 1985 027c 00000000 		.word	m_inflection
 1986 0280 00000000 		.word	m_cur_noise
 1987 0284 00000000 		.word	m_noise
 1988 0288 00000000 		.word	m_rom_vd
 1989 028c 00000000 		.word	m_cur_fa
 1990 0290 00000000 		.word	m_rom_fa
 1991 0294 00000000 		.word	m_rom_cld
 1992 0298 00000000 		.word	m_cur_va
 1993 029c 00000000 		.word	m_rom_va
 1994 02a0 00000000 		.word	m_rom_closure
 1995              		.size	chip_update, .-chip_update
ARM GAS  /tmp/ccOvjPha.s 			page 37


 1996              		.section	.text.chip_updateTTS,"ax",%progbits
 1997              		.align	1
 1998              		.p2align 2,,3
 1999              		.global	chip_updateTTS
 2000              		.syntax unified
 2001              		.thumb
 2002              		.thumb_func
 2003              		.type	chip_updateTTS, %function
 2004              	chip_updateTTS:
 2005              		@ args = 0, pretend = 0, frame = 8
 2006              		@ frame_needed = 0, uses_anonymous_args = 0
 2007 0000 7D48     		ldr	r0, .L259
 2008 0002 30B5     		push	{r4, r5, lr}
 2009 0004 0178     		ldrb	r1, [r0]	@ zero_extendqisi2
 2010 0006 83B0     		sub	sp, sp, #12
 2011 0008 1029     		cmp	r1, #16
 2012 000a 0CD0     		beq	.L255
 2013 000c 7B4C     		ldr	r4, .L259+4
 2014 000e 7C4A     		ldr	r2, .L259+8
 2015 0010 2388     		ldrh	r3, [r4]
 2016 0012 1278     		ldrb	r2, [r2]	@ zero_extendqisi2
 2017 0014 0133     		adds	r3, r3, #1
 2018 0016 9200     		lsls	r2, r2, #2
 2019 0018 9BB2     		uxth	r3, r3
 2020 001a 42F00102 		orr	r2, r2, #1
 2021 001e 2380     		strh	r3, [r4]	@ movhi
 2022 0020 9342     		cmp	r3, r2
 2023 0022 00F0C980 		beq	.L218
 2024              	.L255:
 2025 0026 774B     		ldr	r3, .L259+12
 2026 0028 1978     		ldrb	r1, [r3]	@ zero_extendqisi2
 2027              	.L217:
 2028 002a 774A     		ldr	r2, .L259+16
 2029 002c 1378     		ldrb	r3, [r2]	@ zero_extendqisi2
 2030 002e 0133     		adds	r3, r3, #1
 2031 0030 DBB2     		uxtb	r3, r3
 2032 0032 302B     		cmp	r3, #48
 2033 0034 1370     		strb	r3, [r2]
 2034 0036 00F0D580 		beq	.L256
 2035 003a 282B     		cmp	r3, #40
 2036 003c 40F09E80 		bne	.L222
 2037 0040 724B     		ldr	r3, .L259+20
 2038 0042 1B78     		ldrb	r3, [r3]	@ zero_extendqisi2
 2039 0044 4BB1     		cbz	r3, .L223
 2040 0046 724B     		ldr	r3, .L259+24
 2041 0048 1B78     		ldrb	r3, [r3]	@ zero_extendqisi2
 2042 004a 002B     		cmp	r3, #0
 2043 004c 40F0C380 		bne	.L225
 2044 0050 704B     		ldr	r3, .L259+28
 2045 0052 1B78     		ldrb	r3, [r3]	@ zero_extendqisi2
 2046 0054 002B     		cmp	r3, #0
 2047 0056 40F0BE80 		bne	.L225
 2048              	.L223:
 2049 005a 6F4C     		ldr	r4, .L259+32
 2050 005c 6F4A     		ldr	r2, .L259+36
 2051 005e 2578     		ldrb	r5, [r4]	@ zero_extendqisi2
 2052 0060 1278     		ldrb	r2, [r2]	@ zero_extendqisi2
ARM GAS  /tmp/ccOvjPha.s 			page 38


 2053 0062 6F48     		ldr	r0, .L259+40
 2054 0064 05EB4202 		add	r2, r5, r2, lsl #1
 2055 0068 6E4B     		ldr	r3, .L259+44
 2056 006a A2EBD502 		sub	r2, r2, r5, lsr #3
 2057 006e 1B78     		ldrb	r3, [r3]	@ zero_extendqisi2
 2058 0070 6D4D     		ldr	r5, .L259+48
 2059 0072 2270     		strb	r2, [r4]
 2060 0074 0278     		ldrb	r2, [r0]	@ zero_extendqisi2
 2061 0076 2C78     		ldrb	r4, [r5]	@ zero_extendqisi2
 2062 0078 02EB4303 		add	r3, r2, r3, lsl #1
 2063 007c A3EBD203 		sub	r3, r3, r2, lsr #3
 2064 0080 6A4A     		ldr	r2, .L259+52
 2065 0082 0370     		strb	r3, [r0]
 2066 0084 6A4B     		ldr	r3, .L259+56
 2067 0086 92F800C0 		ldrb	ip, [r2]	@ zero_extendqisi2
 2068 008a 1B78     		ldrb	r3, [r3]	@ zero_extendqisi2
 2069 008c 6948     		ldr	r0, .L259+60
 2070 008e 0CEB4303 		add	r3, ip, r3, lsl #1
 2071 0092 A3EBDC03 		sub	r3, r3, ip, lsr #3
 2072 0096 1370     		strb	r3, [r2]
 2073 0098 674B     		ldr	r3, .L259+64
 2074 009a 1A78     		ldrb	r2, [r3]	@ zero_extendqisi2
 2075 009c 674B     		ldr	r3, .L259+68
 2076 009e 04EB4202 		add	r2, r4, r2, lsl #1
 2077 00a2 1B78     		ldrb	r3, [r3]	@ zero_extendqisi2
 2078 00a4 A2EBD402 		sub	r2, r2, r4, lsr #3
 2079 00a8 0478     		ldrb	r4, [r0]	@ zero_extendqisi2
 2080 00aa 04EB4303 		add	r3, r4, r3, lsl #1
 2081 00ae 2A70     		strb	r2, [r5]
 2082 00b0 A3EBD403 		sub	r3, r3, r4, lsr #3
 2083 00b4 0370     		strb	r3, [r0]
 2084              	.L226:
 2085 00b6 49B9     		cbnz	r1, .L229
 2086 00b8 554B     		ldr	r3, .L259+24
 2087 00ba 1B78     		ldrb	r3, [r3]	@ zero_extendqisi2
 2088 00bc 002B     		cmp	r3, #0
 2089 00be 40F08D80 		bne	.L232
 2090 00c2 544B     		ldr	r3, .L259+28
 2091 00c4 1B78     		ldrb	r3, [r3]	@ zero_extendqisi2
 2092 00c6 002B     		cmp	r3, #0
 2093 00c8 40F08880 		bne	.L232
 2094              	.L229:
 2095 00cc 5C4A     		ldr	r2, .L259+72
 2096 00ce 1378     		ldrb	r3, [r2]	@ zero_extendqisi2
 2097 00d0 1C2B     		cmp	r3, #28
 2098 00d2 01D0     		beq	.L231
 2099 00d4 0133     		adds	r3, r3, #1
 2100 00d6 1370     		strb	r3, [r2]
 2101              	.L231:
 2102 00d8 5A4A     		ldr	r2, .L259+76
 2103 00da DFED5B6A 		vldr.32	s13, .L259+80
 2104 00de 92ED007A 		vldr.32	s14, [r2]
 2105 00e2 5A4B     		ldr	r3, .L259+84
 2106 00e4 27EE267A 		vmul.f32	s14, s14, s13
 2107 00e8 5949     		ldr	r1, .L259+88
 2108 00ea 1B78     		ldrb	r3, [r3]	@ zero_extendqisi2
 2109 00ec 5948     		ldr	r0, .L259+92
ARM GAS  /tmp/ccOvjPha.s 			page 39


 2110 00ee BCEEC77A 		vcvt.u32.f32	s14, s14
 2111 00f2 07EE903A 		vmov	s15, r3	@ int
 2112 00f6 584B     		ldr	r3, .L259+96
 2113 00f8 F8EEE77A 		vcvt.f32.s32	s15, s15
 2114 00fc 0278     		ldrb	r2, [r0]	@ zero_extendqisi2
 2115 00fe 1C78     		ldrb	r4, [r3]	@ zero_extendqisi2
 2116 0100 8DED017A 		vstr.32	s14, [sp, #4]	@ int
 2117 0104 0132     		adds	r2, r2, #1
 2118 0106 9DF80430 		ldrb	r3, [sp, #4]	@ zero_extendqisi2
 2119 010a 77EEA77A 		vadd.f32	s15, s15, s15
 2120 010e 02F07F02 		and	r2, r2, #127
 2121 0112 7F2B     		cmp	r3, #127
 2122 0114 0270     		strb	r2, [r0]
 2123 0116 28BF     		it	cs
 2124 0118 7F23     		movcs	r3, #127
 2125 011a C3F17F03 		rsb	r3, r3, #127
 2126 011e DBB2     		uxtb	r3, r3
 2127 0120 01EB8303 		add	r3, r1, r3, lsl #2
 2128 0124 93ED007A 		vldr.32	s14, [r3]
 2129 0128 67EE877A 		vmul.f32	s15, s15, s14
 2130 012c FDEEE77A 		vcvt.s32.f32	s15, s15
 2131 0130 17EE903A 		vmov	r3, s15	@ int
 2132 0134 83EA0413 		eor	r3, r3, r4, lsl #4
 2133 0138 83F07F03 		eor	r3, r3, #127
 2134 013c 9A42     		cmp	r2, r3
 2135 013e 54D0     		beq	.L257
 2136 0140 9208     		lsrs	r2, r2, #2
 2137 0142 012A     		cmp	r2, #1
 2138 0144 54D0     		beq	.L258
 2139              	.L234:
 2140 0146 4549     		ldr	r1, .L259+100
 2141 0148 4548     		ldr	r0, .L259+104
 2142 014a 0B78     		ldrb	r3, [r1]	@ zero_extendqisi2
 2143 014c B0F800C0 		ldrh	ip, [r0]
 2144 0150 2BB1     		cbz	r3, .L235
 2145 0152 47F6FF73 		movw	r3, #32767
 2146 0156 BCEB0303 		subs	r3, ip, r3
 2147 015a 18BF     		it	ne
 2148 015c 0123     		movne	r3, #1
 2149              	.L235:
 2150 015e 47F6FE72 		movw	r2, #32766
 2151 0162 02EA4C02 		and	r2, r2, ip, lsl #1
 2152 0166 1343     		orrs	r3, r3, r2
 2153 0168 5A0B     		lsrs	r2, r3, #13
 2154 016a 0380     		strh	r3, [r0]	@ movhi
 2155 016c 82EA9333 		eor	r3, r2, r3, lsr #14
 2156 0170 DB43     		mvns	r3, r3
 2157 0172 03F00103 		and	r3, r3, #1
 2158 0176 0B70     		strb	r3, [r1]
 2159 0178 03B0     		add	sp, sp, #12
 2160              		@ sp needed
 2161 017a 30BD     		pop	{r4, r5, pc}
 2162              	.L222:
 2163 017c 1B07     		lsls	r3, r3, #28
 2164 017e 9AD1     		bne	.L226
 2165              	.L221:
 2166 0180 384A     		ldr	r2, .L259+108
ARM GAS  /tmp/ccOvjPha.s 			page 40


 2167 0182 0378     		ldrb	r3, [r0]	@ zero_extendqisi2
 2168 0184 1278     		ldrb	r2, [r2]	@ zero_extendqisi2
 2169 0186 9A42     		cmp	r2, r3
 2170 0188 08D8     		bhi	.L227
 2171 018a 3748     		ldr	r0, .L259+112
 2172 018c 374A     		ldr	r2, .L259+116
 2173 018e 0478     		ldrb	r4, [r0]	@ zero_extendqisi2
 2174 0190 1278     		ldrb	r2, [r2]	@ zero_extendqisi2
 2175 0192 04EB4202 		add	r2, r4, r2, lsl #1
 2176 0196 A2EBD402 		sub	r2, r2, r4, lsr #3
 2177 019a 0270     		strb	r2, [r0]
 2178              	.L227:
 2179 019c 344A     		ldr	r2, .L259+120
 2180 019e 1278     		ldrb	r2, [r2]	@ zero_extendqisi2
 2181 01a0 9A42     		cmp	r2, r3
 2182 01a2 88D8     		bhi	.L226
 2183 01a4 334A     		ldr	r2, .L259+124
 2184 01a6 344B     		ldr	r3, .L259+128
 2185 01a8 1078     		ldrb	r0, [r2]	@ zero_extendqisi2
 2186 01aa 1B78     		ldrb	r3, [r3]	@ zero_extendqisi2
 2187 01ac 00EB4303 		add	r3, r0, r3, lsl #1
 2188 01b0 A3EBD003 		sub	r3, r3, r0, lsr #3
 2189 01b4 1370     		strb	r3, [r2]
 2190 01b6 7EE7     		b	.L226
 2191              	.L218:
 2192 01b8 0131     		adds	r1, r1, #1
 2193 01ba 2D4B     		ldr	r3, .L259+120
 2194 01bc 0022     		movs	r2, #0
 2195 01be C9B2     		uxtb	r1, r1
 2196 01c0 1B78     		ldrb	r3, [r3]	@ zero_extendqisi2
 2197 01c2 2280     		strh	r2, [r4]	@ movhi
 2198 01c4 8B42     		cmp	r3, r1
 2199 01c6 0170     		strb	r1, [r0]
 2200 01c8 7FF42DAF 		bne	.L255
 2201 01cc 2B4A     		ldr	r2, .L259+132
 2202 01ce 0D4B     		ldr	r3, .L259+12
 2203 01d0 1178     		ldrb	r1, [r2]	@ zero_extendqisi2
 2204 01d2 1970     		strb	r1, [r3]
 2205 01d4 29E7     		b	.L217
 2206              	.L225:
 2207 01d6 0029     		cmp	r1, #0
 2208 01d8 7FF478AF 		bne	.L229
 2209              	.L232:
 2210 01dc 184B     		ldr	r3, .L259+72
 2211 01de 0022     		movs	r2, #0
 2212 01e0 1A70     		strb	r2, [r3]
 2213 01e2 79E7     		b	.L231
 2214              	.L256:
 2215 01e4 0023     		movs	r3, #0
 2216 01e6 1370     		strb	r3, [r2]
 2217 01e8 CAE7     		b	.L221
 2218              	.L257:
 2219 01ea 0023     		movs	r3, #0
 2220 01ec 0370     		strb	r3, [r0]
 2221 01ee AAE7     		b	.L234
 2222              	.L258:
 2223 01f0 0020     		movs	r0, #0
ARM GAS  /tmp/ccOvjPha.s 			page 41


 2224 01f2 FFF7FEFF 		bl	filters_commit
 2225 01f6 A6E7     		b	.L234
 2226              	.L260:
 2227              		.align	2
 2228              	.L259:
 2229 01f8 00000000 		.word	m_ticks
 2230 01fc 00000000 		.word	m_phonetick
 2231 0200 00000000 		.word	m_rom_duration
 2232 0204 00000000 		.word	m_cur_closure
 2233 0208 00000000 		.word	m_update_counter
 2234 020c 00000000 		.word	m_rom_pause
 2235 0210 00000000 		.word	m_filt_fa
 2236 0214 00000000 		.word	m_filt_va
 2237 0218 00000000 		.word	m_cur_fc
 2238 021c 00000000 		.word	m_rom_fc
 2239 0220 00000000 		.word	m_cur_f1
 2240 0224 00000000 		.word	m_rom_f1
 2241 0228 00000000 		.word	m_cur_f2q
 2242 022c 00000000 		.word	m_cur_f2
 2243 0230 00000000 		.word	m_rom_f2
 2244 0234 00000000 		.word	m_cur_f3
 2245 0238 00000000 		.word	m_rom_f2q
 2246 023c 00000000 		.word	m_rom_f3
 2247 0240 00000000 		.word	m_closure
 2248 0244 00000000 		.word	_selz
 2249 0248 00000343 		.word	1124270080
 2250 024c 00000000 		.word	m_filt_f1
 2251 0250 00000000 		.word	logpitch
 2252 0254 00000000 		.word	m_pitch
 2253 0258 00000000 		.word	m_inflection
 2254 025c 00000000 		.word	m_cur_noise
 2255 0260 00000000 		.word	m_noise
 2256 0264 00000000 		.word	m_rom_vd
 2257 0268 00000000 		.word	m_cur_fa
 2258 026c 00000000 		.word	m_rom_fa
 2259 0270 00000000 		.word	m_rom_cld
 2260 0274 00000000 		.word	m_cur_va
 2261 0278 00000000 		.word	m_rom_va
 2262 027c 00000000 		.word	m_rom_closure
 2263              		.size	chip_updateTTS, .-chip_updateTTS
 2264              		.section	.text.build_injection_filter,"ax",%progbits
 2265              		.align	1
 2266              		.p2align 2,,3
 2267              		.global	build_injection_filter
 2268              		.syntax unified
 2269              		.thumb
 2270              		.thumb_func
 2271              		.type	build_injection_filter, %function
 2272              	build_injection_filter:
 2273              		@ args = 0, pretend = 0, frame = 0
 2274              		@ frame_needed = 0, uses_anonymous_args = 0
 2275              		@ link register save eliminated.
 2276 0000 4FF07E52 		mov	r2, #1065353216
 2277 0004 0023     		movs	r3, #0
 2278 0006 0260     		str	r2, [r0]	@ float
 2279 0008 4360     		str	r3, [r0, #4]	@ float
 2280 000a 0A60     		str	r2, [r1]	@ float
ARM GAS  /tmp/ccOvjPha.s 			page 42


 2281 000c 4B60     		str	r3, [r1, #4]	@ float
 2282 000e 7047     		bx	lr
 2283              		.size	build_injection_filter, .-build_injection_filter
 2284              		.section	.text.generate_votrax_samples,"ax",%progbits
 2285              		.align	1
 2286              		.p2align 2,,3
 2287              		.global	generate_votrax_samples
 2288              		.syntax unified
 2289              		.thumb
 2290              		.thumb_func
 2291              		.type	generate_votrax_samples, %function
 2292              	generate_votrax_samples:
 2293              		@ args = 0, pretend = 0, frame = 0
 2294              		@ frame_needed = 0, uses_anonymous_args = 0
 2295 0000 70B5     		push	{r4, r5, r6, lr}
 2296 0002 061E     		subs	r6, r0, #0
 2297 0004 0FDD     		ble	.L262
 2298 0006 0024     		movs	r4, #0
 2299 0008 074D     		ldr	r5, .L271
 2300 000a 02E0     		b	.L265
 2301              	.L264:
 2302 000c 0134     		adds	r4, r4, #1
 2303 000e A642     		cmp	r6, r4
 2304 0010 09D0     		beq	.L262
 2305              	.L265:
 2306 0012 2B68     		ldr	r3, [r5]
 2307 0014 0133     		adds	r3, r3, #1
 2308 0016 2B60     		str	r3, [r5]
 2309 0018 DB07     		lsls	r3, r3, #31
 2310 001a F7D5     		bpl	.L264
 2311 001c 0134     		adds	r4, r4, #1
 2312 001e FFF7FEFF 		bl	chip_update
 2313 0022 A642     		cmp	r6, r4
 2314 0024 F5D1     		bne	.L265
 2315              	.L262:
 2316 0026 70BD     		pop	{r4, r5, r6, pc}
 2317              	.L272:
 2318              		.align	2
 2319              	.L271:
 2320 0028 00000000 		.word	m_sample_count
 2321              		.size	generate_votrax_samples, .-generate_votrax_samples
 2322              		.section	.text.votrax_init,"ax",%progbits
 2323              		.align	1
 2324              		.p2align 2,,3
 2325              		.global	votrax_init
 2326              		.syntax unified
 2327              		.thumb
 2328              		.thumb_func
 2329              		.type	votrax_init, %function
 2330              	votrax_init:
 2331              		@ args = 0, pretend = 0, frame = 0
 2332              		@ frame_needed = 0, uses_anonymous_args = 0
 2333 0000 094A     		ldr	r2, .L275
 2334 0002 0A49     		ldr	r1, .L275+4
 2335 0004 0A48     		ldr	r0, .L275+8
 2336 0006 DFF838C0 		ldr	ip, .L275+24
 2337 000a 08B5     		push	{r3, lr}
ARM GAS  /tmp/ccOvjPha.s 			page 43


 2338 000c 094B     		ldr	r3, .L275+12
 2339 000e 1160     		str	r1, [r2]	@ float
 2340 0010 094A     		ldr	r2, .L275+16
 2341 0012 C0F800C0 		str	ip, [r0]	@ float
 2342 0016 1A60     		str	r2, [r3]	@ float
 2343 0018 FFF7FEFF 		bl	device_reset
 2344 001c 074B     		ldr	r3, .L275+20
 2345 001e 4FF47A72 		mov	r2, #1000
 2346 0022 1A60     		str	r2, [r3]
 2347 0024 08BD     		pop	{r3, pc}
 2348              	.L276:
 2349 0026 00BF     		.align	2
 2350              	.L275:
 2351 0028 00000000 		.word	m_sclock
 2352 002c 00401C47 		.word	1193033728
 2353 0030 00000000 		.word	m_mainclock
 2354 0034 00000000 		.word	m_cclock
 2355 0038 00409C46 		.word	1184645120
 2356 003c 00000000 		.word	lenny
 2357 0040 00C82F49 		.word	1227868160
 2358              		.size	votrax_init, .-votrax_init
 2359              		.section	.text.votrax_newsay,"ax",%progbits
 2360              		.align	1
 2361              		.p2align 2,,3
 2362              		.global	votrax_newsay
 2363              		.syntax unified
 2364              		.thumb
 2365              		.thumb_func
 2366              		.type	votrax_newsay, %function
 2367              	votrax_newsay:
 2368              		@ args = 0, pretend = 0, frame = 8
 2369              		@ frame_needed = 0, uses_anonymous_args = 0
 2370 0000 224B     		ldr	r3, .L279
 2371 0002 9FED236A 		vldr.32	s12, .L279+4
 2372 0006 D3ED005A 		vldr.32	s11, [r3]
 2373 000a 0023     		movs	r3, #0
 2374 000c 214A     		ldr	r2, .L279+8
 2375 000e 85EE867A 		vdiv.f32	s14, s11, s12
 2376 0012 DFED216A 		vldr.32	s13, .L279+12
 2377 0016 D2ED007A 		vldr.32	s15, [r2]
 2378 001a 2048     		ldr	r0, .L279+16
 2379 001c 204A     		ldr	r2, .L279+20
 2380 001e 2149     		ldr	r1, .L279+24
 2381 0020 67EEA67A 		vmul.f32	s15, s15, s13
 2382 0024 DFED205A 		vldr.32	s11, .L279+28
 2383 0028 B1EE006A 		vmov.f32	s12, #4.0e+0
 2384 002c F2EE026A 		vmov.f32	s13, #9.0e+0
 2385 0030 FDEEE77A 		vcvt.s32.f32	s15, s15
 2386 0034 00B5     		push	{lr}
 2387 0036 0360     		str	r3, [r0]
 2388 0038 83B0     		sub	sp, sp, #12
 2389 003a 1C48     		ldr	r0, .L279+32
 2390 003c CDED017A 		vstr.32	s15, [sp, #4]	@ int
 2391 0040 0370     		strb	r3, [r0]
 2392 0042 9DF80430 		ldrb	r3, [sp, #4]	@ zero_extendqisi2
 2393 0046 82ED007A 		vstr.32	s14, [r2]
 2394 004a B0EE007A 		vmov.f32	s14, #2.0e+0
ARM GAS  /tmp/ccOvjPha.s 			page 44


 2395 004e 3F2B     		cmp	r3, #63
 2396 0050 28BF     		it	cs
 2397 0052 3F23     		movcs	r3, #63
 2398 0054 0B70     		strb	r3, [r1]
 2399 0056 FFF7FEFF 		bl	phone_commit
 2400 005a 154A     		ldr	r2, .L279+36
 2401 005c 0123     		movs	r3, #1
 2402 005e 1178     		ldrb	r1, [r2]	@ zero_extendqisi2
 2403 0060 144A     		ldr	r2, .L279+40
 2404 0062 03EB8103 		add	r3, r3, r1, lsl #2
 2405 0066 07EE903A 		vmov	s15, r3	@ int
 2406 006a F8EEE77A 		vcvt.f32.s32	s15, s15
 2407 006e 67EEA57A 		vmul.f32	s15, s15, s11
 2408 0072 67EE867A 		vmul.f32	s15, s15, s12
 2409 0076 67EEA67A 		vmul.f32	s15, s15, s13
 2410 007a 77EE877A 		vadd.f32	s15, s15, s14
 2411 007e FCEEE77A 		vcvt.u32.f32	s15, s15
 2412 0082 C2ED007A 		vstr.32	s15, [r2]	@ int
 2413 0086 03B0     		add	sp, sp, #12
 2414              		@ sp needed
 2415 0088 5DF804FB 		ldr	pc, [sp], #4
 2416              	.L280:
 2417              		.align	2
 2418              	.L279:
 2419 008c 00000000 		.word	m_mainclock
 2420 0090 00001042 		.word	1108344832
 2421 0094 00000000 		.word	_selz
 2422 0098 00008642 		.word	1116078080
 2423 009c 00000000 		.word	m_sample_count
 2424 00a0 00000000 		.word	m_cclock
 2425 00a4 00000000 		.word	m_phone
 2426 00a8 CDCC4C40 		.word	1078774989
 2427 00ac 00000000 		.word	m_ar_state
 2428 00b0 00000000 		.word	m_rom_duration
 2429 00b4 00000000 		.word	lenny
 2430              		.size	votrax_newsay, .-votrax_newsay
 2431              		.section	.text.votrax_newsay_sing,"ax",%progbits
 2432              		.align	1
 2433              		.p2align 2,,3
 2434              		.global	votrax_newsay_sing
 2435              		.syntax unified
 2436              		.thumb
 2437              		.thumb_func
 2438              		.type	votrax_newsay_sing, %function
 2439              	votrax_newsay_sing:
 2440              		@ args = 0, pretend = 0, frame = 8
 2441              		@ frame_needed = 0, uses_anonymous_args = 0
 2442 0000 234B     		ldr	r3, .L283
 2443 0002 9FED246A 		vldr.32	s12, .L283+4
 2444 0006 D3ED005A 		vldr.32	s11, [r3]
 2445 000a 0023     		movs	r3, #0
 2446 000c 224A     		ldr	r2, .L283+8
 2447 000e 85EE867A 		vdiv.f32	s14, s11, s12
 2448 0012 DFED226A 		vldr.32	s13, .L283+12
 2449 0016 D2ED007A 		vldr.32	s15, [r2]
 2450 001a 2148     		ldr	r0, .L283+16
 2451 001c 214A     		ldr	r2, .L283+20
ARM GAS  /tmp/ccOvjPha.s 			page 45


 2452 001e 2249     		ldr	r1, .L283+24
 2453 0020 67EEA67A 		vmul.f32	s15, s15, s13
 2454 0024 DFED216A 		vldr.32	s13, .L283+28
 2455 0028 00B5     		push	{lr}
 2456 002a FCEEE77A 		vcvt.u32.f32	s15, s15
 2457 002e 83B0     		sub	sp, sp, #12
 2458 0030 0360     		str	r3, [r0]
 2459 0032 1F48     		ldr	r0, .L283+32
 2460 0034 CDED017A 		vstr.32	s15, [sp, #4]	@ int
 2461 0038 0370     		strb	r3, [r0]
 2462 003a 9DF80430 		ldrb	r3, [sp, #4]	@ zero_extendqisi2
 2463 003e 3F2B     		cmp	r3, #63
 2464 0040 82ED007A 		vstr.32	s14, [r2]
 2465 0044 9FED1B7A 		vldr.32	s14, .L283+36
 2466 0048 28BF     		it	cs
 2467 004a 3F23     		movcs	r3, #63
 2468 004c C3F13F03 		rsb	r3, r3, #63
 2469 0050 0B70     		strb	r3, [r1]
 2470 0052 FFF7FEFF 		bl	phone_commit
 2471 0056 184B     		ldr	r3, .L283+40
 2472 0058 184A     		ldr	r2, .L283+44
 2473 005a D3ED007A 		vldr.32	s15, [r3]
 2474 005e 1849     		ldr	r1, .L283+48
 2475 0060 67EEA67A 		vmul.f32	s15, s15, s13
 2476 0064 FCEEE77A 		vcvt.u32.f32	s15, s15
 2477 0068 CDED017A 		vstr.32	s15, [sp, #4]	@ int
 2478 006c 9DF80430 		ldrb	r3, [sp, #4]	@ zero_extendqisi2
 2479 0070 7F2B     		cmp	r3, #127
 2480 0072 28BF     		it	cs
 2481 0074 7F23     		movcs	r3, #127
 2482 0076 02EB8303 		add	r3, r2, r3, lsl #2
 2483 007a D3ED007A 		vldr.32	s15, [r3]
 2484 007e 67EE877A 		vmul.f32	s15, s15, s14
 2485 0082 FCEEE77A 		vcvt.u32.f32	s15, s15
 2486 0086 C1ED007A 		vstr.32	s15, [r1]	@ int
 2487 008a 03B0     		add	sp, sp, #12
 2488              		@ sp needed
 2489 008c 5DF804FB 		ldr	pc, [sp], #4
 2490              	.L284:
 2491              		.align	2
 2492              	.L283:
 2493 0090 00000000 		.word	m_mainclock
 2494 0094 00001042 		.word	1108344832
 2495 0098 00000000 		.word	_selz
 2496 009c 00008642 		.word	1116078080
 2497 00a0 00000000 		.word	m_sample_count
 2498 00a4 00000000 		.word	m_cclock
 2499 00a8 00000000 		.word	m_phone
 2500 00ac 00000343 		.word	1124270080
 2501 00b0 00000000 		.word	m_ar_state
 2502 00b4 00148346 		.word	1182995456
 2503 00b8 00000000 		.word	_sely
 2504 00bc 00000000 		.word	logpitch
 2505 00c0 00000000 		.word	lenny
 2506              		.size	votrax_newsay_sing, .-votrax_newsay_sing
 2507              		.section	.text.votrax_get_sample,"ax",%progbits
 2508              		.align	1
ARM GAS  /tmp/ccOvjPha.s 			page 46


 2509              		.p2align 2,,3
 2510              		.global	votrax_get_sample
 2511              		.syntax unified
 2512              		.thumb
 2513              		.thumb_func
 2514              		.type	votrax_get_sample, %function
 2515              	votrax_get_sample:
 2516              		@ args = 0, pretend = 0, frame = 0
 2517              		@ frame_needed = 0, uses_anonymous_args = 0
 2518 0000 38B5     		push	{r3, r4, r5, lr}
 2519 0002 0D4D     		ldr	r5, .L294
 2520 0004 0022     		movs	r2, #0
 2521 0006 0D4B     		ldr	r3, .L294+4
 2522 0008 2C68     		ldr	r4, [r5]
 2523 000a 1A70     		strb	r2, [r3]
 2524 000c 0134     		adds	r4, r4, #1
 2525 000e E307     		lsls	r3, r4, #31
 2526 0010 2C60     		str	r4, [r5]
 2527 0012 08D4     		bmi	.L292
 2528              	.L286:
 2529 0014 FFF7FEFF 		bl	analog_calc
 2530 0018 094B     		ldr	r3, .L294+8
 2531 001a 0546     		mov	r5, r0
 2532 001c 1B68     		ldr	r3, [r3]
 2533 001e A342     		cmp	r3, r4
 2534 0020 05D9     		bls	.L293
 2535 0022 28B2     		sxth	r0, r5
 2536 0024 38BD     		pop	{r3, r4, r5, pc}
 2537              	.L292:
 2538 0026 FFF7FEFF 		bl	chip_update
 2539 002a 2C68     		ldr	r4, [r5]
 2540 002c F2E7     		b	.L286
 2541              	.L293:
 2542 002e FFF7FEFF 		bl	votrax_newsay
 2543 0032 28B2     		sxth	r0, r5
 2544 0034 38BD     		pop	{r3, r4, r5, pc}
 2545              	.L295:
 2546 0036 00BF     		.align	2
 2547              	.L294:
 2548 0038 00000000 		.word	m_sample_count
 2549 003c 00000000 		.word	modus
 2550 0040 00000000 		.word	lenny
 2551              		.size	votrax_get_sample, .-votrax_get_sample
 2552              		.section	.text.votrax_get_sample_sing,"ax",%progbits
 2553              		.align	1
 2554              		.p2align 2,,3
 2555              		.global	votrax_get_sample_sing
 2556              		.syntax unified
 2557              		.thumb
 2558              		.thumb_func
 2559              		.type	votrax_get_sample_sing, %function
 2560              	votrax_get_sample_sing:
 2561              		@ args = 0, pretend = 0, frame = 0
 2562              		@ frame_needed = 0, uses_anonymous_args = 0
 2563 0000 38B5     		push	{r3, r4, r5, lr}
 2564 0002 0D4D     		ldr	r5, .L305
 2565 0004 0122     		movs	r2, #1
ARM GAS  /tmp/ccOvjPha.s 			page 47


 2566 0006 0D4B     		ldr	r3, .L305+4
 2567 0008 2C68     		ldr	r4, [r5]
 2568 000a 1A70     		strb	r2, [r3]
 2569 000c 1444     		add	r4, r4, r2
 2570 000e E307     		lsls	r3, r4, #31
 2571 0010 2C60     		str	r4, [r5]
 2572 0012 08D4     		bmi	.L303
 2573              	.L297:
 2574 0014 FFF7FEFF 		bl	analog_calc
 2575 0018 094B     		ldr	r3, .L305+8
 2576 001a 0546     		mov	r5, r0
 2577 001c 1B68     		ldr	r3, [r3]
 2578 001e A342     		cmp	r3, r4
 2579 0020 05D9     		bls	.L304
 2580 0022 28B2     		sxth	r0, r5
 2581 0024 38BD     		pop	{r3, r4, r5, pc}
 2582              	.L303:
 2583 0026 FFF7FEFF 		bl	chip_update
 2584 002a 2C68     		ldr	r4, [r5]
 2585 002c F2E7     		b	.L297
 2586              	.L304:
 2587 002e FFF7FEFF 		bl	votrax_newsay_sing
 2588 0032 28B2     		sxth	r0, r5
 2589 0034 38BD     		pop	{r3, r4, r5, pc}
 2590              	.L306:
 2591 0036 00BF     		.align	2
 2592              	.L305:
 2593 0038 00000000 		.word	m_sample_count
 2594 003c 00000000 		.word	modus
 2595 0040 00000000 		.word	lenny
 2596              		.size	votrax_get_sample_sing, .-votrax_get_sample_sing
 2597              		.section	.text.votrax_get_sample_rawparam,"ax",%progbits
 2598              		.align	1
 2599              		.p2align 2,,3
 2600              		.global	votrax_get_sample_rawparam
 2601              		.syntax unified
 2602              		.thumb
 2603              		.thumb_func
 2604              		.type	votrax_get_sample_rawparam, %function
 2605              	votrax_get_sample_rawparam:
 2606              		@ args = 0, pretend = 0, frame = 0
 2607              		@ frame_needed = 0, uses_anonymous_args = 0
 2608 0000 094A     		ldr	r2, .L314
 2609 0002 0020     		movs	r0, #0
 2610 0004 0949     		ldr	r1, .L314+4
 2611 0006 08B5     		push	{r3, lr}
 2612 0008 1368     		ldr	r3, [r2]
 2613 000a 0870     		strb	r0, [r1]
 2614 000c 0133     		adds	r3, r3, #1
 2615 000e 1360     		str	r3, [r2]
 2616 0010 DB07     		lsls	r3, r3, #31
 2617 0012 03D4     		bmi	.L313
 2618 0014 FFF7FEFF 		bl	analog_calc
 2619 0018 00B2     		sxth	r0, r0
 2620 001a 08BD     		pop	{r3, pc}
 2621              	.L313:
 2622 001c FFF7FEFF 		bl	chip_update_raw
ARM GAS  /tmp/ccOvjPha.s 			page 48


 2623 0020 FFF7FEFF 		bl	analog_calc
 2624 0024 00B2     		sxth	r0, r0
 2625 0026 08BD     		pop	{r3, pc}
 2626              	.L315:
 2627              		.align	2
 2628              	.L314:
 2629 0028 00000000 		.word	m_sample_count
 2630 002c 00000000 		.word	modus
 2631              		.size	votrax_get_sample_rawparam, .-votrax_get_sample_rawparam
 2632              		.section	.text.votrax_rawparam_newsay,"ax",%progbits
 2633              		.align	1
 2634              		.p2align 2,,3
 2635              		.global	votrax_rawparam_newsay
 2636              		.syntax unified
 2637              		.thumb
 2638              		.thumb_func
 2639              		.type	votrax_rawparam_newsay, %function
 2640              	votrax_rawparam_newsay:
 2641              		@ args = 0, pretend = 0, frame = 0
 2642              		@ frame_needed = 0, uses_anonymous_args = 0
 2643              		@ link register save eliminated.
 2644 0000 054A     		ldr	r2, .L317
 2645 0002 9FED067A 		vldr.32	s14, .L317+4
 2646 0006 D2ED006A 		vldr.32	s13, [r2]
 2647 000a 054B     		ldr	r3, .L317+8
 2648 000c C6EE877A 		vdiv.f32	s15, s13, s14
 2649 0010 C3ED007A 		vstr.32	s15, [r3]
 2650 0014 7047     		bx	lr
 2651              	.L318:
 2652 0016 00BF     		.align	2
 2653              	.L317:
 2654 0018 00000000 		.word	m_mainclock
 2655 001c 00001042 		.word	1108344832
 2656 0020 00000000 		.word	m_cclock
 2657              		.size	votrax_rawparam_newsay, .-votrax_rawparam_newsay
 2658              		.section	.text.votrax_newsay_bend,"ax",%progbits
 2659              		.align	1
 2660              		.p2align 2,,3
 2661              		.global	votrax_newsay_bend
 2662              		.syntax unified
 2663              		.thumb
 2664              		.thumb_func
 2665              		.type	votrax_newsay_bend, %function
 2666              	votrax_newsay_bend:
 2667              		@ args = 0, pretend = 0, frame = 8
 2668              		@ frame_needed = 0, uses_anonymous_args = 0
 2669 0000 3F4B     		ldr	r3, .L325
 2670 0002 9FED407A 		vldr.32	s14, .L325+4
 2671 0006 D3ED006A 		vldr.32	s13, [r3]
 2672 000a 3F4A     		ldr	r2, .L325+8
 2673 000c C6EE877A 		vdiv.f32	s15, s13, s14
 2674 0010 3E49     		ldr	r1, .L325+12
 2675 0012 70B5     		push	{r4, r5, r6, lr}
 2676 0014 3E4C     		ldr	r4, .L325+16
 2677 0016 0026     		movs	r6, #0
 2678 0018 3E4D     		ldr	r5, .L325+20
 2679 001a 82B0     		sub	sp, sp, #8
ARM GAS  /tmp/ccOvjPha.s 			page 49


 2680 001c 1660     		str	r6, [r2]
 2681 001e 2378     		ldrb	r3, [r4]	@ zero_extendqisi2
 2682 0020 3D4A     		ldr	r2, .L325+24
 2683 0022 55F82330 		ldr	r3, [r5, r3, lsl #2]
 2684 0026 C2ED007A 		vstr.32	s15, [r2]
 2685 002a 0A78     		ldrb	r2, [r1]	@ zero_extendqisi2
 2686 002c 9B5C     		ldrb	r3, [r3, r2]	@ zero_extendqisi2
 2687 002e FF2B     		cmp	r3, #255
 2688 0030 4AD0     		beq	.L320
 2689 0032 0128     		cmp	r0, #1
 2690 0034 48D0     		beq	.L320
 2691 0036 0132     		adds	r2, r2, #1
 2692 0038 D2B2     		uxtb	r2, r2
 2693              	.L321:
 2694 003a 384C     		ldr	r4, .L325+28
 2695 003c 03F03F03 		and	r3, r3, #63
 2696 0040 3748     		ldr	r0, .L325+32
 2697 0042 F1EE005A 		vmov.f32	s11, #4.0e+0
 2698 0046 2370     		strb	r3, [r4]
 2699 0048 0023     		movs	r3, #0
 2700 004a 0A70     		strb	r2, [r1]
 2701 004c B2EE026A 		vmov.f32	s12, #9.0e+0
 2702 0050 0370     		strb	r3, [r0]
 2703 0052 FFF7FEFF 		bl	phone_commit
 2704 0056 334A     		ldr	r2, .L325+36
 2705 0058 0123     		movs	r3, #1
 2706 005a 3348     		ldr	r0, .L325+40
 2707 005c F0EE006A 		vmov.f32	s13, #2.0e+0
 2708 0060 1278     		ldrb	r2, [r2]	@ zero_extendqisi2
 2709 0062 0078     		ldrb	r0, [r0]	@ zero_extendqisi2
 2710 0064 3149     		ldr	r1, .L325+44
 2711 0066 C2EB0212 		rsb	r2, r2, r2, lsl #4
 2712 006a 03EB8003 		add	r3, r3, r0, lsl #2
 2713 006e 9FED305A 		vldr.32	s10, .L325+48
 2714 0072 DFED304A 		vldr.32	s9, .L325+52
 2715 0076 07EE903A 		vmov	s15, r3	@ int
 2716 007a 01EB8213 		add	r3, r1, r2, lsl #6
 2717 007e 2E4A     		ldr	r2, .L325+56
 2718 0080 93ED087A 		vldr.32	s14, [r3, #32]
 2719 0084 F8EEE77A 		vcvt.f32.s32	s15, s15
 2720 0088 2C49     		ldr	r1, .L325+60
 2721 008a 27EE057A 		vmul.f32	s14, s14, s10
 2722 008e 67EEA47A 		vmul.f32	s15, s15, s9
 2723 0092 BCEEC77A 		vcvt.u32.f32	s14, s14
 2724 0096 67EEA57A 		vmul.f32	s15, s15, s11
 2725 009a 8DED017A 		vstr.32	s14, [sp, #4]	@ int
 2726 009e 9DF80430 		ldrb	r3, [sp, #4]	@ zero_extendqisi2
 2727 00a2 67EE867A 		vmul.f32	s15, s15, s12
 2728 00a6 7F2B     		cmp	r3, #127
 2729 00a8 77EEA67A 		vadd.f32	s15, s15, s13
 2730 00ac 28BF     		it	cs
 2731 00ae 7F23     		movcs	r3, #127
 2732 00b0 02EB8303 		add	r3, r2, r3, lsl #2
 2733 00b4 93ED007A 		vldr.32	s14, [r3]
 2734 00b8 67EE877A 		vmul.f32	s15, s15, s14
 2735 00bc FCEEE77A 		vcvt.u32.f32	s15, s15
 2736 00c0 C1ED007A 		vstr.32	s15, [r1]	@ int
ARM GAS  /tmp/ccOvjPha.s 			page 50


 2737 00c4 02B0     		add	sp, sp, #8
 2738              		@ sp needed
 2739 00c6 70BD     		pop	{r4, r5, r6, pc}
 2740              	.L320:
 2741 00c8 1D4B     		ldr	r3, .L325+64
 2742 00ca 9FED1E7A 		vldr.32	s14, .L325+68
 2743 00ce D3ED007A 		vldr.32	s15, [r3]
 2744 00d2 67EE877A 		vmul.f32	s15, s15, s14
 2745 00d6 FCEEE77A 		vcvt.u32.f32	s15, s15
 2746 00da CDED017A 		vstr.32	s15, [sp, #4]	@ int
 2747 00de 9DF80430 		ldrb	r3, [sp, #4]	@ zero_extendqisi2
 2748 00e2 722B     		cmp	r3, #114
 2749 00e4 09D8     		bhi	.L323
 2750 00e6 C3F17203 		rsb	r3, r3, #114
 2751 00ea DBB2     		uxtb	r3, r3
 2752 00ec 1A46     		mov	r2, r3
 2753              	.L322:
 2754 00ee 55F82200 		ldr	r0, [r5, r2, lsl #2]
 2755 00f2 0122     		movs	r2, #1
 2756 00f4 2370     		strb	r3, [r4]
 2757 00f6 0378     		ldrb	r3, [r0]	@ zero_extendqisi2
 2758 00f8 9FE7     		b	.L321
 2759              	.L323:
 2760 00fa 0022     		movs	r2, #0
 2761 00fc 1346     		mov	r3, r2
 2762 00fe F6E7     		b	.L322
 2763              	.L326:
 2764              		.align	2
 2765              	.L325:
 2766 0100 00000000 		.word	m_mainclock
 2767 0104 00001042 		.word	1108344832
 2768 0108 00000000 		.word	m_sample_count
 2769 010c 00000000 		.word	vocabindex.6
 2770 0110 00000000 		.word	whichone.7
 2771 0114 00000000 		.word	vocablist_gorf
 2772 0118 00000000 		.word	m_cclock
 2773 011c 00000000 		.word	m_phone
 2774 0120 00000000 		.word	m_ar_state
 2775 0124 00000000 		.word	_intmode
 2776 0128 00000000 		.word	m_rom_duration
 2777 012c 00000000 		.word	exy
 2778 0130 00000443 		.word	1124335616
 2779 0134 CDCC4C40 		.word	1078774989
 2780 0138 00000000 		.word	logpitch
 2781 013c 00000000 		.word	lenny
 2782 0140 00000000 		.word	_selz
 2783 0144 0000EC42 		.word	1122762752
 2784              		.size	votrax_newsay_bend, .-votrax_newsay_bend
 2785              		.section	.text.votrax_newsay_bendr,"ax",%progbits
 2786              		.align	1
 2787              		.p2align 2,,3
 2788              		.global	votrax_newsay_bendr
 2789              		.syntax unified
 2790              		.thumb
 2791              		.thumb_func
 2792              		.type	votrax_newsay_bendr, %function
 2793              	votrax_newsay_bendr:
ARM GAS  /tmp/ccOvjPha.s 			page 51


 2794              		@ args = 0, pretend = 0, frame = 0
 2795              		@ frame_needed = 0, uses_anonymous_args = 0
 2796              		@ link register save eliminated.
 2797 0000 0120     		movs	r0, #1
 2798 0002 FFF7FEBF 		b	votrax_newsay_bend
 2799              		.size	votrax_newsay_bendr, .-votrax_newsay_bendr
 2800 0006 00BF     		.section	.text.votrax_get_sample_bend,"ax",%progbits
 2801              		.align	1
 2802              		.p2align 2,,3
 2803              		.global	votrax_get_sample_bend
 2804              		.syntax unified
 2805              		.thumb
 2806              		.thumb_func
 2807              		.type	votrax_get_sample_bend, %function
 2808              	votrax_get_sample_bend:
 2809              		@ args = 0, pretend = 0, frame = 0
 2810              		@ frame_needed = 0, uses_anonymous_args = 0
 2811 0000 38B5     		push	{r3, r4, r5, lr}
 2812 0002 0D4D     		ldr	r5, .L337
 2813 0004 0022     		movs	r2, #0
 2814 0006 0D4B     		ldr	r3, .L337+4
 2815 0008 2C68     		ldr	r4, [r5]
 2816 000a 1A70     		strb	r2, [r3]
 2817 000c 0134     		adds	r4, r4, #1
 2818 000e E307     		lsls	r3, r4, #31
 2819 0010 2C60     		str	r4, [r5]
 2820 0012 08D4     		bmi	.L335
 2821              	.L329:
 2822 0014 FFF7FEFF 		bl	analog_calc
 2823 0018 094B     		ldr	r3, .L337+8
 2824 001a 0546     		mov	r5, r0
 2825 001c 1B68     		ldr	r3, [r3]
 2826 001e A342     		cmp	r3, r4
 2827 0020 05D9     		bls	.L336
 2828 0022 28B2     		sxth	r0, r5
 2829 0024 38BD     		pop	{r3, r4, r5, pc}
 2830              	.L335:
 2831 0026 FFF7FEFF 		bl	chip_update_bend
 2832 002a 2C68     		ldr	r4, [r5]
 2833 002c F2E7     		b	.L329
 2834              	.L336:
 2835 002e 0020     		movs	r0, #0
 2836 0030 FFF7FEFF 		bl	votrax_newsay_bend
 2837 0034 28B2     		sxth	r0, r5
 2838 0036 38BD     		pop	{r3, r4, r5, pc}
 2839              	.L338:
 2840              		.align	2
 2841              	.L337:
 2842 0038 00000000 		.word	m_sample_count
 2843 003c 00000000 		.word	modus
 2844 0040 00000000 		.word	lenny
 2845              		.size	votrax_get_sample_bend, .-votrax_get_sample_bend
 2846              		.section	.text.votrax_newsaygorf,"ax",%progbits
 2847              		.align	1
 2848              		.p2align 2,,3
 2849              		.global	votrax_newsaygorf
 2850              		.syntax unified
ARM GAS  /tmp/ccOvjPha.s 			page 52


 2851              		.thumb
 2852              		.thumb_func
 2853              		.type	votrax_newsaygorf, %function
 2854              	votrax_newsaygorf:
 2855              		@ args = 0, pretend = 0, frame = 8
 2856              		@ frame_needed = 0, uses_anonymous_args = 0
 2857 0000 404B     		ldr	r3, .L346
 2858 0002 9FED417A 		vldr.32	s14, .L346+4
 2859 0006 D3ED006A 		vldr.32	s13, [r3]
 2860 000a 4049     		ldr	r1, .L346+8
 2861 000c C6EE877A 		vdiv.f32	s15, s13, s14
 2862 0010 3F4B     		ldr	r3, .L346+12
 2863 0012 404A     		ldr	r2, .L346+16
 2864 0014 70B5     		push	{r4, r5, r6, lr}
 2865 0016 0025     		movs	r5, #0
 2866 0018 3F4E     		ldr	r6, .L346+20
 2867 001a 0C78     		ldrb	r4, [r1]	@ zero_extendqisi2
 2868 001c 82B0     		sub	sp, sp, #8
 2869 001e 1D60     		str	r5, [r3]
 2870 0020 3E4B     		ldr	r3, .L346+24
 2871 0022 56F82440 		ldr	r4, [r6, r4, lsl #2]
 2872 0026 C3ED007A 		vstr.32	s15, [r3]
 2873 002a 1378     		ldrb	r3, [r2]	@ zero_extendqisi2
 2874 002c E45C     		ldrb	r4, [r4, r3]	@ zero_extendqisi2
 2875 002e FF2C     		cmp	r4, #255
 2876 0030 4BD0     		beq	.L340
 2877 0032 0128     		cmp	r0, #1
 2878 0034 49D0     		beq	.L340
 2879 0036 0133     		adds	r3, r3, #1
 2880 0038 394D     		ldr	r5, .L346+28
 2881 003a DBB2     		uxtb	r3, r3
 2882              	.L341:
 2883 003c 3949     		ldr	r1, .L346+32
 2884 003e F1EE005A 		vmov.f32	s11, #4.0e+0
 2885 0042 1370     		strb	r3, [r2]
 2886 0044 04F03F02 		and	r2, r4, #63
 2887 0048 374B     		ldr	r3, .L346+36
 2888 004a B2EE026A 		vmov.f32	s12, #9.0e+0
 2889 004e 0A70     		strb	r2, [r1]
 2890 0050 0022     		movs	r2, #0
 2891 0052 DFED367A 		vldr.32	s15, .L346+40
 2892 0056 F0EE006A 		vmov.f32	s13, #2.0e+0
 2893 005a 1A70     		strb	r2, [r3]
 2894 005c FFF7FEFF 		bl	phone_commit
 2895 0060 334B     		ldr	r3, .L346+44
 2896 0062 A109     		lsrs	r1, r4, #6
 2897 0064 95ED007A 		vldr.32	s14, [r5]
 2898 0068 1A78     		ldrb	r2, [r3]	@ zero_extendqisi2
 2899 006a 27EE277A 		vmul.f32	s14, s14, s15
 2900 006e 9FED315A 		vldr.32	s10, .L346+48
 2901 0072 B2EB941F 		cmp	r2, r4, lsr #6
 2902 0076 304A     		ldr	r2, .L346+52
 2903 0078 18BF     		it	ne
 2904 007a 1970     		strbne	r1, [r3]
 2905 007c 0123     		movs	r3, #1
 2906 007e 1278     		ldrb	r2, [r2]	@ zero_extendqisi2
 2907 0080 BCEEC77A 		vcvt.u32.f32	s14, s14
ARM GAS  /tmp/ccOvjPha.s 			page 53


 2908 0084 2D49     		ldr	r1, .L346+56
 2909 0086 03EB8203 		add	r3, r3, r2, lsl #2
 2910 008a 2D4A     		ldr	r2, .L346+60
 2911 008c 8DED017A 		vstr.32	s14, [sp, #4]	@ int
 2912 0090 07EE903A 		vmov	s15, r3	@ int
 2913 0094 9DF80430 		ldrb	r3, [sp, #4]	@ zero_extendqisi2
 2914 0098 F8EEE77A 		vcvt.f32.s32	s15, s15
 2915 009c 7F2B     		cmp	r3, #127
 2916 009e 28BF     		it	cs
 2917 00a0 7F23     		movcs	r3, #127
 2918 00a2 67EE857A 		vmul.f32	s15, s15, s10
 2919 00a6 02EB8303 		add	r3, r2, r3, lsl #2
 2920 00aa 67EEA57A 		vmul.f32	s15, s15, s11
 2921 00ae 93ED007A 		vldr.32	s14, [r3]
 2922 00b2 67EE867A 		vmul.f32	s15, s15, s12
 2923 00b6 77EEA67A 		vadd.f32	s15, s15, s13
 2924 00ba 67EE877A 		vmul.f32	s15, s15, s14
 2925 00be FCEEE77A 		vcvt.u32.f32	s15, s15
 2926 00c2 C1ED007A 		vstr.32	s15, [r1]	@ int
 2927 00c6 02B0     		add	sp, sp, #8
 2928              		@ sp needed
 2929 00c8 70BD     		pop	{r4, r5, r6, pc}
 2930              	.L340:
 2931 00ca 154D     		ldr	r5, .L346+28
 2932 00cc 9FED1D7A 		vldr.32	s14, .L346+64
 2933 00d0 D5ED007A 		vldr.32	s15, [r5]
 2934 00d4 67EE877A 		vmul.f32	s15, s15, s14
 2935 00d8 FCEEE77A 		vcvt.u32.f32	s15, s15
 2936 00dc CDED017A 		vstr.32	s15, [sp, #4]	@ int
 2937 00e0 9DF80430 		ldrb	r3, [sp, #4]	@ zero_extendqisi2
 2938 00e4 722B     		cmp	r3, #114
 2939 00e6 09D8     		bhi	.L344
 2940 00e8 C3F17203 		rsb	r3, r3, #114
 2941 00ec DBB2     		uxtb	r3, r3
 2942 00ee 1846     		mov	r0, r3
 2943              	.L342:
 2944 00f0 56F82000 		ldr	r0, [r6, r0, lsl #2]
 2945 00f4 0B70     		strb	r3, [r1]
 2946 00f6 0123     		movs	r3, #1
 2947 00f8 0478     		ldrb	r4, [r0]	@ zero_extendqisi2
 2948 00fa 9FE7     		b	.L341
 2949              	.L344:
 2950 00fc 0020     		movs	r0, #0
 2951 00fe 0346     		mov	r3, r0
 2952 0100 F6E7     		b	.L342
 2953              	.L347:
 2954 0102 00BF     		.align	2
 2955              	.L346:
 2956 0104 00000000 		.word	m_mainclock
 2957 0108 00001042 		.word	1108344832
 2958 010c 00000000 		.word	whichone.5
 2959 0110 00000000 		.word	m_sample_count
 2960 0114 00000000 		.word	vocabindex.4
 2961 0118 00000000 		.word	vocablist_gorf
 2962 011c 00000000 		.word	m_cclock
 2963 0120 00000000 		.word	_selz
 2964 0124 00000000 		.word	m_phone
ARM GAS  /tmp/ccOvjPha.s 			page 54


 2965 0128 00000000 		.word	m_ar_state
 2966 012c 00000443 		.word	1124335616
 2967 0130 00000000 		.word	m_inflection
 2968 0134 CDCC4C40 		.word	1078774989
 2969 0138 00000000 		.word	m_rom_duration
 2970 013c 00000000 		.word	lenny
 2971 0140 00000000 		.word	logpitch
 2972 0144 0000EC42 		.word	1122762752
 2973              		.size	votrax_newsaygorf, .-votrax_newsaygorf
 2974              		.section	.text.votrax_newsaygorfr,"ax",%progbits
 2975              		.align	1
 2976              		.p2align 2,,3
 2977              		.global	votrax_newsaygorfr
 2978              		.syntax unified
 2979              		.thumb
 2980              		.thumb_func
 2981              		.type	votrax_newsaygorfr, %function
 2982              	votrax_newsaygorfr:
 2983              		@ args = 0, pretend = 0, frame = 0
 2984              		@ frame_needed = 0, uses_anonymous_args = 0
 2985              		@ link register save eliminated.
 2986 0000 0120     		movs	r0, #1
 2987 0002 FFF7FEBF 		b	votrax_newsaygorf
 2988              		.size	votrax_newsaygorfr, .-votrax_newsaygorfr
 2989 0006 00BF     		.section	.text.votrax_newsaywow,"ax",%progbits
 2990              		.align	1
 2991              		.p2align 2,,3
 2992              		.global	votrax_newsaywow
 2993              		.syntax unified
 2994              		.thumb
 2995              		.thumb_func
 2996              		.type	votrax_newsaywow, %function
 2997              	votrax_newsaywow:
 2998              		@ args = 0, pretend = 0, frame = 8
 2999              		@ frame_needed = 0, uses_anonymous_args = 0
 3000 0000 404B     		ldr	r3, .L356
 3001 0002 9FED417A 		vldr.32	s14, .L356+4
 3002 0006 D3ED006A 		vldr.32	s13, [r3]
 3003 000a 404B     		ldr	r3, .L356+8
 3004 000c C6EE877A 		vdiv.f32	s15, s13, s14
 3005 0010 3F49     		ldr	r1, .L356+12
 3006 0012 70B5     		push	{r4, r5, r6, lr}
 3007 0014 0024     		movs	r4, #0
 3008 0016 3F4D     		ldr	r5, .L356+16
 3009 0018 3F4E     		ldr	r6, .L356+20
 3010 001a 82B0     		sub	sp, sp, #8
 3011 001c 1C60     		str	r4, [r3]
 3012 001e 2A78     		ldrb	r2, [r5]	@ zero_extendqisi2
 3013 0020 3E4B     		ldr	r3, .L356+24
 3014 0022 56F82220 		ldr	r2, [r6, r2, lsl #2]
 3015 0026 C3ED007A 		vstr.32	s15, [r3]
 3016 002a 0B78     		ldrb	r3, [r1]	@ zero_extendqisi2
 3017 002c D45C     		ldrb	r4, [r2, r3]	@ zero_extendqisi2
 3018 002e FF2C     		cmp	r4, #255
 3019 0030 4BD0     		beq	.L350
 3020 0032 0128     		cmp	r0, #1
 3021 0034 49D0     		beq	.L350
ARM GAS  /tmp/ccOvjPha.s 			page 55


 3022 0036 0133     		adds	r3, r3, #1
 3023 0038 DBB2     		uxtb	r3, r3
 3024              	.L351:
 3025 003a 04F03F00 		and	r0, r4, #63
 3026 003e 384A     		ldr	r2, .L356+28
 3027 0040 0B70     		strb	r3, [r1]
 3028 0042 F1EE005A 		vmov.f32	s11, #4.0e+0
 3029 0046 374B     		ldr	r3, .L356+32
 3030 0048 B2EE026A 		vmov.f32	s12, #9.0e+0
 3031 004c 1070     		strb	r0, [r2]
 3032 004e 0022     		movs	r2, #0
 3033 0050 DFED356A 		vldr.32	s13, .L356+36
 3034 0054 1A70     		strb	r2, [r3]
 3035 0056 FFF7FEFF 		bl	phone_commit
 3036 005a 344B     		ldr	r3, .L356+40
 3037 005c A109     		lsrs	r1, r4, #6
 3038 005e 9FED345A 		vldr.32	s10, .L356+44
 3039 0062 1A78     		ldrb	r2, [r3]	@ zero_extendqisi2
 3040 0064 B2EB941F 		cmp	r2, r4, lsr #6
 3041 0068 324A     		ldr	r2, .L356+48
 3042 006a 18BF     		it	ne
 3043 006c 1970     		strbne	r1, [r3]
 3044 006e 0123     		movs	r3, #1
 3045 0070 1278     		ldrb	r2, [r2]	@ zero_extendqisi2
 3046 0072 3149     		ldr	r1, .L356+52
 3047 0074 03EB8203 		add	r3, r3, r2, lsl #2
 3048 0078 304A     		ldr	r2, .L356+56
 3049 007a 91ED007A 		vldr.32	s14, [r1]
 3050 007e 07EE903A 		vmov	s15, r3	@ int
 3051 0082 2F49     		ldr	r1, .L356+60
 3052 0084 27EE267A 		vmul.f32	s14, s14, s13
 3053 0088 F8EEE77A 		vcvt.f32.s32	s15, s15
 3054 008c F0EE006A 		vmov.f32	s13, #2.0e+0
 3055 0090 BCEEC77A 		vcvt.u32.f32	s14, s14
 3056 0094 67EE857A 		vmul.f32	s15, s15, s10
 3057 0098 8DED017A 		vstr.32	s14, [sp, #4]	@ int
 3058 009c 9DF80430 		ldrb	r3, [sp, #4]	@ zero_extendqisi2
 3059 00a0 67EEA57A 		vmul.f32	s15, s15, s11
 3060 00a4 7F2B     		cmp	r3, #127
 3061 00a6 67EE867A 		vmul.f32	s15, s15, s12
 3062 00aa 28BF     		it	cs
 3063 00ac 7F23     		movcs	r3, #127
 3064 00ae 02EB8303 		add	r3, r2, r3, lsl #2
 3065 00b2 77EEA67A 		vadd.f32	s15, s15, s13
 3066 00b6 93ED007A 		vldr.32	s14, [r3]
 3067 00ba 67EE877A 		vmul.f32	s15, s15, s14
 3068 00be FCEEE77A 		vcvt.u32.f32	s15, s15
 3069 00c2 C1ED007A 		vstr.32	s15, [r1]	@ int
 3070 00c6 02B0     		add	sp, sp, #8
 3071              		@ sp needed
 3072 00c8 70BD     		pop	{r4, r5, r6, pc}
 3073              	.L350:
 3074 00ca 1E4B     		ldr	r3, .L356+64
 3075 00cc 9FED1E7A 		vldr.32	s14, .L356+68
 3076 00d0 D3ED007A 		vldr.32	s15, [r3]
 3077 00d4 67EE877A 		vmul.f32	s15, s15, s14
 3078 00d8 FCEEE77A 		vcvt.u32.f32	s15, s15
ARM GAS  /tmp/ccOvjPha.s 			page 56


 3079 00dc CDED017A 		vstr.32	s15, [sp, #4]	@ int
 3080 00e0 9DF80420 		ldrb	r2, [sp, #4]	@ zero_extendqisi2
 3081 00e4 4E2A     		cmp	r2, #78
 3082 00e6 09D8     		bhi	.L354
 3083 00e8 C2F14E02 		rsb	r2, r2, #78
 3084 00ec D2B2     		uxtb	r2, r2
 3085 00ee 1346     		mov	r3, r2
 3086              	.L352:
 3087 00f0 56F82300 		ldr	r0, [r6, r3, lsl #2]
 3088 00f4 0123     		movs	r3, #1
 3089 00f6 2A70     		strb	r2, [r5]
 3090 00f8 0478     		ldrb	r4, [r0]	@ zero_extendqisi2
 3091 00fa 9EE7     		b	.L351
 3092              	.L354:
 3093 00fc 0023     		movs	r3, #0
 3094 00fe 1A46     		mov	r2, r3
 3095 0100 F6E7     		b	.L352
 3096              	.L357:
 3097 0102 00BF     		.align	2
 3098              	.L356:
 3099 0104 00000000 		.word	m_mainclock
 3100 0108 00001042 		.word	1108344832
 3101 010c 00000000 		.word	m_sample_count
 3102 0110 00000000 		.word	vocabindex.2
 3103 0114 00000000 		.word	whichone.3
 3104 0118 00000000 		.word	vocablist_wow
 3105 011c 00000000 		.word	m_cclock
 3106 0120 00000000 		.word	m_phone
 3107 0124 00000000 		.word	m_ar_state
 3108 0128 00000443 		.word	1124335616
 3109 012c 00000000 		.word	m_inflection
 3110 0130 CDCC4C40 		.word	1078774989
 3111 0134 00000000 		.word	m_rom_duration
 3112 0138 00000000 		.word	_sely
 3113 013c 00000000 		.word	logpitch
 3114 0140 00000000 		.word	lenny
 3115 0144 00000000 		.word	_selz
 3116 0148 0000A442 		.word	1118044160
 3117              		.size	votrax_newsaywow, .-votrax_newsaywow
 3118              		.section	.text.votrax_newsaywowr,"ax",%progbits
 3119              		.align	1
 3120              		.p2align 2,,3
 3121              		.global	votrax_newsaywowr
 3122              		.syntax unified
 3123              		.thumb
 3124              		.thumb_func
 3125              		.type	votrax_newsaywowr, %function
 3126              	votrax_newsaywowr:
 3127              		@ args = 0, pretend = 0, frame = 0
 3128              		@ frame_needed = 0, uses_anonymous_args = 0
 3129              		@ link register save eliminated.
 3130 0000 0120     		movs	r0, #1
 3131 0002 FFF7FEBF 		b	votrax_newsaywow
 3132              		.size	votrax_newsaywowr, .-votrax_newsaywowr
 3133 0006 00BF     		.section	.text.votrax_newsaywow_bendfilter,"ax",%progbits
 3134              		.align	1
 3135              		.p2align 2,,3
ARM GAS  /tmp/ccOvjPha.s 			page 57


 3136              		.global	votrax_newsaywow_bendfilter
 3137              		.syntax unified
 3138              		.thumb
 3139              		.thumb_func
 3140              		.type	votrax_newsaywow_bendfilter, %function
 3141              	votrax_newsaywow_bendfilter:
 3142              		@ args = 0, pretend = 0, frame = 8
 3143              		@ frame_needed = 0, uses_anonymous_args = 0
 3144 0000 70B5     		push	{r4, r5, r6, lr}
 3145 0002 354D     		ldr	r5, .L366
 3146 0004 0024     		movs	r4, #0
 3147 0006 354B     		ldr	r3, .L366+4
 3148 0008 82B0     		sub	sp, sp, #8
 3149 000a 3549     		ldr	r1, .L366+8
 3150 000c 354E     		ldr	r6, .L366+12
 3151 000e 2A78     		ldrb	r2, [r5]	@ zero_extendqisi2
 3152 0010 1C60     		str	r4, [r3]
 3153 0012 56F82220 		ldr	r2, [r6, r2, lsl #2]
 3154 0016 0B78     		ldrb	r3, [r1]	@ zero_extendqisi2
 3155 0018 D45C     		ldrb	r4, [r2, r3]	@ zero_extendqisi2
 3156 001a FF2C     		cmp	r4, #255
 3157 001c 40D0     		beq	.L360
 3158 001e 0128     		cmp	r0, #1
 3159 0020 3ED0     		beq	.L360
 3160 0022 0133     		adds	r3, r3, #1
 3161 0024 DBB2     		uxtb	r3, r3
 3162              	.L361:
 3163 0026 04F03F00 		and	r0, r4, #63
 3164 002a 2F4A     		ldr	r2, .L366+16
 3165 002c 0B70     		strb	r3, [r1]
 3166 002e 1070     		strb	r0, [r2]
 3167 0030 0022     		movs	r2, #0
 3168 0032 2E4B     		ldr	r3, .L366+20
 3169 0034 DFED2E6A 		vldr.32	s13, .L366+24
 3170 0038 1A70     		strb	r2, [r3]
 3171 003a FFF7FEFF 		bl	phone_commit
 3172 003e 2D4B     		ldr	r3, .L366+28
 3173 0040 A109     		lsrs	r1, r4, #6
 3174 0042 2D48     		ldr	r0, .L366+32
 3175 0044 1A78     		ldrb	r2, [r3]	@ zero_extendqisi2
 3176 0046 9FED2D7A 		vldr.32	s14, .L366+36
 3177 004a B2EB941F 		cmp	r2, r4, lsr #6
 3178 004e 2C4A     		ldr	r2, .L366+40
 3179 0050 D2ED007A 		vldr.32	s15, [r2]
 3180 0054 18BF     		it	ne
 3181 0056 1970     		strbne	r1, [r3]
 3182 0058 67EEA67A 		vmul.f32	s15, s15, s13
 3183 005c 294B     		ldr	r3, .L366+44
 3184 005e 2A49     		ldr	r1, .L366+48
 3185 0060 1B78     		ldrb	r3, [r3]	@ zero_extendqisi2
 3186 0062 FCEEE77A 		vcvt.u32.f32	s15, s15
 3187 0066 03EBC303 		add	r3, r3, r3, lsl #3
 3188 006a CDED017A 		vstr.32	s15, [sp, #4]	@ int
 3189 006e 1B02     		lsls	r3, r3, #8
 3190 0070 9DF80420 		ldrb	r2, [sp, #4]	@ zero_extendqisi2
 3191 0074 03F24223 		addw	r3, r3, #578
 3192 0078 7F2A     		cmp	r2, #127
ARM GAS  /tmp/ccOvjPha.s 			page 58


 3193 007a 4FEA6313 		asr	r3, r3, #5
 3194 007e 28BF     		it	cs
 3195 0080 7F22     		movcs	r2, #127
 3196 0082 0360     		str	r3, [r0]
 3197 0084 C2F17F03 		rsb	r3, r2, #127
 3198 0088 2048     		ldr	r0, .L366+52
 3199 008a DBB2     		uxtb	r3, r3
 3200 008c 01EB8303 		add	r3, r1, r3, lsl #2
 3201 0090 D3ED007A 		vldr.32	s15, [r3]
 3202 0094 67EE877A 		vmul.f32	s15, s15, s14
 3203 0098 C0ED007A 		vstr.32	s15, [r0]
 3204 009c 02B0     		add	sp, sp, #8
 3205              		@ sp needed
 3206 009e 70BD     		pop	{r4, r5, r6, pc}
 3207              	.L360:
 3208 00a0 1B4B     		ldr	r3, .L366+56
 3209 00a2 9FED1C7A 		vldr.32	s14, .L366+60
 3210 00a6 D3ED007A 		vldr.32	s15, [r3]
 3211 00aa 67EE877A 		vmul.f32	s15, s15, s14
 3212 00ae FCEEE77A 		vcvt.u32.f32	s15, s15
 3213 00b2 CDED017A 		vstr.32	s15, [sp, #4]	@ int
 3214 00b6 9DF80420 		ldrb	r2, [sp, #4]	@ zero_extendqisi2
 3215 00ba 4E2A     		cmp	r2, #78
 3216 00bc 09D8     		bhi	.L364
 3217 00be C2F14E02 		rsb	r2, r2, #78
 3218 00c2 D2B2     		uxtb	r2, r2
 3219 00c4 1346     		mov	r3, r2
 3220              	.L362:
 3221 00c6 56F82300 		ldr	r0, [r6, r3, lsl #2]
 3222 00ca 0123     		movs	r3, #1
 3223 00cc 2A70     		strb	r2, [r5]
 3224 00ce 0478     		ldrb	r4, [r0]	@ zero_extendqisi2
 3225 00d0 A9E7     		b	.L361
 3226              	.L364:
 3227 00d2 0023     		movs	r3, #0
 3228 00d4 1A46     		mov	r2, r3
 3229 00d6 F6E7     		b	.L362
 3230              	.L367:
 3231              		.align	2
 3232              	.L366:
 3233 00d8 00000000 		.word	whichone.1
 3234 00dc 00000000 		.word	m_sample_count
 3235 00e0 00000000 		.word	vocabindex.0
 3236 00e4 00000000 		.word	vocablist_wow
 3237 00e8 00000000 		.word	m_phone
 3238 00ec 00000000 		.word	m_ar_state
 3239 00f0 00000443 		.word	1124335616
 3240 00f4 00000000 		.word	m_inflection
 3241 00f8 00000000 		.word	lenny
 3242 00fc 00401C46 		.word	1176256512
 3243 0100 00000000 		.word	_sely
 3244 0104 00000000 		.word	m_rom_duration
 3245 0108 00000000 		.word	logpitch
 3246 010c 00000000 		.word	m_cclock
 3247 0110 00000000 		.word	_selz
 3248 0114 0000A442 		.word	1118044160
 3249              		.size	votrax_newsaywow_bendfilter, .-votrax_newsaywow_bendfilter
ARM GAS  /tmp/ccOvjPha.s 			page 59


 3250              		.section	.text.votrax_newsaywow_bendfilterr,"ax",%progbits
 3251              		.align	1
 3252              		.p2align 2,,3
 3253              		.global	votrax_newsaywow_bendfilterr
 3254              		.syntax unified
 3255              		.thumb
 3256              		.thumb_func
 3257              		.type	votrax_newsaywow_bendfilterr, %function
 3258              	votrax_newsaywow_bendfilterr:
 3259              		@ args = 0, pretend = 0, frame = 0
 3260              		@ frame_needed = 0, uses_anonymous_args = 0
 3261              		@ link register save eliminated.
 3262 0000 0120     		movs	r0, #1
 3263 0002 FFF7FEBF 		b	votrax_newsaywow_bendfilter
 3264              		.size	votrax_newsaywow_bendfilterr, .-votrax_newsaywow_bendfilterr
 3265 0006 00BF     		.section	.text.votrax_get_samplegorf,"ax",%progbits
 3266              		.align	1
 3267              		.p2align 2,,3
 3268              		.global	votrax_get_samplegorf
 3269              		.syntax unified
 3270              		.thumb
 3271              		.thumb_func
 3272              		.type	votrax_get_samplegorf, %function
 3273              	votrax_get_samplegorf:
 3274              		@ args = 0, pretend = 0, frame = 0
 3275              		@ frame_needed = 0, uses_anonymous_args = 0
 3276 0000 38B5     		push	{r3, r4, r5, lr}
 3277 0002 0D4D     		ldr	r5, .L378
 3278 0004 0022     		movs	r2, #0
 3279 0006 0D4B     		ldr	r3, .L378+4
 3280 0008 2C68     		ldr	r4, [r5]
 3281 000a 1A70     		strb	r2, [r3]
 3282 000c 0134     		adds	r4, r4, #1
 3283 000e E307     		lsls	r3, r4, #31
 3284 0010 2C60     		str	r4, [r5]
 3285 0012 08D4     		bmi	.L376
 3286              	.L370:
 3287 0014 FFF7FEFF 		bl	analog_calc
 3288 0018 094B     		ldr	r3, .L378+8
 3289 001a 05B2     		sxth	r5, r0
 3290 001c 1B68     		ldr	r3, [r3]
 3291 001e A342     		cmp	r3, r4
 3292 0020 05D9     		bls	.L377
 3293 0022 2846     		mov	r0, r5
 3294 0024 38BD     		pop	{r3, r4, r5, pc}
 3295              	.L376:
 3296 0026 FFF7FEFF 		bl	chip_update
 3297 002a 2C68     		ldr	r4, [r5]
 3298 002c F2E7     		b	.L370
 3299              	.L377:
 3300 002e 0020     		movs	r0, #0
 3301 0030 FFF7FEFF 		bl	votrax_newsaygorf
 3302 0034 2846     		mov	r0, r5
 3303 0036 38BD     		pop	{r3, r4, r5, pc}
 3304              	.L379:
 3305              		.align	2
 3306              	.L378:
ARM GAS  /tmp/ccOvjPha.s 			page 60


 3307 0038 00000000 		.word	m_sample_count
 3308 003c 00000000 		.word	modus
 3309 0040 00000000 		.word	lenny
 3310              		.size	votrax_get_samplegorf, .-votrax_get_samplegorf
 3311              		.section	.text.votrax_get_samplewow_bendfilter,"ax",%progbits
 3312              		.align	1
 3313              		.p2align 2,,3
 3314              		.global	votrax_get_samplewow_bendfilter
 3315              		.syntax unified
 3316              		.thumb
 3317              		.thumb_func
 3318              		.type	votrax_get_samplewow_bendfilter, %function
 3319              	votrax_get_samplewow_bendfilter:
 3320              		@ args = 0, pretend = 0, frame = 0
 3321              		@ frame_needed = 0, uses_anonymous_args = 0
 3322 0000 38B5     		push	{r3, r4, r5, lr}
 3323 0002 0E4D     		ldr	r5, .L389
 3324 0004 0022     		movs	r2, #0
 3325 0006 0E4B     		ldr	r3, .L389+4
 3326 0008 2C68     		ldr	r4, [r5]
 3327 000a 1A70     		strb	r2, [r3]
 3328 000c 0134     		adds	r4, r4, #1
 3329 000e E307     		lsls	r3, r4, #31
 3330 0010 2C60     		str	r4, [r5]
 3331 0012 09D4     		bmi	.L387
 3332              	.L381:
 3333 0014 FFF7FEFF 		bl	analog_calc
 3334 0018 0A4B     		ldr	r3, .L389+8
 3335 001a 40F38F05 		sbfx	r5, r0, #2, #16
 3336 001e 1B68     		ldr	r3, [r3]
 3337 0020 A342     		cmp	r3, r4
 3338 0022 05D9     		bls	.L388
 3339 0024 2846     		mov	r0, r5
 3340 0026 38BD     		pop	{r3, r4, r5, pc}
 3341              	.L387:
 3342 0028 FFF7FEFF 		bl	chip_update
 3343 002c 2C68     		ldr	r4, [r5]
 3344 002e F1E7     		b	.L381
 3345              	.L388:
 3346 0030 0020     		movs	r0, #0
 3347 0032 FFF7FEFF 		bl	votrax_newsaywow_bendfilter
 3348 0036 2846     		mov	r0, r5
 3349 0038 38BD     		pop	{r3, r4, r5, pc}
 3350              	.L390:
 3351 003a 00BF     		.align	2
 3352              	.L389:
 3353 003c 00000000 		.word	m_sample_count
 3354 0040 00000000 		.word	modus
 3355 0044 00000000 		.word	lenny
 3356              		.size	votrax_get_samplewow_bendfilter, .-votrax_get_samplewow_bendfilter
 3357              		.section	.text.votrax_get_samplewow,"ax",%progbits
 3358              		.align	1
 3359              		.p2align 2,,3
 3360              		.global	votrax_get_samplewow
 3361              		.syntax unified
 3362              		.thumb
 3363              		.thumb_func
ARM GAS  /tmp/ccOvjPha.s 			page 61


 3364              		.type	votrax_get_samplewow, %function
 3365              	votrax_get_samplewow:
 3366              		@ args = 0, pretend = 0, frame = 0
 3367              		@ frame_needed = 0, uses_anonymous_args = 0
 3368 0000 38B5     		push	{r3, r4, r5, lr}
 3369 0002 0D4D     		ldr	r5, .L400
 3370 0004 0022     		movs	r2, #0
 3371 0006 0D4B     		ldr	r3, .L400+4
 3372 0008 2C68     		ldr	r4, [r5]
 3373 000a 1A70     		strb	r2, [r3]
 3374 000c 0134     		adds	r4, r4, #1
 3375 000e E307     		lsls	r3, r4, #31
 3376 0010 2C60     		str	r4, [r5]
 3377 0012 08D4     		bmi	.L398
 3378              	.L392:
 3379 0014 FFF7FEFF 		bl	analog_calc
 3380 0018 094B     		ldr	r3, .L400+8
 3381 001a 05B2     		sxth	r5, r0
 3382 001c 1B68     		ldr	r3, [r3]
 3383 001e A342     		cmp	r3, r4
 3384 0020 05D9     		bls	.L399
 3385 0022 2846     		mov	r0, r5
 3386 0024 38BD     		pop	{r3, r4, r5, pc}
 3387              	.L398:
 3388 0026 FFF7FEFF 		bl	chip_update
 3389 002a 2C68     		ldr	r4, [r5]
 3390 002c F2E7     		b	.L392
 3391              	.L399:
 3392 002e 0020     		movs	r0, #0
 3393 0030 FFF7FEFF 		bl	votrax_newsaywow
 3394 0034 2846     		mov	r0, r5
 3395 0036 38BD     		pop	{r3, r4, r5, pc}
 3396              	.L401:
 3397              		.align	2
 3398              	.L400:
 3399 0038 00000000 		.word	m_sample_count
 3400 003c 00000000 		.word	modus
 3401 0040 00000000 		.word	lenny
 3402              		.size	votrax_get_samplewow, .-votrax_get_samplewow
 3403              		.section	.text.votrax_newsayTTS,"ax",%progbits
 3404              		.align	1
 3405              		.p2align 2,,3
 3406              		.global	votrax_newsayTTS
 3407              		.syntax unified
 3408              		.thumb
 3409              		.thumb_func
 3410              		.type	votrax_newsayTTS, %function
 3411              	votrax_newsayTTS:
 3412              		@ args = 0, pretend = 0, frame = 0
 3413              		@ frame_needed = 0, uses_anonymous_args = 0
 3414 0000 70B5     		push	{r4, r5, r6, lr}
 3415 0002 194D     		ldr	r5, .L407
 3416 0004 0022     		movs	r2, #0
 3417 0006 194E     		ldr	r6, .L407+4
 3418 0008 2C78     		ldrb	r4, [r5]	@ zero_extendqisi2
 3419 000a 194B     		ldr	r3, .L407+8
 3420 000c 1949     		ldr	r1, .L407+12
ARM GAS  /tmp/ccOvjPha.s 			page 62


 3421 000e 1A60     		str	r2, [r3]
 3422 0010 335D     		ldrb	r3, [r6, r4]	@ zero_extendqisi2
 3423 0012 03F03F03 		and	r3, r3, #63
 3424 0016 0B70     		strb	r3, [r1]
 3425 0018 174B     		ldr	r3, .L407+16
 3426 001a 1A70     		strb	r2, [r3]
 3427 001c FFF7FEFF 		bl	phone_commit
 3428 0020 164A     		ldr	r2, .L407+20
 3429 0022 335D     		ldrb	r3, [r6, r4]	@ zero_extendqisi2
 3430 0024 1178     		ldrb	r1, [r2]	@ zero_extendqisi2
 3431 0026 B1EB931F 		cmp	r1, r3, lsr #6
 3432 002a 01D0     		beq	.L403
 3433 002c 9809     		lsrs	r0, r3, #6
 3434 002e 1070     		strb	r0, [r2]
 3435              	.L403:
 3436 0030 134B     		ldr	r3, .L407+24
 3437 0032 0134     		adds	r4, r4, #1
 3438 0034 134E     		ldr	r6, .L407+28
 3439 0036 1B78     		ldrb	r3, [r3]	@ zero_extendqisi2
 3440 0038 E4B2     		uxtb	r4, r4
 3441 003a 134A     		ldr	r2, .L407+32
 3442 003c 03EBC303 		add	r3, r3, r3, lsl #3
 3443 0040 2C70     		strb	r4, [r5]
 3444 0042 1B02     		lsls	r3, r3, #8
 3445 0044 03F24223 		addw	r3, r3, #578
 3446 0048 5B11     		asrs	r3, r3, #5
 3447 004a 1360     		str	r3, [r2]
 3448 004c 3378     		ldrb	r3, [r6]	@ zero_extendqisi2
 3449 004e A342     		cmp	r3, r4
 3450 0050 00D9     		bls	.L406
 3451 0052 70BD     		pop	{r4, r5, r6, pc}
 3452              	.L406:
 3453 0054 0023     		movs	r3, #0
 3454 0056 054A     		ldr	r2, .L407+4
 3455 0058 0C49     		ldr	r1, .L407+36
 3456 005a 1020     		movs	r0, #16
 3457 005c 2B70     		strb	r3, [r5]
 3458 005e FFF7FEFF 		bl	text2speechforvotrax
 3459 0062 3070     		strb	r0, [r6]
 3460 0064 70BD     		pop	{r4, r5, r6, pc}
 3461              	.L408:
 3462 0066 00BF     		.align	2
 3463              	.L407:
 3464 0068 00000000 		.word	TTSindex
 3465 006c 00000000 		.word	TTSoutarray
 3466 0070 00000000 		.word	m_sample_count
 3467 0074 00000000 		.word	m_phone
 3468 0078 00000000 		.word	m_ar_state
 3469 007c 00000000 		.word	m_inflection
 3470 0080 00000000 		.word	m_rom_duration
 3471 0084 00000000 		.word	TTSlength
 3472 0088 00000000 		.word	lenny
 3473 008c 00000000 		.word	TTSinarray
 3474              		.size	votrax_newsayTTS, .-votrax_newsayTTS
 3475              		.section	.text.votrax_retriggerTTS,"ax",%progbits
 3476              		.align	1
 3477              		.p2align 2,,3
ARM GAS  /tmp/ccOvjPha.s 			page 63


 3478              		.global	votrax_retriggerTTS
 3479              		.syntax unified
 3480              		.thumb
 3481              		.thumb_func
 3482              		.type	votrax_retriggerTTS, %function
 3483              	votrax_retriggerTTS:
 3484              		@ args = 0, pretend = 0, frame = 0
 3485              		@ frame_needed = 0, uses_anonymous_args = 0
 3486 0000 38B5     		push	{r3, r4, r5, lr}
 3487 0002 1A4B     		ldr	r3, .L412
 3488 0004 0025     		movs	r5, #0
 3489 0006 9FED1A7A 		vldr.32	s14, .L412+4
 3490 000a 1020     		movs	r0, #16
 3491 000c D3ED006A 		vldr.32	s13, [r3]
 3492 0010 184C     		ldr	r4, .L412+8
 3493 0012 C6EE877A 		vdiv.f32	s15, s13, s14
 3494 0016 1849     		ldr	r1, .L412+12
 3495 0018 184B     		ldr	r3, .L412+16
 3496 001a 2246     		mov	r2, r4
 3497 001c 0D60     		str	r5, [r1]
 3498 001e 1849     		ldr	r1, .L412+20
 3499 0020 C3ED007A 		vstr.32	s15, [r3]
 3500 0024 FFF7FEFF 		bl	text2speechforvotrax
 3501 0028 2378     		ldrb	r3, [r4]	@ zero_extendqisi2
 3502 002a 164A     		ldr	r2, .L412+24
 3503 002c 03F03F03 		and	r3, r3, #63
 3504 0030 1070     		strb	r0, [r2]
 3505 0032 154A     		ldr	r2, .L412+28
 3506 0034 1370     		strb	r3, [r2]
 3507 0036 154B     		ldr	r3, .L412+32
 3508 0038 1D70     		strb	r5, [r3]
 3509 003a FFF7FEFF 		bl	phone_commit
 3510 003e 144A     		ldr	r2, .L412+36
 3511 0040 2378     		ldrb	r3, [r4]	@ zero_extendqisi2
 3512 0042 1178     		ldrb	r1, [r2]	@ zero_extendqisi2
 3513 0044 B1EB931F 		cmp	r1, r3, lsr #6
 3514 0048 01D0     		beq	.L410
 3515 004a 9809     		lsrs	r0, r3, #6
 3516 004c 1070     		strb	r0, [r2]
 3517              	.L410:
 3518 004e 114B     		ldr	r3, .L412+40
 3519 0050 0120     		movs	r0, #1
 3520 0052 114A     		ldr	r2, .L412+44
 3521 0054 1B78     		ldrb	r3, [r3]	@ zero_extendqisi2
 3522 0056 1149     		ldr	r1, .L412+48
 3523 0058 03EBC303 		add	r3, r3, r3, lsl #3
 3524 005c 0870     		strb	r0, [r1]
 3525 005e 1B02     		lsls	r3, r3, #8
 3526 0060 03F24223 		addw	r3, r3, #578
 3527 0064 5B11     		asrs	r3, r3, #5
 3528 0066 1360     		str	r3, [r2]
 3529 0068 38BD     		pop	{r3, r4, r5, pc}
 3530              	.L413:
 3531 006a 00BF     		.align	2
 3532              	.L412:
 3533 006c 00000000 		.word	m_mainclock
 3534 0070 00001042 		.word	1108344832
ARM GAS  /tmp/ccOvjPha.s 			page 64


 3535 0074 00000000 		.word	TTSoutarray
 3536 0078 00000000 		.word	m_sample_count
 3537 007c 00000000 		.word	m_cclock
 3538 0080 00000000 		.word	TTSinarray
 3539 0084 00000000 		.word	TTSlength
 3540 0088 00000000 		.word	m_phone
 3541 008c 00000000 		.word	m_ar_state
 3542 0090 00000000 		.word	m_inflection
 3543 0094 00000000 		.word	m_rom_duration
 3544 0098 00000000 		.word	lenny
 3545 009c 00000000 		.word	TTSindex
 3546              		.size	votrax_retriggerTTS, .-votrax_retriggerTTS
 3547              		.section	.text.votrax_get_sampleTTS,"ax",%progbits
 3548              		.align	1
 3549              		.p2align 2,,3
 3550              		.global	votrax_get_sampleTTS
 3551              		.syntax unified
 3552              		.thumb
 3553              		.thumb_func
 3554              		.type	votrax_get_sampleTTS, %function
 3555              	votrax_get_sampleTTS:
 3556              		@ args = 0, pretend = 0, frame = 0
 3557              		@ frame_needed = 0, uses_anonymous_args = 0
 3558 0000 38B5     		push	{r3, r4, r5, lr}
 3559 0002 0D4D     		ldr	r5, .L423
 3560 0004 0022     		movs	r2, #0
 3561 0006 0D4B     		ldr	r3, .L423+4
 3562 0008 2C68     		ldr	r4, [r5]
 3563 000a 1A70     		strb	r2, [r3]
 3564 000c 0134     		adds	r4, r4, #1
 3565 000e E307     		lsls	r3, r4, #31
 3566 0010 2C60     		str	r4, [r5]
 3567 0012 08D4     		bmi	.L421
 3568              	.L415:
 3569 0014 FFF7FEFF 		bl	analog_calc
 3570 0018 094B     		ldr	r3, .L423+8
 3571 001a 05B2     		sxth	r5, r0
 3572 001c 1B68     		ldr	r3, [r3]
 3573 001e A342     		cmp	r3, r4
 3574 0020 05D9     		bls	.L422
 3575 0022 2846     		mov	r0, r5
 3576 0024 38BD     		pop	{r3, r4, r5, pc}
 3577              	.L421:
 3578 0026 FFF7FEFF 		bl	chip_updateTTS
 3579 002a 2C68     		ldr	r4, [r5]
 3580 002c F2E7     		b	.L415
 3581              	.L422:
 3582 002e FFF7FEFF 		bl	votrax_newsayTTS
 3583 0032 2846     		mov	r0, r5
 3584 0034 38BD     		pop	{r3, r4, r5, pc}
 3585              	.L424:
 3586 0036 00BF     		.align	2
 3587              	.L423:
 3588 0038 00000000 		.word	m_sample_count
 3589 003c 00000000 		.word	modus
 3590 0040 00000000 		.word	lenny
 3591              		.size	votrax_get_sampleTTS, .-votrax_get_sampleTTS
ARM GAS  /tmp/ccOvjPha.s 			page 65


 3592              		.section	.bss.vocabindex.0,"aw",%nobits
 3593              		.type	vocabindex.0, %object
 3594              		.size	vocabindex.0, 1
 3595              	vocabindex.0:
 3596 0000 00       		.space	1
 3597              		.section	.bss.whichone.1,"aw",%nobits
 3598              		.type	whichone.1, %object
 3599              		.size	whichone.1, 1
 3600              	whichone.1:
 3601 0000 00       		.space	1
 3602              		.section	.bss.vocabindex.2,"aw",%nobits
 3603              		.type	vocabindex.2, %object
 3604              		.size	vocabindex.2, 1
 3605              	vocabindex.2:
 3606 0000 00       		.space	1
 3607              		.section	.bss.whichone.3,"aw",%nobits
 3608              		.type	whichone.3, %object
 3609              		.size	whichone.3, 1
 3610              	whichone.3:
 3611 0000 00       		.space	1
 3612              		.section	.bss.vocabindex.4,"aw",%nobits
 3613              		.type	vocabindex.4, %object
 3614              		.size	vocabindex.4, 1
 3615              	vocabindex.4:
 3616 0000 00       		.space	1
 3617              		.section	.bss.whichone.5,"aw",%nobits
 3618              		.type	whichone.5, %object
 3619              		.size	whichone.5, 1
 3620              	whichone.5:
 3621 0000 00       		.space	1
 3622              		.section	.bss.vocabindex.6,"aw",%nobits
 3623              		.type	vocabindex.6, %object
 3624              		.size	vocabindex.6, 1
 3625              	vocabindex.6:
 3626 0000 00       		.space	1
 3627              		.section	.bss.whichone.7,"aw",%nobits
 3628              		.type	whichone.7, %object
 3629              		.size	whichone.7, 1
 3630              	whichone.7:
 3631 0000 00       		.space	1
 3632              		.section	.bss.lenny,"aw",%nobits
 3633              		.align	2
 3634              		.type	lenny, %object
 3635              		.size	lenny, 4
 3636              	lenny:
 3637 0000 00000000 		.space	4
 3638              		.global	s_glottal_wave
 3639              		.section	.rodata.s_glottal_wave,"a"
 3640              		.align	2
 3641              		.type	s_glottal_wave, %object
 3642              		.size	s_glottal_wave, 36
 3643              	s_glottal_wave:
 3644 0000 00000000 		.word	0
 3645 0004 254912BF 		.word	-1089320667
 3646 0008 0000803F 		.word	1065353216
 3647 000c B76D5B3F 		.word	1062956471
 3648 0010 6EDB363F 		.word	1060559726
ARM GAS  /tmp/ccOvjPha.s 			page 66


 3649 0014 2549123F 		.word	1058162981
 3650 0018 B76DDB3E 		.word	1054567863
 3651 001c 2549923E 		.word	1049774373
 3652 0020 2549123E 		.word	1041385765
 3653              		.section	.flash,"a"
 3654              		.align	2
 3655              		.type	m_rom, %object
 3656              		.size	m_rom, 512
 3657              	m_rom:
 3658 0000 A450A0F0 		.ascii	"\244P\240\360\340\000\000\003\244P\240\000#\012\000"
 3658      E0000003 
 3658      A450A000 
 3658      230A00
 3659 000f 3EA458A0 		.ascii	">\244X\2400\360\000\000?\243\200i\260\301\014\000=&"
 3659      30F00000 
 3659      3FA38069 
 3659      B0C10C00 
 3659      3D26
 3660 0021 D34990A1 		.ascii	"\323I\220\241\011\000<'\201h\224!\012\000;\202\303H"
 3660      09003C27 
 3660      81689421 
 3660      0A003B82 
 3660      C348
 3661 0033 24A10800 		.ascii	"$\241\010\000:\244\0008\030h\001\0009 R\341\210c\012"
 3661      3AA40038 
 3661      18680100 
 3661      392052E1 
 3661      88630A
 3662 0046 003822C1 		.ascii	"\0008\"\301\350\220a\004\0007\242\203`\020f\003\000"
 3662      E8906104 
 3662      0037A283 
 3662      60106603 
 3662      00
 3663 0057 36A2C1E8 		.ascii	"6\242\301\350\200\241\011\0005\242\301\3504a\012\000"
 3663      80A10900 
 3663      35A2C1E8 
 3663      34610A00 
 3664 0067 34A38189 		.ascii	"4\243\201\211\264!\012\0003\243\201\211\344\241\007"
 3664      B4210A00 
 3664      33A38189 
 3664      E4A107
 3665 0076 0032A381 		.ascii	"\0002\243\201\211Tc\001\0001\243\200i`a\004\0000\247"
 3665      89546301 
 3665      0031A380 
 3665      69606104 
 3665      0030A7
 3666 0089 80E874A0 		.ascii	"\200\350t\240\007\000/\247\200\350t \012\000.\"\301"
 3666      07002FA7 
 3666      80E87420 
 3666      0A002E22 
 3666      C1
 3667 009a 6014660A 		.ascii	"`\024f\012\000-&\323Ip \012\000,\202C\010Tc\004\000"
 3667      002D26D3 
 3667      4970200A 
 3667      002C8243 
 3667      08546304 
 3668 00af 2BE03211 		.ascii	"+\3402\021\350r\001\000*&S\001d\241\007\000)\"\301\350"
ARM GAS  /tmp/ccOvjPha.s 			page 67


 3668      E8720100 
 3668      2A265301 
 3668      64A10700 
 3668      2922C1E8 
 3669 00c3 80210A00 		.ascii	"\200!\012\000(\246\221a\200!\012\000'\242\301\350\204"
 3669      28A69161 
 3669      80210A00 
 3669      27A2C1E8 
 3669      84
 3670 00d4 210A0026 		.ascii	"!\012\000&\250$\023c\262\007\000%\243@\351\204\301\014"
 3670      A8241363 
 3670      B2070025 
 3670      A340E984 
 3670      C10C
 3671 00e6 0024A381 		.ascii	"\000$\243\201\211T\343\000\000#&\022\240da\012\000\""
 3671      8954E300 
 3671      00232612 
 3671      A064610A 
 3671      0022
 3672 00f8 26D36970 		.ascii	"&\323ipa\005\000!\246\301\311\204!\012\000 \3402\221"
 3672      61050021 
 3672      A6C1C984 
 3672      210A0020 
 3672      E03291
 3673 010b 48680400 		.ascii	"Hh\004\000\037&\221\350\000|\013\000\036\250,\203e\242"
 3673      1F2691E8 
 3673      007C0B00 
 3673      1EA82C83 
 3673      65A2
 3674 011d 07001D26 		.ascii	"\007\000\035&\301A\340s\001\000\034\254\004\"\375b\001"
 3674      C141E073 
 3674      01001CAC 
 3674      0422FD62 
 3674      01
 3675 012e 001B2C34 		.ascii	"\000\033,4{\333\350\000\000\032,d#\021r\012\000\031"
 3675      7BDBE800 
 3675      001A2C64 
 3675      2311720A 
 3675      0019
 3676 0140 A2D009F4 		.ascii	"\242\320\011\364\241\007\000\030#\201I !\012\000\027"
 3676      A1070018 
 3676      23814920 
 3676      210A0017 
 3677 0150 23814930 		.ascii	"#\201I0\241\007\000\026\243@\351\204\241\010\000\025"
 3677      A1070016 
 3677      A340E984 
 3677      A1080015 
 3678 0160 364B08D4 		.ascii	"6K\010\324\240\011\000\024\243\200ip\240\010\000\023"
 3678      A0090014 
 3678      A3806970 
 3678      A0080013 
 3679 0170 6058D19C 		.ascii	"`X\321\234c\001\000\022lT\213\373\242\011\000\021lT"
 3679      63010012 
 3679      6C548BFB 
 3679      A2090011 
 3679      6C54
 3680 0182 8BFB6301 		.ascii	"\213\373c\001\000\020(d\323\367c\001\000\017\"\221\341"
ARM GAS  /tmp/ccOvjPha.s 			page 68


 3680      00102864 
 3680      D3F76301 
 3680      000F2291 
 3680      E1
 3681 0193 90730100 		.ascii	"\220s\001\000\0166\031$\346a\012\000\0152\210\245f\243"
 3681      0E361924 
 3681      E6610A00 
 3681      0D3288A5 
 3681      66A3
 3682 01a5 07000CA6 		.ascii	"\007\000\014\246\221a\220\241\011\000\013\246\221a\220"
 3682      916190A1 
 3682      09000BA6 
 3682      916190
 3683 01b4 610A000A 		.ascii	"a\012\000\012\246\221a\200a\013\000\011\243@\351\304"
 3683      A6916180 
 3683      610B0009 
 3683      A340E9C4 
 3684 01c4 61010008 		.ascii	"a\001\000\010lT\313\363c\004\000\007\246\301\3114\241"
 3684      6C54CBF3 
 3684      63040007 
 3684      A6C1C934 
 3684      A1
 3685 01d5 070006A6 		.ascii	"\007\000\006\246\301\311da\001\000\005\350\026\003a"
 3685      C1C96461 
 3685      010005E8 
 3685      160361
 3686 01e4 FB000004 		.ascii	"\373\000\000\004'\201h\304\241\011\000\002'\201h\324"
 3686      278168C4 
 3686      A1090002 
 3686      278168D4 
 3687 01f4 61010001 		.ascii	"a\001\000\001'\201hta\003\000\000"
 3687      27816874 
 3687      61030000 
 3688              		.section	.bss.modus,"aw",%nobits
 3689              		.type	modus, %object
 3690              		.size	modus, 1
 3691              	modus:
 3692 0000 00       		.space	1
 3693              		.section	.bss.TTSlength,"aw",%nobits
 3694              		.type	TTSlength, %object
 3695              		.size	TTSlength, 1
 3696              	TTSlength:
 3697 0000 00       		.space	1
 3698              		.section	.bss.TTSindex,"aw",%nobits
 3699              		.type	TTSindex, %object
 3700              		.size	TTSindex, 1
 3701              	TTSindex:
 3702 0000 00       		.space	1
 3703              		.section	.bss.TTSoutarray,"aw",%nobits
 3704              		.align	2
 3705              		.type	TTSoutarray, %object
 3706              		.size	TTSoutarray, 256
 3707              	TTSoutarray:
 3708 0000 00000000 		.space	256
 3708      00000000 
 3708      00000000 
 3708      00000000 
ARM GAS  /tmp/ccOvjPha.s 			page 69


 3708      00000000 
 3709              		.global	vocablist_gorf
 3710              		.section	.data.vocablist_gorf,"aw"
 3711              		.align	2
 3712              		.type	vocablist_gorf, %object
 3713              		.size	vocablist_gorf, 460
 3714              	vocablist_gorf:
 3715 0000 00000000 		.word	gorf0
 3716 0004 00000000 		.word	gorf1
 3717 0008 00000000 		.word	gorf2
 3718 000c 00000000 		.word	gorf3
 3719 0010 00000000 		.word	gorf4
 3720 0014 00000000 		.word	gorf5
 3721 0018 00000000 		.word	gorf6
 3722 001c 00000000 		.word	gorf7
 3723 0020 00000000 		.word	gorf8
 3724 0024 00000000 		.word	gorf9
 3725 0028 00000000 		.word	gorf10
 3726 002c 00000000 		.word	gorf11
 3727 0030 00000000 		.word	gorf12
 3728 0034 00000000 		.word	gorf13
 3729 0038 00000000 		.word	gorf14
 3730 003c 00000000 		.word	gorf15
 3731 0040 00000000 		.word	gorf16
 3732 0044 00000000 		.word	gorf17
 3733 0048 00000000 		.word	gorf18
 3734 004c 00000000 		.word	gorf19
 3735 0050 00000000 		.word	gorf20
 3736 0054 00000000 		.word	gorf21
 3737 0058 00000000 		.word	gorf22
 3738 005c 00000000 		.word	gorf23
 3739 0060 00000000 		.word	gorf24
 3740 0064 00000000 		.word	gorf25
 3741 0068 00000000 		.word	gorf26
 3742 006c 00000000 		.word	gorf27
 3743 0070 00000000 		.word	gorf28
 3744 0074 00000000 		.word	gorf29
 3745 0078 00000000 		.word	gorf30
 3746 007c 00000000 		.word	gorf31
 3747 0080 00000000 		.word	gorf32
 3748 0084 00000000 		.word	gorf33
 3749 0088 00000000 		.word	gorf34
 3750 008c 00000000 		.word	gorf35
 3751 0090 00000000 		.word	gorf36
 3752 0094 00000000 		.word	gorf37
 3753 0098 00000000 		.word	gorf38
 3754 009c 00000000 		.word	gorf39
 3755 00a0 00000000 		.word	gorf40
 3756 00a4 00000000 		.word	gorf41
 3757 00a8 00000000 		.word	gorf42
 3758 00ac 00000000 		.word	gorf43
 3759 00b0 00000000 		.word	gorf44
 3760 00b4 00000000 		.word	gorf45
 3761 00b8 00000000 		.word	gorf46
 3762 00bc 00000000 		.word	gorf47
 3763 00c0 00000000 		.word	gorf48
 3764 00c4 00000000 		.word	gorf49
ARM GAS  /tmp/ccOvjPha.s 			page 70


 3765 00c8 00000000 		.word	gorf50
 3766 00cc 00000000 		.word	gorf51
 3767 00d0 00000000 		.word	gorf52
 3768 00d4 00000000 		.word	gorf53
 3769 00d8 00000000 		.word	gorf54
 3770 00dc 00000000 		.word	gorf55
 3771 00e0 00000000 		.word	gorf56
 3772 00e4 00000000 		.word	gorf57
 3773 00e8 00000000 		.word	gorf58
 3774 00ec 00000000 		.word	gorf59
 3775 00f0 00000000 		.word	gorf60
 3776 00f4 00000000 		.word	gorf61
 3777 00f8 00000000 		.word	gorf62
 3778 00fc 00000000 		.word	gorf63
 3779 0100 00000000 		.word	gorf64
 3780 0104 00000000 		.word	gorf65
 3781 0108 00000000 		.word	gorf66
 3782 010c 00000000 		.word	gorf67
 3783 0110 00000000 		.word	gorf68
 3784 0114 00000000 		.word	gorf69
 3785 0118 00000000 		.word	gorf70
 3786 011c 00000000 		.word	gorf71
 3787 0120 00000000 		.word	gorf72
 3788 0124 00000000 		.word	gorf73
 3789 0128 00000000 		.word	gorf74
 3790 012c 00000000 		.word	gorf75
 3791 0130 00000000 		.word	gorf76
 3792 0134 00000000 		.word	gorf77
 3793 0138 00000000 		.word	gorf78
 3794 013c 00000000 		.word	gorf79
 3795 0140 00000000 		.word	gorf80
 3796 0144 00000000 		.word	gorf81
 3797 0148 00000000 		.word	gorf82
 3798 014c 00000000 		.word	gorf83
 3799 0150 00000000 		.word	gorf84
 3800 0154 00000000 		.word	gorf85
 3801 0158 00000000 		.word	gorf86
 3802 015c 00000000 		.word	gorf87
 3803 0160 00000000 		.word	gorf88
 3804 0164 00000000 		.word	gorf89
 3805 0168 00000000 		.word	gorf90
 3806 016c 00000000 		.word	gorf91
 3807 0170 00000000 		.word	gorf92
 3808 0174 00000000 		.word	gorf93
 3809 0178 00000000 		.word	gorf94
 3810 017c 00000000 		.word	gorf95
 3811 0180 00000000 		.word	gorf96
 3812 0184 00000000 		.word	gorf97
 3813 0188 00000000 		.word	gorf98
 3814 018c 00000000 		.word	gorf99
 3815 0190 00000000 		.word	gorf100
 3816 0194 00000000 		.word	gorf101
 3817 0198 00000000 		.word	gorf102
 3818 019c 00000000 		.word	gorf103
 3819 01a0 00000000 		.word	gorf104
 3820 01a4 00000000 		.word	gorf105
 3821 01a8 00000000 		.word	gorf106
ARM GAS  /tmp/ccOvjPha.s 			page 71


 3822 01ac 00000000 		.word	gorf107
 3823 01b0 00000000 		.word	gorf108
 3824 01b4 00000000 		.word	gorf109
 3825 01b8 00000000 		.word	gorf110
 3826 01bc 00000000 		.word	gorf111
 3827 01c0 00000000 		.word	gorf112
 3828 01c4 00000000 		.word	gorf113
 3829 01c8 00000000 		.word	gorf114
 3830              		.global	vocablist_wow
 3831              		.section	.data.vocablist_wow,"aw"
 3832              		.align	2
 3833              		.type	vocablist_wow, %object
 3834              		.size	vocablist_wow, 316
 3835              	vocablist_wow:
 3836 0000 00000000 		.word	p1
 3837 0004 00000000 		.word	p2
 3838 0008 00000000 		.word	p3
 3839 000c 00000000 		.word	p4
 3840 0010 00000000 		.word	p5
 3841 0014 00000000 		.word	p6
 3842 0018 00000000 		.word	p7
 3843 001c 00000000 		.word	p8
 3844 0020 00000000 		.word	p9
 3845 0024 00000000 		.word	p10
 3846 0028 00000000 		.word	p11
 3847 002c 00000000 		.word	p12
 3848 0030 00000000 		.word	p13
 3849 0034 00000000 		.word	p14
 3850 0038 00000000 		.word	p15
 3851 003c 00000000 		.word	p16
 3852 0040 00000000 		.word	p17
 3853 0044 00000000 		.word	p18
 3854 0048 00000000 		.word	p19
 3855 004c 00000000 		.word	p20
 3856 0050 00000000 		.word	p21
 3857 0054 00000000 		.word	p22
 3858 0058 00000000 		.word	p23
 3859 005c 00000000 		.word	p24
 3860 0060 00000000 		.word	p25
 3861 0064 00000000 		.word	p26
 3862 0068 00000000 		.word	p27
 3863 006c 00000000 		.word	p28
 3864 0070 00000000 		.word	p29
 3865 0074 00000000 		.word	p30
 3866 0078 00000000 		.word	p31
 3867 007c 00000000 		.word	p32
 3868 0080 00000000 		.word	p33
 3869 0084 00000000 		.word	p34
 3870 0088 00000000 		.word	p35
 3871 008c 00000000 		.word	p36
 3872 0090 00000000 		.word	p37
 3873 0094 00000000 		.word	p38
 3874 0098 00000000 		.word	p39
 3875 009c 00000000 		.word	p40
 3876 00a0 00000000 		.word	p41
 3877 00a4 00000000 		.word	p42
 3878 00a8 00000000 		.word	p43
ARM GAS  /tmp/ccOvjPha.s 			page 72


 3879 00ac 00000000 		.word	p44
 3880 00b0 00000000 		.word	p45
 3881 00b4 00000000 		.word	p46
 3882 00b8 00000000 		.word	p47
 3883 00bc 00000000 		.word	p48
 3884 00c0 00000000 		.word	p49
 3885 00c4 00000000 		.word	p50
 3886 00c8 00000000 		.word	p51
 3887 00cc 00000000 		.word	p52
 3888 00d0 00000000 		.word	p53
 3889 00d4 00000000 		.word	p54
 3890 00d8 00000000 		.word	p55
 3891 00dc 00000000 		.word	p56
 3892 00e0 00000000 		.word	p57
 3893 00e4 00000000 		.word	p58
 3894 00e8 00000000 		.word	p59
 3895 00ec 00000000 		.word	p60
 3896 00f0 00000000 		.word	p61
 3897 00f4 00000000 		.word	p62
 3898 00f8 00000000 		.word	p63
 3899 00fc 00000000 		.word	p64
 3900 0100 00000000 		.word	p65
 3901 0104 00000000 		.word	p66
 3902 0108 00000000 		.word	p67
 3903 010c 00000000 		.word	p68
 3904 0110 00000000 		.word	p69
 3905 0114 00000000 		.word	p70
 3906 0118 00000000 		.word	p71
 3907 011c 00000000 		.word	p72
 3908 0120 00000000 		.word	p73
 3909 0124 00000000 		.word	p74
 3910 0128 00000000 		.word	p75
 3911 012c 00000000 		.word	p76
 3912 0130 00000000 		.word	p77
 3913 0134 00000000 		.word	p78
 3914 0138 00000000 		.word	p79
 3915              		.global	gorf114
 3916              		.section	.rodata.gorf114,"a"
 3917              		.align	2
 3918              		.type	gorf114, %object
 3919              		.size	gorf114, 7
 3920              	gorf114:
 3921 0000 020C2515 		.ascii	"\002\014%\025\013+\377"
 3921      0B2BFF
 3922              		.global	gorf113
 3923              		.section	.rodata.gorf113,"a"
 3924              		.align	2
 3925              		.type	gorf113, %object
 3926              		.size	gorf113, 5
 3927              	gorf113:
 3928 0000 1B062118 		.ascii	"\033\006!\030\377"
 3928      FF
 3929              		.global	gorf112
 3930              		.section	.rodata.gorf112,"a"
 3931              		.align	2
 3932              		.type	gorf112, %object
 3933              		.size	gorf112, 3
ARM GAS  /tmp/ccOvjPha.s 			page 73


 3934              	gorf112:
 3935 0000 3D18FF   		.ascii	"=\030\377"
 3936              		.global	gorf111
 3937              		.section	.rodata.gorf111,"a"
 3938              		.align	2
 3939              		.type	gorf111, %object
 3940              		.size	gorf111, 7
 3941              	gorf111:
 3942 0000 1F37252B 		.ascii	"\0377%+<\015\377"
 3942      3C0DFF
 3943              		.global	gorf110
 3944              		.section	.rodata.gorf110,"a"
 3945              		.align	2
 3946              		.type	gorf110, %object
 3947              		.size	gorf110, 6
 3948              	gorf110:
 3949 0000 2A2B080B 		.ascii	"*+\010\013)\377"
 3949      29FF
 3950              		.global	gorf109
 3951              		.section	.rodata.gorf109,"a"
 3952              		.align	2
 3953              		.type	gorf109, %object
 3954              		.size	gorf109, 5
 3955              	gorf109:
 3956 0000 25150B2B 		.ascii	"%\025\013+\377"
 3956      FF
 3957              		.global	gorf108
 3958              		.section	.rodata.gorf108,"a"
 3959              		.align	2
 3960              		.type	gorf108, %object
 3961              		.size	gorf108, 5
 3962              	gorf108:
 3963 0000 1C15002A 		.ascii	"\034\025\000*\377"
 3963      FF
 3964              		.global	gorf107
 3965              		.section	.rodata.gorf107,"a"
 3966              		.align	2
 3967              		.type	gorf107, %object
 3968              		.size	gorf107, 8
 3969              	gorf107:
 3970 0000 1C2F1832 		.ascii	"\034/\0302\031\037)\377"
 3970      191F29FF 
 3971              		.global	gorf106
 3972              		.section	.rodata.gorf106,"a"
 3973              		.align	2
 3974              		.type	gorf106, %object
 3975              		.size	gorf106, 5
 3976              	gorf106:
 3977 0000 1E331F2A 		.ascii	"\0363\037*\377"
 3977      FF
 3978              		.global	gorf105
 3979              		.section	.rodata.gorf105,"a"
 3980              		.align	2
 3981              		.type	gorf105, %object
 3982              		.size	gorf105, 7
 3983              	gorf105:
 3984 0000 1E290F15 		.ascii	"\036)\017\0257:\377"
ARM GAS  /tmp/ccOvjPha.s 			page 74


 3984      373AFF
 3985              		.global	gorf104
 3986              		.section	.rodata.gorf104,"a"
 3987              		.align	2
 3988              		.type	gorf104, %object
 3989              		.size	gorf104, 6
 3990              	gorf104:
 3991 0000 19150D19 		.ascii	"\031\025\015\031:\377"
 3991      3AFF
 3992              		.global	gorf103
 3993              		.section	.rodata.gorf103,"a"
 3994              		.align	2
 3995              		.type	gorf103, %object
 3996              		.size	gorf103, 6
 3997              	gorf103:
 3998 0000 0E080922 		.ascii	"\016\010\011\"*\377"
 3998      2AFF
 3999              		.global	gorf102
 4000              		.section	.rodata.gorf102,"a"
 4001              		.align	2
 4002              		.type	gorf102, %object
 4003              		.size	gorf102, 6
 4004              	gorf102:
 4005 0000 322A2E00 		.ascii	"2*.\000\031\377"
 4005      19FF
 4006              		.global	gorf101
 4007              		.section	.rodata.gorf101,"a"
 4008              		.align	2
 4009              		.type	gorf101, %object
 4010              		.size	gorf101, 8
 4011              	gorf101:
 4012 0000 19352309 		.ascii	"\0315#\011!\015\015\377"
 4012      210D0DFF 
 4013              		.global	gorf100
 4014              		.section	.rodata.gorf100,"a"
 4015              		.align	2
 4016              		.type	gorf100, %object
 4017              		.size	gorf100, 9
 4018              	gorf100:
 4019 0000 1C04352B 		.ascii	"\034\0045+\017)\006\015\377"
 4019      0F29060D 
 4019      FF
 4020              		.global	gorf99
 4021              		.section	.rodata.gorf99,"a"
 4022              		.align	2
 4023              		.type	gorf99, %object
 4024              		.size	gorf99, 4
 4025              	gorf99:
 4026 0000 2D2718FF 		.ascii	"-'\030\377"
 4027              		.global	gorf98
 4028              		.section	.rodata.gorf98,"a"
 4029              		.align	2
 4030              		.type	gorf98, %object
 4031              		.size	gorf98, 4
 4032              	gorf98:
 4033 0000 1D342BFF 		.ascii	"\0354+\377"
 4034              		.global	gorf97
ARM GAS  /tmp/ccOvjPha.s 			page 75


 4035              		.section	.rodata.gorf97,"a"
 4036              		.align	2
 4037              		.type	gorf97, %object
 4038              		.size	gorf97, 4
 4039              	gorf97:
 4040 0000 1D352BFF 		.ascii	"\0355+\377"
 4041              		.global	gorf96
 4042              		.section	.rodata.gorf96,"a"
 4043              		.align	2
 4044              		.type	gorf96, %object
 4045              		.size	gorf96, 9
 4046              	gorf96:
 4047 0000 2937352B 		.ascii	")75+\037\002\030\035\377"
 4047      1F02181D 
 4047      FF
 4048              		.global	gorf95
 4049              		.section	.rodata.gorf95,"a"
 4050              		.align	2
 4051              		.type	gorf95, %object
 4052              		.size	gorf95, 4
 4053              	gorf95:
 4054 0000 29262BFF 		.ascii	")&+\377"
 4055              		.global	gorf94
 4056              		.section	.rodata.gorf94,"a"
 4057              		.align	2
 4058              		.type	gorf94, %object
 4059              		.size	gorf94, 5
 4060              	gorf94:
 4061 0000 220B3737 		.ascii	"\"\01377\377"
 4061      FF
 4062              		.global	gorf93
 4063              		.section	.rodata.gorf93,"a"
 4064              		.align	2
 4065              		.type	gorf93, %object
 4066              		.size	gorf93, 5
 4067              	gorf93:
 4068 0000 22363737 		.ascii	"\"677\377"
 4068      FF
 4069              		.global	gorf92
 4070              		.section	.rodata.gorf92,"a"
 4071              		.align	2
 4072              		.type	gorf92, %object
 4073              		.size	gorf92, 5
 4074              	gorf92:
 4075 0000 290B3737 		.ascii	")\01377\377"
 4075      FF
 4076              		.global	gorf91
 4077              		.section	.rodata.gorf91,"a"
 4078              		.align	2
 4079              		.type	gorf91, %object
 4080              		.size	gorf91, 5
 4081              	gorf91:
 4082 0000 29363737 		.ascii	")677\377"
 4082      FF
 4083              		.global	gorf90
 4084              		.section	.rodata.gorf90,"a"
 4085              		.align	2
ARM GAS  /tmp/ccOvjPha.s 			page 76


 4086              		.type	gorf90, %object
 4087              		.size	gorf90, 4
 4088              	gorf90:
 4089 0000 220937FF 		.ascii	"\"\0117\377"
 4090              		.global	gorf89
 4091              		.section	.rodata.gorf89,"a"
 4092              		.align	2
 4093              		.type	gorf89, %object
 4094              		.size	gorf89, 4
 4095              	gorf89:
 4096 0000 2D0B18FF 		.ascii	"-\013\030\377"
 4097              		.global	gorf88
 4098              		.section	.rodata.gorf88,"a"
 4099              		.align	2
 4100              		.type	gorf88, %object
 4101              		.size	gorf88, 9
 4102              	gorf88:
 4103 0000 2D262B21 		.ascii	"-&+!\"\000+\037\377"
 4103      22002B1F 
 4103      FF
 4104              		.global	gorf87
 4105              		.section	.rodata.gorf87,"a"
 4106              		.align	2
 4107              		.type	gorf87, %object
 4108              		.size	gorf87, 8
 4109              	gorf87:
 4110 0000 2D262B21 		.ascii	"-&+!\"\000+\377"
 4110      22002BFF 
 4111              		.global	gorf86
 4112              		.section	.rodata.gorf86,"a"
 4113              		.align	2
 4114              		.type	gorf86, %object
 4115              		.size	gorf86, 11
 4116              	gorf86:
 4117 0000 310D0E3C 		.ascii	"1\015\016<!*#\016#\030\377"
 4117      212A230E 
 4117      2318FF
 4118              		.global	gorf85
 4119              		.section	.rodata.gorf85,"a"
 4120              		.align	2
 4121              		.type	gorf85, %object
 4122              		.size	gorf85, 4
 4123              	gorf85:
 4124 0000 2A3637FF 		.ascii	"*67\377"
 4125              		.global	gorf84
 4126              		.section	.rodata.gorf84,"a"
 4127              		.align	2
 4128              		.type	gorf84, %object
 4129              		.size	gorf84, 3
 4130              	gorf84:
 4131 0000 2A28FF   		.ascii	"*(\377"
 4132              		.global	gorf83
 4133              		.section	.rodata.gorf83,"a"
 4134              		.align	2
 4135              		.type	gorf83, %object
 4136              		.size	gorf83, 6
 4137              	gorf83:
ARM GAS  /tmp/ccOvjPha.s 			page 77


 4138 0000 2A150029 		.ascii	"*\025\000)\014\377"
 4138      0CFF
 4139              		.global	gorf82
 4140              		.section	.rodata.gorf82,"a"
 4141              		.align	2
 4142              		.type	gorf82, %object
 4143              		.size	gorf82, 3
 4144              	gorf82:
 4145 0000 3933FF   		.ascii	"93\377"
 4146              		.global	gorf81
 4147              		.section	.rodata.gorf81,"a"
 4148              		.align	2
 4149              		.type	gorf81, %object
 4150              		.size	gorf81, 3
 4151              	gorf81:
 4152 0000 3832FF   		.ascii	"82\377"
 4153              		.global	gorf80
 4154              		.section	.rodata.gorf80,"a"
 4155              		.align	2
 4156              		.type	gorf80, %object
 4157              		.size	gorf80, 3
 4158              	gorf80:
 4159 0000 3833FF   		.ascii	"83\377"
 4160              		.global	gorf79
 4161              		.section	.rodata.gorf79,"a"
 4162              		.align	2
 4163              		.type	gorf79, %object
 4164              		.size	gorf79, 4
 4165              	gorf79:
 4166 0000 2A2019FF 		.ascii	"* \031\377"
 4167              		.global	gorf78
 4168              		.section	.rodata.gorf78,"a"
 4169              		.align	2
 4170              		.type	gorf78, %object
 4171              		.size	gorf78, 10
 4172              	gorf78:
 4173 0000 1F3A0F08 		.ascii	"\037:\017\010\013\"\017#\030\377"
 4173      0B220F23 
 4173      18FF
 4174              		.global	gorf77
 4175              		.section	.rodata.gorf77,"a"
 4176              		.align	2
 4177              		.type	gorf77, %object
 4178              		.size	gorf77, 2
 4179              	gorf77:
 4180 0000 03FF     		.ascii	"\003\377"
 4181              		.global	gorf76
 4182              		.section	.rodata.gorf76,"a"
 4183              		.align	2
 4184              		.type	gorf76, %object
 4185              		.size	gorf76, 7
 4186              	gorf76:
 4187 0000 1F250609 		.ascii	"\037%\006\011)\037\377"
 4187      291FFF
 4188              		.global	gorf75
 4189              		.section	.rodata.gorf75,"a"
 4190              		.align	2
ARM GAS  /tmp/ccOvjPha.s 			page 78


 4191              		.type	gorf75, %object
 4192              		.size	gorf75, 4
 4193              	gorf75:
 4194 0000 1F330CFF 		.ascii	"\0373\014\377"
 4195              		.global	gorf74
 4196              		.section	.rodata.gorf74,"a"
 4197              		.align	2
 4198              		.type	gorf74, %object
 4199              		.size	gorf74, 5
 4200              	gorf74:
 4201 0000 1115232A 		.ascii	"\021\025#*\377"
 4201      FF
 4202              		.global	gorf73
 4203              		.section	.rodata.gorf73,"a"
 4204              		.align	2
 4205              		.type	gorf73, %object
 4206              		.size	gorf73, 4
 4207              	gorf73:
 4208 0000 112725FF 		.ascii	"\021'%\377"
 4209              		.global	gorf72
 4210              		.section	.rodata.gorf72,"a"
 4211              		.align	2
 4212              		.type	gorf72, %object
 4213              		.size	gorf72, 4
 4214              	gorf72:
 4215 0000 1F2C19FF 		.ascii	"\037,\031\377"
 4216              		.global	gorf71
 4217              		.section	.rodata.gorf71,"a"
 4218              		.align	2
 4219              		.type	gorf71, %object
 4220              		.size	gorf71, 9
 4221              	gorf71:
 4222 0000 2B35370E 		.ascii	"+57\016\025#*\037\377"
 4222      15232A1F 
 4222      FF
 4223              		.global	gorf70
 4224              		.section	.rodata.gorf70,"a"
 4225              		.align	2
 4226              		.type	gorf70, %object
 4227              		.size	gorf70, 8
 4228              	gorf70:
 4229 0000 2B35370E 		.ascii	"+57\016\025*\037\377"
 4229      152A1FFF 
 4230              		.global	gorf69
 4231              		.section	.rodata.gorf69,"a"
 4232              		.align	2
 4233              		.type	gorf69, %object
 4234              		.size	gorf69, 7
 4235              	gorf69:
 4236 0000 2B35370E 		.ascii	"+57\016\025*\377"
 4236      152AFF
 4237              		.global	gorf68
 4238              		.section	.rodata.gorf68,"a"
 4239              		.align	2
 4240              		.type	gorf68, %object
 4241              		.size	gorf68, 5
 4242              	gorf68:
ARM GAS  /tmp/ccOvjPha.s 			page 79


 4243 0000 25163611 		.ascii	"%\0266\021\377"
 4243      FF
 4244              		.global	gorf67
 4245              		.section	.rodata.gorf67,"a"
 4246              		.align	2
 4247              		.type	gorf67, %object
 4248              		.size	gorf67, 9
 4249              	gorf67:
 4250 0000 252B310C 		.ascii	"%+1\014&*\000\036\377"
 4250      262A001E 
 4250      FF
 4251              		.global	gorf66
 4252              		.section	.rodata.gorf66,"a"
 4253              		.align	2
 4254              		.type	gorf66, %object
 4255              		.size	gorf66, 10
 4256              	gorf66:
 4257 0000 252B0B1F 		.ascii	"%+\013\037\011\015\000+\037\377"
 4257      090D002B 
 4257      1FFF
 4258              		.global	gorf65
 4259              		.section	.rodata.gorf65,"a"
 4260              		.align	2
 4261              		.type	gorf65, %object
 4262              		.size	gorf65, 7
 4263              	gorf65:
 4264 0000 252B3C25 		.ascii	"%+<%/:\377"
 4264      2F3AFF
 4265              		.global	gorf64
 4266              		.section	.rodata.gorf64,"a"
 4267              		.align	2
 4268              		.type	gorf64, %object
 4269              		.size	gorf64, 6
 4270              	gorf64:
 4271 0000 25180521 		.ascii	"%\030\005!:\377"
 4271      3AFF
 4272              		.global	gorf63
 4273              		.section	.rodata.gorf63,"a"
 4274              		.align	2
 4275              		.type	gorf63, %object
 4276              		.size	gorf63, 2
 4277              	gorf63:
 4278 0000 3EFF     		.ascii	">\377"
 4279              		.global	gorf62
 4280              		.section	.rodata.gorf62,"a"
 4281              		.align	2
 4282              		.type	gorf62, %object
 4283              		.size	gorf62, 6
 4284              	gorf62:
 4285 0000 0D153537 		.ascii	"\015\02557-\377"
 4285      2DFF
 4286              		.global	gorf61
 4287              		.section	.rodata.gorf61,"a"
 4288              		.align	2
 4289              		.type	gorf61, %object
 4290              		.size	gorf61, 3
 4291              	gorf61:
ARM GAS  /tmp/ccOvjPha.s 			page 80


 4292 0000 0D26FF   		.ascii	"\015&\377"
 4293              		.global	gorf60
 4294              		.section	.rodata.gorf60,"a"
 4295              		.align	2
 4296              		.type	gorf60, %object
 4297              		.size	gorf60, 6
 4298              	gorf60:
 4299 0000 0D230829 		.ascii	"\015#\010)\037\377"
 4299      1FFF
 4300              		.global	gorf59
 4301              		.section	.rodata.gorf59,"a"
 4302              		.align	2
 4303              		.type	gorf59, %object
 4304              		.size	gorf59, 6
 4305              	gorf59:
 4306 0000 0D3B191F 		.ascii	"\015;\031\037*\377"
 4306      2AFF
 4307              		.global	gorf58
 4308              		.section	.rodata.gorf58,"a"
 4309              		.align	2
 4310              		.type	gorf58, %object
 4311              		.size	gorf58, 4
 4312              	gorf58:
 4313 0000 0D272BFF 		.ascii	"\015'+\377"
 4314              		.global	gorf57
 4315              		.section	.rodata.gorf57,"a"
 4316              		.align	2
 4317              		.type	gorf57, %object
 4318              		.size	gorf57, 5
 4319              	gorf57:
 4320 0000 0C080929 		.ascii	"\014\010\011)\377"
 4320      FF
 4321              		.global	gorf56
 4322              		.section	.rodata.gorf56,"a"
 4323              		.align	2
 4324              		.type	gorf56, %object
 4325              		.size	gorf56, 5
 4326              	gorf56:
 4327 0000 0C080B29 		.ascii	"\014\010\013)\377"
 4327      FF
 4328              		.global	gorf55
 4329              		.section	.rodata.gorf55,"a"
 4330              		.align	2
 4331              		.type	gorf55, %object
 4332              		.size	gorf55, 5
 4333              	gorf55:
 4334 0000 0C28370F 		.ascii	"\014(7\017\377"
 4334      FF
 4335              		.global	gorf54
 4336              		.section	.rodata.gorf54,"a"
 4337              		.align	2
 4338              		.type	gorf54, %object
 4339              		.size	gorf54, 5
 4340              	gorf54:
 4341 0000 0C2C3C2A 		.ascii	"\014,<*\377"
 4341      FF
 4342              		.global	gorf53
ARM GAS  /tmp/ccOvjPha.s 			page 81


 4343              		.section	.rodata.gorf53,"a"
 4344              		.align	2
 4345              		.type	gorf53, %object
 4346              		.size	gorf53, 4
 4347              	gorf53:
 4348 0000 183D14FF 		.ascii	"\030=\024\377"
 4349              		.global	gorf52
 4350              		.section	.rodata.gorf52,"a"
 4351              		.align	2
 4352              		.type	gorf52, %object
 4353              		.size	gorf52, 4
 4354              	gorf52:
 4355 0000 180B0FFF 		.ascii	"\030\013\017\377"
 4356              		.global	gorf51
 4357              		.section	.rodata.gorf51,"a"
 4358              		.align	2
 4359              		.type	gorf51, %object
 4360              		.size	gorf51, 3
 4361              	gorf51:
 4362 0000 0B1FFF   		.ascii	"\013\037\377"
 4363              		.global	gorf50
 4364              		.section	.rodata.gorf50,"a"
 4365              		.align	2
 4366              		.type	gorf50, %object
 4367              		.size	gorf50, 6
 4368              	gorf50:
 4369 0000 270D1F3A 		.ascii	"'\015\037:*\377"
 4369      2AFF
 4370              		.global	gorf49
 4371              		.section	.rodata.gorf49,"a"
 4372              		.align	2
 4373              		.type	gorf49, %object
 4374              		.size	gorf49, 4
 4375              	gorf49:
 4376 0000 270D00FF 		.ascii	"'\015\000\377"
 4377              		.global	gorf48
 4378              		.section	.rodata.gorf48,"a"
 4379              		.align	2
 4380              		.type	gorf48, %object
 4381              		.size	gorf48, 9
 4382              	gorf48:
 4383 0000 0B0C2515 		.ascii	"\013\014%\025\037\013\016\030\377"
 4383      1F0B0E18 
 4383      FF
 4384              		.global	gorf47
 4385              		.section	.rodata.gorf47,"a"
 4386              		.align	2
 4387              		.type	gorf47, %object
 4388              		.size	gorf47, 4
 4389              	gorf47:
 4390 0000 150B22FF 		.ascii	"\025\013\"\377"
 4391              		.global	gorf46
 4392              		.section	.rodata.gorf46,"a"
 4393              		.align	2
 4394              		.type	gorf46, %object
 4395              		.size	gorf46, 4
 4396              	gorf46:
ARM GAS  /tmp/ccOvjPha.s 			page 82


 4397 0000 150B29FF 		.ascii	"\025\013)\377"
 4398              		.global	gorf45
 4399              		.section	.rodata.gorf45,"a"
 4400              		.align	2
 4401              		.type	gorf45, %object
 4402              		.size	gorf45, 6
 4403              	gorf45:
 4404 0000 1B0B2A0B 		.ascii	"\033\013*\013\024\377"
 4404      14FF
 4405              		.global	gorf44
 4406              		.section	.rodata.gorf44,"a"
 4407              		.align	2
 4408              		.type	gorf44, %object
 4409              		.size	gorf44, 5
 4410              	gorf44:
 4411 0000 1B2F000F 		.ascii	"\033/\000\017\377"
 4411      FF
 4412              		.global	gorf43
 4413              		.section	.rodata.gorf43,"a"
 4414              		.align	2
 4415              		.type	gorf43, %object
 4416              		.size	gorf43, 6
 4417              	gorf43:
 4418 0000 1B332B1E 		.ascii	"\0333+\036:\377"
 4418      3AFF
 4419              		.global	gorf42
 4420              		.section	.rodata.gorf42,"a"
 4421              		.align	2
 4422              		.type	gorf42, %object
 4423              		.size	gorf42, 9
 4424              	gorf42:
 4425 0000 1B151B15 		.ascii	"\033\025\033\025\033\025\033\025\377"
 4425      1B151B15 
 4425      FF
 4426              		.global	gorf41
 4427              		.section	.rodata.gorf41,"a"
 4428              		.align	2
 4429              		.type	gorf41, %object
 4430              		.size	gorf41, 10
 4431              	gorf41:
 4432 0000 1C04352B 		.ascii	"\034\0045+\035)\006\015\037\377"
 4432      1D29060D 
 4432      1FFF
 4433              		.global	gorf40
 4434              		.section	.rodata.gorf40,"a"
 4435              		.align	2
 4436              		.type	gorf40, %object
 4437              		.size	gorf40, 9
 4438              	gorf40:
 4439 0000 1C04352B 		.ascii	"\034\0045+\035<\001\015\377"
 4439      1D3C010D 
 4439      FF
 4440              		.global	gorf39
 4441              		.section	.rodata.gorf39,"a"
 4442              		.align	2
 4443              		.type	gorf39, %object
 4444              		.size	gorf39, 9
ARM GAS  /tmp/ccOvjPha.s 			page 83


 4445              	gorf39:
 4446 0000 1C04352B 		.ascii	"\034\0045+\035)\006\015\377"
 4446      1D29060D 
 4446      FF
 4447              		.global	gorf38
 4448              		.section	.rodata.gorf38,"a"
 4449              		.align	2
 4450              		.type	gorf38, %object
 4451              		.size	gorf38, 9
 4452              	gorf38:
 4453 0000 1C043535 		.ascii	"\034\00455++\035\035\377"
 4453      2B2B1D1D 
 4453      FF
 4454              		.global	gorf37
 4455              		.section	.rodata.gorf37,"a"
 4456              		.align	2
 4457              		.type	gorf37, %object
 4458              		.size	gorf37, 8
 4459              	gorf37:
 4460 0000 1E1A010D 		.ascii	"\036\032\001\015:#\030\377"
 4460      3A2318FF 
 4461              		.global	gorf36
 4462              		.section	.rodata.gorf36,"a"
 4463              		.align	2
 4464              		.type	gorf36, %object
 4465              		.size	gorf36, 9
 4466              	gorf36:
 4467 0000 1C32182E 		.ascii	"\0342\030.\031*\013\031\377"
 4467      192A0B19 
 4467      FF
 4468              		.global	gorf35
 4469              		.section	.rodata.gorf35,"a"
 4470              		.align	2
 4471              		.type	gorf35, %object
 4472              		.size	gorf35, 4
 4473              	gorf35:
 4474 0000 1D262BFF 		.ascii	"\035&+\377"
 4475              		.global	gorf34
 4476              		.section	.rodata.gorf34,"a"
 4477              		.align	2
 4478              		.type	gorf34, %object
 4479              		.size	gorf34, 8
 4480              	gorf34:
 4481 0000 1D183B1C 		.ascii	"\035\030;\034\021'%\377"
 4481      112725FF 
 4482              		.global	gorf33
 4483              		.section	.rodata.gorf33,"a"
 4484              		.align	2
 4485              		.type	gorf33, %object
 4486              		.size	gorf33, 7
 4487              	gorf33:
 4488 0000 021F1905 		.ascii	"\002\037\031\005<%\377"
 4488      3C25FF
 4489              		.global	gorf32
 4490              		.section	.rodata.gorf32,"a"
 4491              		.align	2
 4492              		.type	gorf32, %object
ARM GAS  /tmp/ccOvjPha.s 			page 84


 4493              		.size	gorf32, 6
 4494              	gorf32:
 4495 0000 020D020C 		.ascii	"\002\015\002\014)\377"
 4495      29FF
 4496              		.global	gorf31
 4497              		.section	.rodata.gorf31,"a"
 4498              		.align	2
 4499              		.type	gorf31, %object
 4500              		.size	gorf31, 4
 4501              	gorf31:
 4502 0000 3B0D1EFF 		.ascii	";\015\036\377"
 4503              		.global	gorf30
 4504              		.section	.rodata.gorf30,"a"
 4505              		.align	2
 4506              		.type	gorf30, %object
 4507              		.size	gorf30, 8
 4508              	gorf30:
 4509 0000 3B0C2508 		.ascii	";\014%\010\011)+\377"
 4509      09292BFF 
 4510              		.global	gorf29
 4511              		.section	.rodata.gorf29,"a"
 4512              		.align	2
 4513              		.type	gorf29, %object
 4514              		.size	gorf29, 5
 4515              	gorf29:
 4516 0000 1E2B131F 		.ascii	"\036+\023\037\377"
 4516      FF
 4517              		.global	gorf28
 4518              		.section	.rodata.gorf28,"a"
 4519              		.align	2
 4520              		.type	gorf28, %object
 4521              		.size	gorf28, 5
 4522              	gorf28:
 4523 0000 1E37280C 		.ascii	"\0367(\014\377"
 4523      FF
 4524              		.global	gorf27
 4525              		.section	.rodata.gorf27,"a"
 4526              		.align	2
 4527              		.type	gorf27, %object
 4528              		.size	gorf27, 10
 4529              	gorf27:
 4530 0000 1E3C1F2A 		.ascii	"\036<\037*+5\013\"\036\377"
 4530      2B350B22 
 4530      1EFF
 4531              		.global	gorf26
 4532              		.section	.rodata.gorf26,"a"
 4533              		.align	2
 4534              		.type	gorf26, %object
 4535              		.size	gorf26, 9
 4536              	gorf26:
 4537 0000 1E3C1F2A 		.ascii	"\036<\037*+5\013)\377"
 4537      2B350B29 
 4537      FF
 4538              		.global	gorf25
 4539              		.section	.rodata.gorf25,"a"
 4540              		.align	2
 4541              		.type	gorf25, %object
ARM GAS  /tmp/ccOvjPha.s 			page 85


 4542              		.size	gorf25, 8
 4543              	gorf25:
 4544 0000 1E3C1D02 		.ascii	"\036<\035\002\015\036:\377"
 4544      0D1E3AFF 
 4545              		.global	gorf24
 4546              		.section	.rodata.gorf24,"a"
 4547              		.align	2
 4548              		.type	gorf24, %object
 4549              		.size	gorf24, 10
 4550              	gorf24:
 4551 0000 19150D10 		.ascii	"\031\025\015\020;\037\015;\037\377"
 4551      3B1F0D3B 
 4551      1FFF
 4552              		.global	gorf23
 4553              		.section	.rodata.gorf23,"a"
 4554              		.align	2
 4555              		.type	gorf23, %object
 4556              		.size	gorf23, 6
 4557              	gorf23:
 4558 0000 193A0D08 		.ascii	"\031:\015\010\030\377"
 4558      18FF
 4559              		.global	gorf22
 4560              		.section	.rodata.gorf22,"a"
 4561              		.align	2
 4562              		.type	gorf22, %object
 4563              		.size	gorf22, 8
 4564              	gorf22:
 4565 0000 19352309 		.ascii	"\0315#\011<\015\037\377"
 4565      3C0D1FFF 
 4566              		.global	gorf21
 4567              		.section	.rodata.gorf21,"a"
 4568              		.align	2
 4569              		.type	gorf21, %object
 4570              		.size	gorf21, 7
 4571              	gorf21:
 4572 0000 19352309 		.ascii	"\0315#\011<\015\377"
 4572      3C0DFF
 4573              		.global	gorf20
 4574              		.section	.rodata.gorf20,"a"
 4575              		.align	2
 4576              		.type	gorf20, %object
 4577              		.size	gorf20, 12
 4578              	gorf20:
 4579 0000 192B0823 		.ascii	"\031+\010#\015\011\031#4\030\022\377"
 4579      0D091923 
 4579      341812FF 
 4580              		.global	gorf19
 4581              		.section	.rodata.gorf19,"a"
 4582              		.align	2
 4583              		.type	gorf19, %object
 4584              		.size	gorf19, 8
 4585              	gorf19:
 4586 0000 192F0025 		.ascii	"\031/\000%*\011\015\377"
 4586      2A090DFF 
 4587              		.global	gorf18
 4588              		.section	.rodata.gorf18,"a"
 4589              		.align	2
ARM GAS  /tmp/ccOvjPha.s 			page 86


 4590              		.type	gorf18, %object
 4591              		.size	gorf18, 6
 4592              	gorf18:
 4593 0000 192F0D32 		.ascii	"\031/\0152*\377"
 4593      2AFF
 4594              		.global	gorf17
 4595              		.section	.rodata.gorf17,"a"
 4596              		.align	2
 4597              		.type	gorf17, %object
 4598              		.size	gorf17, 6
 4599              	gorf17:
 4600 0000 19331E01 		.ascii	"\0313\036\001*\377"
 4600      2AFF
 4601              		.global	gorf16
 4602              		.section	.rodata.gorf16,"a"
 4603              		.align	2
 4604              		.type	gorf16, %object
 4605              		.size	gorf16, 8
 4606              	gorf16:
 4607 0000 0E32042A 		.ascii	"\0162\004*\001\015\015\377"
 4607      010D0DFF 
 4608              		.global	gorf15
 4609              		.section	.rodata.gorf15,"a"
 4610              		.align	2
 4611              		.type	gorf15, %object
 4612              		.size	gorf15, 5
 4613              	gorf15:
 4614 0000 0E00020D 		.ascii	"\016\000\002\015\377"
 4614      FF
 4615              		.global	gorf14
 4616              		.section	.rodata.gorf14,"a"
 4617              		.align	2
 4618              		.type	gorf14, %object
 4619              		.size	gorf14, 3
 4620              	gorf14:
 4621 0000 0E2CFF   		.ascii	"\016,\377"
 4622              		.global	gorf13
 4623              		.section	.rodata.gorf13,"a"
 4624              		.align	2
 4625              		.type	gorf13, %object
 4626              		.size	gorf13, 5
 4627              	gorf13:
 4628 0000 0E2E021E 		.ascii	"\016.\002\036\377"
 4628      FF
 4629              		.global	gorf12
 4630              		.section	.rodata.gorf12,"a"
 4631              		.align	2
 4632              		.type	gorf12, %object
 4633              		.size	gorf12, 5
 4634              	gorf12:
 4635 0000 0E2E001E 		.ascii	"\016.\000\036\377"
 4635      FF
 4636              		.global	gorf11
 4637              		.section	.rodata.gorf11,"a"
 4638              		.align	2
 4639              		.type	gorf11, %object
 4640              		.size	gorf11, 10
ARM GAS  /tmp/ccOvjPha.s 			page 87


 4641              	gorf11:
 4642 0000 320F0200 		.ascii	"2\017\002\000\015\015\036\032:\377"
 4642      0D0D1E1A 
 4642      3AFF
 4643              		.global	gorf10
 4644              		.section	.rodata.gorf10,"a"
 4645              		.align	2
 4646              		.type	gorf10, %object
 4647              		.size	gorf10, 3
 4648              	gorf10:
 4649 0000 332BFF   		.ascii	"3+\377"
 4650              		.global	gorf9
 4651              		.section	.rodata.gorf9,"a"
 4652              		.align	2
 4653              		.type	gorf9, %object
 4654              		.size	gorf9, 3
 4655              	gorf9:
 4656 0000 152BFF   		.ascii	"\025+\377"
 4657              		.global	gorf8
 4658              		.section	.rodata.gorf8,"a"
 4659              		.align	2
 4660              		.type	gorf8, %object
 4661              		.size	gorf8, 7
 4662              	gorf8:
 4663 0000 150D3338 		.ascii	"\025\01538++\377"
 4663      2B2BFF
 4664              		.global	gorf7
 4665              		.section	.rodata.gorf7,"a"
 4666              		.align	2
 4667              		.type	gorf7, %object
 4668              		.size	gorf7, 6
 4669              	gorf7:
 4670 0000 080D3339 		.ascii	"\010\01539:\377"
 4670      3AFF
 4671              		.global	gorf6
 4672              		.section	.rodata.gorf6,"a"
 4673              		.align	2
 4674              		.type	gorf6, %object
 4675              		.size	gorf6, 11
 4676              	gorf6:
 4677 0000 320D080B 		.ascii	"2\015\010\013)\030\006\0211\015\377"
 4677      29180611 
 4677      310DFF
 4678              		.global	gorf5
 4679              		.section	.rodata.gorf5,"a"
 4680              		.align	2
 4681              		.type	gorf5, %object
 4682              		.size	gorf5, 5
 4683              	gorf5:
 4684 0000 2F000D1E 		.ascii	"/\000\015\036\377"
 4684      FF
 4685              		.global	gorf4
 4686              		.section	.rodata.gorf4,"a"
 4687              		.align	2
 4688              		.type	gorf4, %object
 4689              		.size	gorf4, 3
 4690              	gorf4:
ARM GAS  /tmp/ccOvjPha.s 			page 88


 4691 0000 2E0CFF   		.ascii	".\014\377"
 4692              		.global	gorf3
 4693              		.section	.rodata.gorf3,"a"
 4694              		.align	2
 4695              		.type	gorf3, %object
 4696              		.size	gorf3, 4
 4697              	gorf3:
 4698 0000 2F010CFF 		.ascii	"/\001\014\377"
 4699              		.global	gorf2
 4700              		.section	.rodata.gorf2,"a"
 4701              		.align	2
 4702              		.type	gorf2, %object
 4703              		.size	gorf2, 6
 4704              	gorf2:
 4705 0000 321C0209 		.ascii	"2\034\002\011\015\377"
 4705      0DFF
 4706              		.global	gorf1
 4707              		.section	.rodata.gorf1,"a"
 4708              		.align	2
 4709              		.type	gorf1, %object
 4710              		.size	gorf1, 3
 4711              	gorf1:
 4712 0000 063CFF   		.ascii	"\006<\377"
 4713              		.global	gorf0
 4714              		.section	.rodata.gorf0,"a"
 4715              		.align	2
 4716              		.type	gorf0, %object
 4717              		.size	gorf0, 4
 4718              	gorf0:
 4719 0000 062122FF 		.ascii	"\006!\"\377"
 4720              		.global	p79
 4721              		.section	.rodata.p79,"a"
 4722              		.align	2
 4723              		.type	p79, %object
 4724              		.size	p79, 27
 4725              	p79:
 4726 0000 2D2F3A15 		.ascii	"-/:\025+\"6(\034&\013\024*(\033\025\012\"\036\003\015"
 4726      2B223628 
 4726      1C260B14 
 4726      2A281B15 
 4726      0A221E03 
 4727 0015 1523283E 		.ascii	"\025#(>\203\377"
 4727      83FF
 4728              		.global	p78
 4729              		.section	.rodata.p78,"a"
 4730              		.align	2
 4731              		.type	p78, %object
 4732              		.size	p78, 31
 4733              	p78:
 4734 0000 251F3E3E 		.ascii	"%\037>>\025#\011)\0143\037*\033/\017\035&+\034\025*"
 4734      15230929 
 4734      0C331F2A 
 4734      1B2F0F1D 
 4734      262B1C15 
 4735 0015 020D3833 		.ascii	"\002\01583-=\030\037>\377"
 4735      2D3D181F 
 4735      3EFF
ARM GAS  /tmp/ccOvjPha.s 			page 89


 4736              		.global	p77
 4737              		.section	.rodata.p77,"a"
 4738              		.align	2
 4739              		.type	p77, %object
 4740              		.size	p77, 36
 4741              	p77:
 4742 0000 242B0303 		.ascii	"$+\003\003\"6(\003\203\035'*\003\003*(\003\203\037:"
 4742      22362803 
 4742      831D272A 
 4742      03032A28 
 4742      03831F3A 
 4743 0014 0F080A22 		.ascii	"\017\010\012\"\017\003\00383\003\203%'*>\377"
 4743      0F030338 
 4743      33038325 
 4743      272A3EFF 
 4744              		.global	p76
 4745              		.section	.rodata.p76,"a"
 4746              		.align	2
 4747              		.type	p76, %object
 4748              		.size	p76, 28
 4749              	p76:
 4750 0000 15637729 		.ascii	"\025cw)44+&\015\030)*\020.\015\037\013\037)44+\036."
 4750      34342B26 
 4750      0D18292A 
 4750      102E0D1F 
 4750      0B1F2934 
 4751 0018 0D1F3EFF 		.ascii	"\015\037>\377"
 4752              		.global	p75
 4753              		.section	.rodata.p75,"a"
 4754              		.align	2
 4755              		.type	p75, %object
 4756              		.size	p75, 44
 4757              	p75:
 4758 0000 0C150009 		.ascii	"\014\025\000\011\"\016,<\037*\037\003+3\015-\025\012"
 4758      220E2C3C 
 4758      1F2A1F03 
 4758      2B330D2D 
 4758      150A
 4759 0012 22181E3E 		.ascii	"\"\030\036>'\01583-&+\030&+\036>\0363\015\032\002\015"
 4759      270D3833 
 4759      2D262B18 
 4759      262B1E3E 
 4759      1E330D1A 
 4760 0028 123E83FF 		.ascii	"\022>\203\377"
 4761              		.global	p74
 4762              		.section	.rodata.p74,"a"
 4763              		.align	2
 4764              		.type	p74, %object
 4765              		.size	p74, 31
 4766              	p74:
 4767 0000 604B623E 		.ascii	"`Kb>>)44+\037%\006!)\037\003\016(7*\037\0033\015*\025"
 4767      3E293434 
 4767      2B1F2506 
 4767      21291F03 
 4767      0E28372A 
 4768 001a 0A221E3E 		.ascii	"\012\"\036>\377"
 4768      FF
ARM GAS  /tmp/ccOvjPha.s 			page 90


 4769              		.global	p73
 4770              		.section	.rodata.p73,"a"
 4771              		.align	2
 4772              		.type	p73, %object
 4773              		.size	p73, 27
 4774              	p73:
 4775 0000 3926352B 		.ascii	"9&5+\003\016:+\003\034$+>\036gM:\037\003+{\011\036)"
 4775      030E3A2B 
 4775      031C242B 
 4775      3E1E674D 
 4775      3A1F032B 
 4776 0018 3E83FF   		.ascii	">\203\377"
 4777              		.global	p72
 4778              		.section	.rodata.p72,"a"
 4779              		.align	2
 4780              		.type	p72, %object
 4781              		.size	p72, 47
 4782              	p72:
 4783 0000 24153E29 		.ascii	"$\025>)6(9=*)6(\031\027\036\033\025\012\"\036>\0163"
 4783      3628393D 
 4783      2A293628 
 4783      19171E1B 
 4783      150A221E 
 4784 0017 2A150009 		.ascii	"*\025\000\011)\014>>83\0363\015\032\002\015\014.\037"
 4784      290C3E3E 
 4784      38331E33 
 4784      0D1A020D 
 4784      0C2E1F
 4785 002a 2A3A3E83 		.ascii	"*:>\203\377"
 4785      FF
 4786              		.global	p71
 4787              		.section	.rodata.p71,"a"
 4788              		.align	2
 4789              		.type	p71, %object
 4790              		.size	p71, 33
 4791              	p71:
 4792 0000 0E292D3B 		.ascii	"\016)-;+>)6(\025+'\01583-&+\030&+\036\003\0363\015\032"
 4792      2B3E2936 
 4792      28152B27 
 4792      0D38332D 
 4792      262B1826 
 4793 001b 020D123E 		.ascii	"\002\015\022>\203\377"
 4793      83FF
 4794              		.global	p70
 4795              		.section	.rodata.p70,"a"
 4796              		.align	2
 4797              		.type	p70, %object
 4798              		.size	p70, 22
 4799              	p70:
 4800 0000 1E3C2C25 		.ascii	"\036<,%:>;\017:\036<,%:>'\015*(>\203\377"
 4800      3A3E3B0F 
 4800      3A1E3C2C 
 4800      253A3E27 
 4800      0D2A283E 
 4801              		.global	p69
 4802              		.section	.rodata.p69,"a"
 4803              		.align	2
ARM GAS  /tmp/ccOvjPha.s 			page 91


 4804              		.type	p69, %object
 4805              		.size	p69, 34
 4806              	p69:
 4807 0000 2934342B 		.ascii	")44+%.9\003\030,\036\037\003\036:\002\031*\030\"\003"
 4807      252E3903 
 4807      182C1E1F 
 4807      031E3A02 
 4807      192A1822 
 4808 0015 2A28373E 		.ascii	"*(7>>83%'*>\203\377"
 4808      3E383325 
 4808      272A3E83 
 4808      FF
 4809              		.global	p68
 4810              		.section	.rodata.p68,"a"
 4811              		.align	2
 4812              		.type	p68, %object
 4813              		.size	p68, 34
 4814              	p68:
 4815 0000 0E3C2C1D 		.ascii	"\016<,\035&+-5&+\015\036>)6(7>2%+&5*\020>83%'*>\203"
 4815      262B2D35 
 4815      262B0D1E 
 4815      3E293628 
 4815      373E3225 
 4816 0021 FF       		.ascii	"\377"
 4817              		.global	p67
 4818              		.section	.rodata.p67,"a"
 4819              		.align	2
 4820              		.type	p67, %object
 4821              		.size	p67, 16
 4822              	p67:
 4823 0000 00092918 		.ascii	"\000\011)\030\037 \"'*3\034\006\001\015>\377"
 4823      1F202227 
 4823      2A331C06 
 4823      010D3EFF 
 4824              		.global	p66
 4825              		.section	.rodata.p66,"a"
 4826              		.align	2
 4827              		.type	p66, %object
 4828              		.size	p66, 35
 4829              	p66:
 4830 0000 34342B02 		.ascii	"44+\002\031_%\030f\0073\015\003-2\037\014bh\037'\031"
 4830      195F2518 
 4830      6607330D 
 4830      032D321F 
 4830      0C62681F 
 4831 0016 2A280C15 		.ascii	"*(\014\025\011\"\003<:+\037>\377"
 4831      0922033C 
 4831      3A2B1F3E 
 4831      FF
 4832              		.global	p65
 4833              		.section	.rodata.p65,"a"
 4834              		.align	2
 4835              		.type	p65, %object
 4836              		.size	p65, 22
 4837              	p65:
 4838 0000 20290E2C 		.ascii	" )\016,)67\030\037,<\014<,\0033\034\006\001\015>\377"
 4838      29363718 
ARM GAS  /tmp/ccOvjPha.s 			page 92


 4838      1F2C3C0C 
 4838      3C2C0333 
 4838      1C06010D 
 4839              		.global	p64
 4840              		.section	.rodata.p64,"a"
 4841              		.align	2
 4842              		.type	p64, %object
 4843              		.size	p64, 35
 4844              	p64:
 4845 0000 0D552337 		.ascii	"\015U#7)677\015&&83* \005\037*\0032\017\014\025\012"
 4845      29363737 
 4845      0D262638 
 4845      332A2005 
 4845      1F2A0332 
 4846 0018 220C2F00 		.ascii	"\"\014/\000\036\032\013\031\003\203\377"
 4846      1E1A0B19 
 4846      0383FF
 4847              		.global	p63
 4848              		.section	.rodata.p63,"a"
 4849              		.align	2
 4850              		.type	p63, %object
 4851              		.size	p63, 42
 4852              	p63:
 4853 0000 2E0D1E03 		.ascii	".\015\036\003\014\025\013\"*\002\030\002%&+*\013\024"
 4853      0C150B22 
 4853      2A021802 
 4853      25262B2A 
 4853      0B14
 4854 0012 1F253B18 		.ascii	"\037%;\030\003\031/\015\016,\003\003<\017;\015\035."
 4854      03192F0D 
 4854      0E2C0303 
 4854      3C0F3B0D 
 4854      1D2E
 4855 0024 1F2A3A3E 		.ascii	"\037*:>\203\377"
 4855      83FF
 4856              		.global	p62
 4857              		.section	.rodata.p62,"a"
 4858              		.align	2
 4859              		.type	p62, %object
 4860              		.size	p62, 29
 4861              	p62:
 4862 0000 331F0D2A 		.ascii	"3\037\015*8/*\030#Hi*\015'\024\016&\030*\003\036,\030"
 4862      382F2A18 
 4862      2348692A 
 4862      0D27140E 
 4862      26182A03 
 4863 0017 0B11321F 		.ascii	"\013\0212\037>\377"
 4863      3EFF
 4864              		.global	p61
 4865              		.section	.rodata.p61,"a"
 4866              		.align	2
 4867              		.type	p61, %object
 4868              		.size	p61, 15
 4869              	p61:
 4870 0000 0E231529 		.ascii	"\016#\025)*83\01655\030*>\203\377"
 4870      2A38330E 
 4870      3535182A 
ARM GAS  /tmp/ccOvjPha.s 			page 93


 4870      3E83FF
 4871              		.global	p60
 4872              		.section	.rodata.p60,"a"
 4873              		.align	2
 4874              		.type	p60, %object
 4875              		.size	p60, 23
 4876              	p60:
 4877 0000 36370F03 		.ascii	"67\017\003\0323\037*\016;\015\035+\025\013\"\036>\016"
 4877      1A331F2A 
 4877      0E3B0D1D 
 4877      2B150B22 
 4877      1E3E0E
 4878 0013 150A22FF 		.ascii	"\025\012\"\377"
 4879              		.global	p59
 4880              		.section	.rodata.p59,"a"
 4881              		.align	2
 4882              		.type	p59, %object
 4883              		.size	p59, 7
 4884              	p59:
 4885 0000 262B293A 		.ascii	"&+):>\203\377"
 4885      3E83FF
 4886              		.global	p58
 4887              		.section	.rodata.p58,"a"
 4888              		.align	2
 4889              		.type	p58, %object
 4890              		.size	p58, 40
 4891              	p58:
 4892 0000 262B293A 		.ascii	"&+):\035!\012+>\025\000\011)\036+=\015!\012+><*\020"
 4892      1D210A2B 
 4892      3E150009 
 4892      291E2B3D 
 4892      0D210A2B 
 4893 0018 2A150922 		.ascii	"*\025\011\"\014\025\000\011)2%aI+>\377"
 4893      0C150009 
 4893      29322561 
 4893      492B3EFF 
 4894              		.global	p57
 4895              		.section	.rodata.p57,"a"
 4896              		.align	2
 4897              		.type	p57, %object
 4898              		.size	p57, 44
 4899              	p57:
 4900 0000 39262B2D 		.ascii	"9&+-&+>'\022+;\036>\014<!\015>/\000\015\036\033sT\034"
 4900      262B3E27 
 4900      122B3B1E 
 4900      3E0C3C21 
 4900      0D3E2F00 
 4901 001a 2B291D26 		.ascii	"+)\035&+\037%\006\011)\037\03577\036>\203\377"
 4901      2B1F2506 
 4901      09291F1D 
 4901      37371E3E 
 4901      83FF
 4902              		.global	p56
 4903              		.section	.rodata.p56,"a"
 4904              		.align	2
 4905              		.type	p56, %object
 4906              		.size	p56, 34
ARM GAS  /tmp/ccOvjPha.s 			page 94


 4907              	p56:
 4908 0000 152B2D26 		.ascii	"\025+-&+/\000\015\0369&+-&+>\016)\0313\014>\276'\015"
 4908      2B2F000D 
 4908      1E39262B 
 4908      2D262B3E 
 4908      0E291933 
 4909 0019 0F4B520B 		.ascii	"\017KR\013\016\030>\203\377"
 4909      0E183E83 
 4909      FF
 4910              		.global	p55
 4911              		.section	.rodata.p55,"a"
 4912              		.align	2
 4913              		.type	p55, %object
 4914              		.size	p55, 38
 4915              	p55:
 4916 0000 15000929 		.ascii	"\025\000\011)\030\035+\025@@i\"\0117-\0139\014\025\000"
 4916      181D2B15 
 4916      40406922 
 4916      09372D0B 
 4916      390C1500 
 4917 0014 09291823 		.ascii	"\011)\030#Hi*\015'\024\016&\030*\037>\203\377"
 4917      48692A0D 
 4917      27140E26 
 4917      182A1F3E 
 4917      83FF
 4918              		.global	p54
 4919              		.section	.rodata.p54,"a"
 4920              		.align	2
 4921              		.type	p54, %object
 4922              		.size	p54, 22
 4923              	p54:
 4924 0000 1509290E 		.ascii	"\025\011)\016`\016)\"\037\003\016+<)9\035U\000!+>\377"
 4924      600E2922 
 4924      1F030E2B 
 4924      3C29391D 
 4924      5500212B 
 4925              		.global	p53
 4926              		.section	.rodata.p53,"a"
 4927              		.align	2
 4928              		.type	p53, %object
 4929              		.size	p53, 32
 4930              	p53:
 4931 0000 0E3A2B2D 		.ascii	"\016:+-&+\033.\037\015*,*\002\015;\015)-3\015\003\013"
 4931      262B1B2E 
 4931      1F0D2A2C 
 4931      2A020D3B 
 4931      0D292D33 
 4932 0017 0D0C330D 		.ascii	"\015\0143\0159\037>\203\377"
 4932      391F3E83 
 4932      FF
 4933              		.global	p52
 4934              		.section	.rodata.p52,"a"
 4935              		.align	2
 4936              		.type	p52, %object
 4937              		.size	p52, 44
 4938              	p52:
 4939 0000 34342B3D 		.ascii	"44+=\035*67\237<)83\255'\022:\036>83\014/\000\036\032"
ARM GAS  /tmp/ccOvjPha.s 			page 95


 4939      1D2A3637 
 4939      9F3C2938 
 4939      33AD2712 
 4939      3A1E3E38 
 4940 001a 0B193218 		.ascii	"\013\0312\030\255'\022:\036\263\017-54+>>\377"
 4940      AD27123A 
 4940      1EB30F2D 
 4940      35342B3E 
 4940      3EFF
 4941              		.global	p51
 4942              		.section	.rodata.p51,"a"
 4943              		.align	2
 4944              		.type	p51, %object
 4945              		.size	p51, 33
 4946              	p51:
 4947 0000 66293637 		.ascii	"f)67\017\031sL*7\037\031&5+>\013\01582-5z\030\0363\017"
 4947      0F19734C 
 4947      2A371F19 
 4947      26352B3E 
 4947      0B0D3832 
 4948 001b 2D66352B 		.ascii	"-f5+>\377"
 4948      3EFF
 4949              		.global	p50
 4950              		.section	.rodata.p50,"a"
 4951              		.align	2
 4952              		.type	p50, %object
 4953              		.size	p50, 25
 4954              	p50:
 4955 0000 7B181933 		.ascii	"{\030\0313\014>*7\014\025\013)-5zX\0363\017-&5+>\377"
 4955      0C3E2A37 
 4955      0C150B29 
 4955      2D357A58 
 4955      1E330F2D 
 4956              		.global	p49
 4957              		.section	.rodata.p49,"a"
 4958              		.align	2
 4959              		.type	p49, %object
 4960              		.size	p49, 34
 4961              	p49:
 4962 0000 6C1B6C1B 		.ascii	"l\033l\033l\033&\033&\033&\033\025\033\025\033\025\033"
 4962      6C1B261B 
 4962      261B261B 
 4962      151B151B 
 4962      151B
 4963 0012 153E386E 		.ascii	"\025>8n\000*\003\003-3\022\0353\015>\377"
 4963      002A0303 
 4963      2D33121D 
 4963      330D3EFF 
 4964              		.global	p48
 4965              		.section	.rodata.p48,"a"
 4966              		.align	2
 4967              		.type	p48, %object
 4968              		.size	p48, 39
 4969              	p48:
 4970 0000 3628192F 		.ascii	"6(\031/\000\015\037*U+*\025\015v7->\276\0163*\0355+"
 4970      000D1F2A 
 4970      552B2A15 
ARM GAS  /tmp/ccOvjPha.s 			page 96


 4970      0D76372D 
 4970      3EBE0E33 
 4971 0018 0D156377 		.ascii	"\015\025cw)44+9+w7>\276\377"
 4971      2934342B 
 4971      392B7737 
 4971      3EBEFF
 4972              		.global	p47
 4973              		.section	.rodata.p47,"a"
 4974              		.align	2
 4975              		.type	p47, %object
 4976              		.size	p47, 38
 4977              	p47:
 4978 0000 7A6B290E 		.ascii	"zk)\016/\000\031>>\025\000\011)\031/\000\015*-Fa)**"
 4978      2F00193E 
 4978      3E150009 
 4978      29192F00 
 4978      0D2A2D46 
 4979 0018 36371E76 		.ascii	"67\036v('*2\034EB\015>\377"
 4979      28272A32 
 4979      1C45420D 
 4979      3EFF
 4980              		.global	p46
 4981              		.section	.rodata.p46,"a"
 4982              		.align	2
 4983              		.type	p46, %object
 4984              		.size	p46, 24
 4985              	p46:
 4986 0000 2236280D 		.ascii	"\"6(\015uu5\"6(\031/\000\015\0366(\016{*:>\203\377"
 4986      75753522 
 4986      3628192F 
 4986      000D1E36 
 4986      280E7B2A 
 4987              		.global	p45
 4988              		.section	.rodata.p45,"a"
 4989              		.align	2
 4990              		.type	p45, %object
 4991              		.size	p45, 14
 4992              	p45:
 4993 0000 39392F00 		.ascii	"99/\000\024\031\037\003)6(7>\377"
 4993      14191F03 
 4993      29362837 
 4993      3EFF
 4994              		.global	p44
 4995              		.section	.rodata.p44,"a"
 4996              		.align	2
 4997              		.type	p44, %object
 4998              		.size	p44, 43
 4999              	p44:
 5000 0000 1E6C3C25 		.ascii	"\036l<%'\01583\003\031.\017:\015\037\0033\017-fu++>"
 5000      270D3833 
 5000      03192E0F 
 5000      3A0D1F03 
 5000      330F2D66 
 5001 0018 3E223628 		.ascii	">\"6(7-'\030\014l|*\003\014,<\003\203\377"
 5001      372D2718 
 5001      0C6C7C2A 
 5001      030C2C3C 
ARM GAS  /tmp/ccOvjPha.s 			page 97


 5001      0383FF
 5002              		.global	p43
 5003              		.section	.rodata.p43,"a"
 5004              		.align	2
 5005              		.type	p43, %object
 5006              		.size	p43, 39
 5007              	p43:
 5008 0000 38331E73 		.ascii	"83\036sM\032;\015\037\0033\017\003-&5++\025-Fa)*\003"
 5008      4D1A3B0D 
 5008      1F03330F 
 5008      032D2635 
 5008      2B2B152D 
 5009 0019 2926352B 		.ascii	")&5++\011<*z+\015>\203\377"
 5009      2B093C2A 
 5009      7A2B0D3E 
 5009      83FF
 5010              		.global	p42
 5011              		.section	.rodata.p42,"a"
 5012              		.align	2
 5013              		.type	p42, %object
 5014              		.size	p42, 18
 5015              	p42:
 5016 0000 150C0E2E 		.ascii	"\025\014\016.\031\035&+\014&5+>>-'9\377"
 5016      191D262B 
 5016      0C26352B 
 5016      3E3E2D27 
 5016      39FF
 5017              		.global	p41
 5018              		.section	.rodata.p41,"a"
 5019              		.align	2
 5020              		.type	p41, %object
 5021              		.size	p41, 10
 5022              	p41:
 5023 0000 2D666B18 		.ascii	"-fk\030&+\036>\203\377"
 5023      262B1E3E 
 5023      83FF
 5024              		.global	p40
 5025              		.section	.rodata.p40,"a"
 5026              		.align	2
 5027              		.type	p40, %object
 5028              		.size	p40, 8
 5029              	p40:
 5030 0000 666B1826 		.ascii	"fk\030&+\036>\377"
 5030      2B1E3EFF 
 5031              		.global	p39
 5032              		.section	.rodata.p39,"a"
 5033              		.align	2
 5034              		.type	p39, %object
 5035              		.size	p39, 29
 5036              	p39:
 5037 0000 1D3C2828 		.ascii	"\035<((\014&+\0363\015\032\002\015\037>\025\015\036"
 5037      0C262B1E 
 5037      330D1A02 
 5037      0D1F3E15 
 5037      0D1E
 5038 0012 29366858 		.ascii	")6hX\016,<\003 \006\377"
 5038      0E2C3C03 
ARM GAS  /tmp/ccOvjPha.s 			page 98


 5038      2006FF
 5039              		.global	p38
 5040              		.section	.rodata.p38,"a"
 5041              		.align	2
 5042              		.type	p38, %object
 5043              		.size	p38, 29
 5044              	p38:
 5045 0000 6C25031C 		.ascii	"l%\003\034&\013\"\024\003.\015\036)6(-'\030\035U\013"
 5045      260B2214 
 5045      032E0D1E 
 5045      2936282D 
 5045      27181D55 
 5046 0015 220D1E0C 		.ascii	"\"\015\036\014,<>\377"
 5046      2C3C3EFF 
 5047              		.global	p37
 5048              		.section	.rodata.p37,"a"
 5049              		.align	2
 5050              		.type	p37, %object
 5051              		.size	p37, 35
 5052              	p37:
 5053 0000 0D32383A 		.ascii	"\01528:\003-&+):\0355+\014\025\011\"\016 )\016\")\037"
 5053      032D262B 
 5053      293A1D35 
 5053      2B0C1509 
 5053      220E2029 
 5054 0018 2A281E2C 		.ascii	"*(\036,\017\02547+>\377"
 5054      0F153437 
 5054      2B3EFF
 5055              		.global	p36
 5056              		.section	.rodata.p36,"a"
 5057              		.align	2
 5058              		.type	p36, %object
 5059              		.size	p36, 11
 5060              	p36:
 5061 0000 1B151B15 		.ascii	"\033\025\033\025\033\025\033\025>\203\377"
 5061      1B151B15 
 5061      3E83FF
 5062              		.global	p35
 5063              		.section	.rodata.p35,"a"
 5064              		.align	2
 5065              		.type	p35, %object
 5066              		.size	p35, 20
 5067              	p35:
 5068 0000 22362818 		.ascii	"\"6(\030\034;*>>8,\003H+,\015\025>\276\377"
 5068      1C3B2A3E 
 5068      3E382C03 
 5068      482B2C0D 
 5068      153EBEFF 
 5069              		.global	p34
 5070              		.section	.rodata.p34,"a"
 5071              		.align	2
 5072              		.type	p34, %object
 5073              		.size	p34, 34
 5074              	p34:
 5075 0000 08035C76 		.ascii	"\010\003\\vv66\036>\014\025\011)%{*\037-:+\034;*'\024"
 5075      7636361E 
 5075      3E0C1509 
ARM GAS  /tmp/ccOvjPha.s 			page 99


 5075      29257B2A 
 5075      1F2D3A2B 
 5076 0019 1B73541C 		.ascii	"\033sT\034+)>>\377"
 5076      2B293E3E 
 5076      FF
 5077              		.global	p33
 5078              		.section	.rodata.p33,"a"
 5079              		.align	2
 5080              		.type	p33, %object
 5081              		.size	p33, 10
 5082              	p33:
 5083 0000 1B551B55 		.ascii	"\033U\033U\033\025\033\025>\377"
 5083      1B151B15 
 5083      3EFF
 5084              		.global	p32
 5085              		.section	.rodata.p32,"a"
 5086              		.align	2
 5087              		.type	p32, %object
 5088              		.size	p32, 30
 5089              	p32:
 5090 0000 0D33393A 		.ascii	"\01539:\003\03154\011\"\015\035&+\014UIb*+\002\007:"
 5090      03193534 
 5090      09220D1D 
 5090      262B0C55 
 5090      49622A2B 
 5091 0017 2A103B1F 		.ascii	"*\020;\037*>\377"
 5091      2A3EFF
 5092              		.global	p31
 5093              		.section	.rodata.p31,"a"
 5094              		.align	2
 5095              		.type	p31, %object
 5096              		.size	p31, 32
 5097              	p31:
 5098 0000 36281E03 		.ascii	"6(\036\003\016B*:\003\033&%\"vh\036&\015*]U\011\"\015"
 5098      0E422A3A 
 5098      031B2625 
 5098      2276681E 
 5098      260D2A5D 
 5099 0018 1E4C2C3C 		.ascii	"\036L,<>>>\377"
 5099      3E3E3EFF 
 5100              		.global	p30
 5101              		.section	.rodata.p30,"a"
 5102              		.align	2
 5103              		.type	p30, %object
 5104              		.size	p30, 8
 5105              	p30:
 5106 0000 3B2A2B3B 		.ascii	";*+;\036)>\377"
 5106      1E293EFF 
 5107              		.global	p29
 5108              		.section	.rodata.p29,"a"
 5109              		.align	2
 5110              		.type	p29, %object
 5111              		.size	p29, 18
 5112              	p29:
 5113 0000 49690C03 		.ascii	"Ii\014\003\01057\036\025\003\037%\010Ki*>\377"
 5113      0835371E 
 5113      15031F25 
ARM GAS  /tmp/ccOvjPha.s 			page 100


 5113      084B692A 
 5113      3EFF
 5114              		.global	p28
 5115              		.section	.rodata.p28,"a"
 5116              		.align	2
 5117              		.type	p28, %object
 5118              		.size	p28, 10
 5119              	p28:
 5120 0000 5549690D 		.ascii	"UIi\015\036\014,<>\377"
 5120      1E0C2C3C 
 5120      3EFF
 5121              		.global	p27
 5122              		.section	.rodata.p27,"a"
 5123              		.align	2
 5124              		.type	p27, %object
 5125              		.size	p27, 19
 5126              	p27:
 5127 0000 604B623E 		.ascii	"`Kb>>'\015\037zj>Yu4\011\"\015>\377"
 5127      3E270D1F 
 5127      7A6A3E59 
 5127      75340922 
 5127      0D3EFF
 5128              		.global	p26
 5129              		.section	.rodata.p26,"a"
 5130              		.align	2
 5131              		.type	p26, %object
 5132              		.size	p26, 43
 5133              	p26:
 5134 0000 15000918 		.ascii	"\025\000\011\030\"vh\036<\017\002\030#%*\037\025\011"
 5134      2276681E 
 5134      3C0F0218 
 5134      23252A1F 
 5134      1509
 5135 0012 213B0D1F 		.ascii	"!;\015\037>-<)\036<\017\002\030#%*\014/\000\036\032"
 5135      3E2D3C29 
 5135      1E3C0F02 
 5135      1823252A 
 5135      0C2F001E 
 5136 0027 0B193EFF 		.ascii	"\013\031>\377"
 5137              		.global	p25
 5138              		.section	.rodata.p25,"a"
 5139              		.align	2
 5140              		.type	p25, %object
 5141              		.size	p25, 38
 5142              	p25:
 5143 0000 2934342B 		.ascii	")44+N&4M\037-'\030\003\030\025\000)'\01583\036s\015"
 5143      4E26344D 
 5143      1F2D2718 
 5143      03181500 
 5143      29270D38 
 5144 0018 1A020D1F 		.ascii	"\032\002\015\0373\017-&5++>\203\377"
 5144      330F2D26 
 5144      352B2B3E 
 5144      83FF
 5145              		.global	p24
 5146              		.section	.rodata.p24,"a"
 5147              		.align	2
ARM GAS  /tmp/ccOvjPha.s 			page 101


 5148              		.type	p24, %object
 5149              		.size	p24, 35
 5150              	p24:
 5151 0000 15404969 		.ascii	"\025@Ii\014o\036\032\013\031'\022\037*+}\015\034+8/"
 5151      0C6F1E1A 
 5151      0B192712 
 5151      1F2A2B7D 
 5151      0D1C2B38 
 5152 0015 000D2934 		.ascii	"\000\015)44+-{e2\015\037>\377"
 5152      342B2D7B 
 5152      65320D1F 
 5152      3EFF
 5153              		.global	p23
 5154              		.section	.rodata.p23,"a"
 5155              		.align	2
 5156              		.type	p23, %object
 5157              		.size	p23, 34
 5158              	p23:
 5159 0000 0C150009 		.ascii	"\014\025\000\011)-fk\030'\024\037\025#+\017{@+)\017"
 5159      292D666B 
 5159      1827141F 
 5159      15232B0F 
 5159      7B402B29 
 5160 0015 7B402B29 		.ascii	"{@+)\033s\015\034+)>\203\377"
 5160      1B730D1C 
 5160      2B293E83 
 5160      FF
 5161              		.global	p22
 5162              		.section	.rodata.p22,"a"
 5163              		.align	2
 5164              		.type	p22, %object
 5165              		.size	p22, 39
 5166              	p22:
 5167 0000 0E7A6B2D 		.ascii	"\016zk-&+>\034Uk-&+>/\000\015\0369fk-&+>-'\030\0366"
 5167      262B3E1C 
 5167      556B2D26 
 5167      2B3E2F00 
 5167      0D1E3966 
 5168 001e 68223628 		.ascii	"h\"6('\015>\203\377"
 5168      270D3E83 
 5168      FF
 5169              		.global	p21
 5170              		.section	.rodata.p21,"a"
 5171              		.align	2
 5172              		.type	p21, %object
 5173              		.size	p21, 42
 5174              	p21:
 5175 0000 1D293628 		.ascii	"\035)6(*+\025\000\011)o\015)\033Uk\036:>\203\"6(\030"
 5175      2A2B1500 
 5175      09296F0D 
 5175      291B556B 
 5175      1E3A3E83 
 5176 0018 750D1829 		.ascii	"u\015\030)\014,<*-'9^((\014>\203\377"
 5176      0C2C3C2A 
 5176      2D27395E 
 5176      28280C3E 
 5176      83FF
ARM GAS  /tmp/ccOvjPha.s 			page 102


 5177              		.global	p20
 5178              		.section	.rodata.p20,"a"
 5179              		.align	2
 5180              		.type	p20, %object
 5181              		.size	p20, 22
 5182              	p20:
 5183 0000 2934342B 		.ascii	")44+o\000_Y'\024\035&+*+sN#\030>\203\377"
 5183      6F005F59 
 5183      27141D26 
 5183      2B2A2B73 
 5183      4E23183E 
 5184              		.global	p19
 5185              		.section	.rodata.p19,"a"
 5186              		.align	2
 5187              		.type	p19, %object
 5188              		.size	p19, 29
 5189              	p19:
 5190 0000 0D156377 		.ascii	"\015\025cw\"677\034;*\00392\003[BI\017<-E\011\"*\037"
 5190      22363737 
 5190      1C3B2A03 
 5190      3932035B 
 5190      42490F3C 
 5191 001a 3E83FF   		.ascii	">\203\377"
 5192              		.global	p18
 5193              		.section	.rodata.p18,"a"
 5194              		.align	2
 5195              		.type	p18, %object
 5196              		.size	p18, 6
 5197              	p18:
 5198 0000 262B293A 		.ascii	"&+):>\377"
 5198      3EFF
 5199              		.global	p17
 5200              		.section	.rodata.p17,"a"
 5201              		.align	2
 5202              		.type	p17, %object
 5203              		.size	p17, 14
 5204              	p17:
 5205 0000 2D152A10 		.ascii	"-\025*\02083+ \036\025+\003\203\377"
 5205      38332B20 
 5205      1E152B03 
 5205      83FF
 5206              		.global	p16
 5207              		.section	.rodata.p16,"a"
 5208              		.align	2
 5209              		.type	p16, %object
 5210              		.size	p16, 21
 5211              	p16:
 5212 0000 1C552B2D 		.ascii	"\034U+-5+>\03455o\000\035*:8;\014>\203\377"
 5212      352B3E1C 
 5212      35356F00 
 5212      1D2A3A38 
 5212      3B0C3E83 
 5213              		.global	p15
 5214              		.section	.rodata.p15,"a"
 5215              		.align	2
 5216              		.type	p15, %object
 5217              		.size	p15, 27
ARM GAS  /tmp/ccOvjPha.s 			page 103


 5218              	p15:
 5219 0000 2236282D 		.ascii	"\"6(-'\030\015{\017:\030<<\017-fu+2\030U\000)\017>\203"
 5219      27180D7B 
 5219      0F3A183C 
 5219      3C0F2D66 
 5219      752B3218 
 5220 001a FF       		.ascii	"\377"
 5221              		.global	p14
 5222              		.section	.rodata.p14,"a"
 5223              		.align	2
 5224              		.type	p14, %object
 5225              		.size	p14, 21
 5226              	p14:
 5227 0000 0D552337 		.ascii	"\015U#7\025\000\011)\014\034;*'\024\014.\000\036>\203"
 5227      15000929 
 5227      0C1C3B2A 
 5227      27140C2E 
 5227      001E3E83 
 5228 0014 FF       		.ascii	"\377"
 5229              		.global	p13
 5230              		.section	.rodata.p13,"a"
 5231              		.align	2
 5232              		.type	p13, %object
 5233              		.size	p13, 49
 5234              	p13:
 5235 0000 271D2909 		.ascii	"'\035)\011(\036<\037*+5#\011!\014\010\010\000\011)\016"
 5235      281E3C1F 
 5235      2A2B3523 
 5235      09210C08 
 5235      08000929 
 5236 0015 600E2922 		.ascii	"`\016)\"\037>\025\011\"\030%U%)6(\013\0158!!3\017;\015"
 5236      1F3E1509 
 5236      22182555 
 5236      25293628 
 5236      0B0D3821 
 5237 002e 3E83FF   		.ascii	">\203\377"
 5238              		.global	p12
 5239              		.section	.rodata.p12,"a"
 5240              		.align	2
 5241              		.type	p12, %object
 5242              		.size	p12, 44
 5243              	p12:
 5244 0000 5D290937 		.ascii	"])\0117\031/\000\015*>\016|*82+;\037*>\270B\015)67\030"
 5244      192F000D 
 5244      2A3E0E7C 
 5244      2A38322B 
 5244      3B1F2A3E 
 5245 001b 0D020F3A 		.ascii	"\015\002\017:>\034B*82\016;\037*\003\203\377"
 5245      3E1C422A 
 5245      38320E3B 
 5245      1F2A0383 
 5245      FF
 5246              		.global	p11
 5247              		.section	.rodata.p11,"a"
 5248              		.align	2
 5249              		.type	p11, %object
 5250              		.size	p11, 31
ARM GAS  /tmp/ccOvjPha.s 			page 104


 5251              	p11:
 5252 0000 2B3C0C7B 		.ascii	"+<\014{\014\016:>U\000\011)\01483-'\022:\036>\015\025"
 5252      0C0E3A3E 
 5252      55000929 
 5252      0C38332D 
 5252      27123A1E 
 5253 0017 2A293637 		.ascii	"*)677>\203\377"
 5253      373E83FF 
 5254              		.global	p10
 5255              		.section	.rodata.p10,"a"
 5256              		.align	2
 5257              		.type	p10, %object
 5258              		.size	p10, 30
 5259              	p10:
 5260 0000 36282D35 		.ascii	"6(-5\015*\033o\012\017\003\006*\020n\015\037\003\035"
 5260      0D2A1B6F 
 5260      0A0F0306 
 5260      2A106E0D 
 5260      1F031D
 5261 0013 342B2935 		.ascii	"4+)5+\036n\015\037>\377"
 5261      2B1E6E0D 
 5261      1F3EFF
 5262              		.global	p9
 5263              		.section	.rodata.p9,"a"
 5264              		.align	2
 5265              		.type	p9, %object
 5266              		.size	p9, 30
 5267              	p9:
 5268 0000 262B1833 		.ascii	"&+\0303\031\003-'\030\003;\037\003\031\006\011\"%\003"
 5268      19032D27 
 5268      18033B1F 
 5268      03190609 
 5268      222503
 5269 0013 382B2838 		.ascii	"8+(83\036&5+>\377"
 5269      331E2635 
 5269      2B3EFF
 5270              		.global	p8
 5271              		.section	.rodata.p8,"a"
 5272              		.align	2
 5273              		.type	p8, %object
 5274              		.size	p8, 28
 5275              	p8:
 5276 0000 15000929 		.ascii	"\025\000\011)\031+<*\020:\037$#++\006\036)57/\000\031"
 5276      192B3C2A 
 5276      103A1F24 
 5276      232B2B06 
 5276      1E293537 
 5277 0017 2A0B0F3E 		.ascii	"*\013\017>\377"
 5277      FF
 5278              		.global	p7
 5279              		.section	.rodata.p7,"a"
 5280              		.align	2
 5281              		.type	p7, %object
 5282              		.size	p7, 44
 5283              	p7:
 5284 0000 2D330D0E 		.ascii	"-3\015\016#\010)*\035+3\014\014\025\011\"%+'*)\"\037"
 5284      2308292A 
ARM GAS  /tmp/ccOvjPha.s 			page 105


 5284      1D2B330C 
 5284      0C150922 
 5284      252B272A 
 5285 0017 3E3E2F00 		.ascii	">>/\000\015\036\"6(\030;\031\003\037%\030&7\036>\377"
 5285      0D1E2236 
 5285      28183B19 
 5285      031F2518 
 5285      26371E3E 
 5286              		.global	p6
 5287              		.section	.rodata.p6,"a"
 5288              		.align	2
 5289              		.type	p6, %object
 5290              		.size	p6, 18
 5291              	p6:
 5292 0000 3E38732D 		.ascii	">8s-g\022:\036sO\003m&5++>\377"
 5292      67123A1E 
 5292      734F036D 
 5292      26352B2B 
 5292      3EFF
 5293              		.global	p5
 5294              		.section	.rodata.p5,"a"
 5295              		.align	2
 5296              		.type	p5, %object
 5297              		.size	p5, 9
 5298              	p5:
 5299 0000 15230929 		.ascii	"\025#\011)/\000\014>\377"
 5299      2F000C3E 
 5299      FF
 5300              		.global	p4
 5301              		.section	.rodata.p4,"a"
 5302              		.align	2
 5303              		.type	p4, %object
 5304              		.size	p4, 21
 5305              	p4:
 5306 0000 83383303 		.ascii	"\20383\003\0363\015\032\002\015\0223\017-&5++>\276\377"
 5306      1E330D1A 
 5306      020D1233 
 5306      0F2D2635 
 5306      2B2B3EBE 
 5307              		.global	p3
 5308              		.section	.rodata.p3,"a"
 5309              		.align	2
 5310              		.type	p3, %object
 5311              		.size	p3, 11
 5312              	p3:
 5313 0000 83223628 		.ascii	"\203\"6(3+'\015>\203\377"
 5313      332B270D 
 5313      3E83FF
 5314              		.global	p2
 5315              		.section	.rodata.p2,"a"
 5316              		.align	2
 5317              		.type	p2, %object
 5318              		.size	p2, 50
 5319              	p2:
 5320 0000 271D2209 		.ascii	"'\035\"\0116(\034;\000**(7%\025-:\0352\030>\203\025"
 5320      36281C3B 
 5320      002A2A28 
ARM GAS  /tmp/ccOvjPha.s 			page 106


 5320      3725152D 
 5320      3A1D3218 
 5321 0017 00092918 		.ascii	"\000\011)\030* \031\031;+2\017\"6(\003\014\025\011)"
 5321      2A201919 
 5321      3B2B320F 
 5321      22362803 
 5321      0C150929 
 5322 002b 1F3B181D 		.ascii	"\037;\030\035>\203\377"
 5322      3E83FF
 5323              		.global	p1
 5324              		.section	.rodata.p1,"a"
 5325              		.align	2
 5326              		.type	p1, %object
 5327              		.size	p1, 30
 5328              	p1:
 5329 0000 83192709 		.ascii	"\203\031'\011\030\003-&5+\0303\031\003\0355+\0363\016"
 5329      18032D26 
 5329      352B1833 
 5329      19031D35 
 5329      2B1E330E 
 5330 0014 23181F19 		.ascii	"#\030\037\031&5+>\203\377"
 5330      26352B3E 
 5330      83FF
 5331              		.global	m_fn_b
 5332              		.section	.bss.m_fn_b,"aw",%nobits
 5333              		.align	2
 5334              		.type	m_fn_b, %object
 5335              		.size	m_fn_b, 12
 5336              	m_fn_b:
 5337 0000 00000000 		.space	12
 5337      00000000 
 5337      00000000 
 5338              		.global	m_fn_a
 5339              		.section	.bss.m_fn_a,"aw",%nobits
 5340              		.align	2
 5341              		.type	m_fn_a, %object
 5342              		.size	m_fn_a, 12
 5343              	m_fn_a:
 5344 0000 00000000 		.space	12
 5344      00000000 
 5344      00000000 
 5345              		.global	m_fx_b
 5346              		.section	.bss.m_fx_b,"aw",%nobits
 5347              		.align	2
 5348              		.type	m_fx_b, %object
 5349              		.size	m_fx_b, 8
 5350              	m_fx_b:
 5351 0000 00000000 		.space	8
 5351      00000000 
 5352              		.global	m_fx_a
 5353              		.section	.bss.m_fx_a,"aw",%nobits
 5354              		.align	2
 5355              		.type	m_fx_a, %object
 5356              		.size	m_fx_a, 4
 5357              	m_fx_a:
 5358 0000 00000000 		.space	4
 5359              		.global	m_f4_b
ARM GAS  /tmp/ccOvjPha.s 			page 107


 5360              		.section	.bss.m_f4_b,"aw",%nobits
 5361              		.align	2
 5362              		.type	m_f4_b, %object
 5363              		.size	m_f4_b, 16
 5364              	m_f4_b:
 5365 0000 00000000 		.space	16
 5365      00000000 
 5365      00000000 
 5365      00000000 
 5366              		.global	m_f4_a
 5367              		.section	.bss.m_f4_a,"aw",%nobits
 5368              		.align	2
 5369              		.type	m_f4_a, %object
 5370              		.size	m_f4_a, 16
 5371              	m_f4_a:
 5372 0000 00000000 		.space	16
 5372      00000000 
 5372      00000000 
 5372      00000000 
 5373              		.global	m_f3_b
 5374              		.section	.bss.m_f3_b,"aw",%nobits
 5375              		.align	2
 5376              		.type	m_f3_b, %object
 5377              		.size	m_f3_b, 16
 5378              	m_f3_b:
 5379 0000 00000000 		.space	16
 5379      00000000 
 5379      00000000 
 5379      00000000 
 5380              		.global	m_f3_a
 5381              		.section	.bss.m_f3_a,"aw",%nobits
 5382              		.align	2
 5383              		.type	m_f3_a, %object
 5384              		.size	m_f3_a, 16
 5385              	m_f3_a:
 5386 0000 00000000 		.space	16
 5386      00000000 
 5386      00000000 
 5386      00000000 
 5387              		.global	m_f2n_b
 5388              		.section	.bss.m_f2n_b,"aw",%nobits
 5389              		.align	2
 5390              		.type	m_f2n_b, %object
 5391              		.size	m_f2n_b, 8
 5392              	m_f2n_b:
 5393 0000 00000000 		.space	8
 5393      00000000 
 5394              		.global	m_f2n_a
 5395              		.section	.bss.m_f2n_a,"aw",%nobits
 5396              		.align	2
 5397              		.type	m_f2n_a, %object
 5398              		.size	m_f2n_a, 8
 5399              	m_f2n_a:
 5400 0000 00000000 		.space	8
 5400      00000000 
 5401              		.global	m_f2v_b
 5402              		.section	.bss.m_f2v_b,"aw",%nobits
ARM GAS  /tmp/ccOvjPha.s 			page 108


 5403              		.align	2
 5404              		.type	m_f2v_b, %object
 5405              		.size	m_f2v_b, 16
 5406              	m_f2v_b:
 5407 0000 00000000 		.space	16
 5407      00000000 
 5407      00000000 
 5407      00000000 
 5408              		.global	m_f2v_a
 5409              		.section	.bss.m_f2v_a,"aw",%nobits
 5410              		.align	2
 5411              		.type	m_f2v_a, %object
 5412              		.size	m_f2v_a, 16
 5413              	m_f2v_a:
 5414 0000 00000000 		.space	16
 5414      00000000 
 5414      00000000 
 5414      00000000 
 5415              		.global	m_f1_b
 5416              		.section	.bss.m_f1_b,"aw",%nobits
 5417              		.align	2
 5418              		.type	m_f1_b, %object
 5419              		.size	m_f1_b, 16
 5420              	m_f1_b:
 5421 0000 00000000 		.space	16
 5421      00000000 
 5421      00000000 
 5421      00000000 
 5422              		.global	m_f1_a
 5423              		.section	.bss.m_f1_a,"aw",%nobits
 5424              		.align	2
 5425              		.type	m_f1_a, %object
 5426              		.size	m_f1_a, 16
 5427              	m_f1_a:
 5428 0000 00000000 		.space	16
 5428      00000000 
 5428      00000000 
 5428      00000000 
 5429              		.global	m_vn_6
 5430              		.section	.bss.m_vn_6,"aw",%nobits
 5431              		.align	2
 5432              		.type	m_vn_6, %object
 5433              		.size	m_vn_6, 8
 5434              	m_vn_6:
 5435 0000 00000000 		.space	8
 5435      00000000 
 5436              		.global	m_vn_5
 5437              		.section	.bss.m_vn_5,"aw",%nobits
 5438              		.align	2
 5439              		.type	m_vn_5, %object
 5440              		.size	m_vn_5, 8
 5441              	m_vn_5:
 5442 0000 00000000 		.space	8
 5442      00000000 
 5443              		.global	m_vn_4
 5444              		.section	.bss.m_vn_4,"aw",%nobits
 5445              		.align	2
ARM GAS  /tmp/ccOvjPha.s 			page 109


 5446              		.type	m_vn_4, %object
 5447              		.size	m_vn_4, 16
 5448              	m_vn_4:
 5449 0000 00000000 		.space	16
 5449      00000000 
 5449      00000000 
 5449      00000000 
 5450              		.global	m_vn_3
 5451              		.section	.bss.m_vn_3,"aw",%nobits
 5452              		.align	2
 5453              		.type	m_vn_3, %object
 5454              		.size	m_vn_3, 16
 5455              	m_vn_3:
 5456 0000 00000000 		.space	16
 5456      00000000 
 5456      00000000 
 5456      00000000 
 5457              		.global	m_vn_2
 5458              		.section	.bss.m_vn_2,"aw",%nobits
 5459              		.align	2
 5460              		.type	m_vn_2, %object
 5461              		.size	m_vn_2, 16
 5462              	m_vn_2:
 5463 0000 00000000 		.space	16
 5463      00000000 
 5463      00000000 
 5463      00000000 
 5464              		.global	m_vn_1
 5465              		.section	.bss.m_vn_1,"aw",%nobits
 5466              		.align	2
 5467              		.type	m_vn_1, %object
 5468              		.size	m_vn_1, 16
 5469              	m_vn_1:
 5470 0000 00000000 		.space	16
 5470      00000000 
 5470      00000000 
 5470      00000000 
 5471              		.global	m_noise_4
 5472              		.section	.bss.m_noise_4,"aw",%nobits
 5473              		.align	2
 5474              		.type	m_noise_4, %object
 5475              		.size	m_noise_4, 8
 5476              	m_noise_4:
 5477 0000 00000000 		.space	8
 5477      00000000 
 5478              		.global	m_noise_3
 5479              		.section	.bss.m_noise_3,"aw",%nobits
 5480              		.align	2
 5481              		.type	m_noise_3, %object
 5482              		.size	m_noise_3, 8
 5483              	m_noise_3:
 5484 0000 00000000 		.space	8
 5484      00000000 
 5485              		.global	m_noise_2
 5486              		.section	.bss.m_noise_2,"aw",%nobits
 5487              		.align	2
 5488              		.type	m_noise_2, %object
ARM GAS  /tmp/ccOvjPha.s 			page 110


 5489              		.size	m_noise_2, 12
 5490              	m_noise_2:
 5491 0000 00000000 		.space	12
 5491      00000000 
 5491      00000000 
 5492              		.global	m_noise_1
 5493              		.section	.bss.m_noise_1,"aw",%nobits
 5494              		.align	2
 5495              		.type	m_noise_1, %object
 5496              		.size	m_noise_1, 12
 5497              	m_noise_1:
 5498 0000 00000000 		.space	12
 5498      00000000 
 5498      00000000 
 5499              		.global	m_voice_3
 5500              		.section	.bss.m_voice_3,"aw",%nobits
 5501              		.align	2
 5502              		.type	m_voice_3, %object
 5503              		.size	m_voice_3, 16
 5504              	m_voice_3:
 5505 0000 00000000 		.space	16
 5505      00000000 
 5505      00000000 
 5505      00000000 
 5506              		.global	m_voice_2
 5507              		.section	.bss.m_voice_2,"aw",%nobits
 5508              		.align	2
 5509              		.type	m_voice_2, %object
 5510              		.size	m_voice_2, 16
 5511              	m_voice_2:
 5512 0000 00000000 		.space	16
 5512      00000000 
 5512      00000000 
 5512      00000000 
 5513              		.global	m_voice_1
 5514              		.section	.bss.m_voice_1,"aw",%nobits
 5515              		.align	2
 5516              		.type	m_voice_1, %object
 5517              		.size	m_voice_1, 16
 5518              	m_voice_1:
 5519 0000 00000000 		.space	16
 5519      00000000 
 5519      00000000 
 5519      00000000 
 5520              		.global	m_cur_noise
 5521              		.section	.bss.m_cur_noise,"aw",%nobits
 5522              		.type	m_cur_noise, %object
 5523              		.size	m_cur_noise, 1
 5524              	m_cur_noise:
 5525 0000 00       		.space	1
 5526              		.global	m_noise
 5527              		.section	.bss.m_noise,"aw",%nobits
 5528              		.align	1
 5529              		.type	m_noise, %object
 5530              		.size	m_noise, 2
 5531              	m_noise:
 5532 0000 0000     		.space	2
ARM GAS  /tmp/ccOvjPha.s 			page 111


 5533              		.global	m_cur_closure
 5534              		.section	.bss.m_cur_closure,"aw",%nobits
 5535              		.type	m_cur_closure, %object
 5536              		.size	m_cur_closure, 1
 5537              	m_cur_closure:
 5538 0000 00       		.space	1
 5539              		.global	m_update_counter
 5540              		.section	.bss.m_update_counter,"aw",%nobits
 5541              		.type	m_update_counter, %object
 5542              		.size	m_update_counter, 1
 5543              	m_update_counter:
 5544 0000 00       		.space	1
 5545              		.global	m_closure
 5546              		.section	.bss.m_closure,"aw",%nobits
 5547              		.type	m_closure, %object
 5548              		.size	m_closure, 1
 5549              	m_closure:
 5550 0000 00       		.space	1
 5551              		.global	m_pitch
 5552              		.section	.bss.m_pitch,"aw",%nobits
 5553              		.type	m_pitch, %object
 5554              		.size	m_pitch, 1
 5555              	m_pitch:
 5556 0000 00       		.space	1
 5557              		.global	m_ticks
 5558              		.section	.bss.m_ticks,"aw",%nobits
 5559              		.type	m_ticks, %object
 5560              		.size	m_ticks, 1
 5561              	m_ticks:
 5562 0000 00       		.space	1
 5563              		.global	m_phonetick
 5564              		.section	.bss.m_phonetick,"aw",%nobits
 5565              		.align	1
 5566              		.type	m_phonetick, %object
 5567              		.size	m_phonetick, 2
 5568              	m_phonetick:
 5569 0000 0000     		.space	2
 5570              		.global	m_filt_f3
 5571              		.section	.bss.m_filt_f3,"aw",%nobits
 5572              		.type	m_filt_f3, %object
 5573              		.size	m_filt_f3, 1
 5574              	m_filt_f3:
 5575 0000 00       		.space	1
 5576              		.global	m_filt_f2q
 5577              		.section	.bss.m_filt_f2q,"aw",%nobits
 5578              		.type	m_filt_f2q, %object
 5579              		.size	m_filt_f2q, 1
 5580              	m_filt_f2q:
 5581 0000 00       		.space	1
 5582              		.global	m_filt_f2
 5583              		.section	.bss.m_filt_f2,"aw",%nobits
 5584              		.type	m_filt_f2, %object
 5585              		.size	m_filt_f2, 1
 5586              	m_filt_f2:
 5587 0000 00       		.space	1
 5588              		.global	m_filt_f1
 5589              		.section	.bss.m_filt_f1,"aw",%nobits
ARM GAS  /tmp/ccOvjPha.s 			page 112


 5590              		.type	m_filt_f1, %object
 5591              		.size	m_filt_f1, 1
 5592              	m_filt_f1:
 5593 0000 00       		.space	1
 5594              		.global	m_filt_va
 5595              		.section	.bss.m_filt_va,"aw",%nobits
 5596              		.type	m_filt_va, %object
 5597              		.size	m_filt_va, 1
 5598              	m_filt_va:
 5599 0000 00       		.space	1
 5600              		.global	m_filt_fc
 5601              		.section	.bss.m_filt_fc,"aw",%nobits
 5602              		.type	m_filt_fc, %object
 5603              		.size	m_filt_fc, 1
 5604              	m_filt_fc:
 5605 0000 00       		.space	1
 5606              		.global	m_filt_fa
 5607              		.section	.bss.m_filt_fa,"aw",%nobits
 5608              		.type	m_filt_fa, %object
 5609              		.size	m_filt_fa, 1
 5610              	m_filt_fa:
 5611 0000 00       		.space	1
 5612              		.global	m_cur_f3_orig
 5613              		.section	.bss.m_cur_f3_orig,"aw",%nobits
 5614              		.type	m_cur_f3_orig, %object
 5615              		.size	m_cur_f3_orig, 1
 5616              	m_cur_f3_orig:
 5617 0000 00       		.space	1
 5618              		.global	m_cur_f2q_orig
 5619              		.section	.bss.m_cur_f2q_orig,"aw",%nobits
 5620              		.type	m_cur_f2q_orig, %object
 5621              		.size	m_cur_f2q_orig, 1
 5622              	m_cur_f2q_orig:
 5623 0000 00       		.space	1
 5624              		.global	m_cur_f2_orig
 5625              		.section	.bss.m_cur_f2_orig,"aw",%nobits
 5626              		.type	m_cur_f2_orig, %object
 5627              		.size	m_cur_f2_orig, 1
 5628              	m_cur_f2_orig:
 5629 0000 00       		.space	1
 5630              		.global	m_cur_f1_orig
 5631              		.section	.bss.m_cur_f1_orig,"aw",%nobits
 5632              		.type	m_cur_f1_orig, %object
 5633              		.size	m_cur_f1_orig, 1
 5634              	m_cur_f1_orig:
 5635 0000 00       		.space	1
 5636              		.global	m_cur_f3
 5637              		.section	.bss.m_cur_f3,"aw",%nobits
 5638              		.type	m_cur_f3, %object
 5639              		.size	m_cur_f3, 1
 5640              	m_cur_f3:
 5641 0000 00       		.space	1
 5642              		.global	m_cur_f2q
 5643              		.section	.bss.m_cur_f2q,"aw",%nobits
 5644              		.type	m_cur_f2q, %object
 5645              		.size	m_cur_f2q, 1
 5646              	m_cur_f2q:
ARM GAS  /tmp/ccOvjPha.s 			page 113


 5647 0000 00       		.space	1
 5648              		.global	m_cur_f2
 5649              		.section	.bss.m_cur_f2,"aw",%nobits
 5650              		.type	m_cur_f2, %object
 5651              		.size	m_cur_f2, 1
 5652              	m_cur_f2:
 5653 0000 00       		.space	1
 5654              		.global	m_cur_f1
 5655              		.section	.bss.m_cur_f1,"aw",%nobits
 5656              		.type	m_cur_f1, %object
 5657              		.size	m_cur_f1, 1
 5658              	m_cur_f1:
 5659 0000 00       		.space	1
 5660              		.global	m_cur_va_orig
 5661              		.section	.bss.m_cur_va_orig,"aw",%nobits
 5662              		.type	m_cur_va_orig, %object
 5663              		.size	m_cur_va_orig, 1
 5664              	m_cur_va_orig:
 5665 0000 00       		.space	1
 5666              		.global	m_cur_fc_orig
 5667              		.section	.bss.m_cur_fc_orig,"aw",%nobits
 5668              		.type	m_cur_fc_orig, %object
 5669              		.size	m_cur_fc_orig, 1
 5670              	m_cur_fc_orig:
 5671 0000 00       		.space	1
 5672              		.global	m_cur_fa_orig
 5673              		.section	.bss.m_cur_fa_orig,"aw",%nobits
 5674              		.type	m_cur_fa_orig, %object
 5675              		.size	m_cur_fa_orig, 1
 5676              	m_cur_fa_orig:
 5677 0000 00       		.space	1
 5678              		.global	m_cur_va
 5679              		.section	.bss.m_cur_va,"aw",%nobits
 5680              		.type	m_cur_va, %object
 5681              		.size	m_cur_va, 1
 5682              	m_cur_va:
 5683 0000 00       		.space	1
 5684              		.global	m_cur_fc
 5685              		.section	.bss.m_cur_fc,"aw",%nobits
 5686              		.type	m_cur_fc, %object
 5687              		.size	m_cur_fc, 1
 5688              	m_cur_fc:
 5689 0000 00       		.space	1
 5690              		.global	m_cur_fa
 5691              		.section	.bss.m_cur_fa,"aw",%nobits
 5692              		.type	m_cur_fa, %object
 5693              		.size	m_cur_fa, 1
 5694              	m_cur_fa:
 5695 0000 00       		.space	1
 5696              		.global	m_rom_pause
 5697              		.section	.bss.m_rom_pause,"aw",%nobits
 5698              		.type	m_rom_pause, %object
 5699              		.size	m_rom_pause, 1
 5700              	m_rom_pause:
 5701 0000 00       		.space	1
 5702              		.global	m_rom_closure
 5703              		.section	.bss.m_rom_closure,"aw",%nobits
ARM GAS  /tmp/ccOvjPha.s 			page 114


 5704              		.type	m_rom_closure, %object
 5705              		.size	m_rom_closure, 1
 5706              	m_rom_closure:
 5707 0000 00       		.space	1
 5708              		.global	m_rom_f3_orig
 5709              		.section	.bss.m_rom_f3_orig,"aw",%nobits
 5710              		.type	m_rom_f3_orig, %object
 5711              		.size	m_rom_f3_orig, 1
 5712              	m_rom_f3_orig:
 5713 0000 00       		.space	1
 5714              		.global	m_rom_f2q_orig
 5715              		.section	.bss.m_rom_f2q_orig,"aw",%nobits
 5716              		.type	m_rom_f2q_orig, %object
 5717              		.size	m_rom_f2q_orig, 1
 5718              	m_rom_f2q_orig:
 5719 0000 00       		.space	1
 5720              		.global	m_rom_f2_orig
 5721              		.section	.bss.m_rom_f2_orig,"aw",%nobits
 5722              		.type	m_rom_f2_orig, %object
 5723              		.size	m_rom_f2_orig, 1
 5724              	m_rom_f2_orig:
 5725 0000 00       		.space	1
 5726              		.global	m_rom_f1_orig
 5727              		.section	.bss.m_rom_f1_orig,"aw",%nobits
 5728              		.type	m_rom_f1_orig, %object
 5729              		.size	m_rom_f1_orig, 1
 5730              	m_rom_f1_orig:
 5731 0000 00       		.space	1
 5732              		.global	m_rom_va_orig
 5733              		.section	.bss.m_rom_va_orig,"aw",%nobits
 5734              		.type	m_rom_va_orig, %object
 5735              		.size	m_rom_va_orig, 1
 5736              	m_rom_va_orig:
 5737 0000 00       		.space	1
 5738              		.global	m_rom_fc_orig
 5739              		.section	.bss.m_rom_fc_orig,"aw",%nobits
 5740              		.type	m_rom_fc_orig, %object
 5741              		.size	m_rom_fc_orig, 1
 5742              	m_rom_fc_orig:
 5743 0000 00       		.space	1
 5744              		.global	m_rom_fa_orig
 5745              		.section	.bss.m_rom_fa_orig,"aw",%nobits
 5746              		.type	m_rom_fa_orig, %object
 5747              		.size	m_rom_fa_orig, 1
 5748              	m_rom_fa_orig:
 5749 0000 00       		.space	1
 5750              		.global	m_rom_cld_orig
 5751              		.section	.bss.m_rom_cld_orig,"aw",%nobits
 5752              		.type	m_rom_cld_orig, %object
 5753              		.size	m_rom_cld_orig, 1
 5754              	m_rom_cld_orig:
 5755 0000 00       		.space	1
 5756              		.global	m_rom_vd_orig
 5757              		.section	.bss.m_rom_vd_orig,"aw",%nobits
 5758              		.type	m_rom_vd_orig, %object
 5759              		.size	m_rom_vd_orig, 1
 5760              	m_rom_vd_orig:
ARM GAS  /tmp/ccOvjPha.s 			page 115


 5761 0000 00       		.space	1
 5762              		.global	m_rom_f3
 5763              		.section	.bss.m_rom_f3,"aw",%nobits
 5764              		.type	m_rom_f3, %object
 5765              		.size	m_rom_f3, 1
 5766              	m_rom_f3:
 5767 0000 00       		.space	1
 5768              		.global	m_rom_f2q
 5769              		.section	.bss.m_rom_f2q,"aw",%nobits
 5770              		.type	m_rom_f2q, %object
 5771              		.size	m_rom_f2q, 1
 5772              	m_rom_f2q:
 5773 0000 00       		.space	1
 5774              		.global	m_rom_f2
 5775              		.section	.bss.m_rom_f2,"aw",%nobits
 5776              		.type	m_rom_f2, %object
 5777              		.size	m_rom_f2, 1
 5778              	m_rom_f2:
 5779 0000 00       		.space	1
 5780              		.global	m_rom_f1
 5781              		.section	.bss.m_rom_f1,"aw",%nobits
 5782              		.type	m_rom_f1, %object
 5783              		.size	m_rom_f1, 1
 5784              	m_rom_f1:
 5785 0000 00       		.space	1
 5786              		.global	m_rom_va
 5787              		.section	.bss.m_rom_va,"aw",%nobits
 5788              		.type	m_rom_va, %object
 5789              		.size	m_rom_va, 1
