ARM GAS  /tmp/ccONvy4E.s 			page 1


 GNU assembler version 2.41.0 (arm-none-eabi)
	 using BFD version (Arm GNU Toolchain 13.2.rel1 (Build arm-13.7)) 2.41.0.20231009.
 options passed	: -I -I -I -I -I -I -I -EL -march=armv7e-m+fp.dp -mfloat-abi=hard -mfpu=fpv5-d16 -meabi=5 -aghlms=src/tms5200x.lst 
 input file    	: /tmp/ccONvy4E.s
 output file   	: src/tms5200x.o
 target        	: arm-none-eabi
 time stamp    	: 2025-03-08T13:38:43.000+0100

ARM GAS  /tmp/ccONvy4E.s 			page 2


   1              		.cpu cortex-m7
   2              		.arch armv7e-m
   3              		.fpu fpv5-d16
   4              		.eabi_attribute 28, 1
   5              		.eabi_attribute 20, 1
   6              		.eabi_attribute 21, 1
   7              		.eabi_attribute 23, 3
   8              		.eabi_attribute 24, 1
   9              		.eabi_attribute 25, 1
  10              		.eabi_attribute 26, 1
  11              		.eabi_attribute 30, 2
  12              		.eabi_attribute 34, 1
  13              		.eabi_attribute 18, 4
  14              		.file	"tms5200x.c"
  15              		.text
  16              		.section	.text.extract_bits,"ax",%progbits
  17              		.align	1
  18              		.p2align 2,,3
  19              		.global	extract_bits
  20              		.syntax unified
  21              		.thumb
  22              		.thumb_func
  23              		.type	extract_bits, %function
  24              	extract_bits:
  25              		@ args = 0, pretend = 0, frame = 0
  26              		@ frame_needed = 0, uses_anonymous_args = 0
  27              		@ link register save eliminated.
  28 0000 F0B4     		push	{r4, r5, r6, r7}
  29 0002 144E     		ldr	r6, .L7
  30 0004 41B2     		sxtb	r1, r0
  31 0006 144D     		ldr	r5, .L7+4
  32 0008 3468     		ldr	r4, [r6]
  33 000a 2A78     		ldrb	r2, [r5]	@ zero_extendqisi2
  34 000c 134F     		ldr	r7, .L7+8
  35 000e 2378     		ldrb	r3, [r4]	@ zero_extendqisi2
  36 0010 02EB010C 		add	ip, r2, r1
  37 0014 FB5C     		ldrb	r3, [r7, r3]	@ zero_extendqisi2
  38 0016 BCF1080F 		cmp	ip, #8
  39 001a 4FEA0323 		lsl	r3, r3, #8
  40 001e 04DD     		ble	.L2
  41 0020 94F801C0 		ldrb	ip, [r4, #1]	@ zero_extendqisi2
  42 0024 17F80C70 		ldrb	r7, [r7, ip]	@ zero_extendqisi2
  43 0028 3B43     		orrs	r3, r3, r7
  44              	.L2:
  45 002a 9340     		lsls	r3, r3, r2
  46 002c 0244     		add	r2, r2, r0
  47 002e C1F11001 		rsb	r1, r1, #16
  48 0032 D2B2     		uxtb	r2, r2
  49 0034 98B2     		uxth	r0, r3
  50 0036 072A     		cmp	r2, #7
  51 0038 40FA01F0 		asr	r0, r0, r1
  52 003c 03D8     		bhi	.L3
  53 003e C0B2     		uxtb	r0, r0
  54 0040 2A70     		strb	r2, [r5]
  55 0042 F0BC     		pop	{r4, r5, r6, r7}
  56 0044 7047     		bx	lr
  57              	.L3:
ARM GAS  /tmp/ccONvy4E.s 			page 3


  58 0046 0134     		adds	r4, r4, #1
  59 0048 083A     		subs	r2, r2, #8
  60 004a C0B2     		uxtb	r0, r0
  61 004c 2A70     		strb	r2, [r5]
  62 004e 3460     		str	r4, [r6]
  63 0050 F0BC     		pop	{r4, r5, r6, r7}
  64 0052 7047     		bx	lr
  65              	.L8:
  66              		.align	2
  67              	.L7:
  68 0054 00000000 		.word	ptrAddr
  69 0058 00000000 		.word	ptrBit
  70 005c 00000000 		.word	byte_rev
  71              		.size	extract_bits, .-extract_bits
  72              		.section	.text.lattice_filter,"ax",%progbits
  73              		.align	1
  74              		.p2align 2,,3
  75              		.global	lattice_filter
  76              		.syntax unified
  77              		.thumb
  78              		.thumb_func
  79              		.type	lattice_filter, %function
  80              	lattice_filter:
  81              		@ args = 0, pretend = 0, frame = 72
  82              		@ frame_needed = 0, uses_anonymous_args = 0
  83 0000 C84A     		ldr	r2, .L82
  84 0002 C94B     		ldr	r3, .L82+4
  85 0004 1288     		ldrh	r2, [r2]
  86 0006 B3F90030 		ldrsh	r3, [r3]
  87 000a B2F5007F 		cmp	r2, #512
  88 000e 4FEA8313 		lsl	r3, r3, #6
  89 0012 2DE9F04F 		push	{r4, r5, r6, r7, r8, r9, r10, fp, lr}
  90 0016 93B0     		sub	sp, sp, #76
  91 0018 06DB     		blt	.L10
  92 001a A2F50071 		sub	r1, r2, #512
  93 001e A2F58062 		sub	r2, r2, #1024
  94 0022 6FF30901 		bfc	r1, #0, #10
  95 0026 521A     		subs	r2, r2, r1
  96              	.L10:
  97 0028 B3F5804F 		cmp	r3, #16384
  98 002c 06DB     		blt	.L11
  99 002e A3F58041 		sub	r1, r3, #16384
 100 0032 A3F50043 		sub	r3, r3, #32768
 101 0036 6FF30E01 		bfc	r1, #0, #15
 102 003a 5B1A     		subs	r3, r3, r1
 103              	.L11:
 104 003c 13F5804F 		cmn	r3, #16384
 105 0040 07DA     		bge	.L12
 106 0042 6FF48041 		mvn	r1, #16384
 107 0046 03F50040 		add	r0, r3, #32768
 108 004a CB1A     		subs	r3, r1, r3
 109 004c 6FF30E03 		bfc	r3, #0, #15
 110 0050 0344     		add	r3, r3, r0
 111              	.L12:
 112 0052 03FB02F2 		mul	r2, r3, r2
 113 0056 B548     		ldr	r0, .L82+8
 114 0058 DFF8D8A2 		ldr	r10, .L82+16
ARM GAS  /tmp/ccONvy4E.s 			page 4


 115 005c 5212     		asrs	r2, r2, #9
 116 005e 436A     		ldr	r3, [r0, #36]
 117 0060 B34F     		ldr	r7, .L82+12
 118 0062 42F00101 		orr	r1, r2, #1
 119 0066 B3F5007F 		cmp	r3, #512
 120 006a 7A6A     		ldr	r2, [r7, #36]
 121 006c CAF82810 		str	r1, [r10, #40]
 122 0070 06DB     		blt	.L13
 123 0072 A3F50074 		sub	r4, r3, #512
 124 0076 A3F58063 		sub	r3, r3, #1024
 125 007a 6FF30904 		bfc	r4, #0, #10
 126 007e 1B1B     		subs	r3, r3, r4
 127              	.L13:
 128 0080 13F5007F 		cmn	r3, #512
 129 0084 07DA     		bge	.L14
 130 0086 6FF40074 		mvn	r4, #512
 131 008a E41A     		subs	r4, r4, r3
 132 008c 03F58063 		add	r3, r3, #1024
 133 0090 6FF30904 		bfc	r4, #0, #10
 134 0094 2344     		add	r3, r3, r4
 135              	.L14:
 136 0096 B2F5804F 		cmp	r2, #16384
 137 009a 06DB     		blt	.L15
 138 009c A2F58044 		sub	r4, r2, #16384
 139 00a0 A2F50042 		sub	r2, r2, #32768
 140 00a4 6FF30E04 		bfc	r4, #0, #15
 141 00a8 121B     		subs	r2, r2, r4
 142              	.L15:
 143 00aa 12F5804F 		cmn	r2, #16384
 144 00ae 07DA     		bge	.L16
 145 00b0 6FF48044 		mvn	r4, #16384
 146 00b4 A41A     		subs	r4, r4, r2
 147 00b6 02F50042 		add	r2, r2, #32768
 148 00ba 6FF30E04 		bfc	r4, #0, #15
 149 00be 2244     		add	r2, r2, r4
 150              	.L16:
 151 00c0 02FB03F3 		mul	r3, r2, r3
 152 00c4 D0F82090 		ldr	r9, [r0, #32]
 153 00c8 5B12     		asrs	r3, r3, #9
 154 00ca B9F5007F 		cmp	r9, #512
 155 00ce 43F00103 		orr	r3, r3, #1
 156 00d2 A1EB0302 		sub	r2, r1, r3
 157 00d6 3B6A     		ldr	r3, [r7, #32]
 158 00d8 CAF82420 		str	r2, [r10, #36]
 159 00dc 0893     		str	r3, [sp, #32]
 160 00de 07DB     		blt	.L17
 161 00e0 A9F50073 		sub	r3, r9, #512
 162 00e4 A9F58069 		sub	r9, r9, #1024
 163 00e8 6FF30903 		bfc	r3, #0, #10
 164 00ec A9EB0309 		sub	r9, r9, r3
 165              	.L17:
 166 00f0 19F5007F 		cmn	r9, #512
 167 00f4 08DA     		bge	.L18
 168 00f6 6FF40073 		mvn	r3, #512
 169 00fa A3EB0903 		sub	r3, r3, r9
 170 00fe 09F58069 		add	r9, r9, #1024
 171 0102 6FF30903 		bfc	r3, #0, #10
ARM GAS  /tmp/ccONvy4E.s 			page 5


 172 0106 9944     		add	r9, r9, r3
 173              	.L18:
 174 0108 089B     		ldr	r3, [sp, #32]
 175 010a B3F5804F 		cmp	r3, #16384
 176 010e C0F22E83 		blt	.L71
 177 0112 A3F58041 		sub	r1, r3, #16384
 178 0116 A3F50043 		sub	r3, r3, #32768
 179 011a 6FF30E01 		bfc	r1, #0, #15
 180 011e 5B1A     		subs	r3, r3, r1
 181              	.L19:
 182 0120 13F5804F 		cmn	r3, #16384
 183 0124 07DA     		bge	.L20
 184 0126 6FF48041 		mvn	r1, #16384
 185 012a C91A     		subs	r1, r1, r3
 186 012c 03F50043 		add	r3, r3, #32768
 187 0130 6FF30E01 		bfc	r1, #0, #15
 188 0134 0B44     		add	r3, r3, r1
 189              	.L20:
 190 0136 03FB09F3 		mul	r3, r3, r9
 191 013a 5B12     		asrs	r3, r3, #9
 192 013c 43F00103 		orr	r3, r3, #1
 193 0140 D31A     		subs	r3, r2, r3
 194 0142 C269     		ldr	r2, [r0, #28]
 195 0144 0293     		str	r3, [sp, #8]
 196 0146 B2F5007F 		cmp	r2, #512
 197 014a CAF82030 		str	r3, [r10, #32]
 198 014e FB69     		ldr	r3, [r7, #28]
 199 0150 0792     		str	r2, [sp, #28]
 200 0152 0993     		str	r3, [sp, #36]
 201 0154 07DB     		blt	.L21
 202 0156 A2F50073 		sub	r3, r2, #512
 203 015a A2F58062 		sub	r2, r2, #1024
 204 015e 6FF30903 		bfc	r3, #0, #10
 205 0162 D31A     		subs	r3, r2, r3
 206 0164 0793     		str	r3, [sp, #28]
 207              	.L21:
 208 0166 079A     		ldr	r2, [sp, #28]
 209 0168 12F5007F 		cmn	r2, #512
 210 016c 08DA     		bge	.L22
 211 016e 6FF40073 		mvn	r3, #512
 212 0172 9B1A     		subs	r3, r3, r2
 213 0174 02F58062 		add	r2, r2, #1024
 214 0178 6FF30903 		bfc	r3, #0, #10
 215 017c D318     		adds	r3, r2, r3
 216 017e 0793     		str	r3, [sp, #28]
 217              	.L22:
 218 0180 099B     		ldr	r3, [sp, #36]
 219 0182 B3F5804F 		cmp	r3, #16384
 220 0186 C0F2F482 		blt	.L72
 221 018a A3F58042 		sub	r2, r3, #16384
 222 018e A3F50043 		sub	r3, r3, #32768
 223 0192 6FF30E02 		bfc	r2, #0, #15
 224 0196 9B1A     		subs	r3, r3, r2
 225              	.L23:
 226 0198 13F5804F 		cmn	r3, #16384
 227 019c 07DA     		bge	.L24
 228 019e 6FF48042 		mvn	r2, #16384
ARM GAS  /tmp/ccONvy4E.s 			page 6


 229 01a2 D21A     		subs	r2, r2, r3
 230 01a4 03F50043 		add	r3, r3, #32768
 231 01a8 6FF30E02 		bfc	r2, #0, #15
 232 01ac 1344     		add	r3, r3, r2
 233              	.L24:
 234 01ae 079A     		ldr	r2, [sp, #28]
 235 01b0 03FB02F6 		mul	r6, r3, r2
 236 01b4 029B     		ldr	r3, [sp, #8]
 237 01b6 8269     		ldr	r2, [r0, #24]
 238 01b8 7612     		asrs	r6, r6, #9
 239 01ba B2F5007F 		cmp	r2, #512
 240 01be 0692     		str	r2, [sp, #24]
 241 01c0 46F00106 		orr	r6, r6, #1
 242 01c4 A3EB0606 		sub	r6, r3, r6
 243 01c8 BB69     		ldr	r3, [r7, #24]
 244 01ca CAF81C60 		str	r6, [r10, #28]
 245 01ce 0A93     		str	r3, [sp, #40]
 246 01d0 07DB     		blt	.L25
 247 01d2 A2F50073 		sub	r3, r2, #512
 248 01d6 A2F58062 		sub	r2, r2, #1024
 249 01da 6FF30903 		bfc	r3, #0, #10
 250 01de D31A     		subs	r3, r2, r3
 251 01e0 0693     		str	r3, [sp, #24]
 252              	.L25:
 253 01e2 069A     		ldr	r2, [sp, #24]
 254 01e4 12F5007F 		cmn	r2, #512
 255 01e8 08DA     		bge	.L26
 256 01ea 6FF40073 		mvn	r3, #512
 257 01ee 9B1A     		subs	r3, r3, r2
 258 01f0 02F58062 		add	r2, r2, #1024
 259 01f4 6FF30903 		bfc	r3, #0, #10
 260 01f8 D318     		adds	r3, r2, r3
 261 01fa 0693     		str	r3, [sp, #24]
 262              	.L26:
 263 01fc 0A9B     		ldr	r3, [sp, #40]
 264 01fe B3F5804F 		cmp	r3, #16384
 265 0202 C0F2B882 		blt	.L73
 266 0206 A3F58042 		sub	r2, r3, #16384
 267 020a A3F50043 		sub	r3, r3, #32768
 268 020e 6FF30E02 		bfc	r2, #0, #15
 269 0212 9B1A     		subs	r3, r3, r2
 270              	.L27:
 271 0214 13F5804F 		cmn	r3, #16384
 272 0218 07DA     		bge	.L28
 273 021a 6FF48042 		mvn	r2, #16384
 274 021e D21A     		subs	r2, r2, r3
 275 0220 03F50043 		add	r3, r3, #32768
 276 0224 6FF30E02 		bfc	r2, #0, #15
 277 0228 1344     		add	r3, r3, r2
 278              	.L28:
 279 022a 069A     		ldr	r2, [sp, #24]
 280 022c 02FB03F3 		mul	r3, r2, r3
 281 0230 4269     		ldr	r2, [r0, #20]
 282 0232 5B12     		asrs	r3, r3, #9
 283 0234 B2F5007F 		cmp	r2, #512
 284 0238 0592     		str	r2, [sp, #20]
 285 023a 43F00103 		orr	r3, r3, #1
ARM GAS  /tmp/ccONvy4E.s 			page 7


 286 023e A6EB0303 		sub	r3, r6, r3
 287 0242 0193     		str	r3, [sp, #4]
 288 0244 CAF81830 		str	r3, [r10, #24]
 289 0248 7B69     		ldr	r3, [r7, #20]
 290 024a 0B93     		str	r3, [sp, #44]
 291 024c 07DB     		blt	.L29
 292 024e A2F50073 		sub	r3, r2, #512
 293 0252 A2F58062 		sub	r2, r2, #1024
 294 0256 6FF30903 		bfc	r3, #0, #10
 295 025a D31A     		subs	r3, r2, r3
 296 025c 0593     		str	r3, [sp, #20]
 297              	.L29:
 298 025e 059A     		ldr	r2, [sp, #20]
 299 0260 12F5007F 		cmn	r2, #512
 300 0264 08DA     		bge	.L30
 301 0266 6FF40073 		mvn	r3, #512
 302 026a 9B1A     		subs	r3, r3, r2
 303 026c 02F58062 		add	r2, r2, #1024
 304 0270 6FF30903 		bfc	r3, #0, #10
 305 0274 D318     		adds	r3, r2, r3
 306 0276 0593     		str	r3, [sp, #20]
 307              	.L30:
 308 0278 0B9B     		ldr	r3, [sp, #44]
 309 027a B3F5804F 		cmp	r3, #16384
 310 027e C0F27C82 		blt	.L74
 311 0282 A3F58042 		sub	r2, r3, #16384
 312 0286 A3F50043 		sub	r3, r3, #32768
 313 028a 6FF30E02 		bfc	r2, #0, #15
 314 028e 9B1A     		subs	r3, r3, r2
 315              	.L31:
 316 0290 13F5804F 		cmn	r3, #16384
 317 0294 07DA     		bge	.L32
 318 0296 6FF48042 		mvn	r2, #16384
 319 029a D21A     		subs	r2, r2, r3
 320 029c 03F50043 		add	r3, r3, #32768
 321 02a0 6FF30E02 		bfc	r2, #0, #15
 322 02a4 1344     		add	r3, r3, r2
 323              	.L32:
 324 02a6 059A     		ldr	r2, [sp, #20]
 325 02a8 03FB02F5 		mul	r5, r3, r2
 326 02ac 019B     		ldr	r3, [sp, #4]
 327 02ae 0269     		ldr	r2, [r0, #16]
 328 02b0 6D12     		asrs	r5, r5, #9
 329 02b2 B2F5007F 		cmp	r2, #512
 330 02b6 0492     		str	r2, [sp, #16]
 331 02b8 45F00105 		orr	r5, r5, #1
 332 02bc A3EB0505 		sub	r5, r3, r5
 333 02c0 3B69     		ldr	r3, [r7, #16]
 334 02c2 CAF81450 		str	r5, [r10, #20]
 335 02c6 0C93     		str	r3, [sp, #48]
 336 02c8 07DB     		blt	.L33
 337 02ca A2F50073 		sub	r3, r2, #512
 338 02ce A2F58062 		sub	r2, r2, #1024
 339 02d2 6FF30903 		bfc	r3, #0, #10
 340 02d6 D31A     		subs	r3, r2, r3
 341 02d8 0493     		str	r3, [sp, #16]
 342              	.L33:
ARM GAS  /tmp/ccONvy4E.s 			page 8


 343 02da 049A     		ldr	r2, [sp, #16]
 344 02dc 12F5007F 		cmn	r2, #512
 345 02e0 08DA     		bge	.L34
 346 02e2 6FF40073 		mvn	r3, #512
 347 02e6 9B1A     		subs	r3, r3, r2
 348 02e8 02F58062 		add	r2, r2, #1024
 349 02ec 6FF30903 		bfc	r3, #0, #10
 350 02f0 D318     		adds	r3, r2, r3
 351 02f2 0493     		str	r3, [sp, #16]
 352              	.L34:
 353 02f4 0C9B     		ldr	r3, [sp, #48]
 354 02f6 B3F5804F 		cmp	r3, #16384
 355 02fa C0F24082 		blt	.L75
 356 02fe A3F58042 		sub	r2, r3, #16384
 357 0302 A3F50043 		sub	r3, r3, #32768
 358 0306 6FF30E02 		bfc	r2, #0, #15
 359 030a 9B1A     		subs	r3, r3, r2
 360              	.L35:
 361 030c 13F5804F 		cmn	r3, #16384
 362 0310 12DA     		bge	.L36
 363 0312 6FF48042 		mvn	r2, #16384
 364 0316 D21A     		subs	r2, r2, r3
 365 0318 03F50043 		add	r3, r3, #32768
 366 031c 6FF30E02 		bfc	r2, #0, #15
 367 0320 1344     		add	r3, r3, r2
 368 0322 09E0     		b	.L83
 369              	.L84:
 370              		.align	2
 371              	.L82:
 372 0324 00000000 		.word	m_previous_energy
 373 0328 00000000 		.word	m_excitation_data
 374 032c 00000000 		.word	m_current_k
 375 0330 00000000 		.word	m_x
 376 0334 00000000 		.word	m_u
 377              	.L83:
 378              	.L36:
 379 0338 049A     		ldr	r2, [sp, #16]
 380 033a 03FB02F4 		mul	r4, r3, r2
 381 033e C268     		ldr	r2, [r0, #12]
 382 0340 FB68     		ldr	r3, [r7, #12]
 383 0342 6412     		asrs	r4, r4, #9
 384 0344 B2F5007F 		cmp	r2, #512
 385 0348 0392     		str	r2, [sp, #12]
 386 034a 44F00104 		orr	r4, r4, #1
 387 034e 0D93     		str	r3, [sp, #52]
 388 0350 A5EB0404 		sub	r4, r5, r4
 389 0354 CAF81040 		str	r4, [r10, #16]
 390 0358 07DB     		blt	.L37
 391 035a A2F50073 		sub	r3, r2, #512
 392 035e A2F58062 		sub	r2, r2, #1024
 393 0362 6FF30903 		bfc	r3, #0, #10
 394 0366 D31A     		subs	r3, r2, r3
 395 0368 0393     		str	r3, [sp, #12]
 396              	.L37:
 397 036a 039A     		ldr	r2, [sp, #12]
 398 036c 12F5007F 		cmn	r2, #512
 399 0370 08DA     		bge	.L38
ARM GAS  /tmp/ccONvy4E.s 			page 9


 400 0372 6FF40073 		mvn	r3, #512
 401 0376 9B1A     		subs	r3, r3, r2
 402 0378 02F58062 		add	r2, r2, #1024
 403 037c 6FF30903 		bfc	r3, #0, #10
 404 0380 D318     		adds	r3, r2, r3
 405 0382 0393     		str	r3, [sp, #12]
 406              	.L38:
 407 0384 0D9B     		ldr	r3, [sp, #52]
 408 0386 B3F5804F 		cmp	r3, #16384
 409 038a C0F2FA81 		blt	.L76
 410 038e A3F58042 		sub	r2, r3, #16384
 411 0392 A3F50043 		sub	r3, r3, #32768
 412 0396 6FF30E02 		bfc	r2, #0, #15
 413 039a 9B1A     		subs	r3, r3, r2
 414              	.L39:
 415 039c 13F5804F 		cmn	r3, #16384
 416 03a0 07DA     		bge	.L40
 417 03a2 6FF48042 		mvn	r2, #16384
 418 03a6 D21A     		subs	r2, r2, r3
 419 03a8 03F50043 		add	r3, r3, #32768
 420 03ac 6FF30E02 		bfc	r2, #0, #15
 421 03b0 1344     		add	r3, r3, r2
 422              	.L40:
 423 03b2 039A     		ldr	r2, [sp, #12]
 424 03b4 D0F80880 		ldr	r8, [r0, #8]
 425 03b8 03FB02F1 		mul	r1, r3, r2
 426 03bc BB68     		ldr	r3, [r7, #8]
 427 03be B8F5007F 		cmp	r8, #512
 428 03c2 4FEA6121 		asr	r1, r1, #9
 429 03c6 0E93     		str	r3, [sp, #56]
 430 03c8 41F00101 		orr	r1, r1, #1
 431 03cc A4EB0101 		sub	r1, r4, r1
 432 03d0 CAF80C10 		str	r1, [r10, #12]
 433 03d4 07DB     		blt	.L41
 434 03d6 A8F50073 		sub	r3, r8, #512
 435 03da A8F58068 		sub	r8, r8, #1024
 436 03de 6FF30903 		bfc	r3, #0, #10
 437 03e2 A8EB0308 		sub	r8, r8, r3
 438              	.L41:
 439 03e6 18F5007F 		cmn	r8, #512
 440 03ea 08DA     		bge	.L42
 441 03ec 6FF40073 		mvn	r3, #512
 442 03f0 A3EB0803 		sub	r3, r3, r8
 443 03f4 08F58068 		add	r8, r8, #1024
 444 03f8 6FF30903 		bfc	r3, #0, #10
 445 03fc 9844     		add	r8, r8, r3
 446              	.L42:
 447 03fe 0E9B     		ldr	r3, [sp, #56]
 448 0400 B3F5804F 		cmp	r3, #16384
 449 0404 C0F2BF81 		blt	.L77
 450 0408 A3F58042 		sub	r2, r3, #16384
 451 040c A3F50043 		sub	r3, r3, #32768
 452 0410 6FF30E02 		bfc	r2, #0, #15
 453 0414 9B1A     		subs	r3, r3, r2
 454              	.L43:
 455 0416 13F5804F 		cmn	r3, #16384
 456 041a 07DA     		bge	.L44
ARM GAS  /tmp/ccONvy4E.s 			page 10


 457 041c 6FF48042 		mvn	r2, #16384
 458 0420 D21A     		subs	r2, r2, r3
 459 0422 03F50043 		add	r3, r3, #32768
 460 0426 6FF30E02 		bfc	r2, #0, #15
 461 042a 1344     		add	r3, r3, r2
 462              	.L44:
 463 042c 03FB08F2 		mul	r2, r3, r8
 464 0430 D0F804E0 		ldr	lr, [r0, #4]
 465 0434 7B68     		ldr	r3, [r7, #4]
 466 0436 5212     		asrs	r2, r2, #9
 467 0438 BEF5007F 		cmp	lr, #512
 468 043c 0F93     		str	r3, [sp, #60]
 469 043e 42F00102 		orr	r2, r2, #1
 470 0442 A1EB0202 		sub	r2, r1, r2
 471 0446 CAF80820 		str	r2, [r10, #8]
 472 044a 07DB     		blt	.L45
 473 044c AEF50073 		sub	r3, lr, #512
 474 0450 AEF5806E 		sub	lr, lr, #1024
 475 0454 6FF30903 		bfc	r3, #0, #10
 476 0458 AEEB030E 		sub	lr, lr, r3
 477              	.L45:
 478 045c 1EF5007F 		cmn	lr, #512
 479 0460 08DA     		bge	.L46
 480 0462 6FF40073 		mvn	r3, #512
 481 0466 A3EB0E03 		sub	r3, r3, lr
 482 046a 0EF5806E 		add	lr, lr, #1024
 483 046e 6FF30903 		bfc	r3, #0, #10
 484 0472 9E44     		add	lr, lr, r3
 485              	.L46:
 486 0474 0F9B     		ldr	r3, [sp, #60]
 487 0476 B3F5804F 		cmp	r3, #16384
 488 047a C0F28681 		blt	.L78
 489 047e A3F5804C 		sub	ip, r3, #16384
 490 0482 A3F50043 		sub	r3, r3, #32768
 491 0486 6FF30E0C 		bfc	ip, #0, #15
 492 048a A3EB0C03 		sub	r3, r3, ip
 493              	.L47:
 494 048e 13F5804F 		cmn	r3, #16384
 495 0492 08DA     		bge	.L48
 496 0494 6FF4804C 		mvn	ip, #16384
 497 0498 ACEB030C 		sub	ip, ip, r3
 498 049c 03F50043 		add	r3, r3, #32768
 499 04a0 6FF30E0C 		bfc	ip, #0, #15
 500 04a4 6344     		add	r3, r3, ip
 501              	.L48:
 502 04a6 03FB0EF3 		mul	r3, r3, lr
 503 04aa D0F800C0 		ldr	ip, [r0]
 504 04ae 3868     		ldr	r0, [r7]
 505 04b0 5B12     		asrs	r3, r3, #9
 506 04b2 BCF5007F 		cmp	ip, #512
 507 04b6 1090     		str	r0, [sp, #64]
 508 04b8 43F00103 		orr	r3, r3, #1
 509 04bc A2EB0303 		sub	r3, r2, r3
 510 04c0 CAF80430 		str	r3, [r10, #4]
 511 04c4 07DB     		blt	.L49
 512 04c6 ACF50070 		sub	r0, ip, #512
 513 04ca ACF5806C 		sub	ip, ip, #1024
ARM GAS  /tmp/ccONvy4E.s 			page 11


 514 04ce 6FF30900 		bfc	r0, #0, #10
 515 04d2 ACEB000C 		sub	ip, ip, r0
 516              	.L49:
 517 04d6 1CF5007F 		cmn	ip, #512
 518 04da 08DA     		bge	.L50
 519 04dc 6FF40070 		mvn	r0, #512
 520 04e0 A0EB0C00 		sub	r0, r0, ip
 521 04e4 0CF5806C 		add	ip, ip, #1024
 522 04e8 6FF30900 		bfc	r0, #0, #10
 523 04ec 8444     		add	ip, ip, r0
 524              	.L50:
 525 04ee 1098     		ldr	r0, [sp, #64]
 526 04f0 B0F5804F 		cmp	r0, #16384
 527 04f4 C0F24B81 		blt	.L79
 528 04f8 A0F5804B 		sub	fp, r0, #16384
 529 04fc A0F50040 		sub	r0, r0, #32768
 530 0500 6FF30E0B 		bfc	fp, #0, #15
 531 0504 A0EB0B00 		sub	r0, r0, fp
 532              	.L51:
 533 0508 10F5804F 		cmn	r0, #16384
 534 050c 08DA     		bge	.L52
 535 050e 6FF4804B 		mvn	fp, #16384
 536 0512 ABEB000B 		sub	fp, fp, r0
 537 0516 00F50040 		add	r0, r0, #32768
 538 051a 6FF30E0B 		bfc	fp, #0, #15
 539 051e 5844     		add	r0, r0, fp
 540              	.L52:
 541 0520 00FB0CF0 		mul	r0, r0, ip
 542 0524 4012     		asrs	r0, r0, #9
 543 0526 40F00100 		orr	r0, r0, #1
 544 052a 181A     		subs	r0, r3, r0
 545 052c 1190     		str	r0, [sp, #68]
 546 052e CAF80000 		str	r0, [r10]
 547 0532 0298     		ldr	r0, [sp, #8]
 548 0534 B0F5804F 		cmp	r0, #16384
 549 0538 C0F22B81 		blt	.L53
 550 053c A0F50040 		sub	r0, r0, #32768
 551 0540 0290     		str	r0, [sp, #8]
 552              	.L54:
 553 0542 0298     		ldr	r0, [sp, #8]
 554 0544 B6F5804F 		cmp	r6, #16384
 555 0548 09FB00F9 		mul	r9, r9, r0
 556 054c 0898     		ldr	r0, [sp, #32]
 557 054e 4FEA6929 		asr	r9, r9, #9
 558 0552 49F00109 		orr	r9, r9, #1
 559 0556 8144     		add	r9, r9, r0
 560 0558 C7F82490 		str	r9, [r7, #36]
 561 055c 0ADB     		blt	.L55
 562 055e A6F58049 		sub	r9, r6, #16384
 563 0562 A6F50046 		sub	r6, r6, #32768
 564 0566 4FEAD939 		lsr	r9, r9, #15
 565 056a C9F10009 		rsb	r9, r9, #0
 566 056e 6FF30E09 		bfc	r9, #0, #15
 567 0572 4E44     		add	r6, r6, r9
 568              	.L55:
 569 0574 16F5804F 		cmn	r6, #16384
 570 0578 08DA     		bge	.L56
ARM GAS  /tmp/ccONvy4E.s 			page 12


 571 057a 6FF48049 		mvn	r9, #16384
 572 057e A9EB0609 		sub	r9, r9, r6
 573 0582 06F50046 		add	r6, r6, #32768
 574 0586 6FF30E09 		bfc	r9, #0, #15
 575 058a 4E44     		add	r6, r6, r9
 576              	.L56:
 577 058c 0798     		ldr	r0, [sp, #28]
 578 058e 00FB06F6 		mul	r6, r0, r6
 579 0592 0998     		ldr	r0, [sp, #36]
 580 0594 7612     		asrs	r6, r6, #9
 581 0596 46F00106 		orr	r6, r6, #1
 582 059a 0644     		add	r6, r6, r0
 583 059c 0198     		ldr	r0, [sp, #4]
 584 059e B0F5804F 		cmp	r0, #16384
 585 05a2 3E62     		str	r6, [r7, #32]
 586 05a4 0ADB     		blt	.L57
 587 05a6 A0F58046 		sub	r6, r0, #16384
 588 05aa A0F50049 		sub	r9, r0, #32768
 589 05ae F60B     		lsrs	r6, r6, #15
 590 05b0 7642     		rsbs	r6, r6, #0
 591 05b2 6FF30E06 		bfc	r6, #0, #15
 592 05b6 06EB0900 		add	r0, r6, r9
 593 05ba 0190     		str	r0, [sp, #4]
 594              	.L57:
 595 05bc 0198     		ldr	r0, [sp, #4]
 596 05be 10F5804F 		cmn	r0, #16384
 597 05c2 09DA     		bge	.L58
 598 05c4 6FF48046 		mvn	r6, #16384
 599 05c8 00F50049 		add	r9, r0, #32768
 600 05cc 361A     		subs	r6, r6, r0
 601 05ce 6FF30E06 		bfc	r6, #0, #15
 602 05d2 06EB0900 		add	r0, r6, r9
 603 05d6 0190     		str	r0, [sp, #4]
 604              	.L58:
 605 05d8 0698     		ldr	r0, [sp, #24]
 606 05da B5F5804F 		cmp	r5, #16384
 607 05de 019E     		ldr	r6, [sp, #4]
 608 05e0 00FB06F6 		mul	r6, r0, r6
 609 05e4 0A98     		ldr	r0, [sp, #40]
 610 05e6 4FEA6626 		asr	r6, r6, #9
 611 05ea 46F00106 		orr	r6, r6, #1
 612 05ee 0644     		add	r6, r6, r0
 613 05f0 FE61     		str	r6, [r7, #28]
 614 05f2 06DB     		blt	.L59
 615 05f4 A5F58046 		sub	r6, r5, #16384
 616 05f8 A5F50045 		sub	r5, r5, #32768
 617 05fc 6FF30E06 		bfc	r6, #0, #15
 618 0600 AD1B     		subs	r5, r5, r6
 619              	.L59:
 620 0602 15F5804F 		cmn	r5, #16384
 621 0606 07DA     		bge	.L60
 622 0608 6FF48046 		mvn	r6, #16384
 623 060c 761B     		subs	r6, r6, r5
 624 060e 05F50045 		add	r5, r5, #32768
 625 0612 6FF30E06 		bfc	r6, #0, #15
 626 0616 3544     		add	r5, r5, r6
 627              	.L60:
ARM GAS  /tmp/ccONvy4E.s 			page 13


 628 0618 0598     		ldr	r0, [sp, #20]
 629 061a B4F5804F 		cmp	r4, #16384
 630 061e 00FB05F5 		mul	r5, r0, r5
 631 0622 0B98     		ldr	r0, [sp, #44]
 632 0624 4FEA6525 		asr	r5, r5, #9
 633 0628 45F00105 		orr	r5, r5, #1
 634 062c 0544     		add	r5, r5, r0
 635 062e BD61     		str	r5, [r7, #24]
 636 0630 06DB     		blt	.L61
 637 0632 A4F58045 		sub	r5, r4, #16384
 638 0636 A4F50044 		sub	r4, r4, #32768
 639 063a 6FF30E05 		bfc	r5, #0, #15
 640 063e 641B     		subs	r4, r4, r5
 641              	.L61:
 642 0640 14F5804F 		cmn	r4, #16384
 643 0644 07DA     		bge	.L62
 644 0646 6FF48045 		mvn	r5, #16384
 645 064a 2D1B     		subs	r5, r5, r4
 646 064c 04F50044 		add	r4, r4, #32768
 647 0650 6FF30E05 		bfc	r5, #0, #15
 648 0654 2C44     		add	r4, r4, r5
 649              	.L62:
 650 0656 0498     		ldr	r0, [sp, #16]
 651 0658 B1F5804F 		cmp	r1, #16384
 652 065c 00FB04F4 		mul	r4, r0, r4
 653 0660 0C98     		ldr	r0, [sp, #48]
 654 0662 4FEA6424 		asr	r4, r4, #9
 655 0666 44F00104 		orr	r4, r4, #1
 656 066a 0444     		add	r4, r4, r0
 657 066c 7C61     		str	r4, [r7, #20]
 658 066e 06DB     		blt	.L63
 659 0670 A1F58044 		sub	r4, r1, #16384
 660 0674 A1F50041 		sub	r1, r1, #32768
 661 0678 6FF30E04 		bfc	r4, #0, #15
 662 067c 091B     		subs	r1, r1, r4
 663              	.L63:
 664 067e 11F5804F 		cmn	r1, #16384
 665 0682 07DA     		bge	.L64
 666 0684 6FF48044 		mvn	r4, #16384
 667 0688 641A     		subs	r4, r4, r1
 668 068a 01F50041 		add	r1, r1, #32768
 669 068e 6FF30E04 		bfc	r4, #0, #15
 670 0692 2144     		add	r1, r1, r4
 671              	.L64:
 672 0694 0398     		ldr	r0, [sp, #12]
 673 0696 B2F5804F 		cmp	r2, #16384
 674 069a 00FB01F1 		mul	r1, r0, r1
 675 069e 0D98     		ldr	r0, [sp, #52]
 676 06a0 4FEA6121 		asr	r1, r1, #9
 677 06a4 41F00101 		orr	r1, r1, #1
 678 06a8 0144     		add	r1, r1, r0
 679 06aa 3961     		str	r1, [r7, #16]
 680 06ac 06DB     		blt	.L65
 681 06ae A2F58041 		sub	r1, r2, #16384
 682 06b2 A2F50042 		sub	r2, r2, #32768
 683 06b6 6FF30E01 		bfc	r1, #0, #15
 684 06ba 521A     		subs	r2, r2, r1
ARM GAS  /tmp/ccONvy4E.s 			page 14


 685              	.L65:
 686 06bc 12F5804F 		cmn	r2, #16384
 687 06c0 07DA     		bge	.L66
 688 06c2 6FF48041 		mvn	r1, #16384
 689 06c6 891A     		subs	r1, r1, r2
 690 06c8 02F50042 		add	r2, r2, #32768
 691 06cc 6FF30E01 		bfc	r1, #0, #15
 692 06d0 0A44     		add	r2, r2, r1
 693              	.L66:
 694 06d2 08FB02F2 		mul	r2, r8, r2
 695 06d6 0E99     		ldr	r1, [sp, #56]
 696 06d8 B3F5804F 		cmp	r3, #16384
 697 06dc 4FEA6222 		asr	r2, r2, #9
 698 06e0 42F00102 		orr	r2, r2, #1
 699 06e4 0A44     		add	r2, r2, r1
 700 06e6 FA60     		str	r2, [r7, #12]
 701 06e8 06DB     		blt	.L67
 702 06ea A3F58042 		sub	r2, r3, #16384
 703 06ee A3F50043 		sub	r3, r3, #32768
 704 06f2 6FF30E02 		bfc	r2, #0, #15
 705 06f6 9B1A     		subs	r3, r3, r2
 706              	.L67:
 707 06f8 13F5804F 		cmn	r3, #16384
 708 06fc 07DA     		bge	.L68
 709 06fe 6FF48042 		mvn	r2, #16384
 710 0702 D21A     		subs	r2, r2, r3
 711 0704 03F50043 		add	r3, r3, #32768
 712 0708 6FF30E02 		bfc	r2, #0, #15
 713 070c 1344     		add	r3, r3, r2
 714              	.L68:
 715 070e 0EFB03F3 		mul	r3, lr, r3
 716 0712 0F9A     		ldr	r2, [sp, #60]
 717 0714 5B12     		asrs	r3, r3, #9
 718 0716 43F00103 		orr	r3, r3, #1
 719 071a 1344     		add	r3, r3, r2
 720 071c BB60     		str	r3, [r7, #8]
 721 071e 119B     		ldr	r3, [sp, #68]
 722 0720 B3F5804F 		cmp	r3, #16384
 723 0724 46DB     		blt	.L80
 724 0726 A3F58042 		sub	r2, r3, #16384
 725 072a A3F50043 		sub	r3, r3, #32768
 726 072e 6FF30E02 		bfc	r2, #0, #15
 727 0732 9B1A     		subs	r3, r3, r2
 728              	.L69:
 729 0734 13F5804F 		cmn	r3, #16384
 730 0738 07DA     		bge	.L70
 731 073a 6FF48042 		mvn	r2, #16384
 732 073e D21A     		subs	r2, r2, r3
 733 0740 03F50043 		add	r3, r3, #32768
 734 0744 6FF30E02 		bfc	r2, #0, #15
 735 0748 1344     		add	r3, r3, r2
 736              	.L70:
 737 074a 0CFB03F3 		mul	r3, ip, r3
 738 074e 119A     		ldr	r2, [sp, #68]
 739 0750 5B12     		asrs	r3, r3, #9
 740 0752 1046     		mov	r0, r2
 741 0754 3A60     		str	r2, [r7]
ARM GAS  /tmp/ccONvy4E.s 			page 15


 742 0756 109A     		ldr	r2, [sp, #64]
 743 0758 43F00103 		orr	r3, r3, #1
 744 075c 1344     		add	r3, r3, r2
 745 075e 164A     		ldr	r2, .L85
 746 0760 7B60     		str	r3, [r7, #4]
 747 0762 1268     		ldr	r2, [r2]
 748 0764 154B     		ldr	r3, .L85+4
 749 0766 1A80     		strh	r2, [r3]	@ movhi
 750 0768 13B0     		add	sp, sp, #76
 751              		@ sp needed
 752 076a BDE8F08F 		pop	{r4, r5, r6, r7, r8, r9, r10, fp, pc}
 753              	.L71:
 754 076e 089B     		ldr	r3, [sp, #32]
 755 0770 D6E4     		b	.L19
 756              	.L72:
 757 0772 099B     		ldr	r3, [sp, #36]
 758 0774 10E5     		b	.L23
 759              	.L73:
 760 0776 0A9B     		ldr	r3, [sp, #40]
 761 0778 4CE5     		b	.L27
 762              	.L74:
 763 077a 0B9B     		ldr	r3, [sp, #44]
 764 077c 88E5     		b	.L31
 765              	.L75:
 766 077e 0C9B     		ldr	r3, [sp, #48]
 767 0780 C4E5     		b	.L35
 768              	.L76:
 769 0782 0D9B     		ldr	r3, [sp, #52]
 770 0784 0AE6     		b	.L39
 771              	.L77:
 772 0786 0E9B     		ldr	r3, [sp, #56]
 773 0788 45E6     		b	.L43
 774              	.L78:
 775 078a 0F9B     		ldr	r3, [sp, #60]
 776 078c 7FE6     		b	.L47
 777              	.L79:
 778 078e 1098     		ldr	r0, [sp, #64]
 779 0790 BAE6     		b	.L51
 780              	.L53:
 781 0792 0298     		ldr	r0, [sp, #8]
 782 0794 10F5804F 		cmn	r0, #16384
 783 0798 BFF6D3AE 		bge	.L54
 784 079c 6FF4804A 		mvn	r10, #16384
 785 07a0 00F5004B 		add	fp, r0, #32768
 786 07a4 AAEB000A 		sub	r10, r10, r0
 787 07a8 6FF30E0A 		bfc	r10, #0, #15
 788 07ac 0AEB0B00 		add	r0, r10, fp
 789 07b0 0290     		str	r0, [sp, #8]
 790 07b2 C6E6     		b	.L54
 791              	.L80:
 792 07b4 119B     		ldr	r3, [sp, #68]
 793 07b6 BDE7     		b	.L69
 794              	.L86:
 795              		.align	2
 796              	.L85:
 797 07b8 00000000 		.word	m_current_energy
 798 07bc 00000000 		.word	m_previous_energy
ARM GAS  /tmp/ccONvy4E.s 			page 16


 799              		.size	lattice_filter, .-lattice_filter
 800              		.section	.text.parse_frame,"ax",%progbits
 801              		.align	1
 802              		.p2align 2,,3
 803              		.global	parse_frame
 804              		.syntax unified
 805              		.thumb
 806              		.thumb_func
 807              		.type	parse_frame, %function
 808              	parse_frame:
 809              		@ args = 0, pretend = 0, frame = 0
 810              		@ frame_needed = 0, uses_anonymous_args = 0
 811 0000 264A     		ldr	r2, .L109
 812 0002 1268     		ldr	r2, [r2]
 813 0004 F8B5     		push	{r3, r4, r5, r6, r7, lr}
 814 0006 042A     		cmp	r2, #4
 815 0008 254B     		ldr	r3, .L109+4
 816 000a 1B78     		ldrb	r3, [r3]	@ zero_extendqisi2
 817 000c 3DD0     		beq	.L96
 818 000e 072A     		cmp	r2, #7
 819 0010 3BD0     		beq	.L96
 820              	.L88:
 821 0012 244A     		ldr	r2, .L109+8
 822 0014 03F00303 		and	r3, r3, #3
 823 0018 D15C     		ldrb	r1, [r2, r3]	@ zero_extendqisi2
 824              	.L90:
 825 001a 234D     		ldr	r5, .L109+12
 826 001c 234A     		ldr	r2, .L109+16
 827 001e 2B68     		ldr	r3, [r5]
 828 0020 1170     		strb	r1, [r2]
 829 0022 9868     		ldr	r0, [r3, #8]
 830 0024 FFF7FEFF 		bl	extract_bits
 831 0028 214B     		ldr	r3, .L109+20
 832 002a C0B2     		uxtb	r0, r0
 833 002c 1870     		strb	r0, [r3]
 834 002e 58B3     		cbz	r0, .L87
 835 0030 0F28     		cmp	r0, #15
 836 0032 29D0     		beq	.L87
 837 0034 0120     		movs	r0, #1
 838 0036 1F4F     		ldr	r7, .L109+24
 839 0038 FFF7FEFF 		bl	extract_bits
 840 003c 2B68     		ldr	r3, [r5]
 841 003e 0446     		mov	r4, r0
 842 0040 D868     		ldr	r0, [r3, #12]
 843 0042 FFF7FEFF 		bl	extract_bits
 844 0046 3870     		strb	r0, [r7]
 845 0048 F4B9     		cbnz	r4, .L87
 846 004a 1B4E     		ldr	r6, .L109+28
 847              	.L94:
 848 004c 221D     		adds	r2, r4, #4
 849 004e 2B68     		ldr	r3, [r5]
 850 0050 0134     		adds	r4, r4, #1
 851 0052 53F82200 		ldr	r0, [r3, r2, lsl #2]
 852 0056 FFF7FEFF 		bl	extract_bits
 853 005a 042C     		cmp	r4, #4
 854 005c 06F8010B 		strb	r0, [r6], #1
 855 0060 F4D1     		bne	.L94
ARM GAS  /tmp/ccONvy4E.s 			page 17


 856 0062 3B78     		ldrb	r3, [r7]	@ zero_extendqisi2
 857 0064 83B1     		cbz	r3, .L87
 858 0066 2B68     		ldr	r3, [r5]
 859 0068 5A68     		ldr	r2, [r3, #4]
 860 006a 042A     		cmp	r2, #4
 861 006c 0CDD     		ble	.L87
 862 006e 134E     		ldr	r6, .L109+32
 863              	.L95:
 864 0070 221D     		adds	r2, r4, #4
 865 0072 0134     		adds	r4, r4, #1
 866 0074 53F82200 		ldr	r0, [r3, r2, lsl #2]
 867 0078 FFF7FEFF 		bl	extract_bits
 868 007c 2B68     		ldr	r3, [r5]
 869 007e 06F8010F 		strb	r0, [r6, #1]!
 870 0082 5A68     		ldr	r2, [r3, #4]
 871 0084 A242     		cmp	r2, r4
 872 0086 F3DC     		bgt	.L95
 873              	.L87:
 874 0088 F8BD     		pop	{r3, r4, r5, r6, r7, pc}
 875              	.L96:
 876 008a 5A07     		lsls	r2, r3, #29
 877 008c C1D5     		bpl	.L88
 878 008e 0220     		movs	r0, #2
 879 0090 FFF7FEFF 		bl	extract_bits
 880 0094 034B     		ldr	r3, .L109+8
 881 0096 195C     		ldrb	r1, [r3, r0]	@ zero_extendqisi2
 882 0098 BFE7     		b	.L90
 883              	.L110:
 884 009a 00BF     		.align	2
 885              	.L109:
 886 009c 00000000 		.word	m_variant
 887 00a0 00000000 		.word	m_c_variant_rate
 888 00a4 00000000 		.word	reload_table
 889 00a8 00000000 		.word	m_coeff
 890 00ac 00000000 		.word	m_IP
 891 00b0 00000000 		.word	m_new_frame_energy_idx
 892 00b4 00000000 		.word	m_new_frame_pitch_idx
 893 00b8 00000000 		.word	m_new_frame_k_idx
 894 00bc 03000000 		.word	m_new_frame_k_idx+3
 895              		.size	parse_frame, .-parse_frame
 896              		.section	.text.parse_frame_bend_5200,"ax",%progbits
 897              		.align	1
 898              		.p2align 2,,3
 899              		.global	parse_frame_bend_5200
 900              		.syntax unified
 901              		.thumb
 902              		.thumb_func
 903              		.type	parse_frame_bend_5200, %function
 904              	parse_frame_bend_5200:
 905              		@ args = 0, pretend = 0, frame = 8
 906              		@ frame_needed = 0, uses_anonymous_args = 0
 907 0000 D34A     		ldr	r2, .L141
 908 0002 D44B     		ldr	r3, .L141+4
 909 0004 1268     		ldr	r2, [r2]
 910 0006 042A     		cmp	r2, #4
 911 0008 2DE9F041 		push	{r4, r5, r6, r7, r8, lr}
 912 000c 82B0     		sub	sp, sp, #8
ARM GAS  /tmp/ccONvy4E.s 			page 18


 913 000e 1B78     		ldrb	r3, [r3]	@ zero_extendqisi2
 914 0010 00F0B581 		beq	.L122
 915 0014 072A     		cmp	r2, #7
 916 0016 00F0B281 		beq	.L122
 917              	.L112:
 918 001a CF4A     		ldr	r2, .L141+8
 919 001c 03F00303 		and	r3, r3, #3
 920 0020 D15C     		ldrb	r1, [r2, r3]	@ zero_extendqisi2
 921              	.L114:
 922 0022 CE4C     		ldr	r4, .L141+12
 923 0024 CE4A     		ldr	r2, .L141+16
 924 0026 2368     		ldr	r3, [r4]
 925 0028 1170     		strb	r1, [r2]
 926 002a 9868     		ldr	r0, [r3, #8]
 927 002c FFF7FEFF 		bl	extract_bits
 928 0030 CC4A     		ldr	r2, .L141+20
 929 0032 C0B2     		uxtb	r0, r0
 930 0034 1070     		strb	r0, [r2]
 931 0036 0028     		cmp	r0, #0
 932 0038 00F09E81 		beq	.L111
 933 003c 0F28     		cmp	r0, #15
 934 003e 00F09B81 		beq	.L111
 935 0042 C94E     		ldr	r6, .L141+24
 936 0044 F7EE006A 		vmov.f32	s13, #1.0e+0
 937 0048 C84D     		ldr	r5, .L141+28
 938 004a 07EE900A 		vmov	s15, r0	@ int
 939 004e 3378     		ldrb	r3, [r6]	@ zero_extendqisi2
 940 0050 0120     		movs	r0, #1
 941 0052 F8EEE77A 		vcvt.f32.s32	s15, s15
 942 0056 DFF81C83 		ldr	r8, .L141+36
 943 005a C3EB0313 		rsb	r3, r3, r3, lsl #4
 944 005e 05EB8313 		add	r3, r5, r3, lsl #6
 945 0062 93ED007A 		vldr.32	s14, [r3]
 946 0066 36EEC77A 		vsub.f32	s14, s13, s14
 947 006a 37EE077A 		vadd.f32	s14, s14, s14
 948 006e 27EE277A 		vmul.f32	s14, s14, s15
 949 0072 FCEEC77A 		vcvt.u32.f32	s15, s14
 950 0076 CDED017A 		vstr.32	s15, [sp, #4]	@ int
 951 007a 9DF80430 		ldrb	r3, [sp, #4]	@ zero_extendqisi2
 952 007e 0E2B     		cmp	r3, #14
 953 0080 28BF     		it	cs
 954 0082 0E23     		movcs	r3, #14
 955 0084 1370     		strb	r3, [r2]
 956 0086 FFF7FEFF 		bl	extract_bits
 957 008a 2368     		ldr	r3, [r4]
 958 008c 0746     		mov	r7, r0
 959 008e D868     		ldr	r0, [r3, #12]
 960 0090 FFF7FEFF 		bl	extract_bits
 961 0094 88F80000 		strb	r0, [r8]
 962 0098 002F     		cmp	r7, #0
 963 009a 40F06D81 		bne	.L111
 964 009e 3378     		ldrb	r3, [r6]	@ zero_extendqisi2
 965 00a0 C0B2     		uxtb	r0, r0
 966 00a2 2268     		ldr	r2, [r4]
 967 00a4 C3EB0313 		rsb	r3, r3, r3, lsl #4
 968 00a8 07EE900A 		vmov	s15, r0	@ int
 969 00ac D168     		ldr	r1, [r2, #12]
ARM GAS  /tmp/ccONvy4E.s 			page 19


 970 00ae 05EB8313 		add	r3, r5, r3, lsl #6
 971 00b2 F8EEE77A 		vcvt.f32.s32	s15, s15
 972 00b6 0529     		cmp	r1, #5
 973 00b8 93ED017A 		vldr.32	s14, [r3, #4]
 974 00bc 76EEC76A 		vsub.f32	s13, s13, s14
 975 00c0 76EEA66A 		vadd.f32	s13, s13, s13
 976 00c4 66EEA76A 		vmul.f32	s13, s13, s15
 977 00c8 FCEEE67A 		vcvt.u32.f32	s15, s13
 978 00cc CDED017A 		vstr.32	s15, [sp, #4]	@ int
 979 00d0 9DF80430 		ldrb	r3, [sp, #4]	@ zero_extendqisi2
 980 00d4 88F80030 		strb	r3, [r8]
 981 00d8 02D1     		bne	.L119
 982 00da 1F2B     		cmp	r3, #31
 983 00dc 00F25881 		bhi	.L140
 984              	.L119:
 985 00e0 3F2B     		cmp	r3, #63
 986 00e2 02D9     		bls	.L120
 987 00e4 3F23     		movs	r3, #63
 988 00e6 88F80030 		strb	r3, [r8]
 989              	.L120:
 990 00ea 1069     		ldr	r0, [r2, #16]
 991 00ec FFF7FEFF 		bl	extract_bits
 992 00f0 3378     		ldrb	r3, [r6]	@ zero_extendqisi2
 993 00f2 C0B2     		uxtb	r0, r0
 994 00f4 2268     		ldr	r2, [r4]
 995 00f6 C3EB0313 		rsb	r3, r3, r3, lsl #4
 996 00fa 9D4F     		ldr	r7, .L141+32
 997 00fc 07EE900A 		vmov	s15, r0	@ int
 998 0100 5069     		ldr	r0, [r2, #20]
 999 0102 05EB8313 		add	r3, r5, r3, lsl #6
 1000 0106 B8EEE77A 		vcvt.f32.s32	s14, s15
 1001 010a D3ED027A 		vldr.32	s15, [r3, #8]
 1002 010e 77EEA77A 		vadd.f32	s15, s15, s15
 1003 0112 67EE877A 		vmul.f32	s15, s15, s14
 1004 0116 FCEEE77A 		vcvt.u32.f32	s15, s15
 1005 011a CDED017A 		vstr.32	s15, [sp, #4]	@ int
 1006 011e 9DF80430 		ldrb	r3, [sp, #4]	@ zero_extendqisi2
 1007 0122 1F2B     		cmp	r3, #31
 1008 0124 28BF     		it	cs
 1009 0126 1F23     		movcs	r3, #31
 1010 0128 3B70     		strb	r3, [r7]
 1011 012a FFF7FEFF 		bl	extract_bits
 1012 012e 3378     		ldrb	r3, [r6]	@ zero_extendqisi2
 1013 0130 C0B2     		uxtb	r0, r0
 1014 0132 C3EB0313 		rsb	r3, r3, r3, lsl #4
 1015 0136 07EE900A 		vmov	s15, r0	@ int
 1016 013a 05EB8313 		add	r3, r5, r3, lsl #6
 1017 013e B8EEE77A 		vcvt.f32.s32	s14, s15
 1018 0142 D3ED037A 		vldr.32	s15, [r3, #12]
 1019 0146 2368     		ldr	r3, [r4]
 1020 0148 77EEA77A 		vadd.f32	s15, s15, s15
 1021 014c 9869     		ldr	r0, [r3, #24]
 1022 014e 67EE877A 		vmul.f32	s15, s15, s14
 1023 0152 FCEEE77A 		vcvt.u32.f32	s15, s15
 1024 0156 CDED017A 		vstr.32	s15, [sp, #4]	@ int
 1025 015a 9DF80430 		ldrb	r3, [sp, #4]	@ zero_extendqisi2
 1026 015e 1F2B     		cmp	r3, #31
ARM GAS  /tmp/ccONvy4E.s 			page 20


 1027 0160 28BF     		it	cs
 1028 0162 1F23     		movcs	r3, #31
 1029 0164 7B70     		strb	r3, [r7, #1]
 1030 0166 FFF7FEFF 		bl	extract_bits
 1031 016a 3378     		ldrb	r3, [r6]	@ zero_extendqisi2
 1032 016c C0B2     		uxtb	r0, r0
 1033 016e C3EB0313 		rsb	r3, r3, r3, lsl #4
 1034 0172 07EE900A 		vmov	s15, r0	@ int
 1035 0176 05EB8313 		add	r3, r5, r3, lsl #6
 1036 017a B8EEE77A 		vcvt.f32.s32	s14, s15
 1037 017e D3ED047A 		vldr.32	s15, [r3, #16]
 1038 0182 2368     		ldr	r3, [r4]
 1039 0184 77EEA77A 		vadd.f32	s15, s15, s15
 1040 0188 D869     		ldr	r0, [r3, #28]
 1041 018a 67EE877A 		vmul.f32	s15, s15, s14
 1042 018e FCEEE77A 		vcvt.u32.f32	s15, s15
 1043 0192 CDED017A 		vstr.32	s15, [sp, #4]	@ int
 1044 0196 9DF80430 		ldrb	r3, [sp, #4]	@ zero_extendqisi2
 1045 019a 0F2B     		cmp	r3, #15
 1046 019c 28BF     		it	cs
 1047 019e 0F23     		movcs	r3, #15
 1048 01a0 BB70     		strb	r3, [r7, #2]
 1049 01a2 FFF7FEFF 		bl	extract_bits
 1050 01a6 3378     		ldrb	r3, [r6]	@ zero_extendqisi2
 1051 01a8 C0B2     		uxtb	r0, r0
 1052 01aa 98F80020 		ldrb	r2, [r8]	@ zero_extendqisi2
 1053 01ae C3EB0313 		rsb	r3, r3, r3, lsl #4
 1054 01b2 07EE900A 		vmov	s15, r0	@ int
 1055 01b6 05EB8313 		add	r3, r5, r3, lsl #6
 1056 01ba B8EEE77A 		vcvt.f32.s32	s14, s15
 1057 01be D3ED057A 		vldr.32	s15, [r3, #20]
 1058 01c2 77EEA77A 		vadd.f32	s15, s15, s15
 1059 01c6 67EE877A 		vmul.f32	s15, s15, s14
 1060 01ca FCEEE77A 		vcvt.u32.f32	s15, s15
 1061 01ce CDED017A 		vstr.32	s15, [sp, #4]	@ int
 1062 01d2 9DF80430 		ldrb	r3, [sp, #4]	@ zero_extendqisi2
 1063 01d6 0F2B     		cmp	r3, #15
 1064 01d8 28BF     		it	cs
 1065 01da 0F23     		movcs	r3, #15
 1066 01dc FB70     		strb	r3, [r7, #3]
 1067 01de 002A     		cmp	r2, #0
 1068 01e0 00F0CA80 		beq	.L111
 1069 01e4 2368     		ldr	r3, [r4]
 1070 01e6 186A     		ldr	r0, [r3, #32]
 1071 01e8 FFF7FEFF 		bl	extract_bits
 1072 01ec 3378     		ldrb	r3, [r6]	@ zero_extendqisi2
 1073 01ee C0B2     		uxtb	r0, r0
 1074 01f0 C3EB0313 		rsb	r3, r3, r3, lsl #4
 1075 01f4 07EE900A 		vmov	s15, r0	@ int
 1076 01f8 05EB8313 		add	r3, r5, r3, lsl #6
 1077 01fc B8EEE77A 		vcvt.f32.s32	s14, s15
 1078 0200 D3ED067A 		vldr.32	s15, [r3, #24]
 1079 0204 77EEA77A 		vadd.f32	s15, s15, s15
 1080 0208 67EE877A 		vmul.f32	s15, s15, s14
 1081 020c FCEEE77A 		vcvt.u32.f32	s15, s15
 1082 0210 CDED017A 		vstr.32	s15, [sp, #4]	@ int
 1083 0214 9DF80430 		ldrb	r3, [sp, #4]	@ zero_extendqisi2
ARM GAS  /tmp/ccONvy4E.s 			page 21


 1084 0218 0F2B     		cmp	r3, #15
 1085 021a 28BF     		it	cs
 1086 021c 0F23     		movcs	r3, #15
 1087 021e 3B71     		strb	r3, [r7, #4]
 1088 0220 2368     		ldr	r3, [r4]
 1089 0222 586A     		ldr	r0, [r3, #36]
 1090 0224 FFF7FEFF 		bl	extract_bits
 1091 0228 3378     		ldrb	r3, [r6]	@ zero_extendqisi2
 1092 022a C0B2     		uxtb	r0, r0
 1093 022c C3EB0313 		rsb	r3, r3, r3, lsl #4
 1094 0230 07EE900A 		vmov	s15, r0	@ int
 1095 0234 05EB8313 		add	r3, r5, r3, lsl #6
 1096 0238 B8EEE77A 		vcvt.f32.s32	s14, s15
 1097 023c D3ED077A 		vldr.32	s15, [r3, #28]
 1098 0240 77EEA77A 		vadd.f32	s15, s15, s15
 1099 0244 67EE877A 		vmul.f32	s15, s15, s14
 1100 0248 FCEEE77A 		vcvt.u32.f32	s15, s15
 1101 024c CDED017A 		vstr.32	s15, [sp, #4]	@ int
 1102 0250 9DF80430 		ldrb	r3, [sp, #4]	@ zero_extendqisi2
 1103 0254 0F2B     		cmp	r3, #15
 1104 0256 28BF     		it	cs
 1105 0258 0F23     		movcs	r3, #15
 1106 025a 7B71     		strb	r3, [r7, #5]
 1107 025c 2368     		ldr	r3, [r4]
 1108 025e 986A     		ldr	r0, [r3, #40]
 1109 0260 FFF7FEFF 		bl	extract_bits
 1110 0264 3378     		ldrb	r3, [r6]	@ zero_extendqisi2
 1111 0266 C0B2     		uxtb	r0, r0
 1112 0268 C3EB0313 		rsb	r3, r3, r3, lsl #4
 1113 026c 07EE900A 		vmov	s15, r0	@ int
 1114 0270 05EB8313 		add	r3, r5, r3, lsl #6
 1115 0274 B8EEE77A 		vcvt.f32.s32	s14, s15
 1116 0278 D3ED087A 		vldr.32	s15, [r3, #32]
 1117 027c 77EEA77A 		vadd.f32	s15, s15, s15
 1118 0280 67EE877A 		vmul.f32	s15, s15, s14
 1119 0284 FCEEE77A 		vcvt.u32.f32	s15, s15
 1120 0288 CDED017A 		vstr.32	s15, [sp, #4]	@ int
 1121 028c 9DF80430 		ldrb	r3, [sp, #4]	@ zero_extendqisi2
 1122 0290 0F2B     		cmp	r3, #15
 1123 0292 28BF     		it	cs
 1124 0294 0F23     		movcs	r3, #15
 1125 0296 BB71     		strb	r3, [r7, #6]
 1126 0298 2368     		ldr	r3, [r4]
 1127 029a D86A     		ldr	r0, [r3, #44]
 1128 029c FFF7FEFF 		bl	extract_bits
 1129 02a0 3378     		ldrb	r3, [r6]	@ zero_extendqisi2
 1130 02a2 C0B2     		uxtb	r0, r0
 1131 02a4 C3EB0313 		rsb	r3, r3, r3, lsl #4
 1132 02a8 07EE900A 		vmov	s15, r0	@ int
 1133 02ac 05EB8313 		add	r3, r5, r3, lsl #6
 1134 02b0 B8EEE77A 		vcvt.f32.s32	s14, s15
 1135 02b4 D3ED097A 		vldr.32	s15, [r3, #36]
 1136 02b8 77EEA77A 		vadd.f32	s15, s15, s15
 1137 02bc 67EE877A 		vmul.f32	s15, s15, s14
 1138 02c0 FCEEE77A 		vcvt.u32.f32	s15, s15
 1139 02c4 CDED017A 		vstr.32	s15, [sp, #4]	@ int
 1140 02c8 9DF80430 		ldrb	r3, [sp, #4]	@ zero_extendqisi2
ARM GAS  /tmp/ccONvy4E.s 			page 22


 1141 02cc 072B     		cmp	r3, #7
 1142 02ce 28BF     		it	cs
 1143 02d0 0723     		movcs	r3, #7
 1144 02d2 FB71     		strb	r3, [r7, #7]
 1145 02d4 2368     		ldr	r3, [r4]
 1146 02d6 186B     		ldr	r0, [r3, #48]
 1147 02d8 FFF7FEFF 		bl	extract_bits
 1148 02dc 2368     		ldr	r3, [r4]
 1149 02de C0B2     		uxtb	r0, r0
 1150 02e0 07EE900A 		vmov	s15, r0	@ int
 1151 02e4 586B     		ldr	r0, [r3, #52]
 1152 02e6 3378     		ldrb	r3, [r6]	@ zero_extendqisi2
 1153 02e8 B8EEE77A 		vcvt.f32.s32	s14, s15
 1154 02ec C3EB0313 		rsb	r3, r3, r3, lsl #4
 1155 02f0 05EB8313 		add	r3, r5, r3, lsl #6
 1156 02f4 D3ED0A7A 		vldr.32	s15, [r3, #40]
 1157 02f8 77EEA77A 		vadd.f32	s15, s15, s15
 1158 02fc 67EE877A 		vmul.f32	s15, s15, s14
 1159 0300 FCEEE77A 		vcvt.u32.f32	s15, s15
 1160 0304 CDED017A 		vstr.32	s15, [sp, #4]	@ int
 1161 0308 9DF80430 		ldrb	r3, [sp, #4]	@ zero_extendqisi2
 1162 030c 072B     		cmp	r3, #7
 1163 030e 28BF     		it	cs
 1164 0310 0723     		movcs	r3, #7
 1165 0312 3B72     		strb	r3, [r7, #8]
 1166 0314 FFF7FEFF 		bl	extract_bits
 1167 0318 3378     		ldrb	r3, [r6]	@ zero_extendqisi2
 1168 031a C0B2     		uxtb	r0, r0
 1169 031c C3EB0313 		rsb	r3, r3, r3, lsl #4
 1170 0320 07EE900A 		vmov	s15, r0	@ int
 1171 0324 05EB8315 		add	r5, r5, r3, lsl #6
 1172 0328 B8EEE77A 		vcvt.f32.s32	s14, s15
 1173 032c D5ED0B7A 		vldr.32	s15, [r5, #44]
 1174 0330 77EEA77A 		vadd.f32	s15, s15, s15
 1175 0334 67EE877A 		vmul.f32	s15, s15, s14
 1176 0338 FCEEE77A 		vcvt.u32.f32	s15, s15
 1177 033c CDED017A 		vstr.32	s15, [sp, #4]	@ int
 1178 0340 9DF80430 		ldrb	r3, [sp, #4]	@ zero_extendqisi2
 1179 0344 072B     		cmp	r3, #7
 1180 0346 88BF     		it	hi
 1181 0348 0723     		movhi	r3, #7
 1182 034a 7B72     		strb	r3, [r7, #9]
 1183 034c 14E0     		b	.L142
 1184              	.L143:
 1185 034e 00BF     		.align	2
 1186              	.L141:
 1187 0350 00000000 		.word	m_variant
 1188 0354 00000000 		.word	m_c_variant_rate
 1189 0358 00000000 		.word	reload_table
 1190 035c 00000000 		.word	m_coeff
 1191 0360 00000000 		.word	m_IP
 1192 0364 00000000 		.word	m_new_frame_energy_idx
 1193 0368 00000000 		.word	_intmode
 1194 036c 00000000 		.word	exy
 1195 0370 00000000 		.word	m_new_frame_k_idx
 1196 0374 00000000 		.word	m_new_frame_pitch_idx
 1197              	.L142:
ARM GAS  /tmp/ccONvy4E.s 			page 23


 1198              	.L111:
 1199 0378 02B0     		add	sp, sp, #8
 1200              		@ sp needed
 1201 037a BDE8F081 		pop	{r4, r5, r6, r7, r8, pc}
 1202              	.L122:
 1203 037e 5A07     		lsls	r2, r3, #29
 1204 0380 7FF54BAE 		bpl	.L112
 1205 0384 0220     		movs	r0, #2
 1206 0386 FFF7FEFF 		bl	extract_bits
 1207 038a 034B     		ldr	r3, .L144
 1208 038c 195C     		ldrb	r1, [r3, r0]	@ zero_extendqisi2
 1209 038e 48E6     		b	.L114
 1210              	.L140:
 1211 0390 1F23     		movs	r3, #31
 1212 0392 88F80030 		strb	r3, [r8]
 1213 0396 A8E6     		b	.L120
 1214              	.L145:
 1215              		.align	2
 1216              	.L144:
 1217 0398 00000000 		.word	reload_table
 1218              		.size	parse_frame_bend_5200, .-parse_frame_bend_5200
 1219              		.section	.text.parse_frame_raw_5100,"ax",%progbits
 1220              		.align	1
 1221              		.p2align 2,,3
 1222              		.global	parse_frame_raw_5100
 1223              		.syntax unified
 1224              		.thumb
 1225              		.thumb_func
 1226              		.type	parse_frame_raw_5100, %function
 1227              	parse_frame_raw_5100:
 1228              		@ args = 0, pretend = 0, frame = 8
 1229              		@ frame_needed = 0, uses_anonymous_args = 0
 1230              		@ link register save eliminated.
 1231 0000 4E4A     		ldr	r2, .L152
 1232 0002 B3EE0F7A 		vmov.f32	s14, #3.1e+1
 1233 0006 4E4B     		ldr	r3, .L152+4
 1234 0008 F3EE0E6A 		vmov.f32	s13, #3.0e+1
 1235 000c 4D49     		ldr	r1, .L152+8
 1236 000e F2EE0E4A 		vmov.f32	s9, #1.5e+1
 1237 0012 F2EE0A7A 		vmov.f32	s15, #1.3e+1
 1238 0016 4C48     		ldr	r0, .L152+12
 1239 0018 D1ED005A 		vldr.32	s11, [r1]
 1240 001c 0021     		movs	r1, #0
 1241 001e F7EE003A 		vmov.f32	s7, #1.0e+0
 1242 0022 65EEA65A 		vmul.f32	s11, s11, s13
 1243 0026 10B4     		push	{r4}
 1244 0028 1278     		ldrb	r2, [r2]	@ zero_extendqisi2
 1245 002a 75EEA35A 		vadd.f32	s11, s11, s7
 1246 002e 83B0     		sub	sp, sp, #12
 1247 0030 464C     		ldr	r4, .L152+16
 1248 0032 C2EB0212 		rsb	r2, r2, r2, lsl #4
 1249 0036 FCEEE55A 		vcvt.u32.f32	s11, s11
 1250 003a 03EB8213 		add	r3, r3, r2, lsl #6
 1251 003e 93ED015A 		vldr.32	s10, [r3, #4]
 1252 0042 93ED026A 		vldr.32	s12, [r3, #8]
 1253 0046 25EE075A 		vmul.f32	s10, s10, s14
 1254 004a D3ED036A 		vldr.32	s13, [r3, #12]
ARM GAS  /tmp/ccONvy4E.s 			page 24


 1255 004e 26EE076A 		vmul.f32	s12, s12, s14
 1256 0052 93ED004A 		vldr.32	s8, [r3]
 1257 0056 66EEA46A 		vmul.f32	s13, s13, s9
 1258 005a 93ED047A 		vldr.32	s14, [r3, #16]
 1259 005e BCEEC55A 		vcvt.u32.f32	s10, s10
 1260 0062 CDED015A 		vstr.32	s11, [sp, #4]	@ int
 1261 0066 24EE274A 		vmul.f32	s8, s8, s15
 1262 006a BCEEC66A 		vcvt.u32.f32	s12, s12
 1263 006e 15EE102A 		vmov	r2, s10	@ int
 1264 0072 27EE247A 		vmul.f32	s14, s14, s9
 1265 0076 FCEEE66A 		vcvt.u32.f32	s13, s13
 1266 007a 62F30701 		bfi	r1, r2, #0, #8
 1267 007e 77EEC47A 		vsub.f32	s15, s15, s8
 1268 0082 16EE102A 		vmov	r2, s12	@ int
 1269 0086 BCEEC77A 		vcvt.u32.f32	s14, s14
 1270 008a 62F30F21 		bfi	r1, r2, #8, #8
 1271 008e 16EE902A 		vmov	r2, s13	@ int
 1272 0092 FCEEE77A 		vcvt.u32.f32	s15, s15
 1273 0096 62F31741 		bfi	r1, r2, #16, #8
 1274 009a 17EE102A 		vmov	r2, s14	@ int
 1275 009e 62F31F61 		bfi	r1, r2, #24, #8
 1276 00a2 17EE902A 		vmov	r2, s15	@ int
 1277 00a6 0132     		adds	r2, r2, #1
 1278 00a8 0270     		strb	r2, [r0]
 1279 00aa 9DF80420 		ldrb	r2, [sp, #4]	@ zero_extendqisi2
 1280 00ae 2848     		ldr	r0, .L152+20
 1281 00b0 2270     		strb	r2, [r4]
 1282 00b2 0160     		str	r1, [r0]
 1283 00b4 EAB3     		cbz	r2, .L146
 1284 00b6 D3ED055A 		vldr.32	s11, [r3, #20]
 1285 00ba B1EE0C5A 		vmov.f32	s10, #7.0e+0
 1286 00be D3ED067A 		vldr.32	s15, [r3, #24]
 1287 00c2 0022     		movs	r2, #0
 1288 00c4 65EEA45A 		vmul.f32	s11, s11, s9
 1289 00c8 93ED076A 		vldr.32	s12, [r3, #28]
 1290 00cc 67EEA47A 		vmul.f32	s15, s15, s9
 1291 00d0 D3ED096A 		vldr.32	s13, [r3, #36]
 1292 00d4 93ED087A 		vldr.32	s14, [r3, #32]
 1293 00d8 26EE246A 		vmul.f32	s12, s12, s9
 1294 00dc FCEEE55A 		vcvt.u32.f32	s11, s11
 1295 00e0 FCEEE77A 		vcvt.u32.f32	s15, s15
 1296 00e4 66EE856A 		vmul.f32	s13, s13, s10
 1297 00e8 27EE057A 		vmul.f32	s14, s14, s10
 1298 00ec 17EE901A 		vmov	r1, s15	@ int
 1299 00f0 D3ED0A7A 		vldr.32	s15, [r3, #40]
 1300 00f4 15EE903A 		vmov	r3, s11	@ int
 1301 00f8 BCEEC66A 		vcvt.u32.f32	s12, s12
 1302 00fc FCEEE66A 		vcvt.u32.f32	s13, s13
 1303 0100 63F30702 		bfi	r2, r3, #0, #8
 1304 0104 67EE857A 		vmul.f32	s15, s15, s10
 1305 0108 BCEEC77A 		vcvt.u32.f32	s14, s14
 1306 010c 16EE103A 		vmov	r3, s12	@ int
 1307 0110 61F30F22 		bfi	r2, r1, #8, #8
 1308 0114 16EE901A 		vmov	r1, s13	@ int
 1309 0118 FCEEE77A 		vcvt.u32.f32	s15, s15
 1310 011c 63F31742 		bfi	r2, r3, #16, #8
 1311 0120 0172     		strb	r1, [r0, #8]
ARM GAS  /tmp/ccONvy4E.s 			page 25


 1312 0122 17EE101A 		vmov	r1, s14	@ int
 1313 0126 17EE903A 		vmov	r3, s15	@ int
 1314 012a 61F31F62 		bfi	r2, r1, #24, #8
 1315 012e 4372     		strb	r3, [r0, #9]
 1316 0130 4260     		str	r2, [r0, #4]
 1317              	.L146:
 1318 0132 03B0     		add	sp, sp, #12
 1319              		@ sp needed
 1320 0134 5DF8044B 		ldr	r4, [sp], #4
 1321 0138 7047     		bx	lr
 1322              	.L153:
 1323 013a 00BF     		.align	2
 1324              	.L152:
 1325 013c 00000000 		.word	_intmode
 1326 0140 00000000 		.word	exy
 1327 0144 00000000 		.word	_selz
 1328 0148 00000000 		.word	m_new_frame_energy_idx
 1329 014c 00000000 		.word	m_new_frame_pitch_idx
 1330 0150 00000000 		.word	m_new_frame_k_idx
 1331              		.size	parse_frame_raw_5100, .-parse_frame_raw_5100
 1332              		.section	.text.parse_frame_raw_5200,"ax",%progbits
 1333              		.align	1
 1334              		.p2align 2,,3
 1335              		.global	parse_frame_raw_5200
 1336              		.syntax unified
 1337              		.thumb
 1338              		.thumb_func
 1339              		.type	parse_frame_raw_5200, %function
 1340              	parse_frame_raw_5200:
 1341              		@ args = 0, pretend = 0, frame = 8
 1342              		@ frame_needed = 0, uses_anonymous_args = 0
 1343              		@ link register save eliminated.
 1344 0000 4E4A     		ldr	r2, .L160
 1345 0002 B3EE0F7A 		vmov.f32	s14, #3.1e+1
 1346 0006 4E4B     		ldr	r3, .L160+4
 1347 0008 F2EE0E4A 		vmov.f32	s9, #1.5e+1
 1348 000c 4D49     		ldr	r1, .L160+8
 1349 000e F2EE0A7A 		vmov.f32	s15, #1.3e+1
 1350 0012 DFED4D6A 		vldr.32	s13, .L160+12
 1351 0016 F7EE003A 		vmov.f32	s7, #1.0e+0
 1352 001a D1ED005A 		vldr.32	s11, [r1]
 1353 001e 0021     		movs	r1, #0
 1354 0020 4A48     		ldr	r0, .L160+16
 1355 0022 65EEA65A 		vmul.f32	s11, s11, s13
 1356 0026 10B4     		push	{r4}
 1357 0028 1278     		ldrb	r2, [r2]	@ zero_extendqisi2
 1358 002a 75EEA35A 		vadd.f32	s11, s11, s7
 1359 002e 83B0     		sub	sp, sp, #12
 1360 0030 474C     		ldr	r4, .L160+20
 1361 0032 C2EB0212 		rsb	r2, r2, r2, lsl #4
 1362 0036 FCEEE55A 		vcvt.u32.f32	s11, s11
 1363 003a 03EB8213 		add	r3, r3, r2, lsl #6
 1364 003e 93ED015A 		vldr.32	s10, [r3, #4]
 1365 0042 93ED026A 		vldr.32	s12, [r3, #8]
 1366 0046 25EE075A 		vmul.f32	s10, s10, s14
 1367 004a D3ED036A 		vldr.32	s13, [r3, #12]
 1368 004e 26EE076A 		vmul.f32	s12, s12, s14
ARM GAS  /tmp/ccONvy4E.s 			page 26


 1369 0052 93ED004A 		vldr.32	s8, [r3]
 1370 0056 66EEA46A 		vmul.f32	s13, s13, s9
 1371 005a 93ED047A 		vldr.32	s14, [r3, #16]
 1372 005e BCEEC55A 		vcvt.u32.f32	s10, s10
 1373 0062 CDED015A 		vstr.32	s11, [sp, #4]	@ int
 1374 0066 24EE274A 		vmul.f32	s8, s8, s15
 1375 006a BCEEC66A 		vcvt.u32.f32	s12, s12
 1376 006e 15EE102A 		vmov	r2, s10	@ int
 1377 0072 27EE247A 		vmul.f32	s14, s14, s9
 1378 0076 FCEEE66A 		vcvt.u32.f32	s13, s13
 1379 007a 62F30701 		bfi	r1, r2, #0, #8
 1380 007e 77EEC47A 		vsub.f32	s15, s15, s8
 1381 0082 16EE102A 		vmov	r2, s12	@ int
 1382 0086 BCEEC77A 		vcvt.u32.f32	s14, s14
 1383 008a 62F30F21 		bfi	r1, r2, #8, #8
 1384 008e 16EE902A 		vmov	r2, s13	@ int
 1385 0092 FCEEE77A 		vcvt.u32.f32	s15, s15
 1386 0096 62F31741 		bfi	r1, r2, #16, #8
 1387 009a 17EE102A 		vmov	r2, s14	@ int
 1388 009e 62F31F61 		bfi	r1, r2, #24, #8
 1389 00a2 17EE902A 		vmov	r2, s15	@ int
 1390 00a6 0132     		adds	r2, r2, #1
 1391 00a8 0270     		strb	r2, [r0]
 1392 00aa 9DF80420 		ldrb	r2, [sp, #4]	@ zero_extendqisi2
 1393 00ae 2948     		ldr	r0, .L160+24
 1394 00b0 2270     		strb	r2, [r4]
 1395 00b2 0160     		str	r1, [r0]
 1396 00b4 EAB3     		cbz	r2, .L154
 1397 00b6 D3ED055A 		vldr.32	s11, [r3, #20]
 1398 00ba B1EE0C5A 		vmov.f32	s10, #7.0e+0
 1399 00be D3ED067A 		vldr.32	s15, [r3, #24]
 1400 00c2 0022     		movs	r2, #0
 1401 00c4 65EEA45A 		vmul.f32	s11, s11, s9
 1402 00c8 93ED076A 		vldr.32	s12, [r3, #28]
 1403 00cc 67EEA47A 		vmul.f32	s15, s15, s9
 1404 00d0 D3ED096A 		vldr.32	s13, [r3, #36]
 1405 00d4 93ED087A 		vldr.32	s14, [r3, #32]
 1406 00d8 26EE246A 		vmul.f32	s12, s12, s9
 1407 00dc FCEEE55A 		vcvt.u32.f32	s11, s11
 1408 00e0 FCEEE77A 		vcvt.u32.f32	s15, s15
 1409 00e4 66EE856A 		vmul.f32	s13, s13, s10
 1410 00e8 27EE057A 		vmul.f32	s14, s14, s10
 1411 00ec 17EE901A 		vmov	r1, s15	@ int
 1412 00f0 D3ED0A7A 		vldr.32	s15, [r3, #40]
 1413 00f4 15EE903A 		vmov	r3, s11	@ int
 1414 00f8 BCEEC66A 		vcvt.u32.f32	s12, s12
 1415 00fc FCEEE66A 		vcvt.u32.f32	s13, s13
 1416 0100 63F30702 		bfi	r2, r3, #0, #8
 1417 0104 67EE857A 		vmul.f32	s15, s15, s10
 1418 0108 BCEEC77A 		vcvt.u32.f32	s14, s14
 1419 010c 16EE103A 		vmov	r3, s12	@ int
 1420 0110 61F30F22 		bfi	r2, r1, #8, #8
 1421 0114 16EE901A 		vmov	r1, s13	@ int
 1422 0118 FCEEE77A 		vcvt.u32.f32	s15, s15
 1423 011c 63F31742 		bfi	r2, r3, #16, #8
 1424 0120 0172     		strb	r1, [r0, #8]
 1425 0122 17EE101A 		vmov	r1, s14	@ int
ARM GAS  /tmp/ccONvy4E.s 			page 27


 1426 0126 17EE903A 		vmov	r3, s15	@ int
 1427 012a 61F31F62 		bfi	r2, r1, #24, #8
 1428 012e 4372     		strb	r3, [r0, #9]
 1429 0130 4260     		str	r2, [r0, #4]
 1430              	.L154:
 1431 0132 03B0     		add	sp, sp, #12
 1432              		@ sp needed
 1433 0134 5DF8044B 		ldr	r4, [sp], #4
 1434 0138 7047     		bx	lr
 1435              	.L161:
 1436 013a 00BF     		.align	2
 1437              	.L160:
 1438 013c 00000000 		.word	_intmode
 1439 0140 00000000 		.word	exy
 1440 0144 00000000 		.word	_selz
 1441 0148 00007842 		.word	1115160576
 1442 014c 00000000 		.word	m_new_frame_energy_idx
 1443 0150 00000000 		.word	m_new_frame_pitch_idx
 1444 0154 00000000 		.word	m_new_frame_k_idx
 1445              		.size	parse_frame_raw_5200, .-parse_frame_raw_5200
 1446              		.section	.text.process,"ax",%progbits
 1447              		.align	1
 1448              		.p2align 2,,3
 1449              		.global	process
 1450              		.syntax unified
 1451              		.thumb
 1452              		.thumb_func
 1453              		.type	process, %function
 1454              	process:
 1455              		@ args = 0, pretend = 0, frame = 16
 1456              		@ frame_needed = 0, uses_anonymous_args = 0
 1457 0000 A84B     		ldr	r3, .L252
 1458 0002 2DE9F04F 		push	{r4, r5, r6, r7, r8, r9, r10, fp, lr}
 1459 0006 1F78     		ldrb	r7, [r3]	@ zero_extendqisi2
 1460 0008 85B0     		sub	sp, sp, #20
 1461 000a A74B     		ldr	r3, .L252+4
 1462 000c DFF81093 		ldr	r9, .L252+124
 1463 0010 1978     		ldrb	r1, [r3]	@ zero_extendqisi2
 1464 0012 A64B     		ldr	r3, .L252+8
 1465 0014 99F80080 		ldrb	r8, [r9]	@ zero_extendqisi2
 1466 0018 1D68     		ldr	r5, [r3]
 1467 001a 6C68     		ldr	r4, [r5, #4]
 1468 001c 002F     		cmp	r7, #0
 1469 001e 00F0D780 		beq	.L163
 1470 0022 A34B     		ldr	r3, .L252+12
 1471 0024 1B78     		ldrb	r3, [r3]	@ zero_extendqisi2
 1472 0026 A3F10103 		sub	r3, #1
 1473 002a B3FA83F3 		clz	r3, r3
 1474 002e 5B09     		lsrs	r3, r3, #5
 1475 0030 0393     		str	r3, [sp, #12]
 1476 0032 A04B     		ldr	r3, .L252+16
 1477 0034 93F800A0 		ldrb	r10, [r3]	@ zero_extendqisi2
 1478 0038 9F4B     		ldr	r3, .L252+20
 1479 003a 1B78     		ldrb	r3, [r3]	@ zero_extendqisi2
 1480 003c 002B     		cmp	r3, #0
 1481 003e 40F0D680 		bne	.L188
 1482              	.L250:
ARM GAS  /tmp/ccONvy4E.s 			page 28


 1483 0042 0323     		movs	r3, #3
 1484 0044 4FF4857E 		mov	lr, #266
 1485 0048 13FB0183 		smlabb	r3, r3, r1, r8
 1486 004c 0293     		str	r3, [sp, #8]
 1487 004e 2623     		movs	r3, #38
 1488 0050 0193     		str	r3, [sp, #4]
 1489              	.L189:
 1490 0052 9A4B     		ldr	r3, .L252+24
 1491 0054 9A49     		ldr	r1, .L252+28
 1492 0056 1B78     		ldrb	r3, [r3]	@ zero_extendqisi2
 1493 0058 9A4E     		ldr	r6, .L252+32
 1494 005a 0846     		mov	r0, r1
 1495 005c 1C33     		adds	r3, r3, #28
 1496 005e 35F81330 		ldrh	r3, [r5, r3, lsl #1]
 1497 0062 0093     		str	r3, [sp]
 1498 0064 984B     		ldr	r3, .L252+36
 1499 0066 1B78     		ldrb	r3, [r3]	@ zero_extendqisi2
 1500 0068 5C33     		adds	r3, r3, #92
 1501 006a 35F813B0 		ldrh	fp, [r5, r3, lsl #1]
 1502 006e 974B     		ldr	r3, .L252+40
 1503 0070 C3F800B0 		str	fp, [r3]
 1504 0074 0023     		movs	r3, #0
 1505              	.L190:
 1506 0076 16F8012B 		ldrb	r2, [r6], #1	@ zero_extendqisi2
 1507 007a 02EB8312 		add	r2, r2, r3, lsl #6
 1508 007e 0133     		adds	r3, r3, #1
 1509 0080 4E32     		adds	r2, r2, #78
 1510 0082 042B     		cmp	r3, #4
 1511 0084 55F82220 		ldr	r2, [r5, r2, lsl #2]
 1512 0088 40F8042B 		str	r2, [r0], #4
 1513 008c F3D1     		bne	.L190
 1514 008e 042C     		cmp	r4, #4
 1515 0090 40F31182 		ble	.L246
 1516 0094 CAF1010C 		rsb	ip, r10, #1
 1517 0098 8D4E     		ldr	r6, .L252+44
 1518 009a 8E48     		ldr	r0, .L252+48
 1519              	.L194:
 1520 009c 16F8012F 		ldrb	r2, [r6, #1]!	@ zero_extendqisi2
 1521 00a0 02EB8312 		add	r2, r2, r3, lsl #6
 1522 00a4 0133     		adds	r3, r3, #1
 1523 00a6 4E32     		adds	r2, r2, #78
 1524 00a8 A342     		cmp	r3, r4
 1525 00aa 55F82220 		ldr	r2, [r5, r2, lsl #2]
 1526 00ae 0CFB02F2 		mul	r2, ip, r2
 1527 00b2 40F8042F 		str	r2, [r0, #4]!
 1528 00b6 F1D1     		bne	.L194
 1529 00b8 874B     		ldr	r3, .L252+52
 1530 00ba 884A     		ldr	r2, .L252+56
 1531 00bc B3F90030 		ldrsh	r3, [r3]
 1532 00c0 B2F90020 		ldrsh	r2, [r2]
 1533 00c4 002F     		cmp	r7, #0
 1534 00c6 40F02F81 		bne	.L192
 1535 00ca 8048     		ldr	r0, .L252+40
 1536 00cc 0260     		str	r2, [r0]
 1537 00ce 844A     		ldr	r2, .L252+60
 1538 00d0 1360     		str	r3, [r2]
 1539              	.L195:
ARM GAS  /tmp/ccONvy4E.s 			page 29


 1540 00d2 844B     		ldr	r3, .L252+64
 1541 00d4 03EB4404 		add	r4, r3, r4, lsl #1
 1542              	.L200:
 1543 00d8 33F9022B 		ldrsh	r2, [r3], #2
 1544 00dc A342     		cmp	r3, r4
 1545 00de 41F8042B 		str	r2, [r1], #4
 1546 00e2 F9D1     		bne	.L200
 1547              	.L187:
 1548 00e4 8048     		ldr	r0, .L252+68
 1549 00e6 BAF1010F 		cmp	r10, #1
 1550 00ea 0388     		ldrh	r3, [r0]
 1551 00ec 00F05881 		beq	.L247
 1552              	.L201:
 1553 00f0 6E4A     		ldr	r2, .L252+8
 1554 00f2 7E4D     		ldr	r5, .L252+72
 1555 00f4 1168     		ldr	r1, [r2]
 1556 00f6 2A88     		ldrh	r2, [r5]
 1557 00f8 322A     		cmp	r2, #50
 1558 00fa 40F26881 		bls	.L203
 1559 00fe 91F99E2B 		ldrsb	r2, [r1, #2974]
 1560 0102 1401     		lsls	r4, r2, #4
 1561              	.L202:
 1562 0104 7A49     		ldr	r1, .L252+76
 1563 0106 0A80     		strh	r2, [r1]	@ movhi
 1564 0108 1421     		movs	r1, #20
 1565              	.L204:
 1566 010a DA08     		lsrs	r2, r3, #3
 1567 010c 0139     		subs	r1, r1, #1
 1568 010e 82EA1332 		eor	r2, r2, r3, lsr #12
 1569 0112 82EA0302 		eor	r2, r2, r3
 1570 0116 82EA9302 		eor	r2, r2, r3, lsr #2
 1571 011a 02F00102 		and	r2, r2, #1
 1572 011e 42EA4303 		orr	r3, r2, r3, lsl #1
 1573 0122 9BB2     		uxth	r3, r3
 1574 0124 F1D1     		bne	.L204
 1575 0126 0380     		strh	r3, [r0]	@ movhi
 1576 0128 20B2     		sxth	r0, r4
 1577 012a 724B     		ldr	r3, .L252+80
 1578 012c 1978     		ldrb	r1, [r3]	@ zero_extendqisi2
 1579 012e 0029     		cmp	r1, #0
 1580 0130 40F0B380 		bne	.L205
 1581 0134 A4B2     		uxth	r4, r4
 1582 0136 E310     		asrs	r3, r4, #3
 1583 0138 C4F38024 		ubfx	r4, r4, #10, #1
 1584 013c 03F0FE03 		and	r3, r3, #254
 1585 0140 2343     		orrs	r3, r3, r4
 1586 0142 43EA0010 		orr	r0, r3, r0, lsl #4
 1587              	.L206:
 1588 0146 08F10108 		add	r8, r8, #1
 1589 014a 6B4B     		ldr	r3, .L252+84
 1590 014c 5FFA88F8 		uxtb	r8, r8
 1591 0150 1A78     		ldrb	r2, [r3]	@ zero_extendqisi2
 1592 0152 B8F1020F 		cmp	r8, #2
 1593 0156 89F80080 		strb	r8, [r9]
 1594 015a 00F02D81 		beq	.L248
 1595 015e B8F1030F 		cmp	r8, #3
 1596 0162 2B88     		ldrh	r3, [r5]
ARM GAS  /tmp/ccONvy4E.s 			page 30


 1597 0164 00F03981 		beq	.L213
 1598              	.L215:
 1599 0168 0133     		adds	r3, r3, #1
 1600 016a 9CB2     		uxth	r4, r3
 1601 016c 07EE104A 		vmov	s14, r4	@ int
 1602              	.L209:
 1603 0170 624B     		ldr	r3, .L252+88
 1604 0172 DFED636A 		vldr.32	s13, .L252+92
 1605 0176 D3ED007A 		vldr.32	s15, [r3]
 1606 017a 67EEA67A 		vmul.f32	s15, s15, s13
 1607 017e FDEEE77A 		vcvt.s32.f32	s15, s15
 1608 0182 17EE903A 		vmov	r3, s15	@ int
 1609 0186 1BB2     		sxth	r3, r3
 1610 0188 7F2B     		cmp	r3, #127
 1611 018a A8BF     		it	ge
 1612 018c 7F23     		movge	r3, #127
 1613 018e 12F00106 		ands	r6, r2, #1
 1614 0192 C3F17F03 		rsb	r3, r3, #127
 1615 0196 1BB2     		sxth	r3, r3
 1616 0198 67D0     		beq	.L219
 1617 019a 4C4A     		ldr	r2, .L252+40
 1618 019c B8EEC77A 		vcvt.f32.s32	s14, s14
 1619 01a0 D2ED007A 		vldr.32	s15, [r2]	@ int
 1620 01a4 574A     		ldr	r2, .L252+96
 1621 01a6 F8EEE77A 		vcvt.f32.s32	s15, s15
 1622 01aa 02EB8303 		add	r3, r2, r3, lsl #2
 1623 01ae D3ED006A 		vldr.32	s13, [r3]
 1624 01b2 67EEA67A 		vmul.f32	s15, s15, s13
 1625 01b6 B4EEE77A 		vcmpe.f32	s14, s15
 1626 01ba F1EE10FA 		vmrs	APSR_nzcv, FPSCR
 1627 01be 69DB     		blt	.L245
 1628 01c0 0022     		movs	r2, #0
 1629              	.L220:
 1630 01c2 2A80     		strh	r2, [r5]	@ movhi
 1631 01c4 0029     		cmp	r1, #0
 1632 01c6 4BD1     		bne	.L222
 1633 01c8 4010     		asrs	r0, r0, #1
 1634              	.L242:
 1635 01ca 05B0     		add	sp, sp, #20
 1636              		@ sp needed
 1637 01cc BDE8F08F 		pop	{r4, r5, r6, r7, r8, r9, r10, fp, pc}
 1638              	.L163:
 1639 01d0 C9B9     		cbnz	r1, .L165
 1640 01d2 B8F1010F 		cmp	r8, #1
 1641 01d6 40F25C81 		bls	.L249
 1642              	.L166:
 1643 01da 364B     		ldr	r3, .L252+16
 1644 01dc 93F800A0 		ldrb	r10, [r3]	@ zero_extendqisi2
 1645              	.L167:
 1646 01e0 0023     		movs	r3, #0
 1647 01e2 0393     		str	r3, [sp, #12]
 1648 01e4 344B     		ldr	r3, .L252+20
 1649 01e6 1B78     		ldrb	r3, [r3]	@ zero_extendqisi2
 1650 01e8 002B     		cmp	r3, #0
 1651 01ea 3FF42AAF 		beq	.L250
 1652              	.L188:
 1653 01ee C3F10302 		rsb	r2, r3, #3
ARM GAS  /tmp/ccONvy4E.s 			page 31


 1654 01f2 A8EB0303 		sub	r3, r8, r3
 1655 01f6 4FF0AF0E 		mov	lr, #175
 1656 01fa 01FB0233 		mla	r3, r1, r2, r3
 1657 01fe 0293     		str	r3, [sp, #8]
 1658 0200 1923     		movs	r3, #25
 1659 0202 0193     		str	r3, [sp, #4]
 1660 0204 25E7     		b	.L189
 1661              	.L165:
 1662 0206 0C29     		cmp	r1, #12
 1663 0208 E7D1     		bne	.L166
 1664 020a B8F1010F 		cmp	r8, #1
 1665 020e E4D1     		bne	.L166
 1666 0210 3D4B     		ldr	r3, .L252+100
 1667 0212 002C     		cmp	r4, #0
 1668 0214 3D49     		ldr	r1, .L252+104
 1669 0216 0246     		mov	r2, r0
 1670 0218 1B78     		ldrb	r3, [r3]	@ zero_extendqisi2
 1671 021a DFF808A1 		ldr	r10, .L252+128
 1672 021e 03F00303 		and	r3, r3, #3
 1673 0222 3B4E     		ldr	r6, .L252+108
 1674 0224 CB5C     		ldrb	r3, [r1, r3]	@ zero_extendqisi2
 1675 0226 1F49     		ldr	r1, .L252
 1676 0228 0B70     		strb	r3, [r1]
 1677 022a 244B     		ldr	r3, .L252+24
 1678 022c 9AF80010 		ldrb	r1, [r10]	@ zero_extendqisi2
 1679 0230 1970     		strb	r1, [r3]
 1680 0232 254B     		ldr	r3, .L252+36
 1681 0234 3178     		ldrb	r1, [r6]	@ zero_extendqisi2
 1682 0236 1970     		strb	r1, [r3]
 1683 0238 0ADD     		ble	.L174
 1684 023a 364C     		ldr	r4, .L252+112
 1685 023c 3946     		mov	r1, r7
 1686 023e 2148     		ldr	r0, .L252+32
 1687              	.L173:
 1688 0240 14F8013B 		ldrb	r3, [r4], #1	@ zero_extendqisi2
 1689 0244 0131     		adds	r1, r1, #1
 1690 0246 00F8013B 		strb	r3, [r0], #1
 1691 024a 6B68     		ldr	r3, [r5, #4]
 1692 024c 8B42     		cmp	r3, r1
 1693 024e F7DC     		bgt	.L173
 1694              	.L174:
 1695 0250 314C     		ldr	r4, .L252+116
 1696 0252 2078     		ldrb	r0, [r4]	@ zero_extendqisi2
 1697 0254 0028     		cmp	r0, #0
 1698 0256 40F05A81 		bne	.L251
 1699 025a 0121     		movs	r1, #1
 1700 025c 1170     		strb	r1, [r2]
 1701 025e B4E7     		b	.L242
 1702              	.L222:
 1703 0260 4000     		lsls	r0, r0, #1
 1704 0262 00B2     		sxth	r0, r0
 1705 0264 05B0     		add	sp, sp, #20
 1706              		@ sp needed
 1707 0266 BDE8F08F 		pop	{r4, r5, r6, r7, r8, r9, r10, fp, pc}
 1708              	.L219:
 1709 026a 12F00202 		ands	r2, r2, #2
 1710 026e 00F0DF80 		beq	.L221
ARM GAS  /tmp/ccONvy4E.s 			page 32


 1711 0272 244A     		ldr	r2, .L252+96
 1712 0274 B8EEC77A 		vcvt.f32.s32	s14, s14
 1713 0278 DFED286A 		vldr.32	s13, .L252+120
 1714 027c 02EB8303 		add	r3, r2, r3, lsl #2
 1715 0280 D3ED007A 		vldr.32	s15, [r3]
 1716 0284 67EEA67A 		vmul.f32	s15, s15, s13
 1717 0288 B4EEE77A 		vcmpe.f32	s14, s15
 1718 028c F1EE10FA 		vmrs	APSR_nzcv, FPSCR
 1719 0290 80F2FD80 		bge	.L226
 1720              	.L245:
 1721 0294 C4F30802 		ubfx	r2, r4, #0, #9
 1722 0298 93E7     		b	.L220
 1723              	.L205:
 1724 029a C4F34424 		ubfx	r4, r4, #9, #5
 1725 029e 44EA4000 		orr	r0, r4, r0, lsl #1
 1726 02a2 50E7     		b	.L206
 1727              	.L253:
 1728              		.align	2
 1729              	.L252:
 1730 02a4 00000000 		.word	m_IP
 1731 02a8 00000000 		.word	m_PC
 1732 02ac 00000000 		.word	m_coeff
 1733 02b0 00000000 		.word	m_inhibit
 1734 02b4 00000000 		.word	m_OLDP
 1735 02b8 00000000 		.word	m_subc_reload
 1736 02bc 00000000 		.word	m_old_frame_energy_idx
 1737 02c0 00000000 		.word	m_current_k
 1738 02c4 00000000 		.word	m_old_frame_k_idx
 1739 02c8 00000000 		.word	m_old_frame_pitch_idx
 1740 02cc 00000000 		.word	m_current_pitch
 1741 02d0 03000000 		.word	m_old_frame_k_idx+3
 1742 02d4 0C000000 		.word	m_current_k+12
 1743 02d8 00000000 		.word	m_target_energy
 1744 02dc 00000000 		.word	m_target_pitch
 1745 02e0 00000000 		.word	m_current_energy
 1746 02e4 00000000 		.word	m_target_k
 1747 02e8 00000000 		.word	m_RNG
 1748 02ec 00000000 		.word	m_pitch_count
 1749 02f0 00000000 		.word	m_excitation_data
 1750 02f4 00000000 		.word	m_digital_select
 1751 02f8 00000000 		.word	modus
 1752 02fc 00000000 		.word	_selz
 1753 0300 00000343 		.word	1124270080
 1754 0304 00000000 		.word	logpitch
 1755 0308 00000000 		.word	m_c_variant_rate
 1756 030c 00000000 		.word	reload_table
 1757 0310 00000000 		.word	m_new_frame_pitch_idx
 1758 0314 00000000 		.word	m_new_frame_k_idx
 1759 0318 00000000 		.word	m_talk_status
 1760 031c 00008042 		.word	1115684864
 1761 0320 00000000 		.word	m_subcycle
 1762 0324 00000000 		.word	m_new_frame_energy_idx
 1763              	.L192:
 1764 0328 009D     		ldr	r5, [sp]
 1765 032a 013F     		subs	r7, r7, #1
 1766 032c 0398     		ldr	r0, [sp, #12]
 1767 032e A2EB0B02 		sub	r2, r2, fp
ARM GAS  /tmp/ccONvy4E.s 			page 33


 1768 0332 A3EB050C 		sub	ip, r3, r5
 1769 0336 07F00707 		and	r7, r7, #7
 1770 033a 80F00100 		eor	r0, r0, #1
 1771 033e 002C     		cmp	r4, #0
 1772 0340 DDE90136 		ldrd	r3, r6, [sp, #4]
 1773 0344 00FB02F2 		mul	r2, r0, r2
 1774 0348 03FB0767 		mla	r7, r3, r7, r6
 1775 034c 00FB0CF3 		mul	r3, r0, ip
 1776 0350 07FB02F2 		mul	r2, r7, r2
 1777 0354 07FB03F3 		mul	r3, r7, r3
 1778 0358 92FBFEF2 		sdiv	r2, r2, lr
 1779 035c 93FBFEF3 		sdiv	r3, r3, lr
 1780 0360 5A44     		add	r2, r2, fp
 1781 0362 2B44     		add	r3, r3, r5
 1782 0364 A24D     		ldr	r5, .L254
 1783 0366 2A60     		str	r2, [r5]
 1784 0368 A24A     		ldr	r2, .L254+4
 1785 036a 1360     		str	r3, [r2]
 1786 036c 7FF7BAAE 		ble	.L187
 1787 0370 01EB8404 		add	r4, r1, r4, lsl #2
 1788 0374 A04A     		ldr	r2, .L254+8
 1789              	.L198:
 1790 0376 0D68     		ldr	r5, [r1]
 1791 0378 32F9023B 		ldrsh	r3, [r2], #2
 1792 037c 5B1B     		subs	r3, r3, r5
 1793 037e 00FB03F3 		mul	r3, r0, r3
 1794 0382 07FB03F3 		mul	r3, r7, r3
 1795 0386 93FBFEF3 		sdiv	r3, r3, lr
 1796 038a 2B44     		add	r3, r3, r5
 1797 038c 41F8043B 		str	r3, [r1], #4
 1798 0390 A142     		cmp	r1, r4
 1799 0392 F0D1     		bne	.L198
 1800 0394 9948     		ldr	r0, .L254+12
 1801 0396 BAF1010F 		cmp	r10, #1
 1802 039a 0388     		ldrh	r3, [r0]
 1803 039c 7FF4A8AE 		bne	.L201
 1804              	.L247:
 1805 03a0 03F00102 		and	r2, r3, #1
 1806 03a4 964C     		ldr	r4, .L254+16
 1807 03a6 974D     		ldr	r5, .L254+20
 1808 03a8 002A     		cmp	r2, #0
 1809 03aa 0ABF     		itet	eq
 1810 03ac 4FF48064 		moveq	r4, #1024
 1811 03b0 6FF03F02 		mvnne	r2, #63
 1812 03b4 4022     		moveq	r2, #64
 1813 03b6 A5E6     		b	.L202
 1814              	.L248:
 1815 03b8 934B     		ldr	r3, .L254+24
 1816 03ba 1B78     		ldrb	r3, [r3]	@ zero_extendqisi2
 1817 03bc 0C2B     		cmp	r3, #12
 1818 03be 00F08B80 		beq	.L208
 1819 03c2 2C88     		ldrh	r4, [r5]
 1820 03c4 0134     		adds	r4, r4, #1
 1821 03c6 A4B2     		uxth	r4, r4
 1822 03c8 07EE104A 		vmov	s14, r4	@ int
 1823 03cc D0E6     		b	.L209
 1824              	.L203:
ARM GAS  /tmp/ccONvy4E.s 			page 34


 1825 03ce 02F29C52 		addw	r2, r2, #1436
 1826 03d2 11F91220 		ldrsb	r2, [r1, r2, lsl #1]
 1827 03d6 1401     		lsls	r4, r2, #4
 1828 03d8 94E6     		b	.L202
 1829              	.L213:
 1830 03da 8C4C     		ldr	r4, .L254+28
 1831 03dc 2478     		ldrb	r4, [r4]	@ zero_extendqisi2
 1832 03de 89F80040 		strb	r4, [r9]
 1833 03e2 12F00404 		ands	r4, r2, #4
 1834 03e6 2DD0     		beq	.L214
 1835 03e8 894C     		ldr	r4, .L254+32
 1836 03ea F7EE007A 		vmov.f32	s15, #1.0e+0
 1837 03ee F3EE016A 		vmov.f32	s13, #1.7e+1
 1838 03f2 884E     		ldr	r6, .L254+36
 1839 03f4 94ED006A 		vldr.32	s12, [r4]
 1840 03f8 B3EE007A 		vmov.f32	s14, #1.6e+1
 1841 03fc 3478     		ldrb	r4, [r6]	@ zero_extendqisi2
 1842 03fe 77EEC67A 		vsub.f32	s15, s15, s12
 1843 0402 67EEA67A 		vmul.f32	s15, s15, s13
 1844 0406 77EE677A 		vsub.f32	s15, s14, s15
 1845 040a 07EE104A 		vmov	s14, r4	@ int
 1846 040e 0134     		adds	r4, r4, #1
 1847 0410 B8EEC77A 		vcvt.f32.s32	s14, s14
 1848 0414 3470     		strb	r4, [r6]
 1849 0416 B4EEE77A 		vcmpe.f32	s14, s15
 1850 041a F1EE10FA 		vmrs	APSR_nzcv, FPSCR
 1851 041e FFF6A3AE 		blt	.L215
 1852 0422 794F     		ldr	r7, .L254+24
 1853 0424 3C78     		ldrb	r4, [r7]	@ zero_extendqisi2
 1854 0426 0134     		adds	r4, r4, #1
 1855 0428 3C70     		strb	r4, [r7]
 1856 042a 0024     		movs	r4, #0
 1857 042c 3470     		strb	r4, [r6]
 1858 042e 9BE6     		b	.L215
 1859              	.L221:
 1860 0430 6F4B     		ldr	r3, .L254
 1861 0432 17EE106A 		vmov	r6, s14	@ int
 1862 0436 1B68     		ldr	r3, [r3]
 1863 0438 B342     		cmp	r3, r6
 1864 043a 7FF7C2AE 		ble	.L220
 1865 043e C4F30802 		ubfx	r2, r4, #0, #9
 1866 0442 BEE6     		b	.L220
 1867              	.L214:
 1868 0444 1607     		lsls	r6, r2, #28
 1869 0446 5DD5     		bpl	.L217
 1870 0448 734E     		ldr	r6, .L254+40
 1871 044a F7EE007A 		vmov.f32	s15, #1.0e+0
 1872 044e F3EE016A 		vmov.f32	s13, #1.7e+1
 1873 0452 704F     		ldr	r7, .L254+36
 1874 0454 96ED006A 		vldr.32	s12, [r6]
 1875 0458 B3EE007A 		vmov.f32	s14, #1.6e+1
 1876 045c 3E78     		ldrb	r6, [r7]	@ zero_extendqisi2
 1877 045e 77EEC67A 		vsub.f32	s15, s15, s12
 1878 0462 67EEA67A 		vmul.f32	s15, s15, s13
 1879 0466 77EE677A 		vsub.f32	s15, s14, s15
 1880 046a 07EE106A 		vmov	s14, r6	@ int
 1881 046e 0136     		adds	r6, r6, #1
ARM GAS  /tmp/ccONvy4E.s 			page 35


 1882 0470 B8EEC77A 		vcvt.f32.s32	s14, s14
 1883 0474 3E70     		strb	r6, [r7]
 1884 0476 B4EEE77A 		vcmpe.f32	s14, s15
 1885 047a F1EE10FA 		vmrs	APSR_nzcv, FPSCR
 1886 047e FFF673AE 		blt	.L215
 1887 0482 614E     		ldr	r6, .L254+24
 1888 0484 3C70     		strb	r4, [r7]
 1889 0486 3478     		ldrb	r4, [r6]	@ zero_extendqisi2
 1890 0488 0134     		adds	r4, r4, #1
 1891 048a 3470     		strb	r4, [r6]
 1892 048c 6CE6     		b	.L215
 1893              	.L226:
 1894 048e 3246     		mov	r2, r6
 1895 0490 97E6     		b	.L220
 1896              	.L249:
 1897 0492 624B     		ldr	r3, .L254+44
 1898 0494 624A     		ldr	r2, .L254+48
 1899 0496 1B78     		ldrb	r3, [r3]	@ zero_extendqisi2
 1900 0498 92F800A0 		ldrb	r10, [r2]	@ zero_extendqisi2
 1901 049c B3FA83F3 		clz	r3, r3
 1902 04a0 604A     		ldr	r2, .L254+52
 1903 04a2 BAFA8AFA 		clz	r10, r10
 1904 04a6 5B09     		lsrs	r3, r3, #5
 1905 04a8 4FEA5A1A 		lsr	r10, r10, #5
 1906 04ac 1370     		strb	r3, [r2]
 1907 04ae 5E4B     		ldr	r3, .L254+56
 1908 04b0 83F800A0 		strb	r10, [r3]
 1909 04b4 94E6     		b	.L167
 1910              	.L246:
 1911 04b6 5D4B     		ldr	r3, .L254+60
 1912 04b8 5D4A     		ldr	r2, .L254+64
 1913 04ba B3F90030 		ldrsh	r3, [r3]
 1914 04be B2F90020 		ldrsh	r2, [r2]
 1915 04c2 002F     		cmp	r7, #0
 1916 04c4 7FF430AF 		bne	.L192
 1917 04c8 4948     		ldr	r0, .L254
 1918 04ca 002C     		cmp	r4, #0
 1919 04cc 0260     		str	r2, [r0]
 1920 04ce 494A     		ldr	r2, .L254+4
 1921 04d0 1360     		str	r3, [r2]
 1922 04d2 3FF7FEAD 		bgt	.L195
 1923 04d6 05E6     		b	.L187
 1924              	.L208:
 1925 04d8 564B     		ldr	r3, .L254+68
 1926 04da 1E78     		ldrb	r6, [r3]	@ zero_extendqisi2
 1927 04dc 072E     		cmp	r6, #7
 1928 04de 73D0     		beq	.L210
 1929              	.L212:
 1930 04e0 2C88     		ldrh	r4, [r5]
 1931 04e2 0134     		adds	r4, r4, #1
 1932 04e4 A4B2     		uxth	r4, r4
 1933 04e6 07EE104A 		vmov	s14, r4	@ int
 1934              	.L211:
 1935 04ea 731C     		adds	r3, r6, #1
 1936 04ec 514E     		ldr	r6, .L254+68
 1937 04ee 03F00703 		and	r3, r3, #7
 1938 04f2 3370     		strb	r3, [r6]
ARM GAS  /tmp/ccONvy4E.s 			page 36


 1939 04f4 454B     		ldr	r3, .L254+28
 1940 04f6 444E     		ldr	r6, .L254+24
 1941 04f8 1B78     		ldrb	r3, [r3]	@ zero_extendqisi2
 1942 04fa 89F80030 		strb	r3, [r9]
 1943 04fe 0023     		movs	r3, #0
 1944 0500 3370     		strb	r3, [r6]
 1945 0502 35E6     		b	.L209
 1946              	.L217:
 1947 0504 404E     		ldr	r6, .L254+24
 1948 0506 3478     		ldrb	r4, [r6]	@ zero_extendqisi2
 1949 0508 0134     		adds	r4, r4, #1
 1950 050a 3470     		strb	r4, [r6]
 1951 050c 2CE6     		b	.L215
 1952              	.L251:
 1953 050e FFF7FEFF 		bl	parse_frame
 1954 0512 9AF80030 		ldrb	r3, [r10]	@ zero_extendqisi2
 1955 0516 0F2B     		cmp	r3, #15
 1956 0518 65D0     		beq	.L176
 1957 051a 2778     		ldrb	r7, [r4]	@ zero_extendqisi2
 1958              	.L177:
 1959 051c 424A     		ldr	r2, .L254+56
 1960 051e 3578     		ldrb	r5, [r6]	@ zero_extendqisi2
 1961 0520 92F800A0 		ldrb	r10, [r2]	@ zero_extendqisi2
 1962 0524 BAF1000F 		cmp	r10, #0
 1963 0528 56D1     		bne	.L178
 1964 052a 65B1     		cbz	r5, .L179
 1965              	.L180:
 1966 052c 3D4A     		ldr	r2, .L254+52
 1967 052e 002B     		cmp	r3, #0
 1968 0530 92F80080 		ldrb	r8, [r2]	@ zero_extendqisi2
 1969 0534 A8F10108 		sub	r8, r8, #1
 1970 0538 B8FA88F8 		clz	r8, r8
 1971 053c 4FEA5818 		lsr	r8, r8, #5
 1972 0540 08BF     		it	eq
 1973 0542 4FF00008 		moveq	r8, #0
 1974              	.L179:
 1975 0546 3C4A     		ldr	r2, .L254+72
 1976 0548 1C33     		adds	r3, r3, #28
 1977 054a 384E     		ldr	r6, .L254+60
 1978 054c 1468     		ldr	r4, [r2]
 1979 054e 05F15C02 		add	r2, r5, #92
 1980 0552 3A49     		ldr	r1, .L254+76
 1981 0554 34F81330 		ldrh	r3, [r4, r3, lsl #1]
 1982 0558 34F81220 		ldrh	r2, [r4, r2, lsl #1]
 1983 055c 3380     		strh	r3, [r6]	@ movhi
 1984 055e 344B     		ldr	r3, .L254+64
 1985 0560 81F80080 		strb	r8, [r1]
 1986 0564 1A80     		strh	r2, [r3]	@ movhi
 1987 0566 0023     		movs	r3, #0
 1988 0568 3548     		ldr	r0, .L254+80
 1989 056a 2349     		ldr	r1, .L254+8
 1990              	.L181:
 1991 056c 10F8012B 		ldrb	r2, [r0], #1	@ zero_extendqisi2
 1992 0570 02EB8312 		add	r2, r2, r3, lsl #6
 1993 0574 0133     		adds	r3, r3, #1
 1994 0576 4E32     		adds	r2, r2, #78
 1995 0578 042B     		cmp	r3, #4
ARM GAS  /tmp/ccONvy4E.s 			page 37


 1996 057a 54F82220 		ldr	r2, [r4, r2, lsl #2]
 1997 057e 21F8022B 		strh	r2, [r1], #2	@ movhi
 1998 0582 F3D1     		bne	.L181
 1999 0584 D4F804C0 		ldr	ip, [r4, #4]
 2000 0588 BCF1040F 		cmp	ip, #4
 2001 058c 15DD     		ble	.L186
 2002 058e 003D     		subs	r5, r5, #0
 2003 0590 2C48     		ldr	r0, .L254+84
 2004 0592 2D49     		ldr	r1, .L254+88
 2005 0594 18BF     		it	ne
 2006 0596 0125     		movne	r5, #1
 2007              	.L185:
 2008 0598 10F8012F 		ldrb	r2, [r0, #1]!	@ zero_extendqisi2
 2009 059c 002D     		cmp	r5, #0
 2010 059e 02EB8312 		add	r2, r2, r3, lsl #6
 2011 05a2 03F10103 		add	r3, r3, #1
 2012 05a6 02F14E02 		add	r2, r2, #78
 2013 05aa 54F82220 		ldr	r2, [r4, r2, lsl #2]
 2014 05ae 08BF     		it	eq
 2015 05b0 0022     		moveq	r2, #0
 2016 05b2 9C45     		cmp	ip, r3
 2017 05b4 21F8022F 		strh	r2, [r1, #2]!	@ movhi
 2018 05b8 EED1     		bne	.L185
 2019              	.L186:
 2020 05ba 99F80080 		ldrb	r8, [r9]	@ zero_extendqisi2
 2021 05be 002F     		cmp	r7, #0
 2022 05c0 7FF490AD 		bne	.L187
 2023 05c4 3780     		strh	r7, [r6]	@ movhi
 2024 05c6 8DE5     		b	.L187
 2025              	.L210:
 2026 05c8 1C4B     		ldr	r3, .L254+76
 2027 05ca 1B78     		ldrb	r3, [r3]	@ zero_extendqisi2
 2028 05cc 012B     		cmp	r3, #1
 2029 05ce 87D1     		bne	.L212
 2030 05d0 07EE103A 		vmov	s14, r3	@ int
 2031 05d4 1C46     		mov	r4, r3
 2032 05d6 88E7     		b	.L211
 2033              	.L178:
 2034 05d8 BAF1010F 		cmp	r10, #1
 2035 05dc A6D1     		bne	.L180
 2036 05de 002D     		cmp	r5, #0
 2037 05e0 A4D0     		beq	.L180
 2038 05e2 D046     		mov	r8, r10
 2039 05e4 AFE7     		b	.L179
 2040              	.L176:
 2041 05e6 0022     		movs	r2, #0
 2042 05e8 1849     		ldr	r1, .L254+92
 2043 05ea 2270     		strb	r2, [r4]
 2044 05ec 0A70     		strb	r2, [r1]
 2045 05ee 95E7     		b	.L177
 2046              	.L255:
 2047              		.align	2
 2048              	.L254:
 2049 05f0 00000000 		.word	m_current_pitch
 2050 05f4 00000000 		.word	m_current_energy
 2051 05f8 00000000 		.word	m_target_k
 2052 05fc 00000000 		.word	m_RNG
ARM GAS  /tmp/ccONvy4E.s 			page 38


 2053 0600 00FCFFFF 		.word	-1024
 2054 0604 00000000 		.word	m_pitch_count
 2055 0608 00000000 		.word	m_PC
 2056 060c 00000000 		.word	m_subc_reload
 2057 0610 00000000 		.word	_selx
 2058 0614 00000000 		.word	counter.0
 2059 0618 00000000 		.word	_sely
 2060 061c 00000000 		.word	m_new_frame_energy_idx
 2061 0620 00000000 		.word	m_new_frame_pitch_idx
 2062 0624 00000000 		.word	m_OLDE
 2063 0628 00000000 		.word	m_OLDP
 2064 062c 00000000 		.word	m_target_energy
 2065 0630 00000000 		.word	m_target_pitch
 2066 0634 00000000 		.word	m_IP
 2067 0638 00000000 		.word	m_coeff
 2068 063c 00000000 		.word	m_inhibit
 2069 0640 00000000 		.word	m_new_frame_k_idx
 2070 0644 03000000 		.word	m_new_frame_k_idx+3
 2071 0648 06000000 		.word	m_target_k+6
 2072 064c 00000000 		.word	m_speak_external
 2073              		.size	process, .-process
 2074              		.section	.text.process_k_tabled5100,"ax",%progbits
 2075              		.align	1
 2076              		.p2align 2,,3
 2077              		.global	process_k_tabled5100
 2078              		.syntax unified
 2079              		.thumb
 2080              		.thumb_func
 2081              		.type	process_k_tabled5100, %function
 2082              	process_k_tabled5100:
 2083              		@ args = 0, pretend = 0, frame = 8
 2084              		@ frame_needed = 0, uses_anonymous_args = 0
 2085 0000 2DE9F04F 		push	{r4, r5, r6, r7, r8, r9, r10, fp, lr}
 2086 0004 944E     		ldr	r6, .L317
 2087 0006 83B0     		sub	sp, sp, #12
 2088 0008 944C     		ldr	r4, .L317+4
 2089 000a 3578     		ldrb	r5, [r6]	@ zero_extendqisi2
 2090 000c 2778     		ldrb	r7, [r4]	@ zero_extendqisi2
 2091 000e 002D     		cmp	r5, #0
 2092 0010 73D0     		beq	.L257
 2093 0012 934B     		ldr	r3, .L317+8
 2094 0014 022F     		cmp	r7, #2
 2095 0016 1B78     		ldrb	r3, [r3]	@ zero_extendqisi2
 2096 0018 A3F10103 		sub	r3, #1
 2097 001c B3FA83F3 		clz	r3, r3
 2098 0020 4FEA5313 		lsr	r3, r3, #5
 2099 0024 71D0     		beq	.L274
 2100              	.L315:
 2101 0026 8F4B     		ldr	r3, .L317+12
 2102              	.L260:
 2103 0028 1B78     		ldrb	r3, [r3]	@ zero_extendqisi2
 2104 002a 8F4F     		ldr	r7, .L317+16
 2105              	.L273:
 2106 002c 8F48     		ldr	r0, .L317+20
 2107 002e 012B     		cmp	r3, #1
 2108 0030 0288     		ldrh	r2, [r0]
 2109 0032 00F09480 		beq	.L312
ARM GAS  /tmp/ccONvy4E.s 			page 39


 2110              	.L278:
 2111 0036 8E4B     		ldr	r3, .L317+24
 2112 0038 8E4D     		ldr	r5, .L317+28
 2113 003a 1968     		ldr	r1, [r3]
 2114 003c 2B88     		ldrh	r3, [r5]
 2115 003e 322B     		cmp	r3, #50
 2116 0040 40F2A880 		bls	.L280
 2117 0044 91F99E3B 		ldrsb	r3, [r1, #2974]
 2118              	.L279:
 2119 0048 8B49     		ldr	r1, .L317+32
 2120 004a 0B80     		strh	r3, [r1]	@ movhi
 2121 004c 1421     		movs	r1, #20
 2122              	.L281:
 2123 004e D308     		lsrs	r3, r2, #3
 2124 0050 0139     		subs	r1, r1, #1
 2125 0052 83EA1233 		eor	r3, r3, r2, lsr #12
 2126 0056 83EA0203 		eor	r3, r3, r2
 2127 005a 83EA9203 		eor	r3, r3, r2, lsr #2
 2128 005e 03F00103 		and	r3, r3, #1
 2129 0062 43EA4202 		orr	r2, r3, r2, lsl #1
 2130 0066 92B2     		uxth	r2, r2
 2131 0068 F1D1     		bne	.L281
 2132 006a 0280     		strh	r2, [r0]	@ movhi
 2133 006c FFF7FEFF 		bl	lattice_filter
 2134 0070 B0F5804F 		cmp	r0, #16384
 2135 0074 06DB     		blt	.L282
 2136 0076 A0F58043 		sub	r3, r0, #16384
 2137 007a A0F50040 		sub	r0, r0, #32768
 2138 007e 6FF30E03 		bfc	r3, #0, #15
 2139 0082 C01A     		subs	r0, r0, r3
 2140              	.L282:
 2141 0084 10F5804F 		cmn	r0, #16384
 2142 0088 07DA     		bge	.L283
 2143 008a 6FF48043 		mvn	r3, #16384
 2144 008e 1B1A     		subs	r3, r3, r0
 2145 0090 00F50040 		add	r0, r0, #32768
 2146 0094 6FF30E03 		bfc	r3, #0, #15
 2147 0098 1844     		add	r0, r0, r3
 2148              	.L283:
 2149 009a 784B     		ldr	r3, .L317+36
 2150 009c 1B78     		ldrb	r3, [r3]	@ zero_extendqisi2
 2151 009e 002B     		cmp	r3, #0
 2152 00a0 65D1     		bne	.L284
 2153 00a2 03B2     		sxth	r3, r0
 2154 00a4 03F30B03 		ssat	r3, #12, r3
 2155 00a8 23F00F03 		bic	r3, r3, #15
 2156 00ac 99B2     		uxth	r1, r3
 2157 00ae CA10     		asrs	r2, r1, #3
 2158 00b0 C1F38021 		ubfx	r1, r1, #10, #1
 2159 00b4 02F0FE02 		and	r2, r2, #254
 2160 00b8 0A43     		orrs	r2, r2, r1
 2161 00ba 42EA0313 		orr	r3, r2, r3, lsl #4
 2162 00be 18B2     		sxth	r0, r3
 2163              	.L285:
 2164 00c0 2378     		ldrb	r3, [r4]	@ zero_extendqisi2
 2165 00c2 0133     		adds	r3, r3, #1
 2166 00c4 DBB2     		uxtb	r3, r3
ARM GAS  /tmp/ccONvy4E.s 			page 40


 2167 00c6 022B     		cmp	r3, #2
 2168 00c8 2370     		strb	r3, [r4]
 2169 00ca 58D0     		beq	.L313
 2170 00cc 032B     		cmp	r3, #3
 2171 00ce 2A88     		ldrh	r2, [r5]
 2172 00d0 06D1     		bne	.L293
 2173 00d2 6B4B     		ldr	r3, .L317+40
 2174 00d4 6B49     		ldr	r1, .L317+44
 2175 00d6 1B78     		ldrb	r3, [r3]	@ zero_extendqisi2
 2176 00d8 2370     		strb	r3, [r4]
 2177 00da 0B78     		ldrb	r3, [r1]	@ zero_extendqisi2
 2178 00dc 0133     		adds	r3, r3, #1
 2179 00de 0B70     		strb	r3, [r1]
 2180              	.L293:
 2181 00e0 531C     		adds	r3, r2, #1
 2182 00e2 9BB2     		uxth	r3, r3
 2183 00e4 1946     		mov	r1, r3
 2184              	.L288:
 2185 00e6 3A68     		ldr	r2, [r7]
 2186 00e8 8A42     		cmp	r2, r1
 2187 00ea CCBF     		ite	gt
 2188 00ec C3F30803 		ubfxgt	r3, r3, #0, #9
 2189 00f0 0023     		movle	r3, #0
 2190 00f2 2B80     		strh	r3, [r5]	@ movhi
 2191              	.L307:
 2192 00f4 03B0     		add	sp, sp, #12
 2193              		@ sp needed
 2194 00f6 BDE8F08F 		pop	{r4, r5, r6, r7, r8, r9, r10, fp, pc}
 2195              	.L257:
 2196 00fa 624A     		ldr	r2, .L317+44
 2197 00fc 1278     		ldrb	r2, [r2]	@ zero_extendqisi2
 2198 00fe 12BB     		cbnz	r2, .L259
 2199 0100 012F     		cmp	r7, #1
 2200 0102 4CD9     		bls	.L314
 2201              	.L296:
 2202 0104 022F     		cmp	r7, #2
 2203 0106 2B46     		mov	r3, r5
 2204 0108 8DD1     		bne	.L315
 2205              	.L274:
 2206 010a 5E4A     		ldr	r2, .L317+44
 2207 010c 1278     		ldrb	r2, [r2]	@ zero_extendqisi2
 2208 010e 012A     		cmp	r2, #1
 2209 0110 7DD0     		beq	.L275
 2210 0112 53D9     		bls	.L276
 2211 0114 023A     		subs	r2, r2, #2
 2212 0116 D1B2     		uxtb	r1, r2
 2213 0118 0929     		cmp	r1, #9
 2214 011a 18D8     		bhi	.L311
 2215 011c 5448     		ldr	r0, .L317+24
 2216 011e 83F00103 		eor	r3, r3, #1
 2217 0122 594F     		ldr	r7, .L317+48
 2218 0124 0068     		ldr	r0, [r0]
 2219 0126 5949     		ldr	r1, .L317+52
 2220 0128 2844     		add	r0, r0, r5
 2221 012a 31F91210 		ldrsh	r1, [r1, r2, lsl #1]
 2222 012e 90F9A05B 		ldrsb	r5, [r0, #2976]
 2223 0132 57F82200 		ldr	r0, [r7, r2, lsl #2]
ARM GAS  /tmp/ccONvy4E.s 			page 41


 2224 0136 091A     		subs	r1, r1, r0
 2225 0138 01FB03F3 		mul	r3, r1, r3
 2226 013c 2B41     		asrs	r3, r3, r5
 2227 013e 0344     		add	r3, r3, r0
 2228 0140 47F82230 		str	r3, [r7, r2, lsl #2]
 2229 0144 03E0     		b	.L311
 2230              	.L259:
 2231 0146 0C2A     		cmp	r2, #12
 2232 0148 DCD1     		bne	.L296
 2233 014a 012F     		cmp	r7, #1
 2234 014c 74D0     		beq	.L316
 2235              	.L311:
 2236 014e 454B     		ldr	r3, .L317+12
 2237 0150 4648     		ldr	r0, .L317+20
 2238 0152 1B78     		ldrb	r3, [r3]	@ zero_extendqisi2
 2239 0154 444F     		ldr	r7, .L317+16
 2240 0156 012B     		cmp	r3, #1
 2241 0158 0288     		ldrh	r2, [r0]
 2242 015a 7FF46CAF 		bne	.L278
 2243              	.L312:
 2244 015e 12F0010F 		tst	r2, #1
 2245 0162 444D     		ldr	r5, .L317+28
 2246 0164 14BF     		ite	ne
 2247 0166 6FF03F03 		mvnne	r3, #63
 2248 016a 4023     		moveq	r3, #64
 2249 016c 6CE7     		b	.L279
 2250              	.L284:
 2251 016e 20F00F03 		bic	r3, r0, #15
 2252 0172 C0F34420 		ubfx	r0, r0, #9, #5
 2253 0176 40EA4300 		orr	r0, r0, r3, lsl #1
 2254 017a 00B2     		sxth	r0, r0
 2255 017c A0E7     		b	.L285
 2256              	.L313:
 2257 017e DFF804C1 		ldr	ip, .L317+44
 2258 0182 9CF80030 		ldrb	r3, [ip]	@ zero_extendqisi2
 2259 0186 0C2B     		cmp	r3, #12
 2260 0188 2ED0     		beq	.L287
 2261 018a 2B88     		ldrh	r3, [r5]
 2262 018c 0133     		adds	r3, r3, #1
 2263 018e 9BB2     		uxth	r3, r3
 2264 0190 1946     		mov	r1, r3
 2265 0192 A8E7     		b	.L288
 2266              	.L280:
 2267 0194 03F29C53 		addw	r3, r3, #1436
 2268 0198 11F91330 		ldrsb	r3, [r1, r3, lsl #1]
 2269 019c 54E7     		b	.L279
 2270              	.L314:
 2271 019e 3C4B     		ldr	r3, .L317+56
 2272 01a0 3C4A     		ldr	r2, .L317+60
 2273 01a2 1B78     		ldrb	r3, [r3]	@ zero_extendqisi2
 2274 01a4 1278     		ldrb	r2, [r2]	@ zero_extendqisi2
 2275 01a6 B3FA83F3 		clz	r3, r3
 2276 01aa 3B49     		ldr	r1, .L317+64
 2277 01ac B2FA82F2 		clz	r2, r2
 2278 01b0 5B09     		lsrs	r3, r3, #5
 2279 01b2 5209     		lsrs	r2, r2, #5
 2280 01b4 0B70     		strb	r3, [r1]
ARM GAS  /tmp/ccONvy4E.s 			page 42


 2281 01b6 2B4B     		ldr	r3, .L317+12
 2282 01b8 1A70     		strb	r2, [r3]
 2283 01ba 35E7     		b	.L260
 2284              	.L276:
 2285 01bc 2C49     		ldr	r1, .L317+24
 2286 01be 83F00103 		eor	r3, r3, #1
 2287 01c2 3648     		ldr	r0, .L317+68
 2288 01c4 0968     		ldr	r1, [r1]
 2289 01c6 364A     		ldr	r2, .L317+72
 2290 01c8 2944     		add	r1, r1, r5
 2291 01ca 274F     		ldr	r7, .L317+16
 2292 01cc B2F90020 		ldrsh	r2, [r2]
 2293 01d0 91F9A05B 		ldrsb	r5, [r1, #2976]
 2294 01d4 0168     		ldr	r1, [r0]
 2295 01d6 521A     		subs	r2, r2, r1
 2296 01d8 02FB03F3 		mul	r3, r2, r3
 2297 01dc 214A     		ldr	r2, .L317+12
 2298 01de 2B41     		asrs	r3, r3, r5
 2299 01e0 0B44     		add	r3, r3, r1
 2300 01e2 0360     		str	r3, [r0]
 2301 01e4 1378     		ldrb	r3, [r2]	@ zero_extendqisi2
 2302 01e6 21E7     		b	.L273
 2303              	.L287:
 2304 01e8 3278     		ldrb	r2, [r6]	@ zero_extendqisi2
 2305 01ea 072A     		cmp	r2, #7
 2306 01ec 00F00C81 		beq	.L289
 2307              	.L291:
 2308 01f0 2B88     		ldrh	r3, [r5]
 2309 01f2 0133     		adds	r3, r3, #1
 2310 01f4 9BB2     		uxth	r3, r3
 2311 01f6 1946     		mov	r1, r3
 2312              	.L290:
 2313 01f8 0132     		adds	r2, r2, #1
 2314 01fa 02F00702 		and	r2, r2, #7
 2315 01fe 3270     		strb	r2, [r6]
 2316 0200 1F4A     		ldr	r2, .L317+40
 2317 0202 1278     		ldrb	r2, [r2]	@ zero_extendqisi2
 2318 0204 2270     		strb	r2, [r4]
 2319 0206 0022     		movs	r2, #0
 2320 0208 8CF80020 		strb	r2, [ip]
 2321 020c 6BE7     		b	.L288
 2322              	.L275:
 2323 020e 1849     		ldr	r1, .L317+24
 2324 0210 83F00103 		eor	r3, r3, #1
 2325 0214 144F     		ldr	r7, .L317+16
 2326 0216 0968     		ldr	r1, [r1]
 2327 0218 224A     		ldr	r2, .L317+76
 2328 021a 2944     		add	r1, r1, r5
 2329 021c B2F90020 		ldrsh	r2, [r2]
 2330 0220 91F9A00B 		ldrsb	r0, [r1, #2976]
 2331 0224 3968     		ldr	r1, [r7]
 2332 0226 521A     		subs	r2, r2, r1
 2333 0228 02FB03F3 		mul	r3, r2, r3
 2334 022c 0D4A     		ldr	r2, .L317+12
 2335 022e 0341     		asrs	r3, r3, r0
 2336 0230 0B44     		add	r3, r3, r1
 2337 0232 3B60     		str	r3, [r7]
ARM GAS  /tmp/ccONvy4E.s 			page 43


 2338 0234 1378     		ldrb	r3, [r2]	@ zero_extendqisi2
 2339 0236 F9E6     		b	.L273
 2340              	.L316:
 2341 0238 1B4A     		ldr	r2, .L317+80
 2342 023a 0346     		mov	r3, r0
 2343 023c 1B49     		ldr	r1, .L317+84
 2344 023e 1278     		ldrb	r2, [r2]	@ zero_extendqisi2
 2345 0240 DFF86C80 		ldr	r8, .L317+88
 2346 0244 02F00302 		and	r2, r2, #3
 2347 0248 98F80000 		ldrb	r0, [r8]	@ zero_extendqisi2
 2348 024c 8A5C     		ldrb	r2, [r1, r2]	@ zero_extendqisi2
 2349 024e 3270     		strb	r2, [r6]
 2350 0250 80BB     		cbnz	r0, .L262
 2351 0252 1F70     		strb	r7, [r3]
 2352 0254 4EE7     		b	.L307
 2353              	.L318:
 2354 0256 00BF     		.align	2
 2355              	.L317:
 2356 0258 00000000 		.word	m_IP
 2357 025c 00000000 		.word	m_subcycle
 2358 0260 00000000 		.word	m_inhibit
 2359 0264 00000000 		.word	m_OLDP
 2360 0268 00000000 		.word	m_current_pitch
 2361 026c 00000000 		.word	m_RNG
 2362 0270 00000000 		.word	m_coeff
 2363 0274 00000000 		.word	m_pitch_count
 2364 0278 00000000 		.word	m_excitation_data
 2365 027c 00000000 		.word	m_digital_select
 2366 0280 00000000 		.word	m_subc_reload
 2367 0284 00000000 		.word	m_PC
 2368 0288 00000000 		.word	m_current_k
 2369 028c 00000000 		.word	m_target_k
 2370 0290 00000000 		.word	m_new_frame_energy_idx
 2371 0294 00000000 		.word	m_new_frame_pitch_idx
 2372 0298 00000000 		.word	m_OLDE
 2373 029c 00000000 		.word	m_current_energy
 2374 02a0 00000000 		.word	m_target_energy
 2375 02a4 00000000 		.word	m_target_pitch
 2376 02a8 00000000 		.word	m_c_variant_rate
 2377 02ac 00000000 		.word	reload_table
 2378 02b0 00000000 		.word	m_talk_status
 2379              	.L262:
 2380 02b4 FFF7FEFF 		bl	parse_frame
 2381 02b8 5D4B     		ldr	r3, .L319
 2382 02ba 1978     		ldrb	r1, [r3]	@ zero_extendqisi2
 2383 02bc 0F29     		cmp	r1, #15
 2384 02be 00F0B280 		beq	.L264
 2385 02c2 98F80050 		ldrb	r5, [r8]	@ zero_extendqisi2
 2386              	.L265:
 2387 02c6 5B4B     		ldr	r3, .L319+4
 2388 02c8 5B4A     		ldr	r2, .L319+8
 2389 02ca 1B78     		ldrb	r3, [r3]	@ zero_extendqisi2
 2390 02cc 1278     		ldrb	r2, [r2]	@ zero_extendqisi2
 2391 02ce 002B     		cmp	r3, #0
 2392 02d0 40F0A180 		bne	.L266
 2393 02d4 52B1     		cbz	r2, .L267
 2394              	.L268:
ARM GAS  /tmp/ccONvy4E.s 			page 44


 2395 02d6 5948     		ldr	r0, .L319+12
 2396 02d8 0029     		cmp	r1, #0
 2397 02da 0778     		ldrb	r7, [r0]	@ zero_extendqisi2
 2398 02dc A7F10107 		sub	r7, #1
 2399 02e0 B7FA87F7 		clz	r7, r7
 2400 02e4 4FEA5717 		lsr	r7, r7, #5
 2401 02e8 08BF     		it	eq
 2402 02ea 0027     		moveq	r7, #0
 2403              	.L267:
 2404 02ec 5448     		ldr	r0, .L319+16
 2405 02ee 1C31     		adds	r1, r1, #28
 2406 02f0 DFF86CC1 		ldr	ip, .L319+48
 2407 02f4 90F80090 		ldrb	r9, [r0]	@ zero_extendqisi2
 2408 02f8 5248     		ldr	r0, .L319+20
 2409 02fa 8CF80070 		strb	r7, [ip]
 2410 02fe C9EB091A 		rsb	r10, r9, r9, lsl #4
 2411 0302 D0F80080 		ldr	r8, [r0]
 2412 0306 02F15C00 		add	r0, r2, #92
 2413 030a 4F4F     		ldr	r7, .L319+24
 2414 030c 4FEA0A1A 		lsl	r10, r10, #4
 2415 0310 38F81110 		ldrh	r1, [r8, r1, lsl #1]
 2416 0314 38F81000 		ldrh	r0, [r8, r0, lsl #1]
 2417 0318 3980     		strh	r1, [r7]	@ movhi
 2418 031a 4C49     		ldr	r1, .L319+28
 2419 031c DFED4C6A 		vldr.32	s13, .L319+32
 2420 0320 0880     		strh	r0, [r1]	@ movhi
 2421 0322 0020     		movs	r0, #0
 2422 0324 DFF840E1 		ldr	lr, .L319+56
 2423 0328 4FEA0911 		lsl	r1, r9, #4
 2424 032c DFF83CC1 		ldr	ip, .L319+60
 2425 0330 484F     		ldr	r7, .L319+36
 2426 0332 DFF83CB1 		ldr	fp, .L319+64
 2427 0336 CDE90095 		strd	r9, r5, [sp]
 2428              	.L269:
 2429 033a 1EF8019B 		ldrb	r9, [lr], #1	@ zero_extendqisi2
 2430 033e 1CF8015B 		ldrb	r5, [ip], #1	@ zero_extendqisi2
 2431 0342 4D44     		add	r5, r5, r9
 2432 0344 09EB8019 		add	r9, r9, r0, lsl #6
 2433 0348 0130     		adds	r0, r0, #1
 2434 034a 5544     		add	r5, r5, r10
 2435 034c 09F14E09 		add	r9, r9, #78
 2436 0350 0428     		cmp	r0, #4
 2437 0352 0BEB8505 		add	r5, fp, r5, lsl #2
 2438 0356 D5ED007A 		vldr.32	s15, [r5]
 2439 035a 08EB8905 		add	r5, r8, r9, lsl #2
 2440 035e 77EEA67A 		vadd.f32	s15, s15, s13
 2441 0362 95ED007A 		vldr.32	s14, [r5]	@ int
 2442 0366 B8EEC77A 		vcvt.f32.s32	s14, s14
 2443 036a 77EEA77A 		vadd.f32	s15, s15, s15
 2444 036e 67EE877A 		vmul.f32	s15, s15, s14
 2445 0372 FDEEE77A 		vcvt.s32.f32	s15, s15
 2446 0376 17EE905A 		vmov	r5, s15	@ int
 2447 037a 27F8025B 		strh	r5, [r7], #2	@ movhi
 2448 037e DCD1     		bne	.L269
 2449 0380 D8F804A0 		ldr	r10, [r8, #4]
 2450 0384 BAF1040F 		cmp	r10, #4
 2451 0388 DDE90095 		ldrd	r9, r5, [sp]
ARM GAS  /tmp/ccONvy4E.s 			page 45


 2452 038c 37DD     		ble	.L270
 2453 038e 003A     		subs	r2, r2, #0
 2454 0390 A1EB0909 		sub	r9, r1, r9
 2455 0394 0095     		str	r5, [sp]
 2456 0396 18BF     		it	ne
 2457 0398 0122     		movne	r2, #1
 2458 039a DFED2D6A 		vldr.32	s13, .L319+32
 2459 039e 4FEA0919 		lsl	r9, r9, #4
 2460 03a2 2D4F     		ldr	r7, .L319+40
 2461 03a4 DFF8CCE0 		ldr	lr, .L319+68
 2462 03a8 1546     		mov	r5, r2
 2463 03aa DFF8CCC0 		ldr	ip, .L319+72
 2464              	.L271:
 2465 03ae 17F8011F 		ldrb	r1, [r7, #1]!	@ zero_extendqisi2
 2466 03b2 002D     		cmp	r5, #0
 2467 03b4 1EF8012F 		ldrb	r2, [lr, #1]!	@ zero_extendqisi2
 2468 03b8 0A44     		add	r2, r2, r1
 2469 03ba 01EB8011 		add	r1, r1, r0, lsl #6
 2470 03be 00F10100 		add	r0, r0, #1
 2471 03c2 4A44     		add	r2, r2, r9
 2472 03c4 01F14E01 		add	r1, r1, #78
 2473 03c8 0BEB8202 		add	r2, fp, r2, lsl #2
 2474 03cc D2ED007A 		vldr.32	s15, [r2]
 2475 03d0 58F82120 		ldr	r2, [r8, r1, lsl #2]
 2476 03d4 08BF     		it	eq
 2477 03d6 0022     		moveq	r2, #0
 2478 03d8 77EEA67A 		vadd.f32	s15, s15, s13
 2479 03dc 5045     		cmp	r0, r10
 2480 03de 07EE102A 		vmov	s14, r2	@ int
 2481 03e2 77EEA77A 		vadd.f32	s15, s15, s15
 2482 03e6 B8EEC77A 		vcvt.f32.s32	s14, s14
 2483 03ea 67EE877A 		vmul.f32	s15, s15, s14
 2484 03ee FDEEE77A 		vcvt.s32.f32	s15, s15
 2485 03f2 17EE902A 		vmov	r2, s15	@ int
 2486 03f6 2CF8022F 		strh	r2, [ip, #2]!	@ movhi
 2487 03fa D8D1     		bne	.L271
 2488 03fc 009D     		ldr	r5, [sp]
 2489              	.L270:
 2490 03fe 0DB9     		cbnz	r5, .L310
 2491 0400 114A     		ldr	r2, .L319+24
 2492 0402 1580     		strh	r5, [r2]	@ movhi
 2493              	.L310:
 2494 0404 154F     		ldr	r7, .L319+44
 2495 0406 11E6     		b	.L273
 2496              	.L289:
 2497 0408 154B     		ldr	r3, .L319+48
 2498 040a 1978     		ldrb	r1, [r3]	@ zero_extendqisi2
 2499 040c 0129     		cmp	r1, #1
 2500 040e 7FF4EFAE 		bne	.L291
 2501 0412 0B46     		mov	r3, r1
 2502 0414 F0E6     		b	.L290
 2503              	.L266:
 2504 0416 012B     		cmp	r3, #1
 2505 0418 7FF45DAF 		bne	.L268
 2506 041c 002A     		cmp	r2, #0
 2507 041e 3FF45AAF 		beq	.L268
 2508 0422 1F46     		mov	r7, r3
ARM GAS  /tmp/ccONvy4E.s 			page 46


 2509 0424 62E7     		b	.L267
 2510              	.L264:
 2511 0426 0F4B     		ldr	r3, .L319+52
 2512 0428 88F80050 		strb	r5, [r8]
 2513 042c 1D70     		strb	r5, [r3]
 2514 042e 4AE7     		b	.L265
 2515              	.L320:
 2516              		.align	2
 2517              	.L319:
 2518 0430 00000000 		.word	m_new_frame_energy_idx
 2519 0434 00000000 		.word	m_OLDP
 2520 0438 00000000 		.word	m_new_frame_pitch_idx
 2521 043c 00000000 		.word	m_OLDE
 2522 0440 00000000 		.word	_intmode
 2523 0444 00000000 		.word	m_coeff
 2524 0448 00000000 		.word	m_target_energy
 2525 044c 00000000 		.word	m_target_pitch
 2526 0450 CDCCCC3D 		.word	1036831949
 2527 0454 00000000 		.word	m_target_k
 2528 0458 03000000 		.word	m_new_frame_k_idx+3
 2529 045c 00000000 		.word	m_current_pitch
 2530 0460 00000000 		.word	m_inhibit
 2531 0464 00000000 		.word	m_speak_external
 2532 0468 00000000 		.word	m_new_frame_k_idx
 2533 046c 00000000 		.word	koffset
 2534 0470 00000000 		.word	exy
 2535 0474 03000000 		.word	koffset+3
 2536 0478 06000000 		.word	m_target_k+6
 2537              		.size	process_k_tabled5100, .-process_k_tabled5100
 2538              		.section	.text.process_pitchk_tabled5100,"ax",%progbits
 2539              		.align	1
 2540              		.p2align 2,,3
 2541              		.global	process_pitchk_tabled5100
 2542              		.syntax unified
 2543              		.thumb
 2544              		.thumb_func
 2545              		.type	process_pitchk_tabled5100, %function
 2546              	process_pitchk_tabled5100:
 2547              		@ args = 0, pretend = 0, frame = 16
 2548              		@ frame_needed = 0, uses_anonymous_args = 0
 2549 0000 2DE9F04F 		push	{r4, r5, r6, r7, r8, r9, r10, fp, lr}
 2550 0004 944E     		ldr	r6, .L382
 2551 0006 85B0     		sub	sp, sp, #20
 2552 0008 944C     		ldr	r4, .L382+4
 2553 000a 3578     		ldrb	r5, [r6]	@ zero_extendqisi2
 2554 000c 2778     		ldrb	r7, [r4]	@ zero_extendqisi2
 2555 000e 002D     		cmp	r5, #0
 2556 0010 73D0     		beq	.L322
 2557 0012 934B     		ldr	r3, .L382+8
 2558 0014 022F     		cmp	r7, #2
 2559 0016 1B78     		ldrb	r3, [r3]	@ zero_extendqisi2
 2560 0018 A3F10103 		sub	r3, #1
 2561 001c B3FA83F3 		clz	r3, r3
 2562 0020 4FEA5313 		lsr	r3, r3, #5
 2563 0024 71D0     		beq	.L339
 2564              	.L380:
 2565 0026 8F4B     		ldr	r3, .L382+12
ARM GAS  /tmp/ccONvy4E.s 			page 47


 2566              	.L325:
 2567 0028 1B78     		ldrb	r3, [r3]	@ zero_extendqisi2
 2568 002a 8F4F     		ldr	r7, .L382+16
 2569              	.L338:
 2570 002c 8F48     		ldr	r0, .L382+20
 2571 002e 012B     		cmp	r3, #1
 2572 0030 0288     		ldrh	r2, [r0]
 2573 0032 00F09480 		beq	.L377
 2574              	.L343:
 2575 0036 8E4B     		ldr	r3, .L382+24
 2576 0038 8E4D     		ldr	r5, .L382+28
 2577 003a 1968     		ldr	r1, [r3]
 2578 003c 2B88     		ldrh	r3, [r5]
 2579 003e 322B     		cmp	r3, #50
 2580 0040 40F2A880 		bls	.L345
 2581 0044 91F99E3B 		ldrsb	r3, [r1, #2974]
 2582              	.L344:
 2583 0048 8B49     		ldr	r1, .L382+32
 2584 004a 0B80     		strh	r3, [r1]	@ movhi
 2585 004c 1421     		movs	r1, #20
 2586              	.L346:
 2587 004e D308     		lsrs	r3, r2, #3
 2588 0050 0139     		subs	r1, r1, #1
 2589 0052 83EA1233 		eor	r3, r3, r2, lsr #12
 2590 0056 83EA0203 		eor	r3, r3, r2
 2591 005a 83EA9203 		eor	r3, r3, r2, lsr #2
 2592 005e 03F00103 		and	r3, r3, #1
 2593 0062 43EA4202 		orr	r2, r3, r2, lsl #1
 2594 0066 92B2     		uxth	r2, r2
 2595 0068 F1D1     		bne	.L346
 2596 006a 0280     		strh	r2, [r0]	@ movhi
 2597 006c FFF7FEFF 		bl	lattice_filter
 2598 0070 B0F5804F 		cmp	r0, #16384
 2599 0074 06DB     		blt	.L347
 2600 0076 A0F58043 		sub	r3, r0, #16384
 2601 007a A0F50040 		sub	r0, r0, #32768
 2602 007e 6FF30E03 		bfc	r3, #0, #15
 2603 0082 C01A     		subs	r0, r0, r3
 2604              	.L347:
 2605 0084 10F5804F 		cmn	r0, #16384
 2606 0088 07DA     		bge	.L348
 2607 008a 6FF48043 		mvn	r3, #16384
 2608 008e 1B1A     		subs	r3, r3, r0
 2609 0090 00F50040 		add	r0, r0, #32768
 2610 0094 6FF30E03 		bfc	r3, #0, #15
 2611 0098 1844     		add	r0, r0, r3
 2612              	.L348:
 2613 009a 784B     		ldr	r3, .L382+36
 2614 009c 1B78     		ldrb	r3, [r3]	@ zero_extendqisi2
 2615 009e 002B     		cmp	r3, #0
 2616 00a0 65D1     		bne	.L349
 2617 00a2 03B2     		sxth	r3, r0
 2618 00a4 03F30B03 		ssat	r3, #12, r3
 2619 00a8 23F00F03 		bic	r3, r3, #15
 2620 00ac 99B2     		uxth	r1, r3
 2621 00ae CA10     		asrs	r2, r1, #3
 2622 00b0 C1F38021 		ubfx	r1, r1, #10, #1
ARM GAS  /tmp/ccONvy4E.s 			page 48


 2623 00b4 02F0FE02 		and	r2, r2, #254
 2624 00b8 0A43     		orrs	r2, r2, r1
 2625 00ba 42EA0313 		orr	r3, r2, r3, lsl #4
 2626 00be 18B2     		sxth	r0, r3
 2627              	.L350:
 2628 00c0 2378     		ldrb	r3, [r4]	@ zero_extendqisi2
 2629 00c2 0133     		adds	r3, r3, #1
 2630 00c4 DBB2     		uxtb	r3, r3
 2631 00c6 022B     		cmp	r3, #2
 2632 00c8 2370     		strb	r3, [r4]
 2633 00ca 58D0     		beq	.L378
 2634 00cc 032B     		cmp	r3, #3
 2635 00ce 2A88     		ldrh	r2, [r5]
 2636 00d0 06D1     		bne	.L358
 2637 00d2 6B4B     		ldr	r3, .L382+40
 2638 00d4 6B49     		ldr	r1, .L382+44
 2639 00d6 1B78     		ldrb	r3, [r3]	@ zero_extendqisi2
 2640 00d8 2370     		strb	r3, [r4]
 2641 00da 0B78     		ldrb	r3, [r1]	@ zero_extendqisi2
 2642 00dc 0133     		adds	r3, r3, #1
 2643 00de 0B70     		strb	r3, [r1]
 2644              	.L358:
 2645 00e0 531C     		adds	r3, r2, #1
 2646 00e2 9BB2     		uxth	r3, r3
 2647 00e4 1946     		mov	r1, r3
 2648              	.L353:
 2649 00e6 3A68     		ldr	r2, [r7]
 2650 00e8 8A42     		cmp	r2, r1
 2651 00ea CCBF     		ite	gt
 2652 00ec C3F30803 		ubfxgt	r3, r3, #0, #9
 2653 00f0 0023     		movle	r3, #0
 2654 00f2 2B80     		strh	r3, [r5]	@ movhi
 2655              	.L372:
 2656 00f4 05B0     		add	sp, sp, #20
 2657              		@ sp needed
 2658 00f6 BDE8F08F 		pop	{r4, r5, r6, r7, r8, r9, r10, fp, pc}
 2659              	.L322:
 2660 00fa 624A     		ldr	r2, .L382+44
 2661 00fc 1278     		ldrb	r2, [r2]	@ zero_extendqisi2
 2662 00fe 12BB     		cbnz	r2, .L324
 2663 0100 012F     		cmp	r7, #1
 2664 0102 4CD9     		bls	.L379
 2665              	.L361:
 2666 0104 022F     		cmp	r7, #2
 2667 0106 2B46     		mov	r3, r5
 2668 0108 8DD1     		bne	.L380
 2669              	.L339:
 2670 010a 5E4A     		ldr	r2, .L382+44
 2671 010c 1278     		ldrb	r2, [r2]	@ zero_extendqisi2
 2672 010e 012A     		cmp	r2, #1
 2673 0110 7DD0     		beq	.L340
 2674 0112 53D9     		bls	.L341
 2675 0114 023A     		subs	r2, r2, #2
 2676 0116 D1B2     		uxtb	r1, r2
 2677 0118 0929     		cmp	r1, #9
 2678 011a 18D8     		bhi	.L376
 2679 011c 5448     		ldr	r0, .L382+24
ARM GAS  /tmp/ccONvy4E.s 			page 49


 2680 011e 83F00103 		eor	r3, r3, #1
 2681 0122 594F     		ldr	r7, .L382+48
 2682 0124 0068     		ldr	r0, [r0]
 2683 0126 5949     		ldr	r1, .L382+52
 2684 0128 2844     		add	r0, r0, r5
 2685 012a 31F91210 		ldrsh	r1, [r1, r2, lsl #1]
 2686 012e 90F9A05B 		ldrsb	r5, [r0, #2976]
 2687 0132 57F82200 		ldr	r0, [r7, r2, lsl #2]
 2688 0136 091A     		subs	r1, r1, r0
 2689 0138 01FB03F3 		mul	r3, r1, r3
 2690 013c 2B41     		asrs	r3, r3, r5
 2691 013e 0344     		add	r3, r3, r0
 2692 0140 47F82230 		str	r3, [r7, r2, lsl #2]
 2693 0144 03E0     		b	.L376
 2694              	.L324:
 2695 0146 0C2A     		cmp	r2, #12
 2696 0148 DCD1     		bne	.L361
 2697 014a 012F     		cmp	r7, #1
 2698 014c 74D0     		beq	.L381
 2699              	.L376:
 2700 014e 454B     		ldr	r3, .L382+12
 2701 0150 4648     		ldr	r0, .L382+20
 2702 0152 1B78     		ldrb	r3, [r3]	@ zero_extendqisi2
 2703 0154 444F     		ldr	r7, .L382+16
 2704 0156 012B     		cmp	r3, #1
 2705 0158 0288     		ldrh	r2, [r0]
 2706 015a 7FF46CAF 		bne	.L343
 2707              	.L377:
 2708 015e 12F0010F 		tst	r2, #1
 2709 0162 444D     		ldr	r5, .L382+28
 2710 0164 14BF     		ite	ne
 2711 0166 6FF03F03 		mvnne	r3, #63
 2712 016a 4023     		moveq	r3, #64
 2713 016c 6CE7     		b	.L344
 2714              	.L349:
 2715 016e 20F00F03 		bic	r3, r0, #15
 2716 0172 C0F34420 		ubfx	r0, r0, #9, #5
 2717 0176 40EA4300 		orr	r0, r0, r3, lsl #1
 2718 017a 00B2     		sxth	r0, r0
 2719 017c A0E7     		b	.L350
 2720              	.L378:
 2721 017e DFF804C1 		ldr	ip, .L382+44
 2722 0182 9CF80030 		ldrb	r3, [ip]	@ zero_extendqisi2
 2723 0186 0C2B     		cmp	r3, #12
 2724 0188 2ED0     		beq	.L352
 2725 018a 2B88     		ldrh	r3, [r5]
 2726 018c 0133     		adds	r3, r3, #1
 2727 018e 9BB2     		uxth	r3, r3
 2728 0190 1946     		mov	r1, r3
 2729 0192 A8E7     		b	.L353
 2730              	.L345:
 2731 0194 03F29C53 		addw	r3, r3, #1436
 2732 0198 11F91330 		ldrsb	r3, [r1, r3, lsl #1]
 2733 019c 54E7     		b	.L344
 2734              	.L379:
 2735 019e 3C4B     		ldr	r3, .L382+56
 2736 01a0 3C4A     		ldr	r2, .L382+60
ARM GAS  /tmp/ccONvy4E.s 			page 50


 2737 01a2 1B78     		ldrb	r3, [r3]	@ zero_extendqisi2
 2738 01a4 1278     		ldrb	r2, [r2]	@ zero_extendqisi2
 2739 01a6 B3FA83F3 		clz	r3, r3
 2740 01aa 3B49     		ldr	r1, .L382+64
 2741 01ac B2FA82F2 		clz	r2, r2
 2742 01b0 5B09     		lsrs	r3, r3, #5
 2743 01b2 5209     		lsrs	r2, r2, #5
 2744 01b4 0B70     		strb	r3, [r1]
 2745 01b6 2B4B     		ldr	r3, .L382+12
 2746 01b8 1A70     		strb	r2, [r3]
 2747 01ba 35E7     		b	.L325
 2748              	.L341:
 2749 01bc 2C49     		ldr	r1, .L382+24
 2750 01be 83F00103 		eor	r3, r3, #1
 2751 01c2 3648     		ldr	r0, .L382+68
 2752 01c4 0968     		ldr	r1, [r1]
 2753 01c6 364A     		ldr	r2, .L382+72
 2754 01c8 2944     		add	r1, r1, r5
 2755 01ca 274F     		ldr	r7, .L382+16
 2756 01cc B2F90020 		ldrsh	r2, [r2]
 2757 01d0 91F9A05B 		ldrsb	r5, [r1, #2976]
 2758 01d4 0168     		ldr	r1, [r0]
 2759 01d6 521A     		subs	r2, r2, r1
 2760 01d8 02FB03F3 		mul	r3, r2, r3
 2761 01dc 214A     		ldr	r2, .L382+12
 2762 01de 2B41     		asrs	r3, r3, r5
 2763 01e0 0B44     		add	r3, r3, r1
 2764 01e2 0360     		str	r3, [r0]
 2765 01e4 1378     		ldrb	r3, [r2]	@ zero_extendqisi2
 2766 01e6 21E7     		b	.L338
 2767              	.L352:
 2768 01e8 3278     		ldrb	r2, [r6]	@ zero_extendqisi2
 2769 01ea 072A     		cmp	r2, #7
 2770 01ec 00F03381 		beq	.L354
 2771              	.L356:
 2772 01f0 2B88     		ldrh	r3, [r5]
 2773 01f2 0133     		adds	r3, r3, #1
 2774 01f4 9BB2     		uxth	r3, r3
 2775 01f6 1946     		mov	r1, r3
 2776              	.L355:
 2777 01f8 0132     		adds	r2, r2, #1
 2778 01fa 02F00702 		and	r2, r2, #7
 2779 01fe 3270     		strb	r2, [r6]
 2780 0200 1F4A     		ldr	r2, .L382+40
 2781 0202 1278     		ldrb	r2, [r2]	@ zero_extendqisi2
 2782 0204 2270     		strb	r2, [r4]
 2783 0206 0022     		movs	r2, #0
 2784 0208 8CF80020 		strb	r2, [ip]
 2785 020c 6BE7     		b	.L353
 2786              	.L340:
 2787 020e 1849     		ldr	r1, .L382+24
 2788 0210 83F00103 		eor	r3, r3, #1
 2789 0214 144F     		ldr	r7, .L382+16
 2790 0216 0968     		ldr	r1, [r1]
 2791 0218 224A     		ldr	r2, .L382+76
 2792 021a 2944     		add	r1, r1, r5
 2793 021c B2F90020 		ldrsh	r2, [r2]
ARM GAS  /tmp/ccONvy4E.s 			page 51


 2794 0220 91F9A00B 		ldrsb	r0, [r1, #2976]
 2795 0224 3968     		ldr	r1, [r7]
 2796 0226 521A     		subs	r2, r2, r1
 2797 0228 02FB03F3 		mul	r3, r2, r3
 2798 022c 0D4A     		ldr	r2, .L382+12
 2799 022e 0341     		asrs	r3, r3, r0
 2800 0230 0B44     		add	r3, r3, r1
 2801 0232 3B60     		str	r3, [r7]
 2802 0234 1378     		ldrb	r3, [r2]	@ zero_extendqisi2
 2803 0236 F9E6     		b	.L338
 2804              	.L381:
 2805 0238 1B4A     		ldr	r2, .L382+80
 2806 023a 0346     		mov	r3, r0
 2807 023c 1B49     		ldr	r1, .L382+84
 2808 023e 1278     		ldrb	r2, [r2]	@ zero_extendqisi2
 2809 0240 DFF86C80 		ldr	r8, .L382+88
 2810 0244 02F00302 		and	r2, r2, #3
 2811 0248 98F80000 		ldrb	r0, [r8]	@ zero_extendqisi2
 2812 024c 8A5C     		ldrb	r2, [r1, r2]	@ zero_extendqisi2
 2813 024e 3270     		strb	r2, [r6]
 2814 0250 80BB     		cbnz	r0, .L327
 2815 0252 1F70     		strb	r7, [r3]
 2816 0254 4EE7     		b	.L372
 2817              	.L383:
 2818 0256 00BF     		.align	2
 2819              	.L382:
 2820 0258 00000000 		.word	m_IP
 2821 025c 00000000 		.word	m_subcycle
 2822 0260 00000000 		.word	m_inhibit
 2823 0264 00000000 		.word	m_OLDP
 2824 0268 00000000 		.word	m_current_pitch
 2825 026c 00000000 		.word	m_RNG
 2826 0270 00000000 		.word	m_coeff
 2827 0274 00000000 		.word	m_pitch_count
 2828 0278 00000000 		.word	m_excitation_data
 2829 027c 00000000 		.word	m_digital_select
 2830 0280 00000000 		.word	m_subc_reload
 2831 0284 00000000 		.word	m_PC
 2832 0288 00000000 		.word	m_current_k
 2833 028c 00000000 		.word	m_target_k
 2834 0290 00000000 		.word	m_new_frame_energy_idx
 2835 0294 00000000 		.word	m_new_frame_pitch_idx
 2836 0298 00000000 		.word	m_OLDE
 2837 029c 00000000 		.word	m_current_energy
 2838 02a0 00000000 		.word	m_target_energy
 2839 02a4 00000000 		.word	m_target_pitch
 2840 02a8 00000000 		.word	m_c_variant_rate
 2841 02ac 00000000 		.word	reload_table
 2842 02b0 00000000 		.word	m_talk_status
 2843              	.L327:
 2844 02b4 FFF7FEFF 		bl	parse_frame
 2845 02b8 714B     		ldr	r3, .L384
 2846 02ba 1978     		ldrb	r1, [r3]	@ zero_extendqisi2
 2847 02bc 0F29     		cmp	r1, #15
 2848 02be 00F0D980 		beq	.L329
 2849 02c2 98F80050 		ldrb	r5, [r8]	@ zero_extendqisi2
 2850              	.L330:
ARM GAS  /tmp/ccONvy4E.s 			page 52


 2851 02c6 6F4B     		ldr	r3, .L384+4
 2852 02c8 6F4A     		ldr	r2, .L384+8
 2853 02ca 1B78     		ldrb	r3, [r3]	@ zero_extendqisi2
 2854 02cc 1278     		ldrb	r2, [r2]	@ zero_extendqisi2
 2855 02ce 002B     		cmp	r3, #0
 2856 02d0 40F0C880 		bne	.L331
 2857 02d4 52B1     		cbz	r2, .L332
 2858              	.L333:
 2859 02d6 6D48     		ldr	r0, .L384+12
 2860 02d8 0029     		cmp	r1, #0
 2861 02da 0778     		ldrb	r7, [r0]	@ zero_extendqisi2
 2862 02dc A7F10107 		sub	r7, #1
 2863 02e0 B7FA87F7 		clz	r7, r7
 2864 02e4 4FEA5717 		lsr	r7, r7, #5
 2865 02e8 08BF     		it	eq
 2866 02ea 0027     		moveq	r7, #0
 2867              	.L332:
 2868 02ec 01F11C00 		add	r0, r1, #28
 2869 02f0 6749     		ldr	r1, .L384+16
 2870 02f2 02F15C0E 		add	lr, r2, #92
 2871 02f6 DFF8C0A1 		ldr	r10, .L384+56
 2872 02fa 0978     		ldrb	r1, [r1]	@ zero_extendqisi2
 2873 02fc 4FF00108 		mov	r8, #1
 2874 0300 9FED646A 		vldr.32	s12, .L384+20
 2875 0304 C1EB0119 		rsb	r9, r1, r1, lsl #4
 2876 0308 DFF8B0C1 		ldr	ip, .L384+60
 2877 030c DFED626A 		vldr.32	s13, .L384+24
 2878 0310 02EB0912 		add	r2, r2, r9, lsl #4
 2879 0314 DCF800C0 		ldr	ip, [ip]
 2880 0318 4FEA0919 		lsl	r9, r9, #4
 2881 031c 0AEB8202 		add	r2, r10, r2, lsl #2
 2882 0320 3CF81EE0 		ldrh	lr, [ip, lr, lsl #1]
 2883 0324 3CF81000 		ldrh	r0, [ip, r0, lsl #1]
 2884 0328 92ED007A 		vldr.32	s14, [r2]
 2885 032c 07EE90EA 		vmov	s15, lr	@ int
 2886 0330 DCF80C20 		ldr	r2, [ip, #12]
 2887 0334 27EE067A 		vmul.f32	s14, s14, s12
 2888 0338 DFF884E1 		ldr	lr, .L384+64
 2889 033c 08FA02F2 		lsl	r2, r8, r2
 2890 0340 F8EEE77A 		vcvt.f32.s32	s15, s15
 2891 0344 DFF87C81 		ldr	r8, .L384+68
 2892 0348 BCEEC77A 		vcvt.u32.f32	s14, s14
 2893 034c 5FFA82FB 		uxtb	fp, r2
 2894 0350 8DED017A 		vstr.32	s14, [sp, #4]	@ int
 2895 0354 9DF80420 		ldrb	r2, [sp, #4]	@ zero_extendqisi2
 2896 0358 7F2A     		cmp	r2, #127
 2897 035a 28BF     		it	cs
 2898 035c 7F22     		movcs	r2, #127
 2899 035e 0EEB820E 		add	lr, lr, r2, lsl #2
 2900 0362 4E4A     		ldr	r2, .L384+28
 2901 0364 9EED007A 		vldr.32	s14, [lr]
 2902 0368 1770     		strb	r7, [r2]
 2903 036a 67EE877A 		vmul.f32	s15, s15, s14
 2904 036e 4C4A     		ldr	r2, .L384+32
 2905 0370 DFF854E1 		ldr	lr, .L384+72
 2906 0374 1080     		strh	r0, [r2]	@ movhi
 2907 0376 FDEEE77A 		vcvt.s32.f32	s15, s15
ARM GAS  /tmp/ccONvy4E.s 			page 53


 2908 037a 4A4A     		ldr	r2, .L384+36
 2909 037c 4A4F     		ldr	r7, .L384+40
 2910 037e 17EE900A 		vmov	r0, s15	@ int
 2911 0382 1080     		strh	r0, [r2]	@ movhi
 2912 0384 0A01     		lsls	r2, r1, #4
 2913 0386 0020     		movs	r0, #0
 2914 0388 CDE90115 		strd	r1, r5, [sp, #4]
 2915              	.L334:
 2916 038c 18F8015B 		ldrb	r5, [r8], #1	@ zero_extendqisi2
 2917 0390 1EF8011B 		ldrb	r1, [lr], #1	@ zero_extendqisi2
 2918 0394 2944     		add	r1, r1, r5
 2919 0396 05EB8015 		add	r5, r5, r0, lsl #6
 2920 039a 0130     		adds	r0, r0, #1
 2921 039c 5944     		add	r1, r1, fp
 2922 039e 4E35     		adds	r5, r5, #78
 2923 03a0 0428     		cmp	r0, #4
 2924 03a2 4944     		add	r1, r1, r9
 2925 03a4 0CEB8505 		add	r5, ip, r5, lsl #2
 2926 03a8 0AEB8101 		add	r1, r10, r1, lsl #2
 2927 03ac 95ED007A 		vldr.32	s14, [r5]	@ int
 2928 03b0 D1ED007A 		vldr.32	s15, [r1]
 2929 03b4 B8EEC77A 		vcvt.f32.s32	s14, s14
 2930 03b8 77EEA77A 		vadd.f32	s15, s15, s15
 2931 03bc 77EEA67A 		vadd.f32	s15, s15, s13
 2932 03c0 67EE877A 		vmul.f32	s15, s15, s14
 2933 03c4 FDEEE77A 		vcvt.s32.f32	s15, s15
 2934 03c8 17EE901A 		vmov	r1, s15	@ int
 2935 03cc 27F8021B 		strh	r1, [r7], #2	@ movhi
 2936 03d0 DCD1     		bne	.L334
 2937 03d2 DCF80470 		ldr	r7, [ip, #4]
 2938 03d6 042F     		cmp	r7, #4
 2939 03d8 DDE90115 		ldrd	r1, r5, [sp, #4]
 2940 03dc 0197     		str	r7, [sp, #4]
 2941 03de 35DD     		ble	.L335
 2942 03e0 521A     		subs	r2, r2, r1
 2943 03e2 0393     		str	r3, [sp, #12]
 2944 03e4 DFED2C6A 		vldr.32	s13, .L384+24
 2945 03e8 1201     		lsls	r2, r2, #4
 2946 03ea DFF8E080 		ldr	r8, .L384+76
 2947 03ee 2F4F     		ldr	r7, .L384+44
 2948 03f0 DFF8DCE0 		ldr	lr, .L384+80
 2949 03f4 9146     		mov	r9, r2
 2950 03f6 019B     		ldr	r3, [sp, #4]
 2951              	.L336:
 2952 03f8 18F8011F 		ldrb	r1, [r8, #1]!	@ zero_extendqisi2
 2953 03fc 17F8012F 		ldrb	r2, [r7, #1]!	@ zero_extendqisi2
 2954 0400 01EB0B05 		add	r5, r1, fp
 2955 0404 01EB8011 		add	r1, r1, r0, lsl #6
 2956 0408 0130     		adds	r0, r0, #1
 2957 040a 2A44     		add	r2, r2, r5
 2958 040c 4E31     		adds	r1, r1, #78
 2959 040e 9842     		cmp	r0, r3
 2960 0410 4A44     		add	r2, r2, r9
 2961 0412 0AEB8202 		add	r2, r10, r2, lsl #2
 2962 0416 D2ED007A 		vldr.32	s15, [r2]
 2963 041a 5CF82120 		ldr	r2, [ip, r1, lsl #2]
 2964 041e 4FF00101 		mov	r1, #1
ARM GAS  /tmp/ccONvy4E.s 			page 54


 2965 0422 77EEA77A 		vadd.f32	s15, s15, s15
 2966 0426 01FB02F2 		mul	r2, r1, r2
 2967 042a 07EE102A 		vmov	s14, r2	@ int
 2968 042e 77EEA67A 		vadd.f32	s15, s15, s13
 2969 0432 B8EEC77A 		vcvt.f32.s32	s14, s14
 2970 0436 67EE877A 		vmul.f32	s15, s15, s14
 2971 043a FDEEE77A 		vcvt.s32.f32	s15, s15
 2972 043e 17EE902A 		vmov	r2, s15	@ int
 2973 0442 2EF8022F 		strh	r2, [lr, #2]!	@ movhi
 2974 0446 D7D1     		bne	.L336
 2975 0448 DDE90253 		ldrd	r5, r3, [sp, #8]
 2976              	.L335:
 2977 044c 0DB9     		cbnz	r5, .L375
 2978 044e 144A     		ldr	r2, .L384+32
 2979 0450 1580     		strh	r5, [r2]	@ movhi
 2980              	.L375:
 2981 0452 174F     		ldr	r7, .L384+48
 2982 0454 EAE5     		b	.L338
 2983              	.L354:
 2984 0456 114B     		ldr	r3, .L384+28
 2985 0458 1978     		ldrb	r1, [r3]	@ zero_extendqisi2
 2986 045a 0129     		cmp	r1, #1
 2987 045c 7FF4C8AE 		bne	.L356
 2988 0460 0B46     		mov	r3, r1
 2989 0462 C9E6     		b	.L355
 2990              	.L331:
 2991 0464 012B     		cmp	r3, #1
 2992 0466 7FF436AF 		bne	.L333
 2993 046a 002A     		cmp	r2, #0
 2994 046c 3FF433AF 		beq	.L333
 2995 0470 1F46     		mov	r7, r3
 2996 0472 3BE7     		b	.L332
 2997              	.L329:
 2998 0474 0F4B     		ldr	r3, .L384+52
 2999 0476 88F80050 		strb	r5, [r8]
 3000 047a 1D70     		strb	r5, [r3]
 3001 047c 23E7     		b	.L330
 3002              	.L385:
 3003 047e 00BF     		.align	2
 3004              	.L384:
 3005 0480 00000000 		.word	m_new_frame_energy_idx
 3006 0484 00000000 		.word	m_OLDP
 3007 0488 00000000 		.word	m_new_frame_pitch_idx
 3008 048c 00000000 		.word	m_OLDE
 3009 0490 00000000 		.word	_intmode
 3010 0494 00000343 		.word	1124270080
 3011 0498 CDCCCC3D 		.word	1036831949
 3012 049c 00000000 		.word	m_inhibit
 3013 04a0 00000000 		.word	m_target_energy
 3014 04a4 00000000 		.word	m_target_pitch
 3015 04a8 00000000 		.word	m_target_k
 3016 04ac 03000000 		.word	koffset+3
 3017 04b0 00000000 		.word	m_current_pitch
 3018 04b4 00000000 		.word	m_speak_external
 3019 04b8 00000000 		.word	exy
 3020 04bc 00000000 		.word	m_coeff
 3021 04c0 00000000 		.word	logpitch
ARM GAS  /tmp/ccONvy4E.s 			page 55


 3022 04c4 00000000 		.word	m_new_frame_k_idx
 3023 04c8 00000000 		.word	koffset
 3024 04cc 03000000 		.word	m_new_frame_k_idx+3
 3025 04d0 06000000 		.word	m_target_k+6
 3026              		.size	process_pitchk_tabled5100, .-process_pitchk_tabled5100
 3027              		.section	.text.process_pitch_tabled5100,"ax",%progbits
 3028              		.align	1
 3029              		.p2align 2,,3
 3030              		.global	process_pitch_tabled5100
 3031              		.syntax unified
 3032              		.thumb
 3033              		.thumb_func
 3034              		.type	process_pitch_tabled5100, %function
 3035              	process_pitch_tabled5100:
 3036              		@ args = 0, pretend = 0, frame = 8
 3037              		@ frame_needed = 0, uses_anonymous_args = 0
 3038 0000 2DE9F043 		push	{r4, r5, r6, r7, r8, r9, lr}
 3039 0004 944E     		ldr	r6, .L447
 3040 0006 83B0     		sub	sp, sp, #12
 3041 0008 944C     		ldr	r4, .L447+4
 3042 000a 3578     		ldrb	r5, [r6]	@ zero_extendqisi2
 3043 000c 2778     		ldrb	r7, [r4]	@ zero_extendqisi2
 3044 000e 002D     		cmp	r5, #0
 3045 0010 73D0     		beq	.L387
 3046 0012 934B     		ldr	r3, .L447+8
 3047 0014 022F     		cmp	r7, #2
 3048 0016 1B78     		ldrb	r3, [r3]	@ zero_extendqisi2
 3049 0018 A3F10103 		sub	r3, #1
 3050 001c B3FA83F3 		clz	r3, r3
 3051 0020 4FEA5313 		lsr	r3, r3, #5
 3052 0024 71D0     		beq	.L406
 3053              	.L445:
 3054 0026 8F4B     		ldr	r3, .L447+12
 3055              	.L390:
 3056 0028 1978     		ldrb	r1, [r3]	@ zero_extendqisi2
 3057 002a 8F4F     		ldr	r7, .L447+16
 3058              	.L405:
 3059 002c 8F48     		ldr	r0, .L447+20
 3060 002e 0129     		cmp	r1, #1
 3061 0030 0288     		ldrh	r2, [r0]
 3062 0032 00F09480 		beq	.L442
 3063              	.L410:
 3064 0036 8E4B     		ldr	r3, .L447+24
 3065 0038 8E4D     		ldr	r5, .L447+28
 3066 003a 1968     		ldr	r1, [r3]
 3067 003c 2B88     		ldrh	r3, [r5]
 3068 003e 322B     		cmp	r3, #50
 3069 0040 40F2A880 		bls	.L412
 3070 0044 91F99E3B 		ldrsb	r3, [r1, #2974]
 3071              	.L411:
 3072 0048 8B49     		ldr	r1, .L447+32
 3073 004a 0B80     		strh	r3, [r1]	@ movhi
 3074 004c 1421     		movs	r1, #20
 3075              	.L413:
 3076 004e D308     		lsrs	r3, r2, #3
 3077 0050 0139     		subs	r1, r1, #1
 3078 0052 83EA1233 		eor	r3, r3, r2, lsr #12
ARM GAS  /tmp/ccONvy4E.s 			page 56


 3079 0056 83EA0203 		eor	r3, r3, r2
 3080 005a 83EA9203 		eor	r3, r3, r2, lsr #2
 3081 005e 03F00103 		and	r3, r3, #1
 3082 0062 43EA4203 		orr	r3, r3, r2, lsl #1
 3083 0066 9AB2     		uxth	r2, r3
 3084 0068 F1D1     		bne	.L413
 3085 006a 0280     		strh	r2, [r0]	@ movhi
 3086 006c FFF7FEFF 		bl	lattice_filter
 3087 0070 B0F5804F 		cmp	r0, #16384
 3088 0074 06DB     		blt	.L414
 3089 0076 A0F58043 		sub	r3, r0, #16384
 3090 007a A0F50040 		sub	r0, r0, #32768
 3091 007e 6FF30E03 		bfc	r3, #0, #15
 3092 0082 C01A     		subs	r0, r0, r3
 3093              	.L414:
 3094 0084 10F5804F 		cmn	r0, #16384
 3095 0088 07DA     		bge	.L415
 3096 008a 6FF48043 		mvn	r3, #16384
 3097 008e 1B1A     		subs	r3, r3, r0
 3098 0090 00F50040 		add	r0, r0, #32768
 3099 0094 6FF30E03 		bfc	r3, #0, #15
 3100 0098 1844     		add	r0, r0, r3
 3101              	.L415:
 3102 009a 784B     		ldr	r3, .L447+36
 3103 009c 1B78     		ldrb	r3, [r3]	@ zero_extendqisi2
 3104 009e 002B     		cmp	r3, #0
 3105 00a0 65D1     		bne	.L416
 3106 00a2 03B2     		sxth	r3, r0
 3107 00a4 03F30B03 		ssat	r3, #12, r3
 3108 00a8 23F00F03 		bic	r3, r3, #15
 3109 00ac 99B2     		uxth	r1, r3
 3110 00ae CA10     		asrs	r2, r1, #3
 3111 00b0 C1F38021 		ubfx	r1, r1, #10, #1
 3112 00b4 02F0FE02 		and	r2, r2, #254
 3113 00b8 0A43     		orrs	r2, r2, r1
 3114 00ba 42EA0313 		orr	r3, r2, r3, lsl #4
 3115 00be 18B2     		sxth	r0, r3
 3116              	.L417:
 3117 00c0 2378     		ldrb	r3, [r4]	@ zero_extendqisi2
 3118 00c2 0133     		adds	r3, r3, #1
 3119 00c4 DBB2     		uxtb	r3, r3
 3120 00c6 022B     		cmp	r3, #2
 3121 00c8 2370     		strb	r3, [r4]
 3122 00ca 58D0     		beq	.L443
 3123 00cc 032B     		cmp	r3, #3
 3124 00ce 2A88     		ldrh	r2, [r5]
 3125 00d0 06D1     		bne	.L425
 3126 00d2 6B4B     		ldr	r3, .L447+40
 3127 00d4 6B49     		ldr	r1, .L447+44
 3128 00d6 1B78     		ldrb	r3, [r3]	@ zero_extendqisi2
 3129 00d8 2370     		strb	r3, [r4]
 3130 00da 0B78     		ldrb	r3, [r1]	@ zero_extendqisi2
 3131 00dc 0133     		adds	r3, r3, #1
 3132 00de 0B70     		strb	r3, [r1]
 3133              	.L425:
 3134 00e0 531C     		adds	r3, r2, #1
 3135 00e2 9BB2     		uxth	r3, r3
ARM GAS  /tmp/ccONvy4E.s 			page 57


 3136 00e4 1946     		mov	r1, r3
 3137              	.L420:
 3138 00e6 3A68     		ldr	r2, [r7]
 3139 00e8 8A42     		cmp	r2, r1
 3140 00ea CCBF     		ite	gt
 3141 00ec C3F30803 		ubfxgt	r3, r3, #0, #9
 3142 00f0 0023     		movle	r3, #0
 3143 00f2 2B80     		strh	r3, [r5]	@ movhi
 3144              	.L438:
 3145 00f4 03B0     		add	sp, sp, #12
 3146              		@ sp needed
 3147 00f6 BDE8F083 		pop	{r4, r5, r6, r7, r8, r9, pc}
 3148              	.L387:
 3149 00fa 624A     		ldr	r2, .L447+44
 3150 00fc 1278     		ldrb	r2, [r2]	@ zero_extendqisi2
 3151 00fe 12BB     		cbnz	r2, .L389
 3152 0100 012F     		cmp	r7, #1
 3153 0102 4CD9     		bls	.L444
 3154              	.L428:
 3155 0104 022F     		cmp	r7, #2
 3156 0106 2B46     		mov	r3, r5
 3157 0108 8DD1     		bne	.L445
 3158              	.L406:
 3159 010a 5E4A     		ldr	r2, .L447+44
 3160 010c 1278     		ldrb	r2, [r2]	@ zero_extendqisi2
 3161 010e 012A     		cmp	r2, #1
 3162 0110 7DD0     		beq	.L407
 3163 0112 53D9     		bls	.L408
 3164 0114 023A     		subs	r2, r2, #2
 3165 0116 D1B2     		uxtb	r1, r2
 3166 0118 0929     		cmp	r1, #9
 3167 011a 18D8     		bhi	.L441
 3168 011c 5448     		ldr	r0, .L447+24
 3169 011e 83F00103 		eor	r3, r3, #1
 3170 0122 594F     		ldr	r7, .L447+48
 3171 0124 0068     		ldr	r0, [r0]
 3172 0126 5949     		ldr	r1, .L447+52
 3173 0128 2844     		add	r0, r0, r5
 3174 012a 31F91210 		ldrsh	r1, [r1, r2, lsl #1]
 3175 012e 90F9A05B 		ldrsb	r5, [r0, #2976]
 3176 0132 57F82200 		ldr	r0, [r7, r2, lsl #2]
 3177 0136 091A     		subs	r1, r1, r0
 3178 0138 01FB03F3 		mul	r3, r1, r3
 3179 013c 2B41     		asrs	r3, r3, r5
 3180 013e 0344     		add	r3, r3, r0
 3181 0140 47F82230 		str	r3, [r7, r2, lsl #2]
 3182 0144 03E0     		b	.L441
 3183              	.L389:
 3184 0146 0C2A     		cmp	r2, #12
 3185 0148 DCD1     		bne	.L428
 3186 014a 012F     		cmp	r7, #1
 3187 014c 74D0     		beq	.L446
 3188              	.L441:
 3189 014e 454B     		ldr	r3, .L447+12
 3190 0150 4648     		ldr	r0, .L447+20
 3191 0152 1978     		ldrb	r1, [r3]	@ zero_extendqisi2
 3192 0154 444F     		ldr	r7, .L447+16
ARM GAS  /tmp/ccONvy4E.s 			page 58


 3193 0156 0129     		cmp	r1, #1
 3194 0158 0288     		ldrh	r2, [r0]
 3195 015a 7FF46CAF 		bne	.L410
 3196              	.L442:
 3197 015e 12F0010F 		tst	r2, #1
 3198 0162 444D     		ldr	r5, .L447+28
 3199 0164 14BF     		ite	ne
 3200 0166 6FF03F03 		mvnne	r3, #63
 3201 016a 4023     		moveq	r3, #64
 3202 016c 6CE7     		b	.L411
 3203              	.L416:
 3204 016e 20F00F03 		bic	r3, r0, #15
 3205 0172 C0F34420 		ubfx	r0, r0, #9, #5
 3206 0176 40EA4300 		orr	r0, r0, r3, lsl #1
 3207 017a 00B2     		sxth	r0, r0
 3208 017c A0E7     		b	.L417
 3209              	.L443:
 3210 017e DFF804C1 		ldr	ip, .L447+44
 3211 0182 9CF80030 		ldrb	r3, [ip]	@ zero_extendqisi2
 3212 0186 0C2B     		cmp	r3, #12
 3213 0188 2ED0     		beq	.L419
 3214 018a 2B88     		ldrh	r3, [r5]
 3215 018c 0133     		adds	r3, r3, #1
 3216 018e 9BB2     		uxth	r3, r3
 3217 0190 1946     		mov	r1, r3
 3218 0192 A8E7     		b	.L420
 3219              	.L412:
 3220 0194 03F29C53 		addw	r3, r3, #1436
 3221 0198 11F91330 		ldrsb	r3, [r1, r3, lsl #1]
 3222 019c 54E7     		b	.L411
 3223              	.L444:
 3224 019e 3C4B     		ldr	r3, .L447+56
 3225 01a0 3C4A     		ldr	r2, .L447+60
 3226 01a2 1B78     		ldrb	r3, [r3]	@ zero_extendqisi2
 3227 01a4 1278     		ldrb	r2, [r2]	@ zero_extendqisi2
 3228 01a6 B3FA83F3 		clz	r3, r3
 3229 01aa 3B49     		ldr	r1, .L447+64
 3230 01ac B2FA82F2 		clz	r2, r2
 3231 01b0 5B09     		lsrs	r3, r3, #5
 3232 01b2 5209     		lsrs	r2, r2, #5
 3233 01b4 0B70     		strb	r3, [r1]
 3234 01b6 2B4B     		ldr	r3, .L447+12
 3235 01b8 1A70     		strb	r2, [r3]
 3236 01ba 35E7     		b	.L390
 3237              	.L408:
 3238 01bc 2C49     		ldr	r1, .L447+24
 3239 01be 83F00103 		eor	r3, r3, #1
 3240 01c2 3648     		ldr	r0, .L447+68
 3241 01c4 0968     		ldr	r1, [r1]
 3242 01c6 364A     		ldr	r2, .L447+72
 3243 01c8 2944     		add	r1, r1, r5
 3244 01ca 274F     		ldr	r7, .L447+16
 3245 01cc B2F90020 		ldrsh	r2, [r2]
 3246 01d0 91F9A05B 		ldrsb	r5, [r1, #2976]
 3247 01d4 0168     		ldr	r1, [r0]
 3248 01d6 521A     		subs	r2, r2, r1
 3249 01d8 02FB03F3 		mul	r3, r2, r3
ARM GAS  /tmp/ccONvy4E.s 			page 59


 3250 01dc 214A     		ldr	r2, .L447+12
 3251 01de 2B41     		asrs	r3, r3, r5
 3252 01e0 0B44     		add	r3, r3, r1
 3253 01e2 1178     		ldrb	r1, [r2]	@ zero_extendqisi2
 3254 01e4 0360     		str	r3, [r0]
 3255 01e6 21E7     		b	.L405
 3256              	.L419:
 3257 01e8 3278     		ldrb	r2, [r6]	@ zero_extendqisi2
 3258 01ea 072A     		cmp	r2, #7
 3259 01ec 00F0ED80 		beq	.L421
 3260              	.L423:
 3261 01f0 2B88     		ldrh	r3, [r5]
 3262 01f2 0133     		adds	r3, r3, #1
 3263 01f4 9BB2     		uxth	r3, r3
 3264 01f6 1946     		mov	r1, r3
 3265              	.L422:
 3266 01f8 0132     		adds	r2, r2, #1
 3267 01fa 02F00702 		and	r2, r2, #7
 3268 01fe 3270     		strb	r2, [r6]
 3269 0200 1F4A     		ldr	r2, .L447+40
 3270 0202 1278     		ldrb	r2, [r2]	@ zero_extendqisi2
 3271 0204 2270     		strb	r2, [r4]
 3272 0206 0022     		movs	r2, #0
 3273 0208 8CF80020 		strb	r2, [ip]
 3274 020c 6BE7     		b	.L420
 3275              	.L407:
 3276 020e 1849     		ldr	r1, .L447+24
 3277 0210 83F00103 		eor	r3, r3, #1
 3278 0214 144F     		ldr	r7, .L447+16
 3279 0216 0968     		ldr	r1, [r1]
 3280 0218 224A     		ldr	r2, .L447+76
 3281 021a 2944     		add	r1, r1, r5
 3282 021c B2F90020 		ldrsh	r2, [r2]
 3283 0220 91F9A00B 		ldrsb	r0, [r1, #2976]
 3284 0224 3968     		ldr	r1, [r7]
 3285 0226 521A     		subs	r2, r2, r1
 3286 0228 02FB03F3 		mul	r3, r2, r3
 3287 022c 0D4A     		ldr	r2, .L447+12
 3288 022e 0341     		asrs	r3, r3, r0
 3289 0230 0B44     		add	r3, r3, r1
 3290 0232 1178     		ldrb	r1, [r2]	@ zero_extendqisi2
 3291 0234 3B60     		str	r3, [r7]
 3292 0236 F9E6     		b	.L405
 3293              	.L446:
 3294 0238 1B4A     		ldr	r2, .L447+80
 3295 023a 0346     		mov	r3, r0
 3296 023c 1B49     		ldr	r1, .L447+84
 3297 023e 1278     		ldrb	r2, [r2]	@ zero_extendqisi2
 3298 0240 DFF86C80 		ldr	r8, .L447+88
 3299 0244 02F00302 		and	r2, r2, #3
 3300 0248 98F80000 		ldrb	r0, [r8]	@ zero_extendqisi2
 3301 024c 8A5C     		ldrb	r2, [r1, r2]	@ zero_extendqisi2
 3302 024e 3270     		strb	r2, [r6]
 3303 0250 80BB     		cbnz	r0, .L392
 3304 0252 1F70     		strb	r7, [r3]
 3305 0254 4EE7     		b	.L438
 3306              	.L448:
ARM GAS  /tmp/ccONvy4E.s 			page 60


 3307 0256 00BF     		.align	2
 3308              	.L447:
 3309 0258 00000000 		.word	m_IP
 3310 025c 00000000 		.word	m_subcycle
 3311 0260 00000000 		.word	m_inhibit
 3312 0264 00000000 		.word	m_OLDP
 3313 0268 00000000 		.word	m_current_pitch
 3314 026c 00000000 		.word	m_RNG
 3315 0270 00000000 		.word	m_coeff
 3316 0274 00000000 		.word	m_pitch_count
 3317 0278 00000000 		.word	m_excitation_data
 3318 027c 00000000 		.word	m_digital_select
 3319 0280 00000000 		.word	m_subc_reload
 3320 0284 00000000 		.word	m_PC
 3321 0288 00000000 		.word	m_current_k
 3322 028c 00000000 		.word	m_target_k
 3323 0290 00000000 		.word	m_new_frame_energy_idx
 3324 0294 00000000 		.word	m_new_frame_pitch_idx
 3325 0298 00000000 		.word	m_OLDE
 3326 029c 00000000 		.word	m_current_energy
 3327 02a0 00000000 		.word	m_target_energy
 3328 02a4 00000000 		.word	m_target_pitch
 3329 02a8 00000000 		.word	m_c_variant_rate
 3330 02ac 00000000 		.word	reload_table
 3331 02b0 00000000 		.word	m_talk_status
 3332              	.L392:
 3333 02b4 FFF7FEFF 		bl	parse_frame
 3334 02b8 4E4B     		ldr	r3, .L449
 3335 02ba 1B78     		ldrb	r3, [r3]	@ zero_extendqisi2
 3336 02bc 0F2B     		cmp	r3, #15
 3337 02be 00F09480 		beq	.L394
 3338 02c2 98F80050 		ldrb	r5, [r8]	@ zero_extendqisi2
 3339              	.L395:
 3340 02c6 4C4A     		ldr	r2, .L449+4
 3341 02c8 1178     		ldrb	r1, [r2]	@ zero_extendqisi2
 3342 02ca 4C4A     		ldr	r2, .L449+8
 3343 02cc 92F800E0 		ldrb	lr, [r2]	@ zero_extendqisi2
 3344 02d0 0029     		cmp	r1, #0
 3345 02d2 40F08180 		bne	.L396
 3346 02d6 BEF1000F 		cmp	lr, #0
 3347 02da 0AD0     		beq	.L397
 3348              	.L398:
 3349 02dc 484A     		ldr	r2, .L449+12
 3350 02de 002B     		cmp	r3, #0
 3351 02e0 1778     		ldrb	r7, [r2]	@ zero_extendqisi2
 3352 02e2 A7F10107 		sub	r7, #1
 3353 02e6 B7FA87F7 		clz	r7, r7
 3354 02ea 4FEA5717 		lsr	r7, r7, #5
 3355 02ee 08BF     		it	eq
 3356 02f0 0027     		moveq	r7, #0
 3357              	.L397:
 3358 02f2 03F11C00 		add	r0, r3, #28
 3359 02f6 434B     		ldr	r3, .L449+16
 3360 02f8 434A     		ldr	r2, .L449+20
 3361 02fa 1B78     		ldrb	r3, [r3]	@ zero_extendqisi2
 3362 02fc 9FED437A 		vldr.32	s14, .L449+24
 3363 0300 C3EB0313 		rsb	r3, r3, r3, lsl #4
ARM GAS  /tmp/ccONvy4E.s 			page 61


 3364 0304 DFF83091 		ldr	r9, .L449+68
 3365 0308 0EEB0313 		add	r3, lr, r3, lsl #4
 3366 030c 02EB8303 		add	r3, r2, r3, lsl #2
 3367 0310 0EF15C02 		add	r2, lr, #92
 3368 0314 D3ED007A 		vldr.32	s15, [r3]
 3369 0318 3D4B     		ldr	r3, .L449+28
 3370 031a 67EE877A 		vmul.f32	s15, s15, s14
 3371 031e D3F800C0 		ldr	ip, [r3]
 3372 0322 FCEEE77A 		vcvt.u32.f32	s15, s15
 3373 0326 3CF81220 		ldrh	r2, [ip, r2, lsl #1]
 3374 032a 3CF81000 		ldrh	r0, [ip, r0, lsl #1]
 3375 032e CDED017A 		vstr.32	s15, [sp, #4]	@ int
 3376 0332 07EE902A 		vmov	s15, r2	@ int
 3377 0336 9DF80430 		ldrb	r3, [sp, #4]	@ zero_extendqisi2
 3378 033a 364A     		ldr	r2, .L449+32
 3379 033c F8EEE77A 		vcvt.f32.s32	s15, s15
 3380 0340 7F2B     		cmp	r3, #127
 3381 0342 A9F80000 		strh	r0, [r9]	@ movhi
 3382 0346 3448     		ldr	r0, .L449+36
 3383 0348 28BF     		it	cs
 3384 034a 7F23     		movcs	r3, #127
 3385 034c 02EB8303 		add	r3, r2, r3, lsl #2
 3386 0350 93ED007A 		vldr.32	s14, [r3]
 3387 0354 314B     		ldr	r3, .L449+40
 3388 0356 67EE877A 		vmul.f32	s15, s15, s14
 3389 035a 1F70     		strb	r7, [r3]
 3390 035c 304B     		ldr	r3, .L449+44
 3391 035e FDEEE77A 		vcvt.s32.f32	s15, s15
 3392 0362 304F     		ldr	r7, .L449+48
 3393 0364 17EE902A 		vmov	r2, s15	@ int
 3394 0368 1A80     		strh	r2, [r3]	@ movhi
 3395 036a 0022     		movs	r2, #0
 3396              	.L399:
 3397 036c 17F8013B 		ldrb	r3, [r7], #1	@ zero_extendqisi2
 3398 0370 03EB8213 		add	r3, r3, r2, lsl #6
 3399 0374 0132     		adds	r2, r2, #1
 3400 0376 4E33     		adds	r3, r3, #78
 3401 0378 042A     		cmp	r2, #4
 3402 037a 5CF82330 		ldr	r3, [ip, r3, lsl #2]
 3403 037e 20F8023B 		strh	r3, [r0], #2	@ movhi
 3404 0382 F3D1     		bne	.L399
 3405 0384 DCF80480 		ldr	r8, [ip, #4]
 3406 0388 B8F1040F 		cmp	r8, #4
 3407 038c 18DD     		ble	.L404
 3408 038e BEF1000E 		subs	lr, lr, #0
 3409 0392 254F     		ldr	r7, .L449+52
 3410 0394 2548     		ldr	r0, .L449+56
 3411 0396 18BF     		it	ne
 3412 0398 4FF0010E 		movne	lr, #1
 3413              	.L403:
 3414 039c 17F8013F 		ldrb	r3, [r7, #1]!	@ zero_extendqisi2
 3415 03a0 BEF1000F 		cmp	lr, #0
 3416 03a4 03EB8213 		add	r3, r3, r2, lsl #6
 3417 03a8 02F10102 		add	r2, r2, #1
 3418 03ac 03F14E03 		add	r3, r3, #78
 3419 03b0 5CF82330 		ldr	r3, [ip, r3, lsl #2]
 3420 03b4 08BF     		it	eq
ARM GAS  /tmp/ccONvy4E.s 			page 62


 3421 03b6 0023     		moveq	r3, #0
 3422 03b8 4245     		cmp	r2, r8
 3423 03ba 20F8023F 		strh	r3, [r0, #2]!	@ movhi
 3424 03be EDD1     		bne	.L403
 3425              	.L404:
 3426 03c0 0DB9     		cbnz	r5, .L440
 3427 03c2 A9F80050 		strh	r5, [r9]	@ movhi
 3428              	.L440:
 3429 03c6 1A4F     		ldr	r7, .L449+60
 3430 03c8 30E6     		b	.L405
 3431              	.L421:
 3432 03ca 144B     		ldr	r3, .L449+40
 3433 03cc 1978     		ldrb	r1, [r3]	@ zero_extendqisi2
 3434 03ce 0129     		cmp	r1, #1
 3435 03d0 7FF40EAF 		bne	.L423
 3436 03d4 0B46     		mov	r3, r1
 3437 03d6 0FE7     		b	.L422
 3438              	.L396:
 3439 03d8 0129     		cmp	r1, #1
 3440 03da 7FF47FAF 		bne	.L398
 3441 03de BEF1000F 		cmp	lr, #0
 3442 03e2 3FF47BAF 		beq	.L398
 3443 03e6 0F46     		mov	r7, r1
 3444 03e8 83E7     		b	.L397
 3445              	.L394:
 3446 03ea 124A     		ldr	r2, .L449+64
 3447 03ec 88F80050 		strb	r5, [r8]
 3448 03f0 1570     		strb	r5, [r2]
 3449 03f2 68E7     		b	.L395
 3450              	.L450:
 3451              		.align	2
 3452              	.L449:
 3453 03f4 00000000 		.word	m_new_frame_energy_idx
 3454 03f8 00000000 		.word	m_OLDP
 3455 03fc 00000000 		.word	m_new_frame_pitch_idx
 3456 0400 00000000 		.word	m_OLDE
 3457 0404 00000000 		.word	_intmode
 3458 0408 00000000 		.word	exy
 3459 040c 00000343 		.word	1124270080
 3460 0410 00000000 		.word	m_coeff
 3461 0414 00000000 		.word	logpitch
 3462 0418 00000000 		.word	m_target_k
 3463 041c 00000000 		.word	m_inhibit
 3464 0420 00000000 		.word	m_target_pitch
 3465 0424 00000000 		.word	m_new_frame_k_idx
 3466 0428 03000000 		.word	m_new_frame_k_idx+3
 3467 042c 06000000 		.word	m_target_k+6
 3468 0430 00000000 		.word	m_current_pitch
 3469 0434 00000000 		.word	m_speak_external
 3470 0438 00000000 		.word	m_target_energy
 3471              		.size	process_pitch_tabled5100, .-process_pitch_tabled5100
 3472              		.section	.text.processbend5100,"ax",%progbits
 3473              		.align	1
 3474              		.p2align 2,,3
 3475              		.global	processbend5100
 3476              		.syntax unified
 3477              		.thumb
ARM GAS  /tmp/ccONvy4E.s 			page 63


 3478              		.thumb_func
 3479              		.type	processbend5100, %function
 3480              	processbend5100:
 3481              		@ args = 0, pretend = 0, frame = 24
 3482              		@ frame_needed = 0, uses_anonymous_args = 0
 3483 0000 BC4B     		ldr	r3, .L532
 3484 0002 2DE9F04F 		push	{r4, r5, r6, r7, r8, r9, r10, fp, lr}
 3485 0006 1F78     		ldrb	r7, [r3]	@ zero_extendqisi2
 3486 0008 87B0     		sub	sp, sp, #28
 3487 000a BB4B     		ldr	r3, .L532+4
 3488 000c DFF840A3 		ldr	r10, .L532+92
 3489 0010 DFF84083 		ldr	r8, .L532+96
 3490 0014 1D68     		ldr	r5, [r3]
 3491 0016 9AF80020 		ldrb	r2, [r10]	@ zero_extendqisi2
 3492 001a 98F80060 		ldrb	r6, [r8]	@ zero_extendqisi2
 3493 001e 6C68     		ldr	r4, [r5, #4]
 3494 0020 002F     		cmp	r7, #0
 3495 0022 00F0D380 		beq	.L452
 3496 0026 B54B     		ldr	r3, .L532+8
 3497 0028 1B78     		ldrb	r3, [r3]	@ zero_extendqisi2
 3498 002a A3F10103 		sub	r3, #1
 3499 002e B3FA83F3 		clz	r3, r3
 3500 0032 5B09     		lsrs	r3, r3, #5
 3501 0034 0593     		str	r3, [sp, #20]
 3502 0036 B24B     		ldr	r3, .L532+12
 3503 0038 93F800B0 		ldrb	fp, [r3]	@ zero_extendqisi2
 3504 003c B14B     		ldr	r3, .L532+16
 3505 003e 1B78     		ldrb	r3, [r3]	@ zero_extendqisi2
 3506 0040 002B     		cmp	r3, #0
 3507 0042 40F0D180 		bne	.L477
 3508              	.L530:
 3509 0046 0323     		movs	r3, #3
 3510 0048 4FF4857E 		mov	lr, #266
 3511 004c 13FB0263 		smlabb	r3, r3, r2, r6
 3512 0050 0493     		str	r3, [sp, #16]
 3513 0052 2623     		movs	r3, #38
 3514 0054 0393     		str	r3, [sp, #12]
 3515              	.L478:
 3516 0056 AC4B     		ldr	r3, .L532+20
 3517 0058 AC49     		ldr	r1, .L532+24
 3518 005a 1B78     		ldrb	r3, [r3]	@ zero_extendqisi2
 3519 005c DFF8F892 		ldr	r9, .L532+100
 3520 0060 0E46     		mov	r6, r1
 3521 0062 1C33     		adds	r3, r3, #28
 3522 0064 DFF8E0C2 		ldr	ip, .L532+84
 3523 0068 35F81330 		ldrh	r3, [r5, r3, lsl #1]
 3524 006c 0293     		str	r3, [sp, #8]
 3525 006e A84B     		ldr	r3, .L532+28
 3526 0070 1B78     		ldrb	r3, [r3]	@ zero_extendqisi2
 3527 0072 5C33     		adds	r3, r3, #92
 3528 0074 35F81320 		ldrh	r2, [r5, r3, lsl #1]
 3529 0078 0023     		movs	r3, #0
 3530 007a C9F80020 		str	r2, [r9]
 3531              	.L479:
 3532 007e 1CF8010B 		ldrb	r0, [ip], #1	@ zero_extendqisi2
 3533 0082 00EB8310 		add	r0, r0, r3, lsl #6
 3534 0086 0133     		adds	r3, r3, #1
ARM GAS  /tmp/ccONvy4E.s 			page 64


 3535 0088 4E30     		adds	r0, r0, #78
 3536 008a 042B     		cmp	r3, #4
 3537 008c 55F82000 		ldr	r0, [r5, r0, lsl #2]
 3538 0090 46F8040B 		str	r0, [r6], #4
 3539 0094 F3D1     		bne	.L479
 3540 0096 042C     		cmp	r4, #4
 3541 0098 40F38481 		ble	.L526
 3542 009c CBF1010C 		rsb	ip, fp, #1
 3543 00a0 9C4E     		ldr	r6, .L532+32
 3544 00a2 9D48     		ldr	r0, .L532+36
 3545 00a4 0192     		str	r2, [sp, #4]
 3546              	.L483:
 3547 00a6 16F8012F 		ldrb	r2, [r6, #1]!	@ zero_extendqisi2
 3548 00aa 02EB8312 		add	r2, r2, r3, lsl #6
 3549 00ae 0133     		adds	r3, r3, #1
 3550 00b0 4E32     		adds	r2, r2, #78
 3551 00b2 A342     		cmp	r3, r4
 3552 00b4 55F82220 		ldr	r2, [r5, r2, lsl #2]
 3553 00b8 0CFB02F2 		mul	r2, ip, r2
 3554 00bc 40F8042F 		str	r2, [r0, #4]!
 3555 00c0 F1D1     		bne	.L483
 3556 00c2 964B     		ldr	r3, .L532+40
 3557 00c4 9648     		ldr	r0, .L532+44
 3558 00c6 019A     		ldr	r2, [sp, #4]
 3559 00c8 B3F90030 		ldrsh	r3, [r3]
 3560 00cc B0F90000 		ldrsh	r0, [r0]
 3561 00d0 002F     		cmp	r7, #0
 3562 00d2 40F0CA80 		bne	.L481
 3563 00d6 934A     		ldr	r2, .L532+48
 3564 00d8 C9F80000 		str	r0, [r9]
 3565 00dc 1360     		str	r3, [r2]
 3566              	.L484:
 3567 00de 924B     		ldr	r3, .L532+52
 3568 00e0 03EB4404 		add	r4, r3, r4, lsl #1
 3569              	.L489:
 3570 00e4 33F9022B 		ldrsh	r2, [r3], #2
 3571 00e8 A342     		cmp	r3, r4
 3572 00ea 41F8042B 		str	r2, [r1], #4
 3573 00ee F9D1     		bne	.L489
 3574              	.L476:
 3575 00f0 8E49     		ldr	r1, .L532+56
 3576 00f2 BBF1010F 		cmp	fp, #1
 3577 00f6 0B88     		ldrh	r3, [r1]
 3578 00f8 00F0F480 		beq	.L527
 3579              	.L490:
 3580 00fc 7E4A     		ldr	r2, .L532+4
 3581 00fe 8C4C     		ldr	r4, .L532+60
 3582 0100 1068     		ldr	r0, [r2]
 3583 0102 2288     		ldrh	r2, [r4]
 3584 0104 322A     		cmp	r2, #50
 3585 0106 40F23681 		bls	.L492
 3586 010a 90F99E2B 		ldrsb	r2, [r0, #2974]
 3587              	.L491:
 3588 010e 8948     		ldr	r0, .L532+64
 3589 0110 0280     		strh	r2, [r0]	@ movhi
 3590 0112 1420     		movs	r0, #20
 3591              	.L493:
ARM GAS  /tmp/ccONvy4E.s 			page 65


 3592 0114 DA08     		lsrs	r2, r3, #3
 3593 0116 0138     		subs	r0, r0, #1
 3594 0118 82EA1332 		eor	r2, r2, r3, lsr #12
 3595 011c 82EA0302 		eor	r2, r2, r3
 3596 0120 82EA9302 		eor	r2, r2, r3, lsr #2
 3597 0124 02F00102 		and	r2, r2, #1
 3598 0128 42EA4303 		orr	r3, r2, r3, lsl #1
 3599 012c 9BB2     		uxth	r3, r3
 3600 012e F1D1     		bne	.L493
 3601 0130 0B80     		strh	r3, [r1]	@ movhi
 3602 0132 FFF7FEFF 		bl	lattice_filter
 3603 0136 B0F5804F 		cmp	r0, #16384
 3604 013a 06DB     		blt	.L494
 3605 013c A0F58043 		sub	r3, r0, #16384
 3606 0140 A0F50040 		sub	r0, r0, #32768
 3607 0144 6FF30E03 		bfc	r3, #0, #15
 3608 0148 C01A     		subs	r0, r0, r3
 3609              	.L494:
 3610 014a 10F5804F 		cmn	r0, #16384
 3611 014e 07DA     		bge	.L495
 3612 0150 6FF48043 		mvn	r3, #16384
 3613 0154 1B1A     		subs	r3, r3, r0
 3614 0156 00F50040 		add	r0, r0, #32768
 3615 015a 6FF30E03 		bfc	r3, #0, #15
 3616 015e 1844     		add	r0, r0, r3
 3617              	.L495:
 3618 0160 754B     		ldr	r3, .L532+68
 3619 0162 1B78     		ldrb	r3, [r3]	@ zero_extendqisi2
 3620 0164 002B     		cmp	r3, #0
 3621 0166 78D1     		bne	.L496
 3622 0168 03B2     		sxth	r3, r0
 3623 016a 03F30B03 		ssat	r3, #12, r3
 3624 016e 23F00F03 		bic	r3, r3, #15
 3625 0172 99B2     		uxth	r1, r3
 3626 0174 CA10     		asrs	r2, r1, #3
 3627 0176 C1F38021 		ubfx	r1, r1, #10, #1
 3628 017a 02F0FE02 		and	r2, r2, #254
 3629 017e 0A43     		orrs	r2, r2, r1
 3630 0180 42EA0313 		orr	r3, r2, r3, lsl #4
 3631 0184 18B2     		sxth	r0, r3
 3632              	.L497:
 3633 0186 98F80030 		ldrb	r3, [r8]	@ zero_extendqisi2
 3634 018a 0133     		adds	r3, r3, #1
 3635 018c DBB2     		uxtb	r3, r3
 3636 018e 022B     		cmp	r3, #2
 3637 0190 88F80030 		strb	r3, [r8]
 3638 0194 00F0E680 		beq	.L528
 3639 0198 032B     		cmp	r3, #3
 3640 019a 2288     		ldrh	r2, [r4]
 3641 019c 08D1     		bne	.L505
 3642 019e 9AF80030 		ldrb	r3, [r10]	@ zero_extendqisi2
 3643 01a2 0133     		adds	r3, r3, #1
 3644 01a4 8AF80030 		strb	r3, [r10]
 3645 01a8 564B     		ldr	r3, .L532+16
 3646 01aa 1B78     		ldrb	r3, [r3]	@ zero_extendqisi2
 3647 01ac 88F80030 		strb	r3, [r8]
 3648              	.L505:
ARM GAS  /tmp/ccONvy4E.s 			page 66


 3649 01b0 531C     		adds	r3, r2, #1
 3650 01b2 9BB2     		uxth	r3, r3
 3651 01b4 1946     		mov	r1, r3
 3652              	.L500:
 3653 01b6 D9F80020 		ldr	r2, [r9]
 3654 01ba 8A42     		cmp	r2, r1
 3655 01bc CCBF     		ite	gt
 3656 01be C3F30803 		ubfxgt	r3, r3, #0, #9
 3657 01c2 0023     		movle	r3, #0
 3658 01c4 2380     		strh	r3, [r4]	@ movhi
 3659              	.L522:
 3660 01c6 07B0     		add	sp, sp, #28
 3661              		@ sp needed
 3662 01c8 BDE8F08F 		pop	{r4, r5, r6, r7, r8, r9, r10, fp, pc}
 3663              	.L452:
 3664 01cc BAB9     		cbnz	r2, .L454
 3665 01ce 012E     		cmp	r6, #1
 3666 01d0 40F2D680 		bls	.L529
 3667              	.L455:
 3668 01d4 4A4B     		ldr	r3, .L532+12
 3669 01d6 93F800B0 		ldrb	fp, [r3]	@ zero_extendqisi2
 3670              	.L456:
 3671 01da 0023     		movs	r3, #0
 3672 01dc 0593     		str	r3, [sp, #20]
 3673 01de 494B     		ldr	r3, .L532+16
 3674 01e0 1B78     		ldrb	r3, [r3]	@ zero_extendqisi2
 3675 01e2 002B     		cmp	r3, #0
 3676 01e4 3FF42FAF 		beq	.L530
 3677              	.L477:
 3678 01e8 F61A     		subs	r6, r6, r3
 3679 01ea C3F10303 		rsb	r3, r3, #3
 3680 01ee 4FF0AF0E 		mov	lr, #175
 3681 01f2 02FB0363 		mla	r3, r2, r3, r6
 3682 01f6 0493     		str	r3, [sp, #16]
 3683 01f8 1923     		movs	r3, #25
 3684 01fa 0393     		str	r3, [sp, #12]
 3685 01fc 2BE7     		b	.L478
 3686              	.L454:
 3687 01fe 0C2A     		cmp	r2, #12
 3688 0200 E8D1     		bne	.L455
 3689 0202 012E     		cmp	r6, #1
 3690 0204 E6D1     		bne	.L455
 3691 0206 4D4B     		ldr	r3, .L532+72
 3692 0208 002C     		cmp	r4, #0
 3693 020a 4D4A     		ldr	r2, .L532+76
 3694 020c 0146     		mov	r1, r0
 3695 020e 1B78     		ldrb	r3, [r3]	@ zero_extendqisi2
 3696 0210 DFF848B1 		ldr	fp, .L532+104
 3697 0214 03F00303 		and	r3, r3, #3
 3698 0218 DFF84491 		ldr	r9, .L532+108
 3699 021c D35C     		ldrb	r3, [r2, r3]	@ zero_extendqisi2
 3700 021e 354A     		ldr	r2, .L532
 3701 0220 1370     		strb	r3, [r2]
 3702 0222 394B     		ldr	r3, .L532+20
 3703 0224 9BF80020 		ldrb	r2, [fp]	@ zero_extendqisi2
 3704 0228 1A70     		strb	r2, [r3]
 3705 022a 394B     		ldr	r3, .L532+28
ARM GAS  /tmp/ccONvy4E.s 			page 67


 3706 022c 99F80020 		ldrb	r2, [r9]	@ zero_extendqisi2
 3707 0230 1A70     		strb	r2, [r3]
 3708 0232 0ADD     		ble	.L463
 3709 0234 434C     		ldr	r4, .L532+80
 3710 0236 3A46     		mov	r2, r7
 3711 0238 4348     		ldr	r0, .L532+84
 3712              	.L462:
 3713 023a 14F8013B 		ldrb	r3, [r4], #1	@ zero_extendqisi2
 3714 023e 0132     		adds	r2, r2, #1
 3715 0240 00F8013B 		strb	r3, [r0], #1
 3716 0244 6B68     		ldr	r3, [r5, #4]
 3717 0246 9342     		cmp	r3, r2
 3718 0248 F7DC     		bgt	.L462
 3719              	.L463:
 3720 024a 404C     		ldr	r4, .L532+88
 3721 024c 2078     		ldrb	r0, [r4]	@ zero_extendqisi2
 3722 024e 0028     		cmp	r0, #0
 3723 0250 40F0CE80 		bne	.L531
 3724 0254 0123     		movs	r3, #1
 3725 0256 0B70     		strb	r3, [r1]
 3726 0258 B5E7     		b	.L522
 3727              	.L496:
 3728 025a 20F00F03 		bic	r3, r0, #15
 3729 025e C0F34420 		ubfx	r0, r0, #9, #5
 3730 0262 40EA4300 		orr	r0, r0, r3, lsl #1
 3731 0266 00B2     		sxth	r0, r0
 3732 0268 8DE7     		b	.L497
 3733              	.L481:
 3734 026a 801A     		subs	r0, r0, r2
 3735 026c 029E     		ldr	r6, [sp, #8]
 3736 026e 013F     		subs	r7, r7, #1
 3737 0270 059D     		ldr	r5, [sp, #20]
 3738 0272 A3EB060C 		sub	ip, r3, r6
 3739 0276 0190     		str	r0, [sp, #4]
 3740 0278 07F00707 		and	r7, r7, #7
 3741 027c 85F00105 		eor	r5, r5, #1
 3742 0280 002C     		cmp	r4, #0
 3743 0282 DDE90303 		ldrd	r0, r3, [sp, #12]
 3744 0286 00FB0737 		mla	r7, r0, r7, r3
 3745 028a 0198     		ldr	r0, [sp, #4]
 3746 028c 05FB0CF3 		mul	r3, r5, ip
 3747 0290 05FB00F0 		mul	r0, r5, r0
 3748 0294 07FB03F3 		mul	r3, r7, r3
 3749 0298 07FB00F0 		mul	r0, r7, r0
 3750 029c 93FBFEF3 		sdiv	r3, r3, lr
 3751 02a0 90FBFEF0 		sdiv	r0, r0, lr
 3752 02a4 3344     		add	r3, r3, r6
 3753 02a6 1044     		add	r0, r0, r2
 3754 02a8 1E4A     		ldr	r2, .L532+48
 3755 02aa C9F80000 		str	r0, [r9]
 3756 02ae 1360     		str	r3, [r2]
 3757 02b0 7FF71EAF 		ble	.L476
 3758 02b4 01EB8404 		add	r4, r1, r4, lsl #2
 3759 02b8 1B4A     		ldr	r2, .L532+52
 3760              	.L487:
 3761 02ba 0868     		ldr	r0, [r1]
 3762 02bc 32F9023B 		ldrsh	r3, [r2], #2
ARM GAS  /tmp/ccONvy4E.s 			page 68


 3763 02c0 1B1A     		subs	r3, r3, r0
 3764 02c2 05FB03F3 		mul	r3, r5, r3
 3765 02c6 07FB03F3 		mul	r3, r7, r3
 3766 02ca 93FBFEF3 		sdiv	r3, r3, lr
 3767 02ce 0344     		add	r3, r3, r0
 3768 02d0 41F8043B 		str	r3, [r1], #4
 3769 02d4 A142     		cmp	r1, r4
 3770 02d6 F0D1     		bne	.L487
 3771 02d8 1449     		ldr	r1, .L532+56
 3772 02da BBF1010F 		cmp	fp, #1
 3773 02de 0B88     		ldrh	r3, [r1]
 3774 02e0 7FF40CAF 		bne	.L490
 3775              	.L527:
 3776 02e4 13F0010F 		tst	r3, #1
 3777 02e8 114C     		ldr	r4, .L532+60
 3778 02ea 14BF     		ite	ne
 3779 02ec 6FF03F02 		mvnne	r2, #63
 3780 02f0 4022     		moveq	r2, #64
 3781 02f2 0CE7     		b	.L491
 3782              	.L533:
 3783              		.align	2
 3784              	.L532:
 3785 02f4 00000000 		.word	m_IP
 3786 02f8 00000000 		.word	m_coeff
 3787 02fc 00000000 		.word	m_inhibit
 3788 0300 00000000 		.word	m_OLDP
 3789 0304 00000000 		.word	m_subc_reload
 3790 0308 00000000 		.word	m_old_frame_energy_idx
 3791 030c 00000000 		.word	m_current_k
 3792 0310 00000000 		.word	m_old_frame_pitch_idx
 3793 0314 03000000 		.word	m_old_frame_k_idx+3
 3794 0318 0C000000 		.word	m_current_k+12
 3795 031c 00000000 		.word	m_target_energy
 3796 0320 00000000 		.word	m_target_pitch
 3797 0324 00000000 		.word	m_current_energy
 3798 0328 00000000 		.word	m_target_k
 3799 032c 00000000 		.word	m_RNG
 3800 0330 00000000 		.word	m_pitch_count
 3801 0334 00000000 		.word	m_excitation_data
 3802 0338 00000000 		.word	m_digital_select
 3803 033c 00000000 		.word	m_c_variant_rate
 3804 0340 00000000 		.word	reload_table
 3805 0344 00000000 		.word	m_new_frame_k_idx
 3806 0348 00000000 		.word	m_old_frame_k_idx
 3807 034c 00000000 		.word	m_talk_status
 3808 0350 00000000 		.word	m_PC
 3809 0354 00000000 		.word	m_subcycle
 3810 0358 00000000 		.word	m_current_pitch
 3811 035c 00000000 		.word	m_new_frame_energy_idx
 3812 0360 00000000 		.word	m_new_frame_pitch_idx
 3813              	.L528:
 3814 0364 9AF80030 		ldrb	r3, [r10]	@ zero_extendqisi2
 3815 0368 0C2B     		cmp	r3, #12
 3816 036a 2CD0     		beq	.L499
 3817 036c 2388     		ldrh	r3, [r4]
 3818 036e 0133     		adds	r3, r3, #1
 3819 0370 9BB2     		uxth	r3, r3
ARM GAS  /tmp/ccONvy4E.s 			page 69


 3820 0372 1946     		mov	r1, r3
 3821 0374 1FE7     		b	.L500
 3822              	.L492:
 3823 0376 02F29C52 		addw	r2, r2, #1436
 3824 037a 10F91220 		ldrsb	r2, [r0, r2, lsl #1]
 3825 037e C6E6     		b	.L491
 3826              	.L529:
 3827 0380 514B     		ldr	r3, .L534
 3828 0382 5249     		ldr	r1, .L534+4
 3829 0384 1B78     		ldrb	r3, [r3]	@ zero_extendqisi2
 3830 0386 91F800B0 		ldrb	fp, [r1]	@ zero_extendqisi2
 3831 038a B3FA83F3 		clz	r3, r3
 3832 038e 5049     		ldr	r1, .L534+8
 3833 0390 BBFA8BFB 		clz	fp, fp
 3834 0394 5B09     		lsrs	r3, r3, #5
 3835 0396 4FEA5B1B 		lsr	fp, fp, #5
 3836 039a 0B70     		strb	r3, [r1]
 3837 039c 4D4B     		ldr	r3, .L534+12
 3838 039e 83F800B0 		strb	fp, [r3]
 3839 03a2 1AE7     		b	.L456
 3840              	.L526:
 3841 03a4 4C4B     		ldr	r3, .L534+16
 3842 03a6 4D48     		ldr	r0, .L534+20
 3843 03a8 B3F90030 		ldrsh	r3, [r3]
 3844 03ac B0F90000 		ldrsh	r0, [r0]
 3845 03b0 002F     		cmp	r7, #0
 3846 03b2 7FF45AAF 		bne	.L481
 3847 03b6 4A4A     		ldr	r2, .L534+24
 3848 03b8 002C     		cmp	r4, #0
 3849 03ba C9F80000 		str	r0, [r9]
 3850 03be 1360     		str	r3, [r2]
 3851 03c0 3FF78DAE 		bgt	.L484
 3852 03c4 94E6     		b	.L476
 3853              	.L499:
 3854 03c6 474B     		ldr	r3, .L534+28
 3855 03c8 1A78     		ldrb	r2, [r3]	@ zero_extendqisi2
 3856 03ca 072A     		cmp	r2, #7
 3857 03cc 6AD0     		beq	.L501
 3858              	.L503:
 3859 03ce 2388     		ldrh	r3, [r4]
 3860 03d0 0133     		adds	r3, r3, #1
 3861 03d2 9BB2     		uxth	r3, r3
 3862 03d4 1946     		mov	r1, r3
 3863              	.L502:
 3864 03d6 0132     		adds	r2, r2, #1
 3865 03d8 424D     		ldr	r5, .L534+28
 3866 03da 02F00702 		and	r2, r2, #7
 3867 03de 2A70     		strb	r2, [r5]
 3868 03e0 414A     		ldr	r2, .L534+32
 3869 03e2 1278     		ldrb	r2, [r2]	@ zero_extendqisi2
 3870 03e4 88F80020 		strb	r2, [r8]
 3871 03e8 0022     		movs	r2, #0
 3872 03ea 8AF80020 		strb	r2, [r10]
 3873 03ee E2E6     		b	.L500
 3874              	.L531:
 3875 03f0 FFF7FEFF 		bl	parse_frame_bend_5200
 3876 03f4 9BF80030 		ldrb	r3, [fp]	@ zero_extendqisi2
ARM GAS  /tmp/ccONvy4E.s 			page 70


 3877 03f8 0F2B     		cmp	r3, #15
 3878 03fa 60D0     		beq	.L465
 3879 03fc 2778     		ldrb	r7, [r4]	@ zero_extendqisi2
 3880              	.L466:
 3881 03fe 354A     		ldr	r2, .L534+12
 3882 0400 99F80050 		ldrb	r5, [r9]	@ zero_extendqisi2
 3883 0404 92F800B0 		ldrb	fp, [r2]	@ zero_extendqisi2
 3884 0408 BBF1000F 		cmp	fp, #0
 3885 040c 50D1     		bne	.L467
 3886 040e 55B1     		cbz	r5, .L468
 3887              	.L469:
 3888 0410 2F4A     		ldr	r2, .L534+8
 3889 0412 002B     		cmp	r3, #0
 3890 0414 1678     		ldrb	r6, [r2]	@ zero_extendqisi2
 3891 0416 A6F10106 		sub	r6, #1
 3892 041a B6FA86F6 		clz	r6, r6
 3893 041e 4FEA5616 		lsr	r6, r6, #5
 3894 0422 08BF     		it	eq
 3895 0424 0026     		moveq	r6, #0
 3896              	.L468:
 3897 0426 314A     		ldr	r2, .L534+36
 3898 0428 1C33     		adds	r3, r3, #28
 3899 042a DFF8ACC0 		ldr	ip, .L534+16
 3900 042e 1468     		ldr	r4, [r2]
 3901 0430 05F15C02 		add	r2, r5, #92
 3902 0434 2E49     		ldr	r1, .L534+40
 3903 0436 34F81330 		ldrh	r3, [r4, r3, lsl #1]
 3904 043a 34F81220 		ldrh	r2, [r4, r2, lsl #1]
 3905 043e ACF80030 		strh	r3, [ip]	@ movhi
 3906 0442 264B     		ldr	r3, .L534+20
 3907 0444 0E70     		strb	r6, [r1]
 3908 0446 1A80     		strh	r2, [r3]	@ movhi
 3909 0448 0023     		movs	r3, #0
 3910 044a 2A48     		ldr	r0, .L534+44
 3911 044c 2A49     		ldr	r1, .L534+48
 3912              	.L470:
 3913 044e 10F8012B 		ldrb	r2, [r0], #1	@ zero_extendqisi2
 3914 0452 02EB8312 		add	r2, r2, r3, lsl #6
 3915 0456 0133     		adds	r3, r3, #1
 3916 0458 4E32     		adds	r2, r2, #78
 3917 045a 042B     		cmp	r3, #4
 3918 045c 54F82220 		ldr	r2, [r4, r2, lsl #2]
 3919 0460 21F8022B 		strh	r2, [r1], #2	@ movhi
 3920 0464 F3D1     		bne	.L470
 3921 0466 6668     		ldr	r6, [r4, #4]
 3922 0468 042E     		cmp	r6, #4
 3923 046a 15DD     		ble	.L475
 3924 046c 003D     		subs	r5, r5, #0
 3925 046e 2348     		ldr	r0, .L534+52
 3926 0470 2349     		ldr	r1, .L534+56
 3927 0472 18BF     		it	ne
 3928 0474 0125     		movne	r5, #1
 3929              	.L474:
 3930 0476 10F8012F 		ldrb	r2, [r0, #1]!	@ zero_extendqisi2
 3931 047a 002D     		cmp	r5, #0
 3932 047c 02EB8312 		add	r2, r2, r3, lsl #6
 3933 0480 03F10103 		add	r3, r3, #1
ARM GAS  /tmp/ccONvy4E.s 			page 71


 3934 0484 02F14E02 		add	r2, r2, #78
 3935 0488 54F82220 		ldr	r2, [r4, r2, lsl #2]
 3936 048c 08BF     		it	eq
 3937 048e 0022     		moveq	r2, #0
 3938 0490 9E42     		cmp	r6, r3
 3939 0492 21F8022F 		strh	r2, [r1, #2]!	@ movhi
 3940 0496 EED1     		bne	.L474
 3941              	.L475:
 3942 0498 0FB9     		cbnz	r7, .L525
 3943 049a ACF80070 		strh	r7, [ip]	@ movhi
 3944              	.L525:
 3945 049e DFF86890 		ldr	r9, .L534+64
 3946 04a2 25E6     		b	.L476
 3947              	.L501:
 3948 04a4 124B     		ldr	r3, .L534+40
 3949 04a6 1978     		ldrb	r1, [r3]	@ zero_extendqisi2
 3950 04a8 0129     		cmp	r1, #1
 3951 04aa 90D1     		bne	.L503
 3952 04ac 0B46     		mov	r3, r1
 3953 04ae 92E7     		b	.L502
 3954              	.L467:
 3955 04b0 BBF1010F 		cmp	fp, #1
 3956 04b4 ACD1     		bne	.L469
 3957 04b6 002D     		cmp	r5, #0
 3958 04b8 AAD0     		beq	.L469
 3959 04ba 5E46     		mov	r6, fp
 3960 04bc B3E7     		b	.L468
 3961              	.L465:
 3962 04be 0022     		movs	r2, #0
 3963 04c0 1049     		ldr	r1, .L534+60
 3964 04c2 2270     		strb	r2, [r4]
 3965 04c4 0A70     		strb	r2, [r1]
 3966 04c6 9AE7     		b	.L466
 3967              	.L535:
 3968              		.align	2
 3969              	.L534:
 3970 04c8 00000000 		.word	m_new_frame_energy_idx
 3971 04cc 00000000 		.word	m_new_frame_pitch_idx
 3972 04d0 00000000 		.word	m_OLDE
 3973 04d4 00000000 		.word	m_OLDP
 3974 04d8 00000000 		.word	m_target_energy
 3975 04dc 00000000 		.word	m_target_pitch
 3976 04e0 00000000 		.word	m_current_energy
 3977 04e4 00000000 		.word	m_IP
 3978 04e8 00000000 		.word	m_subc_reload
 3979 04ec 00000000 		.word	m_coeff
 3980 04f0 00000000 		.word	m_inhibit
 3981 04f4 00000000 		.word	m_new_frame_k_idx
 3982 04f8 00000000 		.word	m_target_k
 3983 04fc 03000000 		.word	m_new_frame_k_idx+3
 3984 0500 06000000 		.word	m_target_k+6
 3985 0504 00000000 		.word	m_speak_external
 3986 0508 00000000 		.word	m_current_pitch
 3987              		.size	processbend5100, .-processbend5100
 3988              		.section	.text.process5100raw,"ax",%progbits
 3989              		.align	1
 3990              		.p2align 2,,3
ARM GAS  /tmp/ccONvy4E.s 			page 72


 3991              		.global	process5100raw
 3992              		.syntax unified
 3993              		.thumb
 3994              		.thumb_func
 3995              		.type	process5100raw, %function
 3996              	process5100raw:
 3997              		@ args = 0, pretend = 0, frame = 16
 3998              		@ frame_needed = 0, uses_anonymous_args = 0
 3999 0000 2DE9F04F 		push	{r4, r5, r6, r7, r8, r9, r10, fp, lr}
 4000 0004 BB4B     		ldr	r3, .L595
 4001 0006 85B0     		sub	sp, sp, #20
 4002 0008 BB4D     		ldr	r5, .L595+4
 4003 000a DFF844A3 		ldr	r10, .L595+92
 4004 000e DFF84483 		ldr	r8, .L595+96
 4005 0012 2C68     		ldr	r4, [r5]
 4006 0014 1F78     		ldrb	r7, [r3]	@ zero_extendqisi2
 4007 0016 9AF80010 		ldrb	r1, [r10]	@ zero_extendqisi2
 4008 001a 98F80020 		ldrb	r2, [r8]	@ zero_extendqisi2
 4009 001e 6068     		ldr	r0, [r4, #4]
 4010 0020 17B9     		cbnz	r7, .L537
 4011 0022 0C29     		cmp	r1, #12
 4012 0024 00F0FD80 		beq	.L590
 4013              	.L537:
 4014 0028 B44B     		ldr	r3, .L595+8
 4015 002a 1B78     		ldrb	r3, [r3]	@ zero_extendqisi2
 4016 002c 002B     		cmp	r3, #0
 4017 002e 40F0A880 		bne	.L591
 4018 0032 0323     		movs	r3, #3
 4019 0034 4FF4857E 		mov	lr, #266
 4020 0038 13FB0123 		smlabb	r3, r3, r1, r2
 4021 003c 0393     		str	r3, [sp, #12]
 4022 003e 2623     		movs	r3, #38
 4023 0040 0293     		str	r3, [sp, #8]
 4024              	.L548:
 4025 0042 AF4B     		ldr	r3, .L595+12
 4026 0044 AF49     		ldr	r1, .L595+16
 4027 0046 1B78     		ldrb	r3, [r3]	@ zero_extendqisi2
 4028 0048 DFF80C93 		ldr	r9, .L595+100
 4029 004c 0D46     		mov	r5, r1
 4030 004e 1C33     		adds	r3, r3, #28
 4031 0050 AD4E     		ldr	r6, .L595+20
 4032 0052 34F81330 		ldrh	r3, [r4, r3, lsl #1]
 4033 0056 0193     		str	r3, [sp, #4]
 4034 0058 AC4B     		ldr	r3, .L595+24
 4035 005a 1B78     		ldrb	r3, [r3]	@ zero_extendqisi2
 4036 005c 5C33     		adds	r3, r3, #92
 4037 005e 34F813B0 		ldrh	fp, [r4, r3, lsl #1]
 4038 0062 AB4B     		ldr	r3, .L595+28
 4039 0064 C9F800B0 		str	fp, [r9]
 4040 0068 93F800C0 		ldrb	ip, [r3]	@ zero_extendqisi2
 4041 006c 0023     		movs	r3, #0
 4042              	.L549:
 4043 006e 16F8012B 		ldrb	r2, [r6], #1	@ zero_extendqisi2
 4044 0072 02EB8312 		add	r2, r2, r3, lsl #6
 4045 0076 0133     		adds	r3, r3, #1
 4046 0078 4E32     		adds	r2, r2, #78
 4047 007a 042B     		cmp	r3, #4
ARM GAS  /tmp/ccONvy4E.s 			page 73


 4048 007c 54F82220 		ldr	r2, [r4, r2, lsl #2]
 4049 0080 45F8042B 		str	r2, [r5], #4
 4050 0084 F3D1     		bne	.L549
 4051 0086 0428     		cmp	r0, #4
 4052 0088 40F32381 		ble	.L592
 4053 008c CCF1010C 		rsb	ip, ip, #1
 4054 0090 A04E     		ldr	r6, .L595+32
 4055 0092 A14D     		ldr	r5, .L595+36
 4056              	.L553:
 4057 0094 16F8012F 		ldrb	r2, [r6, #1]!	@ zero_extendqisi2
 4058 0098 02EB8312 		add	r2, r2, r3, lsl #6
 4059 009c 0133     		adds	r3, r3, #1
 4060 009e 4E32     		adds	r2, r2, #78
 4061 00a0 8342     		cmp	r3, r0
 4062 00a2 54F82220 		ldr	r2, [r4, r2, lsl #2]
 4063 00a6 0CFB02F2 		mul	r2, ip, r2
 4064 00aa 45F8042F 		str	r2, [r5, #4]!
 4065 00ae F1D1     		bne	.L553
 4066 00b0 9A4B     		ldr	r3, .L595+40
 4067 00b2 9B4A     		ldr	r2, .L595+44
 4068 00b4 B3F90030 		ldrsh	r3, [r3]
 4069 00b8 B2F90020 		ldrsh	r2, [r2]
 4070 00bc 002F     		cmp	r7, #0
 4071 00be 78D1     		bne	.L551
 4072 00c0 C9F80020 		str	r2, [r9]
 4073 00c4 974A     		ldr	r2, .L595+48
 4074 00c6 1360     		str	r3, [r2]
 4075              	.L554:
 4076 00c8 974B     		ldr	r3, .L595+52
 4077 00ca 03EB4000 		add	r0, r3, r0, lsl #1
 4078              	.L560:
 4079 00ce 33F9022B 		ldrsh	r2, [r3], #2
 4080 00d2 8342     		cmp	r3, r0
 4081 00d4 41F8042B 		str	r2, [r1], #4
 4082 00d8 F9D1     		bne	.L560
 4083              	.L558:
 4084 00da 944D     		ldr	r5, .L595+56
 4085 00dc 2B88     		ldrh	r3, [r5]
 4086 00de 322B     		cmp	r3, #50
 4087 00e0 62D9     		bls	.L561
 4088 00e2 94F99E2B 		ldrsb	r2, [r4, #2974]
 4089              	.L562:
 4090 00e6 924B     		ldr	r3, .L595+60
 4091 00e8 1A80     		strh	r2, [r3]	@ movhi
 4092 00ea FFF7FEFF 		bl	lattice_filter
 4093 00ee B0F5804F 		cmp	r0, #16384
 4094 00f2 06DB     		blt	.L563
 4095 00f4 A0F58043 		sub	r3, r0, #16384
 4096 00f8 A0F50040 		sub	r0, r0, #32768
 4097 00fc 6FF30E03 		bfc	r3, #0, #15
 4098 0100 C01A     		subs	r0, r0, r3
 4099              	.L563:
 4100 0102 10F5804F 		cmn	r0, #16384
 4101 0106 07DA     		bge	.L564
 4102 0108 6FF48043 		mvn	r3, #16384
 4103 010c 1B1A     		subs	r3, r3, r0
 4104 010e 00F50040 		add	r0, r0, #32768
ARM GAS  /tmp/ccONvy4E.s 			page 74


 4105 0112 6FF30E03 		bfc	r3, #0, #15
 4106 0116 1844     		add	r0, r0, r3
 4107              	.L564:
 4108 0118 864B     		ldr	r3, .L595+64
 4109 011a 1B78     		ldrb	r3, [r3]	@ zero_extendqisi2
 4110 011c 002B     		cmp	r3, #0
 4111 011e 3BD1     		bne	.L565
 4112 0120 03B2     		sxth	r3, r0
 4113 0122 03F30B03 		ssat	r3, #12, r3
 4114 0126 23F00F03 		bic	r3, r3, #15
 4115 012a 99B2     		uxth	r1, r3
 4116 012c CA10     		asrs	r2, r1, #3
 4117 012e C1F38021 		ubfx	r1, r1, #10, #1
 4118 0132 02F0FE02 		and	r2, r2, #254
 4119 0136 0A43     		orrs	r2, r2, r1
 4120 0138 42EA0313 		orr	r3, r2, r3, lsl #4
 4121 013c 18B2     		sxth	r0, r3
 4122              	.L566:
 4123 013e 98F80030 		ldrb	r3, [r8]	@ zero_extendqisi2
 4124 0142 0133     		adds	r3, r3, #1
 4125 0144 DBB2     		uxtb	r3, r3
 4126 0146 022B     		cmp	r3, #2
 4127 0148 88F80030 		strb	r3, [r8]
 4128 014c 5FD0     		beq	.L593
 4129 014e 032B     		cmp	r3, #3
 4130 0150 2A88     		ldrh	r2, [r5]
 4131 0152 08D1     		bne	.L574
 4132 0154 9AF80030 		ldrb	r3, [r10]	@ zero_extendqisi2
 4133 0158 0133     		adds	r3, r3, #1
 4134 015a 8AF80030 		strb	r3, [r10]
 4135 015e 674B     		ldr	r3, .L595+8
 4136 0160 1B78     		ldrb	r3, [r3]	@ zero_extendqisi2
 4137 0162 88F80030 		strb	r3, [r8]
 4138              	.L574:
 4139 0166 531C     		adds	r3, r2, #1
 4140 0168 9BB2     		uxth	r3, r3
 4141 016a 1946     		mov	r1, r3
 4142              	.L569:
 4143 016c D9F80020 		ldr	r2, [r9]
 4144 0170 8A42     		cmp	r2, r1
 4145 0172 CCBF     		ite	gt
 4146 0174 C3F30803 		ubfxgt	r3, r3, #0, #9
 4147 0178 0023     		movle	r3, #0
 4148 017a 2B80     		strh	r3, [r5]	@ movhi
 4149 017c 05B0     		add	sp, sp, #20
 4150              		@ sp needed
 4151 017e BDE8F08F 		pop	{r4, r5, r6, r7, r8, r9, r10, fp, pc}
 4152              	.L591:
 4153 0182 D21A     		subs	r2, r2, r3
 4154 0184 C3F10303 		rsb	r3, r3, #3
 4155 0188 4FF0AF0E 		mov	lr, #175
 4156 018c 01FB0323 		mla	r3, r1, r3, r2
 4157 0190 0393     		str	r3, [sp, #12]
 4158 0192 1923     		movs	r3, #25
 4159 0194 0293     		str	r3, [sp, #8]
 4160 0196 54E7     		b	.L548
 4161              	.L565:
ARM GAS  /tmp/ccONvy4E.s 			page 75


 4162 0198 20F00F03 		bic	r3, r0, #15
 4163 019c C0F34420 		ubfx	r0, r0, #9, #5
 4164 01a0 40EA4300 		orr	r0, r0, r3, lsl #1
 4165 01a4 00B2     		sxth	r0, r0
 4166 01a6 CAE7     		b	.L566
 4167              	.L561:
 4168 01a8 03F29C53 		addw	r3, r3, #1436
 4169 01ac 14F91320 		ldrsb	r2, [r4, r3, lsl #1]
 4170 01b0 99E7     		b	.L562
 4171              	.L551:
 4172 01b2 019E     		ldr	r6, [sp, #4]
 4173 01b4 013F     		subs	r7, r7, #1
 4174 01b6 A2EB0B02 		sub	r2, r2, fp
 4175 01ba 0028     		cmp	r0, #0
 4176 01bc A3EB060C 		sub	ip, r3, r6
 4177 01c0 07F00707 		and	r7, r7, #7
 4178 01c4 DDE90235 		ldrd	r3, r5, [sp, #8]
 4179 01c8 03FB0757 		mla	r7, r3, r7, r5
 4180 01cc 07FB02F2 		mul	r2, r7, r2
 4181 01d0 07FB0CF5 		mul	r5, r7, ip
 4182 01d4 92FBFEF3 		sdiv	r3, r2, lr
 4183 01d8 95FBFEF5 		sdiv	r5, r5, lr
 4184 01dc 5B44     		add	r3, r3, fp
 4185 01de 3544     		add	r5, r5, r6
 4186 01e0 C9F80030 		str	r3, [r9]
 4187 01e4 4F4B     		ldr	r3, .L595+48
 4188 01e6 1D60     		str	r5, [r3]
 4189 01e8 7FF777AF 		ble	.L558
 4190 01ec 01EB8000 		add	r0, r1, r0, lsl #2
 4191 01f0 4D4A     		ldr	r2, .L595+52
 4192              	.L557:
 4193 01f2 0D68     		ldr	r5, [r1]
 4194 01f4 32F9023B 		ldrsh	r3, [r2], #2
 4195 01f8 5B1B     		subs	r3, r3, r5
 4196 01fa 07FB03F3 		mul	r3, r7, r3
 4197 01fe 93FBFEF3 		sdiv	r3, r3, lr
 4198 0202 2B44     		add	r3, r3, r5
 4199 0204 41F8043B 		str	r3, [r1], #4
 4200 0208 8842     		cmp	r0, r1
 4201 020a F2D1     		bne	.L557
 4202 020c 65E7     		b	.L558
 4203              	.L593:
 4204 020e 9AF80030 		ldrb	r3, [r10]	@ zero_extendqisi2
 4205 0212 0C2B     		cmp	r3, #12
 4206 0214 00F0A480 		beq	.L568
 4207 0218 2B88     		ldrh	r3, [r5]
 4208 021a 0133     		adds	r3, r3, #1
 4209 021c 9BB2     		uxth	r3, r3
 4210 021e 1946     		mov	r1, r3
 4211 0220 A4E7     		b	.L569
 4212              	.L590:
 4213 0222 012A     		cmp	r2, #1
 4214 0224 7FF400AF 		bne	.L537
 4215 0228 434B     		ldr	r3, .L595+68
 4216 022a 0028     		cmp	r0, #0
 4217 022c 434A     		ldr	r2, .L595+72
 4218 022e 1B78     		ldrb	r3, [r3]	@ zero_extendqisi2
ARM GAS  /tmp/ccONvy4E.s 			page 76


 4219 0230 DFF82891 		ldr	r9, .L595+104
 4220 0234 03F00303 		and	r3, r3, #3
 4221 0238 414E     		ldr	r6, .L595+76
 4222 023a D35C     		ldrb	r3, [r2, r3]	@ zero_extendqisi2
 4223 023c 2D4A     		ldr	r2, .L595
 4224 023e 1370     		strb	r3, [r2]
 4225 0240 2F4B     		ldr	r3, .L595+12
 4226 0242 99F80020 		ldrb	r2, [r9]	@ zero_extendqisi2
 4227 0246 1A70     		strb	r2, [r3]
 4228 0248 304B     		ldr	r3, .L595+24
 4229 024a 3278     		ldrb	r2, [r6]	@ zero_extendqisi2
 4230 024c 1A70     		strb	r2, [r3]
 4231 024e 09DD     		ble	.L542
 4232 0250 3C49     		ldr	r1, .L595+80
 4233 0252 2D4B     		ldr	r3, .L595+20
 4234              	.L541:
 4235 0254 11F8012B 		ldrb	r2, [r1], #1	@ zero_extendqisi2
 4236 0258 0137     		adds	r7, r7, #1
 4237 025a 03F8012B 		strb	r2, [r3], #1
 4238 025e 6268     		ldr	r2, [r4, #4]
 4239 0260 BA42     		cmp	r2, r7
 4240 0262 F7DC     		bgt	.L541
 4241              	.L542:
 4242 0264 E368     		ldr	r3, [r4, #12]
 4243 0266 052B     		cmp	r3, #5
 4244 0268 00F08F80 		beq	.L594
 4245 026c FFF7FEFF 		bl	parse_frame_raw_5200
 4246              	.L543:
 4247 0270 99F80020 		ldrb	r2, [r9]	@ zero_extendqisi2
 4248 0274 3378     		ldrb	r3, [r6]	@ zero_extendqisi2
 4249 0276 2C68     		ldr	r4, [r5]
 4250 0278 1C32     		adds	r2, r2, #28
 4251 027a 5C33     		adds	r3, r3, #92
 4252 027c 3148     		ldr	r0, .L595+80
 4253 027e 34F81210 		ldrh	r1, [r4, r2, lsl #1]
 4254 0282 34F81320 		ldrh	r2, [r4, r3, lsl #1]
 4255 0286 254B     		ldr	r3, .L595+40
 4256 0288 1980     		strh	r1, [r3]	@ movhi
 4257 028a 254B     		ldr	r3, .L595+44
 4258 028c 2649     		ldr	r1, .L595+52
 4259 028e 1A80     		strh	r2, [r3]	@ movhi
 4260 0290 0022     		movs	r2, #0
 4261              	.L544:
 4262 0292 10F8013B 		ldrb	r3, [r0], #1	@ zero_extendqisi2
 4263 0296 03EB8213 		add	r3, r3, r2, lsl #6
 4264 029a 0132     		adds	r2, r2, #1
 4265 029c 4E33     		adds	r3, r3, #78
 4266 029e 042A     		cmp	r2, #4
 4267 02a0 54F82330 		ldr	r3, [r4, r3, lsl #2]
 4268 02a4 21F8023B 		strh	r3, [r1], #2	@ movhi
 4269 02a8 F3D1     		bne	.L544
 4270 02aa 6568     		ldr	r5, [r4, #4]
 4271 02ac 042D     		cmp	r5, #4
 4272 02ae 0DDD     		ble	.L589
 4273 02b0 2548     		ldr	r0, .L595+84
 4274 02b2 2649     		ldr	r1, .L595+88
 4275              	.L546:
ARM GAS  /tmp/ccONvy4E.s 			page 77


 4276 02b4 10F8013F 		ldrb	r3, [r0, #1]!	@ zero_extendqisi2
 4277 02b8 03EB8213 		add	r3, r3, r2, lsl #6
 4278 02bc 0132     		adds	r2, r2, #1
 4279 02be 4E33     		adds	r3, r3, #78
 4280 02c0 9542     		cmp	r5, r2
 4281 02c2 54F82330 		ldr	r3, [r4, r3, lsl #2]
 4282 02c6 21F8023F 		strh	r3, [r1, #2]!	@ movhi
 4283 02ca F3D1     		bne	.L546
 4284              	.L589:
 4285 02cc DFF88890 		ldr	r9, .L595+100
 4286 02d0 03E7     		b	.L558
 4287              	.L592:
 4288 02d2 124B     		ldr	r3, .L595+40
 4289 02d4 124A     		ldr	r2, .L595+44
 4290 02d6 B3F90030 		ldrsh	r3, [r3]
 4291 02da B2F90020 		ldrsh	r2, [r2]
 4292 02de 002F     		cmp	r7, #0
 4293 02e0 7FF467AF 		bne	.L551
 4294 02e4 C9F80020 		str	r2, [r9]
 4295 02e8 0028     		cmp	r0, #0
 4296 02ea 0E4A     		ldr	r2, .L595+48
 4297 02ec 1360     		str	r3, [r2]
 4298 02ee 3FF7EBAE 		bgt	.L554
 4299 02f2 F2E6     		b	.L558
 4300              	.L596:
 4301              		.align	2
 4302              	.L595:
 4303 02f4 00000000 		.word	m_IP
 4304 02f8 00000000 		.word	m_coeff
 4305 02fc 00000000 		.word	m_subc_reload
 4306 0300 00000000 		.word	m_old_frame_energy_idx
 4307 0304 00000000 		.word	m_current_k
 4308 0308 00000000 		.word	m_old_frame_k_idx
 4309 030c 00000000 		.word	m_old_frame_pitch_idx
 4310 0310 00000000 		.word	m_OLDP
 4311 0314 03000000 		.word	m_old_frame_k_idx+3
 4312 0318 0C000000 		.word	m_current_k+12
 4313 031c 00000000 		.word	m_target_energy
 4314 0320 00000000 		.word	m_target_pitch
 4315 0324 00000000 		.word	m_current_energy
 4316 0328 00000000 		.word	m_target_k
 4317 032c 00000000 		.word	m_pitch_count
 4318 0330 00000000 		.word	m_excitation_data
 4319 0334 00000000 		.word	m_digital_select
 4320 0338 00000000 		.word	m_c_variant_rate
 4321 033c 00000000 		.word	reload_table
 4322 0340 00000000 		.word	m_new_frame_pitch_idx
 4323 0344 00000000 		.word	m_new_frame_k_idx
 4324 0348 03000000 		.word	m_new_frame_k_idx+3
 4325 034c 06000000 		.word	m_target_k+6
 4326 0350 00000000 		.word	m_PC
 4327 0354 00000000 		.word	m_subcycle
 4328 0358 00000000 		.word	m_current_pitch
 4329 035c 00000000 		.word	m_new_frame_energy_idx
 4330              	.L568:
 4331 0360 0E4B     		ldr	r3, .L597
 4332 0362 1A78     		ldrb	r2, [r3]	@ zero_extendqisi2
ARM GAS  /tmp/ccONvy4E.s 			page 78


 4333 0364 072A     		cmp	r2, #7
 4334 0366 13D0     		beq	.L570
 4335              	.L572:
 4336 0368 2B88     		ldrh	r3, [r5]
 4337 036a 0133     		adds	r3, r3, #1
 4338 036c 9BB2     		uxth	r3, r3
 4339 036e 1946     		mov	r1, r3
 4340              	.L571:
 4341 0370 0132     		adds	r2, r2, #1
 4342 0372 0A4C     		ldr	r4, .L597
 4343 0374 02F00702 		and	r2, r2, #7
 4344 0378 2270     		strb	r2, [r4]
 4345 037a 094A     		ldr	r2, .L597+4
 4346 037c 1278     		ldrb	r2, [r2]	@ zero_extendqisi2
 4347 037e 88F80020 		strb	r2, [r8]
 4348 0382 0022     		movs	r2, #0
 4349 0384 8AF80020 		strb	r2, [r10]
 4350 0388 F0E6     		b	.L569
 4351              	.L594:
 4352 038a FFF7FEFF 		bl	parse_frame_raw_5100
 4353 038e 6FE7     		b	.L543
 4354              	.L570:
 4355 0390 044B     		ldr	r3, .L597+8
 4356 0392 1978     		ldrb	r1, [r3]	@ zero_extendqisi2
 4357 0394 0129     		cmp	r1, #1
 4358 0396 E7D1     		bne	.L572
 4359 0398 0B46     		mov	r3, r1
 4360 039a E9E7     		b	.L571
 4361              	.L598:
 4362              		.align	2
 4363              	.L597:
 4364 039c 00000000 		.word	m_IP
 4365 03a0 00000000 		.word	m_subc_reload
 4366 03a4 00000000 		.word	m_inhibit
 4367              		.size	process5100raw, .-process5100raw
 4368              		.section	.text.process5100raw_no_inter,"ax",%progbits
 4369              		.align	1
 4370              		.p2align 2,,3
 4371              		.global	process5100raw_no_inter
 4372              		.syntax unified
 4373              		.thumb
 4374              		.thumb_func
 4375              		.type	process5100raw_no_inter, %function
 4376              	process5100raw_no_inter:
 4377              		@ args = 0, pretend = 0, frame = 0
 4378              		@ frame_needed = 0, uses_anonymous_args = 0
 4379 0000 70B5     		push	{r4, r5, r6, lr}
 4380 0002 434C     		ldr	r4, .L621
 4381 0004 2368     		ldr	r3, [r4]
 4382 0006 DB68     		ldr	r3, [r3, #12]
 4383 0008 052B     		cmp	r3, #5
 4384 000a 7DD0     		beq	.L619
 4385 000c FFF7FEFF 		bl	parse_frame_raw_5200
 4386              	.L601:
 4387 0010 404A     		ldr	r2, .L621+4
 4388 0012 414B     		ldr	r3, .L621+8
 4389 0014 1278     		ldrb	r2, [r2]	@ zero_extendqisi2
ARM GAS  /tmp/ccONvy4E.s 			page 79


 4390 0016 1B78     		ldrb	r3, [r3]	@ zero_extendqisi2
 4391 0018 2168     		ldr	r1, [r4]
 4392 001a 1C32     		adds	r2, r2, #28
 4393 001c 5C33     		adds	r3, r3, #92
 4394 001e 3F48     		ldr	r0, .L621+12
 4395 0020 3F4C     		ldr	r4, .L621+16
 4396 0022 31F81330 		ldrh	r3, [r1, r3, lsl #1]
 4397 0026 31F81220 		ldrh	r2, [r1, r2, lsl #1]
 4398 002a 2360     		str	r3, [r4]
 4399 002c 0023     		movs	r3, #0
 4400 002e 0260     		str	r2, [r0]
 4401 0030 3C4D     		ldr	r5, .L621+20
 4402 0032 3D48     		ldr	r0, .L621+24
 4403              	.L602:
 4404 0034 15F8012B 		ldrb	r2, [r5], #1	@ zero_extendqisi2
 4405 0038 02EB8312 		add	r2, r2, r3, lsl #6
 4406 003c 0133     		adds	r3, r3, #1
 4407 003e 4E32     		adds	r2, r2, #78
 4408 0040 042B     		cmp	r3, #4
 4409 0042 51F82220 		ldr	r2, [r1, r2, lsl #2]
 4410 0046 40F8042B 		str	r2, [r0], #4
 4411 004a F3D1     		bne	.L602
 4412 004c 4E68     		ldr	r6, [r1, #4]
 4413 004e 042E     		cmp	r6, #4
 4414 0050 0DDD     		ble	.L607
 4415 0052 364D     		ldr	r5, .L621+28
 4416 0054 3648     		ldr	r0, .L621+32
 4417              	.L606:
 4418 0056 15F8012F 		ldrb	r2, [r5, #1]!	@ zero_extendqisi2
 4419 005a 02EB8312 		add	r2, r2, r3, lsl #6
 4420 005e 0133     		adds	r3, r3, #1
 4421 0060 4E32     		adds	r2, r2, #78
 4422 0062 B342     		cmp	r3, r6
 4423 0064 51F82220 		ldr	r2, [r1, r2, lsl #2]
 4424 0068 40F8042F 		str	r2, [r0, #4]!
 4425 006c F3D1     		bne	.L606
 4426              	.L607:
 4427 006e 314D     		ldr	r5, .L621+36
 4428 0070 2B88     		ldrh	r3, [r5]
 4429 0072 322B     		cmp	r3, #50
 4430 0074 3BD9     		bls	.L620
 4431 0076 91F99E2B 		ldrsb	r2, [r1, #2974]
 4432              	.L608:
 4433 007a 2F4B     		ldr	r3, .L621+40
 4434 007c 1A80     		strh	r2, [r3]	@ movhi
 4435 007e FFF7FEFF 		bl	lattice_filter
 4436 0082 B0F5804F 		cmp	r0, #16384
 4437 0086 06DB     		blt	.L609
 4438 0088 A0F58043 		sub	r3, r0, #16384
 4439 008c A0F50040 		sub	r0, r0, #32768
 4440 0090 6FF30E03 		bfc	r3, #0, #15
 4441 0094 C01A     		subs	r0, r0, r3
 4442              	.L609:
 4443 0096 10F5804F 		cmn	r0, #16384
 4444 009a 07DA     		bge	.L610
 4445 009c 6FF48043 		mvn	r3, #16384
 4446 00a0 00F50042 		add	r2, r0, #32768
ARM GAS  /tmp/ccONvy4E.s 			page 80


 4447 00a4 1B1A     		subs	r3, r3, r0
 4448 00a6 6FF30E03 		bfc	r3, #0, #15
 4449 00aa D018     		adds	r0, r2, r3
 4450              	.L610:
 4451 00ac 234B     		ldr	r3, .L621+44
 4452 00ae 1B78     		ldrb	r3, [r3]	@ zero_extendqisi2
 4453 00b0 13BB     		cbnz	r3, .L611
 4454 00b2 03B2     		sxth	r3, r0
 4455 00b4 03F30B03 		ssat	r3, #12, r3
 4456 00b8 23F00F03 		bic	r3, r3, #15
 4457 00bc 99B2     		uxth	r1, r3
 4458 00be CA10     		asrs	r2, r1, #3
 4459 00c0 C1F38021 		ubfx	r1, r1, #10, #1
 4460 00c4 02F0FE02 		and	r2, r2, #254
 4461 00c8 0A43     		orrs	r2, r2, r1
 4462 00ca 42EA0313 		orr	r3, r2, r3, lsl #4
 4463 00ce 18B2     		sxth	r0, r3
 4464              	.L612:
 4465 00d0 1B4A     		ldr	r2, .L621+48
 4466 00d2 2168     		ldr	r1, [r4]
 4467 00d4 1378     		ldrb	r3, [r2]	@ zero_extendqisi2
 4468 00d6 0133     		adds	r3, r3, #1
 4469 00d8 1370     		strb	r3, [r2]
 4470 00da 2B88     		ldrh	r3, [r5]
 4471 00dc 0133     		adds	r3, r3, #1
 4472 00de 9BB2     		uxth	r3, r3
 4473 00e0 8B42     		cmp	r3, r1
 4474 00e2 B4BF     		ite	lt
 4475 00e4 C3F30803 		ubfxlt	r3, r3, #0, #9
 4476 00e8 0023     		movge	r3, #0
 4477 00ea 2B80     		strh	r3, [r5]	@ movhi
 4478 00ec 70BD     		pop	{r4, r5, r6, pc}
 4479              	.L620:
 4480 00ee 03F29C53 		addw	r3, r3, #1436
 4481 00f2 11F91320 		ldrsb	r2, [r1, r3, lsl #1]
 4482 00f6 C0E7     		b	.L608
 4483              	.L611:
 4484 00f8 20F00F03 		bic	r3, r0, #15
 4485 00fc C0F34420 		ubfx	r0, r0, #9, #5
 4486 0100 40EA4300 		orr	r0, r0, r3, lsl #1
 4487 0104 00B2     		sxth	r0, r0
 4488 0106 E3E7     		b	.L612
 4489              	.L619:
 4490 0108 FFF7FEFF 		bl	parse_frame_raw_5100
 4491 010c 80E7     		b	.L601
 4492              	.L622:
 4493 010e 00BF     		.align	2
 4494              	.L621:
 4495 0110 00000000 		.word	m_coeff
 4496 0114 00000000 		.word	m_new_frame_energy_idx
 4497 0118 00000000 		.word	m_new_frame_pitch_idx
 4498 011c 00000000 		.word	m_current_energy
 4499 0120 00000000 		.word	m_current_pitch
 4500 0124 00000000 		.word	m_new_frame_k_idx
 4501 0128 00000000 		.word	m_current_k
 4502 012c 03000000 		.word	m_new_frame_k_idx+3
 4503 0130 0C000000 		.word	m_current_k+12
ARM GAS  /tmp/ccONvy4E.s 			page 81


 4504 0134 00000000 		.word	m_pitch_count
 4505 0138 00000000 		.word	m_excitation_data
 4506 013c 00000000 		.word	m_digital_select
 4507 0140 00000000 		.word	m_subcycle
 4508              		.size	process5100raw_no_inter, .-process5100raw_no_inter
 4509              		.section	.text.tms_newsay,"ax",%progbits
 4510              		.align	1
 4511              		.p2align 2,,3
 4512              		.global	tms_newsay
 4513              		.syntax unified
 4514              		.thumb
 4515              		.thumb_func
 4516              		.type	tms_newsay, %function
 4517              	tms_newsay:
 4518              		@ args = 0, pretend = 0, frame = 0
 4519              		@ frame_needed = 0, uses_anonymous_args = 0
 4520              		@ link register save eliminated.
 4521 0000 1949     		ldr	r1, .L627
 4522 0002 0123     		movs	r3, #1
 4523 0004 1948     		ldr	r0, .L627+4
 4524 0006 4968     		ldr	r1, [r1, #4]
 4525 0008 90ED007A 		vldr.32	s14, [r0]
 4526 000c D1ED037A 		vldr.32	s15, [r1, #12]
 4527 0010 1748     		ldr	r0, .L627+8
 4528 0012 67EE877A 		vmul.f32	s15, s15, s14
 4529 0016 174A     		ldr	r2, .L627+12
 4530 0018 30B4     		push	{r4, r5}
 4531 001a 4C68     		ldr	r4, [r1, #4]
 4532 001c FDEEE77A 		vcvt.s32.f32	s15, s15
 4533 0020 1370     		strb	r3, [r2]
 4534 0022 0022     		movs	r2, #0
 4535 0024 0460     		str	r4, [r0]
 4536 0026 1448     		ldr	r0, .L627+16
 4537 0028 144D     		ldr	r5, .L627+20
 4538 002a 0370     		strb	r3, [r0]
 4539 002c 17EE903A 		vmov	r3, s15	@ int
 4540 0030 0889     		ldrh	r0, [r1, #8]
 4541 0032 1BB2     		sxth	r3, r3
 4542 0034 124C     		ldr	r4, .L627+24
 4543 0036 2A70     		strb	r2, [r5]
 4544 0038 8342     		cmp	r3, r0
 4545 003a 2270     		strb	r2, [r4]
 4546 003c 02DC     		bgt	.L624
 4547 003e C01A     		subs	r0, r0, r3
 4548 0040 00B2     		sxth	r0, r0
 4549 0042 8200     		lsls	r2, r0, #2
 4550              	.L624:
 4551 0044 0C68     		ldr	r4, [r1]
 4552 0046 0023     		movs	r3, #0
 4553 0048 0E48     		ldr	r0, .L627+28
 4554 004a A258     		ldr	r2, [r4, r2]
 4555 004c 0E49     		ldr	r1, .L627+32
 4556 004e 0260     		str	r2, [r0]
 4557 0050 0C20     		movs	r0, #12
 4558 0052 0E4A     		ldr	r2, .L627+36
 4559 0054 0B70     		strb	r3, [r1]
 4560 0056 1370     		strb	r3, [r2]
ARM GAS  /tmp/ccONvy4E.s 			page 82


 4561 0058 0122     		movs	r2, #1
 4562 005a 0D49     		ldr	r1, .L627+40
 4563 005c 0D4B     		ldr	r3, .L627+44
 4564 005e 0870     		strb	r0, [r1]
 4565 0060 1A70     		strb	r2, [r3]
 4566 0062 30BC     		pop	{r4, r5}
 4567 0064 7047     		bx	lr
 4568              	.L628:
 4569 0066 00BF     		.align	2
 4570              	.L627:
 4571 0068 00000000 		.word	allTMSvocabs
 4572 006c 00000000 		.word	_selz
 4573 0070 00000000 		.word	m_coeff
 4574 0074 00000000 		.word	m_digital_select
 4575 0078 00000000 		.word	m_talk_status
 4576 007c 00000000 		.word	m_new_frame_energy_idx
 4577 0080 00000000 		.word	m_new_frame_pitch_idx
 4578 0084 00000000 		.word	ptrAddr
 4579 0088 00000000 		.word	ptrBit
 4580 008c 00000000 		.word	m_IP
 4581 0090 00000000 		.word	m_PC
 4582 0094 00000000 		.word	m_subcycle
 4583              		.size	tms_newsay, .-tms_newsay
 4584              		.section	.text.tms_newsay_lowbit,"ax",%progbits
 4585              		.align	1
 4586              		.p2align 2,,3
 4587              		.global	tms_newsay_lowbit
 4588              		.syntax unified
 4589              		.thumb
 4590              		.thumb_func
 4591              		.type	tms_newsay_lowbit, %function
 4592              	tms_newsay_lowbit:
 4593              		@ args = 0, pretend = 0, frame = 8
 4594              		@ frame_needed = 0, uses_anonymous_args = 0
 4595              		@ link register save eliminated.
 4596 0000 2949     		ldr	r1, .L637
 4597 0002 0022     		movs	r2, #0
 4598 0004 9FED297A 		vldr.32	s14, .L637+4
 4599 0008 D1ED007A 		vldr.32	s15, [r1]
 4600 000c 284B     		ldr	r3, .L637+8
 4601 000e 67EE877A 		vmul.f32	s15, s15, s14
 4602 0012 10B4     		push	{r4}
 4603 0014 FCEEE77A 		vcvt.u32.f32	s15, s15
 4604 0018 83B0     		sub	sp, sp, #12
 4605 001a 1A70     		strb	r2, [r3]
 4606 001c CDED017A 		vstr.32	s15, [sp, #4]	@ int
 4607 0020 9DF80430 		ldrb	r3, [sp, #4]	@ zero_extendqisi2
 4608 0024 472B     		cmp	r3, #71
 4609 0026 28BF     		it	cs
 4610 0028 4723     		movcs	r3, #71
 4611 002a C3F14703 		rsb	r3, r3, #71
 4612 002e DBB2     		uxtb	r3, r3
 4613 0030 122B     		cmp	r3, #18
 4614 0032 36D9     		bls	.L635
 4615 0034 472B     		cmp	r3, #71
 4616 0036 34D0     		beq	.L635
 4617 0038 1E4A     		ldr	r2, .L637+12
ARM GAS  /tmp/ccONvy4E.s 			page 83


 4618 003a 1370     		strb	r3, [r2]
 4619              	.L632:
 4620 003c 1E49     		ldr	r1, .L637+16
 4621 003e 0022     		movs	r2, #0
 4622 0040 1E48     		ldr	r0, .L637+20
 4623 0042 51F82310 		ldr	r1, [r1, r3, lsl #2]
 4624 0046 90ED007A 		vldr.32	s14, [r0]
 4625 004a D1ED037A 		vldr.32	s15, [r1, #12]
 4626 004e 1C4B     		ldr	r3, .L637+24
 4627 0050 67EE877A 		vmul.f32	s15, s15, s14
 4628 0054 4868     		ldr	r0, [r1, #4]
 4629 0056 1B4C     		ldr	r4, .L637+28
 4630 0058 1860     		str	r0, [r3]
 4631 005a 0120     		movs	r0, #1
 4632 005c FDEEE77A 		vcvt.s32.f32	s15, s15
 4633 0060 194B     		ldr	r3, .L637+32
 4634 0062 2270     		strb	r2, [r4]
 4635 0064 1870     		strb	r0, [r3]
 4636 0066 17EE903A 		vmov	r3, s15	@ int
 4637 006a 0889     		ldrh	r0, [r1, #8]
 4638 006c 174C     		ldr	r4, .L637+36
 4639 006e 1BB2     		sxth	r3, r3
 4640 0070 2270     		strb	r2, [r4]
 4641 0072 8342     		cmp	r3, r0
 4642 0074 02DC     		bgt	.L633
 4643 0076 C01A     		subs	r0, r0, r3
 4644 0078 00B2     		sxth	r0, r0
 4645 007a 8200     		lsls	r2, r0, #2
 4646              	.L633:
 4647 007c 0C68     		ldr	r4, [r1]
 4648 007e 0023     		movs	r3, #0
 4649 0080 1348     		ldr	r0, .L637+40
 4650 0082 A258     		ldr	r2, [r4, r2]
 4651 0084 1349     		ldr	r1, .L637+44
 4652 0086 0260     		str	r2, [r0]
 4653 0088 0C20     		movs	r0, #12
 4654 008a 134A     		ldr	r2, .L637+48
 4655 008c 0B70     		strb	r3, [r1]
 4656 008e 1370     		strb	r3, [r2]
 4657 0090 0122     		movs	r2, #1
 4658 0092 1249     		ldr	r1, .L637+52
 4659 0094 124B     		ldr	r3, .L637+56
 4660 0096 0870     		strb	r0, [r1]
 4661 0098 1A70     		strb	r2, [r3]
 4662 009a 03B0     		add	sp, sp, #12
 4663              		@ sp needed
 4664 009c 5DF8044B 		ldr	r4, [sp], #4
 4665 00a0 7047     		bx	lr
 4666              	.L635:
 4667 00a2 104A     		ldr	r2, .L637+60
 4668 00a4 1370     		strb	r3, [r2]
 4669 00a6 C9E7     		b	.L632
 4670              	.L638:
 4671              		.align	2
 4672              	.L637:
 4673 00a8 00000000 		.word	_sely
 4674 00ac 00009642 		.word	1117126656
ARM GAS  /tmp/ccONvy4E.s 			page 84


 4675 00b0 00000000 		.word	m_digital_select
 4676 00b4 00000000 		.word	last5200
 4677 00b8 00000000 		.word	allTMSvocabs
 4678 00bc 00000000 		.word	_selz
 4679 00c0 00000000 		.word	m_coeff
 4680 00c4 00000000 		.word	m_new_frame_energy_idx
 4681 00c8 00000000 		.word	m_talk_status
 4682 00cc 00000000 		.word	m_new_frame_pitch_idx
 4683 00d0 00000000 		.word	ptrAddr
 4684 00d4 00000000 		.word	ptrBit
 4685 00d8 00000000 		.word	m_IP
 4686 00dc 00000000 		.word	m_PC
 4687 00e0 00000000 		.word	m_subcycle
 4688 00e4 00000000 		.word	last5100
 4689              		.size	tms_newsay_lowbit, .-tms_newsay_lowbit
 4690              		.section	.text.tms_newsay_allphon,"ax",%progbits
 4691              		.align	1
 4692              		.p2align 2,,3
 4693              		.global	tms_newsay_allphon
 4694              		.syntax unified
 4695              		.thumb
 4696              		.thumb_func
 4697              		.type	tms_newsay_allphon, %function
 4698              	tms_newsay_allphon:
 4699              		@ args = 0, pretend = 0, frame = 0
 4700              		@ frame_needed = 0, uses_anonymous_args = 0
 4701              		@ link register save eliminated.
 4702 0000 1A4A     		ldr	r2, .L642
 4703 0002 0023     		movs	r3, #0
 4704 0004 1A48     		ldr	r0, .L642+4
 4705 0006 0121     		movs	r1, #1
 4706 0008 1268     		ldr	r2, [r2]
 4707 000a 90ED007A 		vldr.32	s14, [r0]
 4708 000e D2ED037A 		vldr.32	s15, [r2, #12]
 4709 0012 1848     		ldr	r0, .L642+8
 4710 0014 67EE877A 		vmul.f32	s15, s15, s14
 4711 0018 10B4     		push	{r4}
 4712 001a 174C     		ldr	r4, .L642+12
 4713 001c FDEEE77A 		vcvt.s32.f32	s15, s15
 4714 0020 0170     		strb	r1, [r0]
 4715 0022 2370     		strb	r3, [r4]
 4716 0024 1548     		ldr	r0, .L642+16
 4717 0026 5468     		ldr	r4, [r2, #4]
 4718 0028 0460     		str	r4, [r0]
 4719 002a 154C     		ldr	r4, .L642+20
 4720 002c 1548     		ldr	r0, .L642+24
 4721 002e 2370     		strb	r3, [r4]
 4722 0030 0370     		strb	r3, [r0]
 4723 0032 17EE903A 		vmov	r3, s15	@ int
 4724 0036 1089     		ldrh	r0, [r2, #8]
 4725 0038 1BB2     		sxth	r3, r3
 4726 003a 134C     		ldr	r4, .L642+28
 4727 003c 8342     		cmp	r3, r0
 4728 003e 2170     		strb	r1, [r4]
 4729 0040 1468     		ldr	r4, [r2]
 4730 0042 4FF00002 		mov	r2, #0
 4731 0046 C8BF     		it	gt
ARM GAS  /tmp/ccONvy4E.s 			page 85


 4732 0048 03B2     		sxthgt	r3, r0
 4733 004a 1048     		ldr	r0, .L642+32
 4734 004c 1049     		ldr	r1, .L642+36
 4735 004e 54F82330 		ldr	r3, [r4, r3, lsl #2]
 4736 0052 0A70     		strb	r2, [r1]
 4737 0054 0360     		str	r3, [r0]
 4738 0056 0C20     		movs	r0, #12
 4739 0058 0E4B     		ldr	r3, .L642+40
 4740 005a 0F49     		ldr	r1, .L642+44
 4741 005c 1A70     		strb	r2, [r3]
 4742 005e 0122     		movs	r2, #1
 4743 0060 0E4B     		ldr	r3, .L642+48
 4744 0062 0870     		strb	r0, [r1]
 4745 0064 1A70     		strb	r2, [r3]
 4746 0066 5DF8044B 		ldr	r4, [sp], #4
 4747 006a 7047     		bx	lr
 4748              	.L643:
 4749              		.align	2
 4750              	.L642:
 4751 006c 00000000 		.word	allTMSvocabs
 4752 0070 00000000 		.word	_selz
 4753 0074 00000000 		.word	m_digital_select
 4754 0078 00000000 		.word	last5200
 4755 007c 00000000 		.word	m_coeff
 4756 0080 00000000 		.word	m_new_frame_energy_idx
 4757 0084 00000000 		.word	m_new_frame_pitch_idx
 4758 0088 00000000 		.word	m_talk_status
 4759 008c 00000000 		.word	ptrAddr
 4760 0090 00000000 		.word	ptrBit
 4761 0094 00000000 		.word	m_IP
 4762 0098 00000000 		.word	m_PC
 4763 009c 00000000 		.word	m_subcycle
 4764              		.size	tms_newsay_allphon, .-tms_newsay_allphon
 4765              		.section	.text.tms_init,"ax",%progbits
 4766              		.align	1
 4767              		.p2align 2,,3
 4768              		.global	tms_init
 4769              		.syntax unified
 4770              		.thumb
 4771              		.thumb_func
 4772              		.type	tms_init, %function
 4773              	tms_init:
 4774              		@ args = 0, pretend = 0, frame = 0
 4775              		@ frame_needed = 0, uses_anonymous_args = 0
 4776 0000 1B48     		ldr	r0, .L648
 4777 0002 0021     		movs	r1, #0
 4778 0004 10B5     		push	{r4, lr}
 4779              	.L645:
 4780 0006 41F30B12 		sbfx	r2, r1, #4, #12
 4781 000a 42EA0112 		orr	r2, r2, r1, lsl #4
 4782 000e 0131     		adds	r1, r1, #1
 4783 0010 42F38D03 		sbfx	r3, r2, #2, #14
 4784 0014 9200     		lsls	r2, r2, #2
 4785 0016 B1F5807F 		cmp	r1, #256
 4786 001a 02F0CC02 		and	r2, r2, #204
 4787 001e 03F03303 		and	r3, r3, #51
 4788 0022 43EA0203 		orr	r3, r3, r2
ARM GAS  /tmp/ccONvy4E.s 			page 86


 4789 0026 4FEA6302 		asr	r2, r3, #1
 4790 002a 4FEA4303 		lsl	r3, r3, #1
 4791 002e 02F05502 		and	r2, r2, #85
 4792 0032 23F05503 		bic	r3, r3, #85
 4793 0036 43EA0203 		orr	r3, r3, r2
 4794 003a 00F8013F 		strb	r3, [r0, #1]!
 4795 003e E2D1     		bne	.L645
 4796 0040 0C49     		ldr	r1, .L648+4
 4797 0042 0022     		movs	r2, #0
 4798 0044 0C4C     		ldr	r4, .L648+8
 4799 0046 0D4B     		ldr	r3, .L648+12
 4800 0048 0C60     		str	r4, [r1]
 4801 004a 0D48     		ldr	r0, .L648+16
 4802 004c 0D49     		ldr	r1, .L648+20
 4803 004e 0270     		strb	r2, [r0]
 4804 0050 40F20770 		movw	r0, #1799
 4805 0054 0A70     		strb	r2, [r1]
 4806 0056 0121     		movs	r1, #1
 4807 0058 0B4C     		ldr	r4, .L648+24
 4808 005a 1A60     		str	r2, [r3]
 4809 005c 0B4A     		ldr	r2, .L648+28
 4810 005e 5C60     		str	r4, [r3, #4]
 4811 0060 1881     		strh	r0, [r3, #8]	@ movhi
 4812 0062 1170     		strb	r1, [r2]
 4813 0064 FFF7FEFF 		bl	tms_newsay
 4814 0068 BDE81040 		pop	{r4, lr}
 4815 006c FFF7FEBF 		b	tms_newsay_allphon
 4816              	.L649:
 4817              		.align	2
 4818              	.L648:
 4819 0070 FFFFFFFF 		.word	byte_rev-1
 4820 0074 00000000 		.word	m_coeff
 4821 0078 00000000 		.word	T0285_2501E_coeff
 4822 007c 00000000 		.word	m_new_frame_k_idx
 4823 0080 00000000 		.word	m_new_frame_energy_idx
 4824 0084 00000000 		.word	m_new_frame_pitch_idx
 4825 0088 0F0F0F07 		.word	118427407
 4826 008c 00000000 		.word	m_talk_status
 4827              		.size	tms_init, .-tms_init
 4828              		.section	.text.tms_newsay_TTS,"ax",%progbits
 4829              		.align	1
 4830              		.p2align 2,,3
 4831              		.global	tms_newsay_TTS
 4832              		.syntax unified
 4833              		.thumb
 4834              		.thumb_func
 4835              		.type	tms_newsay_TTS, %function
 4836              	tms_newsay_TTS:
 4837              		@ args = 0, pretend = 0, frame = 0
 4838              		@ frame_needed = 0, uses_anonymous_args = 0
 4839 0000 F8B5     		push	{r3, r4, r5, r6, r7, lr}
 4840 0002 1A49     		ldr	r1, .L654
 4841 0004 0020     		movs	r0, #0
 4842 0006 1A4C     		ldr	r4, .L654+4
 4843 0008 0D68     		ldr	r5, [r1]
 4844 000a 0121     		movs	r1, #1
 4845 000c 2378     		ldrb	r3, [r4]	@ zero_extendqisi2
ARM GAS  /tmp/ccONvy4E.s 			page 87


 4846 000e 194E     		ldr	r6, .L654+8
 4847 0010 194A     		ldr	r2, .L654+12
 4848 0012 3170     		strb	r1, [r6]
 4849 0014 D75C     		ldrb	r7, [r2, r3]	@ zero_extendqisi2
 4850 0016 0B44     		add	r3, r3, r1
 4851 0018 2E68     		ldr	r6, [r5]
 4852 001a D5F804C0 		ldr	ip, [r5, #4]
 4853 001e DBB2     		uxtb	r3, r3
 4854 0020 56F82760 		ldr	r6, [r6, r7, lsl #2]
 4855 0024 154F     		ldr	r7, .L654+16
 4856 0026 164D     		ldr	r5, .L654+20
 4857 0028 C7F800C0 		str	ip, [r7]
 4858 002c 154F     		ldr	r7, .L654+24
 4859 002e 2370     		strb	r3, [r4]
 4860 0030 3870     		strb	r0, [r7]
 4861 0032 154F     		ldr	r7, .L654+28
 4862 0034 3870     		strb	r0, [r7]
 4863 0036 154F     		ldr	r7, .L654+32
 4864 0038 3970     		strb	r1, [r7]
 4865 003a 1549     		ldr	r1, .L654+36
 4866 003c 0E60     		str	r6, [r1]
 4867 003e 1549     		ldr	r1, .L654+40
 4868 0040 0870     		strb	r0, [r1]
 4869 0042 2978     		ldrb	r1, [r5]	@ zero_extendqisi2
 4870 0044 9942     		cmp	r1, r3
 4871 0046 09D9     		bls	.L653
 4872              	.L651:
 4873 0048 134A     		ldr	r2, .L654+44
 4874 004a 0C21     		movs	r1, #12
 4875 004c 1348     		ldr	r0, .L654+48
 4876 004e 0024     		movs	r4, #0
 4877 0050 134B     		ldr	r3, .L654+52
 4878 0052 1170     		strb	r1, [r2]
 4879 0054 0122     		movs	r2, #1
 4880 0056 0470     		strb	r4, [r0]
 4881 0058 1A70     		strb	r2, [r3]
 4882 005a F8BD     		pop	{r3, r4, r5, r6, r7, pc}
 4883              	.L653:
 4884 005c 2070     		strb	r0, [r4]
 4885 005e 1020     		movs	r0, #16
 4886 0060 1049     		ldr	r1, .L654+56
 4887 0062 FFF7FEFF 		bl	text2speechforTMS
 4888 0066 2870     		strb	r0, [r5]
 4889 0068 EEE7     		b	.L651
 4890              	.L655:
 4891 006a 00BF     		.align	2
 4892              	.L654:
 4893 006c 00000000 		.word	allTMSvocabs
 4894 0070 00000000 		.word	TTSindex
 4895 0074 00000000 		.word	m_digital_select
 4896 0078 00000000 		.word	TTSoutarray
 4897 007c 00000000 		.word	m_coeff
 4898 0080 00000000 		.word	TTSlength
 4899 0084 00000000 		.word	m_new_frame_energy_idx
 4900 0088 00000000 		.word	m_new_frame_pitch_idx
 4901 008c 00000000 		.word	m_talk_status
 4902 0090 00000000 		.word	ptrAddr
ARM GAS  /tmp/ccONvy4E.s 			page 88


 4903 0094 00000000 		.word	ptrBit
 4904 0098 00000000 		.word	m_PC
 4905 009c 00000000 		.word	m_IP
 4906 00a0 00000000 		.word	m_subcycle
 4907 00a4 00000000 		.word	TTSinarray
 4908              		.size	tms_newsay_TTS, .-tms_newsay_TTS
 4909              		.section	.text.tms_retriggerTTS,"ax",%progbits
 4910              		.align	1
 4911              		.p2align 2,,3
 4912              		.global	tms_retriggerTTS
 4913              		.syntax unified
 4914              		.thumb
 4915              		.thumb_func
 4916              		.type	tms_retriggerTTS, %function
 4917              	tms_retriggerTTS:
 4918              		@ args = 0, pretend = 0, frame = 0
 4919              		@ frame_needed = 0, uses_anonymous_args = 0
 4920 0000 F8B5     		push	{r3, r4, r5, r6, r7, lr}
 4921 0002 154F     		ldr	r7, .L658
 4922 0004 0025     		movs	r5, #0
 4923 0006 154B     		ldr	r3, .L658+4
 4924 0008 0124     		movs	r4, #1
 4925 000a 3A68     		ldr	r2, [r7]
 4926 000c 1020     		movs	r0, #16
 4927 000e 144E     		ldr	r6, .L658+8
 4928 0010 5268     		ldr	r2, [r2, #4]
 4929 0012 1449     		ldr	r1, .L658+12
 4930 0014 1A60     		str	r2, [r3]
 4931 0016 3246     		mov	r2, r6
 4932 0018 134B     		ldr	r3, .L658+16
 4933 001a 0C70     		strb	r4, [r1]
 4934 001c 1D70     		strb	r5, [r3]
 4935 001e 134B     		ldr	r3, .L658+20
 4936 0020 1349     		ldr	r1, .L658+24
 4937 0022 1D70     		strb	r5, [r3]
 4938 0024 134B     		ldr	r3, .L658+28
 4939 0026 1C70     		strb	r4, [r3]
 4940 0028 FFF7FEFF 		bl	text2speechforTMS
 4941 002c 3B68     		ldr	r3, [r7]
 4942 002e 3278     		ldrb	r2, [r6]	@ zero_extendqisi2
 4943 0030 1B68     		ldr	r3, [r3]
 4944 0032 53F82210 		ldr	r1, [r3, r2, lsl #2]
 4945 0036 0C22     		movs	r2, #12
 4946 0038 0F4B     		ldr	r3, .L658+32
 4947 003a 1D70     		strb	r5, [r3]
 4948 003c 0F4B     		ldr	r3, .L658+36
 4949 003e 1C70     		strb	r4, [r3]
 4950 0040 0F4B     		ldr	r3, .L658+40
 4951 0042 1D70     		strb	r5, [r3]
 4952 0044 0F4B     		ldr	r3, .L658+44
 4953 0046 1A70     		strb	r2, [r3]
 4954 0048 0F4B     		ldr	r3, .L658+48
 4955 004a 104A     		ldr	r2, .L658+52
 4956 004c 1C70     		strb	r4, [r3]
 4957 004e 104B     		ldr	r3, .L658+56
 4958 0050 1160     		str	r1, [r2]
 4959 0052 1870     		strb	r0, [r3]
ARM GAS  /tmp/ccONvy4E.s 			page 89


 4960 0054 F8BD     		pop	{r3, r4, r5, r6, r7, pc}
 4961              	.L659:
 4962 0056 00BF     		.align	2
 4963              	.L658:
 4964 0058 00000000 		.word	allTMSvocabs
 4965 005c 00000000 		.word	m_coeff
 4966 0060 00000000 		.word	TTSoutarray
 4967 0064 00000000 		.word	m_digital_select
 4968 0068 00000000 		.word	m_new_frame_energy_idx
 4969 006c 00000000 		.word	m_new_frame_pitch_idx
 4970 0070 00000000 		.word	TTSinarray
 4971 0074 00000000 		.word	m_talk_status
 4972 0078 00000000 		.word	ptrBit
 4973 007c 00000000 		.word	TTSindex
 4974 0080 00000000 		.word	m_IP
 4975 0084 00000000 		.word	m_PC
 4976 0088 00000000 		.word	m_subcycle
 4977 008c 00000000 		.word	ptrAddr
 4978 0090 00000000 		.word	TTSlength
 4979              		.size	tms_retriggerTTS, .-tms_retriggerTTS
 4980              		.section	.text.tms_newsay_raw5100,"ax",%progbits
 4981              		.align	1
 4982              		.p2align 2,,3
 4983              		.global	tms_newsay_raw5100
 4984              		.syntax unified
 4985              		.thumb
 4986              		.thumb_func
 4987              		.type	tms_newsay_raw5100, %function
 4988              	tms_newsay_raw5100:
 4989              		@ args = 0, pretend = 0, frame = 0
 4990              		@ frame_needed = 0, uses_anonymous_args = 0
 4991              		@ link register save eliminated.
 4992 0000 0C49     		ldr	r1, .L662
 4993 0002 0022     		movs	r2, #0
 4994 0004 0123     		movs	r3, #1
 4995 0006 0868     		ldr	r0, [r1]
 4996 0008 0B49     		ldr	r1, .L662+4
 4997 000a 4068     		ldr	r0, [r0, #4]
 4998 000c 10B4     		push	{r4}
 4999 000e 0860     		str	r0, [r1]
 5000 0010 0A48     		ldr	r0, .L662+8
 5001 0012 0B4C     		ldr	r4, .L662+12
 5002 0014 0270     		strb	r2, [r0]
 5003 0016 0B49     		ldr	r1, .L662+16
 5004 0018 0B48     		ldr	r0, .L662+20
 5005 001a 0A70     		strb	r2, [r1]
 5006 001c 2370     		strb	r3, [r4]
 5007 001e 0270     		strb	r2, [r0]
 5008 0020 0C20     		movs	r0, #12
 5009 0022 0A4C     		ldr	r4, .L662+24
 5010 0024 0A49     		ldr	r1, .L662+28
 5011 0026 0B4A     		ldr	r2, .L662+32
 5012 0028 2370     		strb	r3, [r4]
 5013 002a 0870     		strb	r0, [r1]
 5014 002c 1370     		strb	r3, [r2]
 5015 002e 5DF8044B 		ldr	r4, [sp], #4
 5016 0032 7047     		bx	lr
ARM GAS  /tmp/ccONvy4E.s 			page 90


 5017              	.L663:
 5018              		.align	2
 5019              	.L662:
 5020 0034 00000000 		.word	allTMSvocabs
 5021 0038 00000000 		.word	m_coeff
 5022 003c 00000000 		.word	m_new_frame_energy_idx
 5023 0040 00000000 		.word	m_digital_select
 5024 0044 00000000 		.word	m_new_frame_pitch_idx
 5025 0048 00000000 		.word	m_IP
 5026 004c 00000000 		.word	m_talk_status
 5027 0050 00000000 		.word	m_PC
 5028 0054 00000000 		.word	m_subcycle
 5029              		.size	tms_newsay_raw5100, .-tms_newsay_raw5100
 5030              		.section	.text.tms_newsay_raw5200,"ax",%progbits
 5031              		.align	1
 5032              		.p2align 2,,3
 5033              		.global	tms_newsay_raw5200
 5034              		.syntax unified
 5035              		.thumb
 5036              		.thumb_func
 5037              		.type	tms_newsay_raw5200, %function
 5038              	tms_newsay_raw5200:
 5039              		@ args = 0, pretend = 0, frame = 0
 5040              		@ frame_needed = 0, uses_anonymous_args = 0
 5041              		@ link register save eliminated.
 5042 0000 0B49     		ldr	r1, .L666
 5043 0002 0022     		movs	r2, #0
 5044 0004 0B48     		ldr	r0, .L666+4
 5045 0006 0123     		movs	r3, #1
 5046 0008 10B4     		push	{r4}
 5047 000a 0860     		str	r0, [r1]
 5048 000c 0A48     		ldr	r0, .L666+8
 5049 000e 0B4C     		ldr	r4, .L666+12
 5050 0010 0270     		strb	r2, [r0]
 5051 0012 0B49     		ldr	r1, .L666+16
 5052 0014 0B48     		ldr	r0, .L666+20
 5053 0016 0A70     		strb	r2, [r1]
 5054 0018 2370     		strb	r3, [r4]
 5055 001a 0270     		strb	r2, [r0]
 5056 001c 0C20     		movs	r0, #12
 5057 001e 0A4C     		ldr	r4, .L666+24
 5058 0020 0A49     		ldr	r1, .L666+28
 5059 0022 0B4A     		ldr	r2, .L666+32
 5060 0024 2370     		strb	r3, [r4]
 5061 0026 0870     		strb	r0, [r1]
 5062 0028 1370     		strb	r3, [r2]
 5063 002a 5DF8044B 		ldr	r4, [sp], #4
 5064 002e 7047     		bx	lr
 5065              	.L667:
 5066              		.align	2
 5067              	.L666:
 5068 0030 00000000 		.word	m_coeff
 5069 0034 00000000 		.word	T0285_2501E_coeff
 5070 0038 00000000 		.word	m_new_frame_energy_idx
 5071 003c 00000000 		.word	m_digital_select
 5072 0040 00000000 		.word	m_new_frame_pitch_idx
 5073 0044 00000000 		.word	m_IP
ARM GAS  /tmp/ccONvy4E.s 			page 91


 5074 0048 00000000 		.word	m_talk_status
 5075 004c 00000000 		.word	m_PC
 5076 0050 00000000 		.word	m_subcycle
 5077              		.size	tms_newsay_raw5200, .-tms_newsay_raw5200
 5078              		.section	.text.tms_newsay_raw5220,"ax",%progbits
 5079              		.align	1
 5080              		.p2align 2,,3
 5081              		.global	tms_newsay_raw5220
 5082              		.syntax unified
 5083              		.thumb
 5084              		.thumb_func
 5085              		.type	tms_newsay_raw5220, %function
 5086              	tms_newsay_raw5220:
 5087              		@ args = 0, pretend = 0, frame = 0
 5088              		@ frame_needed = 0, uses_anonymous_args = 0
 5089              		@ link register save eliminated.
 5090 0000 10B4     		push	{r4}
 5091 0002 0123     		movs	r3, #1
 5092 0004 074C     		ldr	r4, .L670
 5093 0006 0849     		ldr	r1, .L670+4
 5094 0008 0022     		movs	r2, #0
 5095 000a 0848     		ldr	r0, .L670+8
 5096 000c 2370     		strb	r3, [r4]
 5097 000e 0860     		str	r0, [r1]
 5098 0010 074C     		ldr	r4, .L670+12
 5099 0012 0848     		ldr	r0, .L670+16
 5100 0014 0849     		ldr	r1, .L670+20
 5101 0016 2270     		strb	r2, [r4]
 5102 0018 0270     		strb	r2, [r0]
 5103 001a 0B70     		strb	r3, [r1]
 5104 001c 5DF8044B 		ldr	r4, [sp], #4
 5105 0020 7047     		bx	lr
 5106              	.L671:
 5107 0022 00BF     		.align	2
 5108              	.L670:
 5109 0024 00000000 		.word	m_digital_select
 5110 0028 00000000 		.word	m_coeff
 5111 002c 00000000 		.word	tms5220_coeff
 5112 0030 00000000 		.word	m_new_frame_energy_idx
 5113 0034 00000000 		.word	m_new_frame_pitch_idx
 5114 0038 00000000 		.word	m_talk_status
 5115              		.size	tms_newsay_raw5220, .-tms_newsay_raw5220
 5116              		.section	.text.tms_newsay_specific,"ax",%progbits
 5117              		.align	1
 5118              		.p2align 2,,3
 5119              		.global	tms_newsay_specific
 5120              		.syntax unified
 5121              		.thumb
 5122              		.thumb_func
 5123              		.type	tms_newsay_specific, %function
 5124              	tms_newsay_specific:
 5125              		@ args = 0, pretend = 0, frame = 0
 5126              		@ frame_needed = 0, uses_anonymous_args = 0
 5127              		@ link register save eliminated.
 5128 0000 1B4A     		ldr	r2, .L676
 5129 0002 4FF0010C 		mov	ip, #1
 5130 0006 1B4B     		ldr	r3, .L676+4
ARM GAS  /tmp/ccONvy4E.s 			page 92


 5131 0008 52F82010 		ldr	r1, [r2, r0, lsl #2]
 5132 000c 93ED007A 		vldr.32	s14, [r3]
 5133 0010 D1ED037A 		vldr.32	s15, [r1, #12]
 5134 0014 184B     		ldr	r3, .L676+8
 5135 0016 67EE877A 		vmul.f32	s15, s15, s14
 5136 001a 4A68     		ldr	r2, [r1, #4]
 5137 001c 1748     		ldr	r0, .L676+12
 5138 001e FDEEE77A 		vcvt.s32.f32	s15, s15
 5139 0022 10B4     		push	{r4}
 5140 0024 1A60     		str	r2, [r3]
 5141 0026 0022     		movs	r2, #0
 5142 0028 154B     		ldr	r3, .L676+16
 5143 002a 80F800C0 		strb	ip, [r0]
 5144 002e 1A70     		strb	r2, [r3]
 5145 0030 17EE903A 		vmov	r3, s15	@ int
 5146 0034 1348     		ldr	r0, .L676+20
 5147 0036 1BB2     		sxth	r3, r3
 5148 0038 134C     		ldr	r4, .L676+24
 5149 003a 0270     		strb	r2, [r0]
 5150 003c 0889     		ldrh	r0, [r1, #8]
 5151 003e 84F800C0 		strb	ip, [r4]
 5152 0042 8342     		cmp	r3, r0
 5153 0044 02DC     		bgt	.L673
 5154 0046 C01A     		subs	r0, r0, r3
 5155 0048 00B2     		sxth	r0, r0
 5156 004a 8200     		lsls	r2, r0, #2
 5157              	.L673:
 5158 004c 0C68     		ldr	r4, [r1]
 5159 004e 0023     		movs	r3, #0
 5160 0050 0E48     		ldr	r0, .L676+28
 5161 0052 A258     		ldr	r2, [r4, r2]
 5162 0054 0E49     		ldr	r1, .L676+32
 5163 0056 0260     		str	r2, [r0]
 5164 0058 0C20     		movs	r0, #12
 5165 005a 0E4A     		ldr	r2, .L676+36
 5166 005c 0B70     		strb	r3, [r1]
 5167 005e 1370     		strb	r3, [r2]
 5168 0060 0122     		movs	r2, #1
 5169 0062 0D49     		ldr	r1, .L676+40
 5170 0064 0D4B     		ldr	r3, .L676+44
 5171 0066 0870     		strb	r0, [r1]
 5172 0068 1A70     		strb	r2, [r3]
 5173 006a 5DF8044B 		ldr	r4, [sp], #4
 5174 006e 7047     		bx	lr
 5175              	.L677:
 5176              		.align	2
 5177              	.L676:
 5178 0070 00000000 		.word	allTMSvocabs
 5179 0074 00000000 		.word	_selz
 5180 0078 00000000 		.word	m_coeff
 5181 007c 00000000 		.word	m_digital_select
 5182 0080 00000000 		.word	m_new_frame_pitch_idx
 5183 0084 00000000 		.word	m_new_frame_energy_idx
 5184 0088 00000000 		.word	m_talk_status
 5185 008c 00000000 		.word	ptrAddr
 5186 0090 00000000 		.word	ptrBit
 5187 0094 00000000 		.word	m_IP
ARM GAS  /tmp/ccONvy4E.s 			page 93


 5188 0098 00000000 		.word	m_PC
 5189 009c 00000000 		.word	m_subcycle
 5190              		.size	tms_newsay_specific, .-tms_newsay_specific
 5191              		.section	.text.tms_newsay_specifica,"ax",%progbits
 5192              		.align	1
 5193              		.p2align 2,,3
 5194              		.global	tms_newsay_specifica
 5195              		.syntax unified
 5196              		.thumb
 5197              		.thumb_func
 5198              		.type	tms_newsay_specifica, %function
 5199              	tms_newsay_specifica:
 5200              		@ args = 0, pretend = 0, frame = 0
 5201              		@ frame_needed = 0, uses_anonymous_args = 0
 5202              		@ link register save eliminated.
 5203 0000 1949     		ldr	r1, .L682
 5204 0002 0123     		movs	r3, #1
 5205 0004 1948     		ldr	r0, .L682+4
 5206 0006 0968     		ldr	r1, [r1]
 5207 0008 90ED007A 		vldr.32	s14, [r0]
 5208 000c D1ED037A 		vldr.32	s15, [r1, #12]
 5209 0010 1748     		ldr	r0, .L682+8
 5210 0012 67EE877A 		vmul.f32	s15, s15, s14
 5211 0016 174A     		ldr	r2, .L682+12
 5212 0018 30B4     		push	{r4, r5}
 5213 001a 4C68     		ldr	r4, [r1, #4]
 5214 001c FDEEE77A 		vcvt.s32.f32	s15, s15
 5215 0020 1370     		strb	r3, [r2]
 5216 0022 0022     		movs	r2, #0
 5217 0024 0460     		str	r4, [r0]
 5218 0026 1448     		ldr	r0, .L682+16
 5219 0028 144D     		ldr	r5, .L682+20
 5220 002a 0370     		strb	r3, [r0]
 5221 002c 17EE903A 		vmov	r3, s15	@ int
 5222 0030 0889     		ldrh	r0, [r1, #8]
 5223 0032 1BB2     		sxth	r3, r3
 5224 0034 124C     		ldr	r4, .L682+24
 5225 0036 2A70     		strb	r2, [r5]
 5226 0038 8342     		cmp	r3, r0
 5227 003a 2270     		strb	r2, [r4]
 5228 003c 02DC     		bgt	.L679
 5229 003e C01A     		subs	r0, r0, r3
 5230 0040 00B2     		sxth	r0, r0
 5231 0042 8200     		lsls	r2, r0, #2
 5232              	.L679:
 5233 0044 0C68     		ldr	r4, [r1]
 5234 0046 0023     		movs	r3, #0
 5235 0048 0E48     		ldr	r0, .L682+28
 5236 004a A258     		ldr	r2, [r4, r2]
 5237 004c 0E49     		ldr	r1, .L682+32
 5238 004e 0260     		str	r2, [r0]
 5239 0050 0C20     		movs	r0, #12
 5240 0052 0E4A     		ldr	r2, .L682+36
 5241 0054 0B70     		strb	r3, [r1]
 5242 0056 1370     		strb	r3, [r2]
 5243 0058 0122     		movs	r2, #1
 5244 005a 0D49     		ldr	r1, .L682+40
ARM GAS  /tmp/ccONvy4E.s 			page 94


 5245 005c 0D4B     		ldr	r3, .L682+44
 5246 005e 0870     		strb	r0, [r1]
 5247 0060 1A70     		strb	r2, [r3]
 5248 0062 30BC     		pop	{r4, r5}
 5249 0064 7047     		bx	lr
 5250              	.L683:
 5251 0066 00BF     		.align	2
 5252              	.L682:
 5253 0068 00000000 		.word	allTMSvocabs
 5254 006c 00000000 		.word	_selz
 5255 0070 00000000 		.word	m_coeff
 5256 0074 00000000 		.word	m_digital_select
 5257 0078 00000000 		.word	m_talk_status
 5258 007c 00000000 		.word	m_new_frame_energy_idx
 5259 0080 00000000 		.word	m_new_frame_pitch_idx
 5260 0084 00000000 		.word	ptrAddr
 5261 0088 00000000 		.word	ptrBit
 5262 008c 00000000 		.word	m_IP
 5263 0090 00000000 		.word	m_PC
 5264 0094 00000000 		.word	m_subcycle
 5265              		.size	tms_newsay_specifica, .-tms_newsay_specifica
 5266              		.section	.text.tms_newsay_specificx,"ax",%progbits
 5267              		.align	1
 5268              		.p2align 2,,3
 5269              		.global	tms_newsay_specificx
 5270              		.syntax unified
 5271              		.thumb
 5272              		.thumb_func
 5273              		.type	tms_newsay_specificx, %function
 5274              	tms_newsay_specificx:
 5275              		@ args = 0, pretend = 0, frame = 0
 5276              		@ frame_needed = 0, uses_anonymous_args = 0
 5277              		@ link register save eliminated.
 5278 0000 1A4B     		ldr	r3, .L688
 5279 0002 0120     		movs	r0, #1
 5280 0004 1A49     		ldr	r1, .L688+4
 5281 0006 1B4A     		ldr	r2, .L688+8
 5282 0008 30B4     		push	{r4, r5}
 5283 000a 1C78     		ldrb	r4, [r3]	@ zero_extendqisi2
 5284 000c 92ED007A 		vldr.32	s14, [r2]
 5285 0010 0022     		movs	r2, #0
 5286 0012 51F82410 		ldr	r1, [r1, r4, lsl #2]
 5287 0016 184C     		ldr	r4, .L688+12
 5288 0018 D1ED037A 		vldr.32	s15, [r1, #12]
 5289 001c 4D68     		ldr	r5, [r1, #4]
 5290 001e 67EE877A 		vmul.f32	s15, s15, s14
 5291 0022 164B     		ldr	r3, .L688+16
 5292 0024 2560     		str	r5, [r4]
 5293 0026 164C     		ldr	r4, .L688+20
 5294 0028 FDEEE77A 		vcvt.s32.f32	s15, s15
 5295 002c 1870     		strb	r0, [r3]
 5296 002e 2270     		strb	r2, [r4]
 5297 0030 144C     		ldr	r4, .L688+24
 5298 0032 17EE903A 		vmov	r3, s15	@ int
 5299 0036 2270     		strb	r2, [r4]
 5300 0038 134C     		ldr	r4, .L688+28
 5301 003a 1BB2     		sxth	r3, r3
ARM GAS  /tmp/ccONvy4E.s 			page 95


 5302 003c 2070     		strb	r0, [r4]
 5303 003e 0889     		ldrh	r0, [r1, #8]
 5304 0040 8342     		cmp	r3, r0
 5305 0042 02DC     		bgt	.L685
 5306 0044 C01A     		subs	r0, r0, r3
 5307 0046 00B2     		sxth	r0, r0
 5308 0048 8200     		lsls	r2, r0, #2
 5309              	.L685:
 5310 004a 0C68     		ldr	r4, [r1]
 5311 004c 0023     		movs	r3, #0
 5312 004e 0F48     		ldr	r0, .L688+32
 5313 0050 A258     		ldr	r2, [r4, r2]
 5314 0052 0F49     		ldr	r1, .L688+36
 5315 0054 0260     		str	r2, [r0]
 5316 0056 0C20     		movs	r0, #12
 5317 0058 0E4A     		ldr	r2, .L688+40
 5318 005a 0B70     		strb	r3, [r1]
 5319 005c 1370     		strb	r3, [r2]
 5320 005e 0122     		movs	r2, #1
 5321 0060 0D49     		ldr	r1, .L688+44
 5322 0062 0E4B     		ldr	r3, .L688+48
 5323 0064 0870     		strb	r0, [r1]
 5324 0066 1A70     		strb	r2, [r3]
 5325 0068 30BC     		pop	{r4, r5}
 5326 006a 7047     		bx	lr
 5327              	.L689:
 5328              		.align	2
 5329              	.L688:
 5330 006c 00000000 		.word	last5200
 5331 0070 00000000 		.word	allTMSvocabs
 5332 0074 00000000 		.word	_selz
 5333 0078 00000000 		.word	m_coeff
 5334 007c 00000000 		.word	m_digital_select
 5335 0080 00000000 		.word	m_new_frame_energy_idx
 5336 0084 00000000 		.word	m_new_frame_pitch_idx
 5337 0088 00000000 		.word	m_talk_status
 5338 008c 00000000 		.word	ptrAddr
 5339 0090 00000000 		.word	ptrBit
 5340 0094 00000000 		.word	m_IP
 5341 0098 00000000 		.word	m_PC
 5342 009c 00000000 		.word	m_subcycle
 5343              		.size	tms_newsay_specificx, .-tms_newsay_specificx
 5344              		.section	.text.tms_newsay_specific5100,"ax",%progbits
 5345              		.align	1
 5346              		.p2align 2,,3
 5347              		.global	tms_newsay_specific5100
 5348              		.syntax unified
 5349              		.thumb
 5350              		.thumb_func
 5351              		.type	tms_newsay_specific5100, %function
 5352              	tms_newsay_specific5100:
 5353              		@ args = 0, pretend = 0, frame = 0
 5354              		@ frame_needed = 0, uses_anonymous_args = 0
 5355              		@ link register save eliminated.
 5356 0000 1A4B     		ldr	r3, .L694
 5357 0002 0120     		movs	r0, #1
 5358 0004 1A49     		ldr	r1, .L694+4
ARM GAS  /tmp/ccONvy4E.s 			page 96


 5359 0006 1B4A     		ldr	r2, .L694+8
 5360 0008 30B4     		push	{r4, r5}
 5361 000a 1C78     		ldrb	r4, [r3]	@ zero_extendqisi2
 5362 000c 92ED007A 		vldr.32	s14, [r2]
 5363 0010 0022     		movs	r2, #0
 5364 0012 51F82410 		ldr	r1, [r1, r4, lsl #2]
 5365 0016 184C     		ldr	r4, .L694+12
 5366 0018 D1ED037A 		vldr.32	s15, [r1, #12]
 5367 001c 4D68     		ldr	r5, [r1, #4]
 5368 001e 67EE877A 		vmul.f32	s15, s15, s14
 5369 0022 164B     		ldr	r3, .L694+16
 5370 0024 2560     		str	r5, [r4]
 5371 0026 164C     		ldr	r4, .L694+20
 5372 0028 FDEEE77A 		vcvt.s32.f32	s15, s15
 5373 002c 1870     		strb	r0, [r3]
 5374 002e 2270     		strb	r2, [r4]
 5375 0030 144C     		ldr	r4, .L694+24
 5376 0032 17EE903A 		vmov	r3, s15	@ int
 5377 0036 2270     		strb	r2, [r4]
 5378 0038 134C     		ldr	r4, .L694+28
 5379 003a 1BB2     		sxth	r3, r3
 5380 003c 2070     		strb	r0, [r4]
 5381 003e 0889     		ldrh	r0, [r1, #8]
 5382 0040 8342     		cmp	r3, r0
 5383 0042 02DC     		bgt	.L691
 5384 0044 C01A     		subs	r0, r0, r3
 5385 0046 00B2     		sxth	r0, r0
 5386 0048 8200     		lsls	r2, r0, #2
 5387              	.L691:
 5388 004a 0C68     		ldr	r4, [r1]
 5389 004c 0023     		movs	r3, #0
 5390 004e 0F48     		ldr	r0, .L694+32
 5391 0050 A258     		ldr	r2, [r4, r2]
 5392 0052 0F49     		ldr	r1, .L694+36
 5393 0054 0260     		str	r2, [r0]
 5394 0056 0C20     		movs	r0, #12
 5395 0058 0E4A     		ldr	r2, .L694+40
 5396 005a 0B70     		strb	r3, [r1]
 5397 005c 1370     		strb	r3, [r2]
 5398 005e 0122     		movs	r2, #1
 5399 0060 0D49     		ldr	r1, .L694+44
 5400 0062 0E4B     		ldr	r3, .L694+48
 5401 0064 0870     		strb	r0, [r1]
 5402 0066 1A70     		strb	r2, [r3]
 5403 0068 30BC     		pop	{r4, r5}
 5404 006a 7047     		bx	lr
 5405              	.L695:
 5406              		.align	2
 5407              	.L694:
 5408 006c 00000000 		.word	last5100
 5409 0070 00000000 		.word	allTMSvocabs
 5410 0074 00000000 		.word	_selz
 5411 0078 00000000 		.word	m_coeff
 5412 007c 00000000 		.word	m_digital_select
 5413 0080 00000000 		.word	m_new_frame_energy_idx
 5414 0084 00000000 		.word	m_new_frame_pitch_idx
 5415 0088 00000000 		.word	m_talk_status
ARM GAS  /tmp/ccONvy4E.s 			page 97


 5416 008c 00000000 		.word	ptrAddr
 5417 0090 00000000 		.word	ptrBit
 5418 0094 00000000 		.word	m_IP
 5419 0098 00000000 		.word	m_PC
 5420 009c 00000000 		.word	m_subcycle
 5421              		.size	tms_newsay_specific5100, .-tms_newsay_specific5100
 5422              		.section	.text.tms_get_sample_allphon,"ax",%progbits
 5423              		.align	1
 5424              		.p2align 2,,3
 5425              		.global	tms_get_sample_allphon
 5426              		.syntax unified
 5427              		.thumb
 5428              		.thumb_func
 5429              		.type	tms_get_sample_allphon, %function
 5430              	tms_get_sample_allphon:
 5431              		@ args = 0, pretend = 0, frame = 16
 5432              		@ frame_needed = 0, uses_anonymous_args = 0
 5433 0000 00B5     		push	{lr}
 5434 0002 85B0     		sub	sp, sp, #20
 5435 0004 0023     		movs	r3, #0
 5436 0006 0B4A     		ldr	r2, .L700
 5437 0008 0A21     		movs	r1, #10
 5438 000a 0DF10F00 		add	r0, sp, #15
 5439 000e 8DF80F30 		strb	r3, [sp, #15]
 5440 0012 1170     		strb	r1, [r2]
 5441 0014 FFF7FEFF 		bl	process
 5442 0018 9DF80F30 		ldrb	r3, [sp, #15]	@ zero_extendqisi2
 5443 001c 012B     		cmp	r3, #1
 5444 001e 02D0     		beq	.L699
 5445 0020 05B0     		add	sp, sp, #20
 5446              		@ sp needed
 5447 0022 5DF804FB 		ldr	pc, [sp], #4
 5448              	.L699:
 5449 0026 0190     		str	r0, [sp, #4]
 5450 0028 FFF7FEFF 		bl	tms_newsay_allphon
 5451 002c 0198     		ldr	r0, [sp, #4]
 5452 002e 05B0     		add	sp, sp, #20
 5453              		@ sp needed
 5454 0030 5DF804FB 		ldr	pc, [sp], #4
 5455              	.L701:
 5456              		.align	2
 5457              	.L700:
 5458 0034 00000000 		.word	modus
 5459              		.size	tms_get_sample_allphon, .-tms_get_sample_allphon
 5460              		.section	.text.tms_get_sample_allphon_sing,"ax",%progbits
 5461              		.align	1
 5462              		.p2align 2,,3
 5463              		.global	tms_get_sample_allphon_sing
 5464              		.syntax unified
 5465              		.thumb
 5466              		.thumb_func
 5467              		.type	tms_get_sample_allphon_sing, %function
 5468              	tms_get_sample_allphon_sing:
 5469              		@ args = 0, pretend = 0, frame = 16
 5470              		@ frame_needed = 0, uses_anonymous_args = 0
 5471 0000 00B5     		push	{lr}
 5472 0002 85B0     		sub	sp, sp, #20
ARM GAS  /tmp/ccONvy4E.s 			page 98


 5473 0004 0023     		movs	r3, #0
 5474 0006 0B4A     		ldr	r2, .L706
 5475 0008 0A21     		movs	r1, #10
 5476 000a 0DF10F00 		add	r0, sp, #15
 5477 000e 8DF80F30 		strb	r3, [sp, #15]
 5478 0012 1170     		strb	r1, [r2]
 5479 0014 FFF7FEFF 		bl	process
 5480 0018 9DF80F30 		ldrb	r3, [sp, #15]	@ zero_extendqisi2
 5481 001c 012B     		cmp	r3, #1
 5482 001e 02D0     		beq	.L705
 5483 0020 05B0     		add	sp, sp, #20
 5484              		@ sp needed
 5485 0022 5DF804FB 		ldr	pc, [sp], #4
 5486              	.L705:
 5487 0026 0190     		str	r0, [sp, #4]
 5488 0028 FFF7FEFF 		bl	tms_newsay_allphon
 5489 002c 0198     		ldr	r0, [sp, #4]
 5490 002e 05B0     		add	sp, sp, #20
 5491              		@ sp needed
 5492 0030 5DF804FB 		ldr	pc, [sp], #4
 5493              	.L707:
 5494              		.align	2
 5495              	.L706:
 5496 0034 00000000 		.word	modus
 5497              		.size	tms_get_sample_allphon_sing, .-tms_get_sample_allphon_sing
 5498              		.section	.text.tms_get_sample,"ax",%progbits
 5499              		.align	1
 5500              		.p2align 2,,3
 5501              		.global	tms_get_sample
 5502              		.syntax unified
 5503              		.thumb
 5504              		.thumb_func
 5505              		.type	tms_get_sample, %function
 5506              	tms_get_sample:
 5507              		@ args = 0, pretend = 0, frame = 16
 5508              		@ frame_needed = 0, uses_anonymous_args = 0
 5509 0000 00B5     		push	{lr}
 5510 0002 85B0     		sub	sp, sp, #20
 5511 0004 0B4B     		ldr	r3, .L712
 5512 0006 0021     		movs	r1, #0
 5513 0008 0122     		movs	r2, #1
 5514 000a 0DF10F00 		add	r0, sp, #15
 5515 000e 1A70     		strb	r2, [r3]
 5516 0010 8DF80F10 		strb	r1, [sp, #15]
 5517 0014 FFF7FEFF 		bl	process
 5518 0018 9DF80F30 		ldrb	r3, [sp, #15]	@ zero_extendqisi2
 5519 001c 012B     		cmp	r3, #1
 5520 001e 02D0     		beq	.L711
 5521 0020 05B0     		add	sp, sp, #20
 5522              		@ sp needed
 5523 0022 5DF804FB 		ldr	pc, [sp], #4
 5524              	.L711:
 5525 0026 0190     		str	r0, [sp, #4]
 5526 0028 FFF7FEFF 		bl	tms_newsay
 5527 002c 0198     		ldr	r0, [sp, #4]
 5528 002e 05B0     		add	sp, sp, #20
 5529              		@ sp needed
ARM GAS  /tmp/ccONvy4E.s 			page 99


 5530 0030 5DF804FB 		ldr	pc, [sp], #4
 5531              	.L713:
 5532              		.align	2
 5533              	.L712:
 5534 0034 00000000 		.word	modus
 5535              		.size	tms_get_sample, .-tms_get_sample
 5536              		.section	.text.tms_get_sample_sing,"ax",%progbits
 5537              		.align	1
 5538              		.p2align 2,,3
 5539              		.global	tms_get_sample_sing
 5540              		.syntax unified
 5541              		.thumb
 5542              		.thumb_func
 5543              		.type	tms_get_sample_sing, %function
 5544              	tms_get_sample_sing:
 5545              		@ args = 0, pretend = 0, frame = 16
 5546              		@ frame_needed = 0, uses_anonymous_args = 0
 5547 0000 00B5     		push	{lr}
 5548 0002 85B0     		sub	sp, sp, #20
 5549 0004 0B4B     		ldr	r3, .L718
 5550 0006 0021     		movs	r1, #0
 5551 0008 0222     		movs	r2, #2
 5552 000a 0DF10F00 		add	r0, sp, #15
 5553 000e 1A70     		strb	r2, [r3]
 5554 0010 8DF80F10 		strb	r1, [sp, #15]
 5555 0014 FFF7FEFF 		bl	process
 5556 0018 9DF80F30 		ldrb	r3, [sp, #15]	@ zero_extendqisi2
 5557 001c 012B     		cmp	r3, #1
 5558 001e 02D0     		beq	.L717
 5559 0020 05B0     		add	sp, sp, #20
 5560              		@ sp needed
 5561 0022 5DF804FB 		ldr	pc, [sp], #4
 5562              	.L717:
 5563 0026 0190     		str	r0, [sp, #4]
 5564 0028 FFF7FEFF 		bl	tms_newsay
 5565 002c 0198     		ldr	r0, [sp, #4]
 5566 002e 05B0     		add	sp, sp, #20
 5567              		@ sp needed
 5568 0030 5DF804FB 		ldr	pc, [sp], #4
 5569              	.L719:
 5570              		.align	2
 5571              	.L718:
 5572 0034 00000000 		.word	modus
 5573              		.size	tms_get_sample_sing, .-tms_get_sample_sing
 5574              		.section	.text.tms_get_sample_lowbit,"ax",%progbits
 5575              		.align	1
 5576              		.p2align 2,,3
 5577              		.global	tms_get_sample_lowbit
 5578              		.syntax unified
 5579              		.thumb
 5580              		.thumb_func
 5581              		.type	tms_get_sample_lowbit, %function
 5582              	tms_get_sample_lowbit:
 5583              		@ args = 0, pretend = 0, frame = 16
 5584              		@ frame_needed = 0, uses_anonymous_args = 0
 5585 0000 00B5     		push	{lr}
 5586 0002 85B0     		sub	sp, sp, #20
ARM GAS  /tmp/ccONvy4E.s 			page 100


 5587 0004 0023     		movs	r3, #0
 5588 0006 0B4A     		ldr	r2, .L724
 5589 0008 0121     		movs	r1, #1
 5590 000a 0DF10F00 		add	r0, sp, #15
 5591 000e 8DF80F30 		strb	r3, [sp, #15]
 5592 0012 1170     		strb	r1, [r2]
 5593 0014 FFF7FEFF 		bl	process
 5594 0018 9DF80F30 		ldrb	r3, [sp, #15]	@ zero_extendqisi2
 5595 001c 012B     		cmp	r3, #1
 5596 001e 02D0     		beq	.L723
 5597 0020 05B0     		add	sp, sp, #20
 5598              		@ sp needed
 5599 0022 5DF804FB 		ldr	pc, [sp], #4
 5600              	.L723:
 5601 0026 0190     		str	r0, [sp, #4]
 5602 0028 FFF7FEFF 		bl	tms_newsay_lowbit
 5603 002c 0198     		ldr	r0, [sp, #4]
 5604 002e 05B0     		add	sp, sp, #20
 5605              		@ sp needed
 5606 0030 5DF804FB 		ldr	pc, [sp], #4
 5607              	.L725:
 5608              		.align	2
 5609              	.L724:
 5610 0034 00000000 		.word	modus
 5611              		.size	tms_get_sample_lowbit, .-tms_get_sample_lowbit
 5612              		.section	.text.tms_get_sample_TTS,"ax",%progbits
 5613              		.align	1
 5614              		.p2align 2,,3
 5615              		.global	tms_get_sample_TTS
 5616              		.syntax unified
 5617              		.thumb
 5618              		.thumb_func
 5619              		.type	tms_get_sample_TTS, %function
 5620              	tms_get_sample_TTS:
 5621              		@ args = 0, pretend = 0, frame = 16
 5622              		@ frame_needed = 0, uses_anonymous_args = 0
 5623 0000 00B5     		push	{lr}
 5624 0002 85B0     		sub	sp, sp, #20
 5625 0004 0023     		movs	r3, #0
 5626 0006 0B4A     		ldr	r2, .L730
 5627 0008 0121     		movs	r1, #1
 5628 000a 0DF10F00 		add	r0, sp, #15
 5629 000e 8DF80F30 		strb	r3, [sp, #15]
 5630 0012 1170     		strb	r1, [r2]
 5631 0014 FFF7FEFF 		bl	process
 5632 0018 9DF80F30 		ldrb	r3, [sp, #15]	@ zero_extendqisi2
 5633 001c 012B     		cmp	r3, #1
 5634 001e 02D0     		beq	.L729
 5635 0020 05B0     		add	sp, sp, #20
 5636              		@ sp needed
 5637 0022 5DF804FB 		ldr	pc, [sp], #4
 5638              	.L729:
 5639 0026 0190     		str	r0, [sp, #4]
 5640 0028 FFF7FEFF 		bl	tms_newsay_TTS
 5641 002c 0198     		ldr	r0, [sp, #4]
 5642 002e 05B0     		add	sp, sp, #20
 5643              		@ sp needed
ARM GAS  /tmp/ccONvy4E.s 			page 101


 5644 0030 5DF804FB 		ldr	pc, [sp], #4
 5645              	.L731:
 5646              		.align	2
 5647              	.L730:
 5648 0034 00000000 		.word	modus
 5649              		.size	tms_get_sample_TTS, .-tms_get_sample_TTS
 5650              		.section	.text.tms_get_sample_bendlength,"ax",%progbits
 5651              		.align	1
 5652              		.p2align 2,,3
 5653              		.global	tms_get_sample_bendlength
 5654              		.syntax unified
 5655              		.thumb
 5656              		.thumb_func
 5657              		.type	tms_get_sample_bendlength, %function
 5658              	tms_get_sample_bendlength:
 5659              		@ args = 0, pretend = 0, frame = 16
 5660              		@ frame_needed = 0, uses_anonymous_args = 0
 5661 0000 00B5     		push	{lr}
 5662 0002 85B0     		sub	sp, sp, #20
 5663 0004 0023     		movs	r3, #0
 5664 0006 0B4A     		ldr	r2, .L736
 5665 0008 0421     		movs	r1, #4
 5666 000a 0DF10F00 		add	r0, sp, #15
 5667 000e 8DF80F30 		strb	r3, [sp, #15]
 5668 0012 1170     		strb	r1, [r2]
 5669 0014 FFF7FEFF 		bl	process
 5670 0018 9DF80F30 		ldrb	r3, [sp, #15]	@ zero_extendqisi2
 5671 001c 012B     		cmp	r3, #1
 5672 001e 02D0     		beq	.L735
 5673 0020 05B0     		add	sp, sp, #20
 5674              		@ sp needed
 5675 0022 5DF804FB 		ldr	pc, [sp], #4
 5676              	.L735:
 5677 0026 0190     		str	r0, [sp, #4]
 5678 0028 FFF7FEFF 		bl	tms_newsay
 5679 002c 0198     		ldr	r0, [sp, #4]
 5680 002e 05B0     		add	sp, sp, #20
 5681              		@ sp needed
 5682 0030 5DF804FB 		ldr	pc, [sp], #4
 5683              	.L737:
 5684              		.align	2
 5685              	.L736:
 5686 0034 00000000 		.word	modus
 5687              		.size	tms_get_sample_bendlength, .-tms_get_sample_bendlength
 5688              		.section	.text.tms_get_sample_raw5100,"ax",%progbits
 5689              		.align	1
 5690              		.p2align 2,,3
 5691              		.global	tms_get_sample_raw5100
 5692              		.syntax unified
 5693              		.thumb
 5694              		.thumb_func
 5695              		.type	tms_get_sample_raw5100, %function
 5696              	tms_get_sample_raw5100:
 5697              		@ args = 0, pretend = 0, frame = 0
 5698              		@ frame_needed = 0, uses_anonymous_args = 0
 5699              		@ link register save eliminated.
 5700 0000 0349     		ldr	r1, .L739
ARM GAS  /tmp/ccONvy4E.s 			page 102


 5701 0002 0020     		movs	r0, #0
 5702 0004 034B     		ldr	r3, .L739+4
 5703 0006 044A     		ldr	r2, .L739+8
 5704 0008 0870     		strb	r0, [r1]
 5705 000a 1A60     		str	r2, [r3]
 5706 000c FFF7FEBF 		b	process5100raw
 5707              	.L740:
 5708              		.align	2
 5709              	.L739:
 5710 0010 00000000 		.word	modus
 5711 0014 00000000 		.word	m_coeff
 5712 0018 00000000 		.word	T0280B_0281A_coeff
 5713              		.size	tms_get_sample_raw5100, .-tms_get_sample_raw5100
 5714              		.section	.text.tms_get_sample_raw5200,"ax",%progbits
 5715              		.align	1
 5716              		.p2align 2,,3
 5717              		.global	tms_get_sample_raw5200
 5718              		.syntax unified
 5719              		.thumb
 5720              		.thumb_func
 5721              		.type	tms_get_sample_raw5200, %function
 5722              	tms_get_sample_raw5200:
 5723              		@ args = 0, pretend = 0, frame = 0
 5724              		@ frame_needed = 0, uses_anonymous_args = 0
 5725              		@ link register save eliminated.
 5726 0000 0349     		ldr	r1, .L742
 5727 0002 0020     		movs	r0, #0
 5728 0004 034B     		ldr	r3, .L742+4
 5729 0006 044A     		ldr	r2, .L742+8
 5730 0008 0870     		strb	r0, [r1]
 5731 000a 1A60     		str	r2, [r3]
 5732 000c FFF7FEBF 		b	process5100raw
 5733              	.L743:
 5734              		.align	2
 5735              	.L742:
 5736 0010 00000000 		.word	modus
 5737 0014 00000000 		.word	m_coeff
 5738 0018 00000000 		.word	T0285_2501E_coeff
 5739              		.size	tms_get_sample_raw5200, .-tms_get_sample_raw5200
 5740              		.section	.text.tms_get_sample_raw5220,"ax",%progbits
 5741              		.align	1
 5742              		.p2align 2,,3
 5743              		.global	tms_get_sample_raw5220
 5744              		.syntax unified
 5745              		.thumb
 5746              		.thumb_func
 5747              		.type	tms_get_sample_raw5220, %function
 5748              	tms_get_sample_raw5220:
 5749              		@ args = 0, pretend = 0, frame = 0
 5750              		@ frame_needed = 0, uses_anonymous_args = 0
 5751              		@ link register save eliminated.
 5752 0000 0349     		ldr	r1, .L745
 5753 0002 0020     		movs	r0, #0
 5754 0004 034B     		ldr	r3, .L745+4
 5755 0006 044A     		ldr	r2, .L745+8
 5756 0008 0870     		strb	r0, [r1]
 5757 000a 1A60     		str	r2, [r3]
ARM GAS  /tmp/ccONvy4E.s 			page 103


 5758 000c FFF7FEBF 		b	process5100raw
 5759              	.L746:
 5760              		.align	2
 5761              	.L745:
 5762 0010 00000000 		.word	modus
 5763 0014 00000000 		.word	m_coeff
 5764 0018 00000000 		.word	tms5220_coeff
 5765              		.size	tms_get_sample_raw5220, .-tms_get_sample_raw5220
 5766              		.section	.text.tms_get_sample_bend5100,"ax",%progbits
 5767              		.align	1
 5768              		.p2align 2,,3
 5769              		.global	tms_get_sample_bend5100
 5770              		.syntax unified
 5771              		.thumb
 5772              		.thumb_func
 5773              		.type	tms_get_sample_bend5100, %function
 5774              	tms_get_sample_bend5100:
 5775              		@ args = 0, pretend = 0, frame = 8
 5776              		@ frame_needed = 0, uses_anonymous_args = 0
 5777 0000 30B5     		push	{r4, r5, lr}
 5778 0002 83B0     		sub	sp, sp, #12
 5779 0004 0023     		movs	r3, #0
 5780 0006 0D4C     		ldr	r4, .L751
 5781 0008 0546     		mov	r5, r0
 5782 000a 0D4A     		ldr	r2, .L751+4
 5783 000c 0DF10700 		add	r0, sp, #7
 5784 0010 0C49     		ldr	r1, .L751+8
 5785 0012 2370     		strb	r3, [r4]
 5786 0014 8DF80730 		strb	r3, [sp, #7]
 5787 0018 1160     		str	r1, [r2]
 5788 001a FFF7FEFF 		bl	processbend5100
 5789 001e 9DF80730 		ldrb	r3, [sp, #7]	@ zero_extendqisi2
 5790 0022 0446     		mov	r4, r0
 5791 0024 012B     		cmp	r3, #1
 5792 0026 02D0     		beq	.L750
 5793 0028 2046     		mov	r0, r4
 5794 002a 03B0     		add	sp, sp, #12
 5795              		@ sp needed
 5796 002c 30BD     		pop	{r4, r5, pc}
 5797              	.L750:
 5798 002e 2846     		mov	r0, r5
 5799 0030 FFF7FEFF 		bl	tms_newsay_specific
 5800 0034 2046     		mov	r0, r4
 5801 0036 03B0     		add	sp, sp, #12
 5802              		@ sp needed
 5803 0038 30BD     		pop	{r4, r5, pc}
 5804              	.L752:
 5805 003a 00BF     		.align	2
 5806              	.L751:
 5807 003c 00000000 		.word	modus
 5808 0040 00000000 		.word	m_coeff
 5809 0044 00000000 		.word	T0280B_0281A_coeff
 5810              		.size	tms_get_sample_bend5100, .-tms_get_sample_bend5100
 5811              		.section	.text.tms_get_sample_bend5100w,"ax",%progbits
 5812              		.align	1
 5813              		.p2align 2,,3
 5814              		.global	tms_get_sample_bend5100w
ARM GAS  /tmp/ccONvy4E.s 			page 104


 5815              		.syntax unified
 5816              		.thumb
 5817              		.thumb_func
 5818              		.type	tms_get_sample_bend5100w, %function
 5819              	tms_get_sample_bend5100w:
 5820              		@ args = 0, pretend = 0, frame = 8
 5821              		@ frame_needed = 0, uses_anonymous_args = 0
 5822 0000 10B5     		push	{r4, lr}
 5823 0002 0023     		movs	r3, #0
 5824 0004 82B0     		sub	sp, sp, #8
 5825 0006 0C48     		ldr	r0, .L757
 5826 0008 0C4A     		ldr	r2, .L757+4
 5827 000a 0D49     		ldr	r1, .L757+8
 5828 000c 0D4C     		ldr	r4, .L757+12
 5829 000e 0370     		strb	r3, [r0]
 5830 0010 0DF10700 		add	r0, sp, #7
 5831 0014 8DF80730 		strb	r3, [sp, #7]
 5832 0018 2478     		ldrb	r4, [r4]	@ zero_extendqisi2
 5833 001a 1160     		str	r1, [r2]
 5834 001c FFF7FEFF 		bl	processbend5100
 5835 0020 9DF80730 		ldrb	r3, [sp, #7]	@ zero_extendqisi2
 5836 0024 012B     		cmp	r3, #1
 5837 0026 01D0     		beq	.L756
 5838 0028 02B0     		add	sp, sp, #8
 5839              		@ sp needed
 5840 002a 10BD     		pop	{r4, pc}
 5841              	.L756:
 5842 002c 2046     		mov	r0, r4
 5843 002e FFF7FEFF 		bl	tms_newsay_specific
 5844 0032 02B0     		add	sp, sp, #8
 5845              		@ sp needed
 5846 0034 10BD     		pop	{r4, pc}
 5847              	.L758:
 5848 0036 00BF     		.align	2
 5849              	.L757:
 5850 0038 00000000 		.word	modus
 5851 003c 00000000 		.word	m_coeff
 5852 0040 00000000 		.word	T0280B_0281A_coeff
 5853 0044 00000000 		.word	last5100
 5854              		.size	tms_get_sample_bend5100w, .-tms_get_sample_bend5100w
 5855              		.section	.text.tms_get_sample_bend5200,"ax",%progbits
 5856              		.align	1
 5857              		.p2align 2,,3
 5858              		.global	tms_get_sample_bend5200
 5859              		.syntax unified
 5860              		.thumb
 5861              		.thumb_func
 5862              		.type	tms_get_sample_bend5200, %function
 5863              	tms_get_sample_bend5200:
 5864              		@ args = 0, pretend = 0, frame = 8
 5865              		@ frame_needed = 0, uses_anonymous_args = 0
 5866 0000 30B5     		push	{r4, r5, lr}
 5867 0002 83B0     		sub	sp, sp, #12
 5868 0004 0023     		movs	r3, #0
 5869 0006 0D4C     		ldr	r4, .L763
 5870 0008 0546     		mov	r5, r0
 5871 000a 0D4A     		ldr	r2, .L763+4
ARM GAS  /tmp/ccONvy4E.s 			page 105


 5872 000c 0DF10700 		add	r0, sp, #7
 5873 0010 0C49     		ldr	r1, .L763+8
 5874 0012 2370     		strb	r3, [r4]
 5875 0014 8DF80730 		strb	r3, [sp, #7]
 5876 0018 1160     		str	r1, [r2]
 5877 001a FFF7FEFF 		bl	processbend5100
 5878 001e 9DF80730 		ldrb	r3, [sp, #7]	@ zero_extendqisi2
 5879 0022 0446     		mov	r4, r0
 5880 0024 012B     		cmp	r3, #1
 5881 0026 02D0     		beq	.L762
 5882 0028 2046     		mov	r0, r4
 5883 002a 03B0     		add	sp, sp, #12
 5884              		@ sp needed
 5885 002c 30BD     		pop	{r4, r5, pc}
 5886              	.L762:
 5887 002e 2846     		mov	r0, r5
 5888 0030 FFF7FEFF 		bl	tms_newsay_specific
 5889 0034 2046     		mov	r0, r4
 5890 0036 03B0     		add	sp, sp, #12
 5891              		@ sp needed
 5892 0038 30BD     		pop	{r4, r5, pc}
 5893              	.L764:
 5894 003a 00BF     		.align	2
 5895              	.L763:
 5896 003c 00000000 		.word	modus
 5897 0040 00000000 		.word	m_coeff
 5898 0044 00000000 		.word	T0285_2501E_coeff
 5899              		.size	tms_get_sample_bend5200, .-tms_get_sample_bend5200
 5900              		.section	.text.tms_get_sample_bend5200a,"ax",%progbits
 5901              		.align	1
 5902              		.p2align 2,,3
 5903              		.global	tms_get_sample_bend5200a
 5904              		.syntax unified
 5905              		.thumb
 5906              		.thumb_func
 5907              		.type	tms_get_sample_bend5200a, %function
 5908              	tms_get_sample_bend5200a:
 5909              		@ args = 0, pretend = 0, frame = 8
 5910              		@ frame_needed = 0, uses_anonymous_args = 0
 5911 0000 10B5     		push	{r4, lr}
 5912 0002 82B0     		sub	sp, sp, #8
 5913 0004 0B4B     		ldr	r3, .L769
 5914 0006 0024     		movs	r4, #0
 5915 0008 0B49     		ldr	r1, .L769+4
 5916 000a 0C4A     		ldr	r2, .L769+8
 5917 000c 0DF10700 		add	r0, sp, #7
 5918 0010 0C70     		strb	r4, [r1]
 5919 0012 1A60     		str	r2, [r3]
 5920 0014 8DF80740 		strb	r4, [sp, #7]
 5921 0018 FFF7FEFF 		bl	processbend5100
 5922 001c 9DF80730 		ldrb	r3, [sp, #7]	@ zero_extendqisi2
 5923 0020 012B     		cmp	r3, #1
 5924 0022 01D0     		beq	.L768
 5925 0024 02B0     		add	sp, sp, #8
 5926              		@ sp needed
 5927 0026 10BD     		pop	{r4, pc}
 5928              	.L768:
ARM GAS  /tmp/ccONvy4E.s 			page 106


 5929 0028 2046     		mov	r0, r4
 5930 002a FFF7FEFF 		bl	tms_newsay_specific
 5931 002e 02B0     		add	sp, sp, #8
 5932              		@ sp needed
 5933 0030 10BD     		pop	{r4, pc}
 5934              	.L770:
 5935 0032 00BF     		.align	2
 5936              	.L769:
 5937 0034 00000000 		.word	m_coeff
 5938 0038 00000000 		.word	modus
 5939 003c 00000000 		.word	T0285_2501E_coeff
 5940              		.size	tms_get_sample_bend5200a, .-tms_get_sample_bend5200a
 5941              		.section	.text.tms_get_sample_bend5200x,"ax",%progbits
 5942              		.align	1
 5943              		.p2align 2,,3
 5944              		.global	tms_get_sample_bend5200x
 5945              		.syntax unified
 5946              		.thumb
 5947              		.thumb_func
 5948              		.type	tms_get_sample_bend5200x, %function
 5949              	tms_get_sample_bend5200x:
 5950              		@ args = 0, pretend = 0, frame = 8
 5951              		@ frame_needed = 0, uses_anonymous_args = 0
 5952 0000 10B5     		push	{r4, lr}
 5953 0002 0023     		movs	r3, #0
 5954 0004 82B0     		sub	sp, sp, #8
 5955 0006 0C48     		ldr	r0, .L775
 5956 0008 0C4A     		ldr	r2, .L775+4
 5957 000a 0D49     		ldr	r1, .L775+8
 5958 000c 0D4C     		ldr	r4, .L775+12
 5959 000e 0370     		strb	r3, [r0]
 5960 0010 0DF10700 		add	r0, sp, #7
 5961 0014 8DF80730 		strb	r3, [sp, #7]
 5962 0018 2478     		ldrb	r4, [r4]	@ zero_extendqisi2
 5963 001a 1160     		str	r1, [r2]
 5964 001c FFF7FEFF 		bl	processbend5100
 5965 0020 9DF80730 		ldrb	r3, [sp, #7]	@ zero_extendqisi2
 5966 0024 012B     		cmp	r3, #1
 5967 0026 01D0     		beq	.L774
 5968 0028 02B0     		add	sp, sp, #8
 5969              		@ sp needed
 5970 002a 10BD     		pop	{r4, pc}
 5971              	.L774:
 5972 002c 2046     		mov	r0, r4
 5973 002e FFF7FEFF 		bl	tms_newsay_specific
 5974 0032 02B0     		add	sp, sp, #8
 5975              		@ sp needed
 5976 0034 10BD     		pop	{r4, pc}
 5977              	.L776:
 5978 0036 00BF     		.align	2
 5979              	.L775:
 5980 0038 00000000 		.word	modus
 5981 003c 00000000 		.word	m_coeff
 5982 0040 00000000 		.word	T0285_2501E_coeff
 5983 0044 00000000 		.word	last5200
 5984              		.size	tms_get_sample_bend5200x, .-tms_get_sample_bend5200x
 5985              		.section	.text.tms_get_sample_5100pitchtable,"ax",%progbits
ARM GAS  /tmp/ccONvy4E.s 			page 107


 5986              		.align	1
 5987              		.p2align 2,,3
 5988              		.global	tms_get_sample_5100pitchtable
 5989              		.syntax unified
 5990              		.thumb
 5991              		.thumb_func
 5992              		.type	tms_get_sample_5100pitchtable, %function
 5993              	tms_get_sample_5100pitchtable:
 5994              		@ args = 0, pretend = 0, frame = 8
 5995              		@ frame_needed = 0, uses_anonymous_args = 0
 5996 0000 30B5     		push	{r4, r5, lr}
 5997 0002 83B0     		sub	sp, sp, #12
 5998 0004 0023     		movs	r3, #0
 5999 0006 0D4C     		ldr	r4, .L781
 6000 0008 0546     		mov	r5, r0
 6001 000a 0D4A     		ldr	r2, .L781+4
 6002 000c 0DF10700 		add	r0, sp, #7
 6003 0010 0C49     		ldr	r1, .L781+8
 6004 0012 2370     		strb	r3, [r4]
 6005 0014 8DF80730 		strb	r3, [sp, #7]
 6006 0018 1160     		str	r1, [r2]
 6007 001a FFF7FEFF 		bl	process_pitch_tabled5100
 6008 001e 9DF80730 		ldrb	r3, [sp, #7]	@ zero_extendqisi2
 6009 0022 0446     		mov	r4, r0
 6010 0024 012B     		cmp	r3, #1
 6011 0026 02D0     		beq	.L780
 6012 0028 2046     		mov	r0, r4
 6013 002a 03B0     		add	sp, sp, #12
 6014              		@ sp needed
 6015 002c 30BD     		pop	{r4, r5, pc}
 6016              	.L780:
 6017 002e 2846     		mov	r0, r5
 6018 0030 FFF7FEFF 		bl	tms_newsay_specific
 6019 0034 2046     		mov	r0, r4
 6020 0036 03B0     		add	sp, sp, #12
 6021              		@ sp needed
 6022 0038 30BD     		pop	{r4, r5, pc}
 6023              	.L782:
 6024 003a 00BF     		.align	2
 6025              	.L781:
 6026 003c 00000000 		.word	modus
 6027 0040 00000000 		.word	m_coeff
 6028 0044 00000000 		.word	T0280B_0281A_coeff
 6029              		.size	tms_get_sample_5100pitchtable, .-tms_get_sample_5100pitchtable
 6030              		.section	.text.tms_get_sample_5100pitchtablew,"ax",%progbits
 6031              		.align	1
 6032              		.p2align 2,,3
 6033              		.global	tms_get_sample_5100pitchtablew
 6034              		.syntax unified
 6035              		.thumb
 6036              		.thumb_func
 6037              		.type	tms_get_sample_5100pitchtablew, %function
 6038              	tms_get_sample_5100pitchtablew:
 6039              		@ args = 0, pretend = 0, frame = 8
 6040              		@ frame_needed = 0, uses_anonymous_args = 0
 6041 0000 10B5     		push	{r4, lr}
 6042 0002 0023     		movs	r3, #0
ARM GAS  /tmp/ccONvy4E.s 			page 108


 6043 0004 82B0     		sub	sp, sp, #8
 6044 0006 0C48     		ldr	r0, .L787
 6045 0008 0C4A     		ldr	r2, .L787+4
 6046 000a 0D49     		ldr	r1, .L787+8
 6047 000c 0D4C     		ldr	r4, .L787+12
 6048 000e 0370     		strb	r3, [r0]
 6049 0010 0DF10700 		add	r0, sp, #7
 6050 0014 8DF80730 		strb	r3, [sp, #7]
 6051 0018 2478     		ldrb	r4, [r4]	@ zero_extendqisi2
 6052 001a 1160     		str	r1, [r2]
 6053 001c FFF7FEFF 		bl	process_pitch_tabled5100
 6054 0020 9DF80730 		ldrb	r3, [sp, #7]	@ zero_extendqisi2
 6055 0024 012B     		cmp	r3, #1
 6056 0026 01D0     		beq	.L786
 6057 0028 02B0     		add	sp, sp, #8
 6058              		@ sp needed
 6059 002a 10BD     		pop	{r4, pc}
 6060              	.L786:
 6061 002c 2046     		mov	r0, r4
 6062 002e FFF7FEFF 		bl	tms_newsay_specific
 6063 0032 02B0     		add	sp, sp, #8
 6064              		@ sp needed
 6065 0034 10BD     		pop	{r4, pc}
 6066              	.L788:
 6067 0036 00BF     		.align	2
 6068              	.L787:
 6069 0038 00000000 		.word	modus
 6070 003c 00000000 		.word	m_coeff
 6071 0040 00000000 		.word	T0280B_0281A_coeff
 6072 0044 00000000 		.word	last5100
 6073              		.size	tms_get_sample_5100pitchtablew, .-tms_get_sample_5100pitchtablew
 6074              		.section	.text.tms_get_sample_5200pitchtable,"ax",%progbits
 6075              		.align	1
 6076              		.p2align 2,,3
 6077              		.global	tms_get_sample_5200pitchtable
 6078              		.syntax unified
 6079              		.thumb
 6080              		.thumb_func
 6081              		.type	tms_get_sample_5200pitchtable, %function
 6082              	tms_get_sample_5200pitchtable:
 6083              		@ args = 0, pretend = 0, frame = 8
 6084              		@ frame_needed = 0, uses_anonymous_args = 0
 6085 0000 30B5     		push	{r4, r5, lr}
 6086 0002 83B0     		sub	sp, sp, #12
 6087 0004 0023     		movs	r3, #0
 6088 0006 0D4C     		ldr	r4, .L793
 6089 0008 0546     		mov	r5, r0
 6090 000a 0D4A     		ldr	r2, .L793+4
 6091 000c 0DF10700 		add	r0, sp, #7
 6092 0010 0C49     		ldr	r1, .L793+8
 6093 0012 2370     		strb	r3, [r4]
 6094 0014 8DF80730 		strb	r3, [sp, #7]
 6095 0018 1160     		str	r1, [r2]
 6096 001a FFF7FEFF 		bl	process_pitch_tabled5100
 6097 001e 9DF80730 		ldrb	r3, [sp, #7]	@ zero_extendqisi2
 6098 0022 0446     		mov	r4, r0
 6099 0024 012B     		cmp	r3, #1
ARM GAS  /tmp/ccONvy4E.s 			page 109


 6100 0026 02D0     		beq	.L792
 6101 0028 2046     		mov	r0, r4
 6102 002a 03B0     		add	sp, sp, #12
 6103              		@ sp needed
 6104 002c 30BD     		pop	{r4, r5, pc}
 6105              	.L792:
 6106 002e 2846     		mov	r0, r5
 6107 0030 FFF7FEFF 		bl	tms_newsay_specific
 6108 0034 2046     		mov	r0, r4
 6109 0036 03B0     		add	sp, sp, #12
 6110              		@ sp needed
 6111 0038 30BD     		pop	{r4, r5, pc}
 6112              	.L794:
 6113 003a 00BF     		.align	2
 6114              	.L793:
 6115 003c 00000000 		.word	modus
 6116 0040 00000000 		.word	m_coeff
 6117 0044 00000000 		.word	T0285_2501E_coeff
 6118              		.size	tms_get_sample_5200pitchtable, .-tms_get_sample_5200pitchtable
 6119              		.section	.text.tms_get_sample_5200pitchtablea,"ax",%progbits
 6120              		.align	1
 6121              		.p2align 2,,3
 6122              		.global	tms_get_sample_5200pitchtablea
 6123              		.syntax unified
 6124              		.thumb
 6125              		.thumb_func
 6126              		.type	tms_get_sample_5200pitchtablea, %function
 6127              	tms_get_sample_5200pitchtablea:
 6128              		@ args = 0, pretend = 0, frame = 8
 6129              		@ frame_needed = 0, uses_anonymous_args = 0
 6130 0000 10B5     		push	{r4, lr}
 6131 0002 82B0     		sub	sp, sp, #8
 6132 0004 0B4B     		ldr	r3, .L799
 6133 0006 0024     		movs	r4, #0
 6134 0008 0B49     		ldr	r1, .L799+4
 6135 000a 0C4A     		ldr	r2, .L799+8
 6136 000c 0DF10700 		add	r0, sp, #7
 6137 0010 0C70     		strb	r4, [r1]
 6138 0012 1A60     		str	r2, [r3]
 6139 0014 8DF80740 		strb	r4, [sp, #7]
 6140 0018 FFF7FEFF 		bl	process_pitch_tabled5100
 6141 001c 9DF80730 		ldrb	r3, [sp, #7]	@ zero_extendqisi2
 6142 0020 012B     		cmp	r3, #1
 6143 0022 01D0     		beq	.L798
 6144 0024 02B0     		add	sp, sp, #8
 6145              		@ sp needed
 6146 0026 10BD     		pop	{r4, pc}
 6147              	.L798:
 6148 0028 2046     		mov	r0, r4
 6149 002a FFF7FEFF 		bl	tms_newsay_specific
 6150 002e 02B0     		add	sp, sp, #8
 6151              		@ sp needed
 6152 0030 10BD     		pop	{r4, pc}
 6153              	.L800:
 6154 0032 00BF     		.align	2
 6155              	.L799:
 6156 0034 00000000 		.word	m_coeff
ARM GAS  /tmp/ccONvy4E.s 			page 110


 6157 0038 00000000 		.word	modus
 6158 003c 00000000 		.word	T0285_2501E_coeff
 6159              		.size	tms_get_sample_5200pitchtablea, .-tms_get_sample_5200pitchtablea
 6160              		.section	.text.tms_get_sample_5200pitchtablex,"ax",%progbits
 6161              		.align	1
 6162              		.p2align 2,,3
 6163              		.global	tms_get_sample_5200pitchtablex
 6164              		.syntax unified
 6165              		.thumb
 6166              		.thumb_func
 6167              		.type	tms_get_sample_5200pitchtablex, %function
 6168              	tms_get_sample_5200pitchtablex:
 6169              		@ args = 0, pretend = 0, frame = 8
 6170              		@ frame_needed = 0, uses_anonymous_args = 0
 6171 0000 10B5     		push	{r4, lr}
 6172 0002 0023     		movs	r3, #0
 6173 0004 82B0     		sub	sp, sp, #8
 6174 0006 0C48     		ldr	r0, .L805
 6175 0008 0C4A     		ldr	r2, .L805+4
 6176 000a 0D49     		ldr	r1, .L805+8
 6177 000c 0D4C     		ldr	r4, .L805+12
 6178 000e 0370     		strb	r3, [r0]
 6179 0010 0DF10700 		add	r0, sp, #7
 6180 0014 8DF80730 		strb	r3, [sp, #7]
 6181 0018 2478     		ldrb	r4, [r4]	@ zero_extendqisi2
 6182 001a 1160     		str	r1, [r2]
 6183 001c FFF7FEFF 		bl	process_pitch_tabled5100
 6184 0020 9DF80730 		ldrb	r3, [sp, #7]	@ zero_extendqisi2
 6185 0024 012B     		cmp	r3, #1
 6186 0026 01D0     		beq	.L804
 6187 0028 02B0     		add	sp, sp, #8
 6188              		@ sp needed
 6189 002a 10BD     		pop	{r4, pc}
 6190              	.L804:
 6191 002c 2046     		mov	r0, r4
 6192 002e FFF7FEFF 		bl	tms_newsay_specific
 6193 0032 02B0     		add	sp, sp, #8
 6194              		@ sp needed
 6195 0034 10BD     		pop	{r4, pc}
 6196              	.L806:
 6197 0036 00BF     		.align	2
 6198              	.L805:
 6199 0038 00000000 		.word	modus
 6200 003c 00000000 		.word	m_coeff
 6201 0040 00000000 		.word	T0285_2501E_coeff
 6202 0044 00000000 		.word	last5200
 6203              		.size	tms_get_sample_5200pitchtablex, .-tms_get_sample_5200pitchtablex
 6204              		.section	.text.tms_get_sample_5100ktable,"ax",%progbits
 6205              		.align	1
 6206              		.p2align 2,,3
 6207              		.global	tms_get_sample_5100ktable
 6208              		.syntax unified
 6209              		.thumb
 6210              		.thumb_func
 6211              		.type	tms_get_sample_5100ktable, %function
 6212              	tms_get_sample_5100ktable:
 6213              		@ args = 0, pretend = 0, frame = 8
ARM GAS  /tmp/ccONvy4E.s 			page 111


 6214              		@ frame_needed = 0, uses_anonymous_args = 0
 6215 0000 30B5     		push	{r4, r5, lr}
 6216 0002 83B0     		sub	sp, sp, #12
 6217 0004 0023     		movs	r3, #0
 6218 0006 0D4C     		ldr	r4, .L811
 6219 0008 0546     		mov	r5, r0
 6220 000a 0D4A     		ldr	r2, .L811+4
 6221 000c 0DF10700 		add	r0, sp, #7
 6222 0010 0C49     		ldr	r1, .L811+8
 6223 0012 2370     		strb	r3, [r4]
 6224 0014 8DF80730 		strb	r3, [sp, #7]
 6225 0018 1160     		str	r1, [r2]
 6226 001a FFF7FEFF 		bl	process_k_tabled5100
 6227 001e 9DF80730 		ldrb	r3, [sp, #7]	@ zero_extendqisi2
 6228 0022 0446     		mov	r4, r0
 6229 0024 012B     		cmp	r3, #1
 6230 0026 02D0     		beq	.L810
 6231 0028 2046     		mov	r0, r4
 6232 002a 03B0     		add	sp, sp, #12
 6233              		@ sp needed
 6234 002c 30BD     		pop	{r4, r5, pc}
 6235              	.L810:
 6236 002e 2846     		mov	r0, r5
 6237 0030 FFF7FEFF 		bl	tms_newsay_specific
 6238 0034 2046     		mov	r0, r4
 6239 0036 03B0     		add	sp, sp, #12
 6240              		@ sp needed
 6241 0038 30BD     		pop	{r4, r5, pc}
 6242              	.L812:
 6243 003a 00BF     		.align	2
 6244              	.L811:
 6245 003c 00000000 		.word	modus
 6246 0040 00000000 		.word	m_coeff
 6247 0044 00000000 		.word	T0280B_0281A_coeff
 6248              		.size	tms_get_sample_5100ktable, .-tms_get_sample_5100ktable
 6249              		.section	.text.tms_get_sample_5100ktablew,"ax",%progbits
 6250              		.align	1
 6251              		.p2align 2,,3
 6252              		.global	tms_get_sample_5100ktablew
 6253              		.syntax unified
 6254              		.thumb
 6255              		.thumb_func
 6256              		.type	tms_get_sample_5100ktablew, %function
 6257              	tms_get_sample_5100ktablew:
 6258              		@ args = 0, pretend = 0, frame = 8
 6259              		@ frame_needed = 0, uses_anonymous_args = 0
 6260 0000 10B5     		push	{r4, lr}
 6261 0002 0023     		movs	r3, #0
 6262 0004 82B0     		sub	sp, sp, #8
 6263 0006 0C48     		ldr	r0, .L817
 6264 0008 0C4A     		ldr	r2, .L817+4
 6265 000a 0D49     		ldr	r1, .L817+8
 6266 000c 0D4C     		ldr	r4, .L817+12
 6267 000e 0370     		strb	r3, [r0]
 6268 0010 0DF10700 		add	r0, sp, #7
 6269 0014 8DF80730 		strb	r3, [sp, #7]
 6270 0018 2478     		ldrb	r4, [r4]	@ zero_extendqisi2
ARM GAS  /tmp/ccONvy4E.s 			page 112


 6271 001a 1160     		str	r1, [r2]
 6272 001c FFF7FEFF 		bl	process_k_tabled5100
 6273 0020 9DF80730 		ldrb	r3, [sp, #7]	@ zero_extendqisi2
 6274 0024 012B     		cmp	r3, #1
 6275 0026 01D0     		beq	.L816
 6276 0028 02B0     		add	sp, sp, #8
 6277              		@ sp needed
 6278 002a 10BD     		pop	{r4, pc}
 6279              	.L816:
 6280 002c 2046     		mov	r0, r4
 6281 002e FFF7FEFF 		bl	tms_newsay_specific
 6282 0032 02B0     		add	sp, sp, #8
 6283              		@ sp needed
 6284 0034 10BD     		pop	{r4, pc}
 6285              	.L818:
 6286 0036 00BF     		.align	2
 6287              	.L817:
 6288 0038 00000000 		.word	modus
 6289 003c 00000000 		.word	m_coeff
 6290 0040 00000000 		.word	T0280B_0281A_coeff
 6291 0044 00000000 		.word	last5100
 6292              		.size	tms_get_sample_5100ktablew, .-tms_get_sample_5100ktablew
 6293              		.section	.text.tms_get_sample_5200ktable,"ax",%progbits
 6294              		.align	1
 6295              		.p2align 2,,3
 6296              		.global	tms_get_sample_5200ktable
 6297              		.syntax unified
 6298              		.thumb
 6299              		.thumb_func
 6300              		.type	tms_get_sample_5200ktable, %function
 6301              	tms_get_sample_5200ktable:
 6302              		@ args = 0, pretend = 0, frame = 8
 6303              		@ frame_needed = 0, uses_anonymous_args = 0
 6304 0000 30B5     		push	{r4, r5, lr}
 6305 0002 83B0     		sub	sp, sp, #12
 6306 0004 0023     		movs	r3, #0
 6307 0006 0D4C     		ldr	r4, .L823
 6308 0008 0546     		mov	r5, r0
 6309 000a 0D4A     		ldr	r2, .L823+4
 6310 000c 0DF10700 		add	r0, sp, #7
 6311 0010 0C49     		ldr	r1, .L823+8
 6312 0012 2370     		strb	r3, [r4]
 6313 0014 8DF80730 		strb	r3, [sp, #7]
 6314 0018 1160     		str	r1, [r2]
 6315 001a FFF7FEFF 		bl	process_k_tabled5100
 6316 001e 9DF80730 		ldrb	r3, [sp, #7]	@ zero_extendqisi2
 6317 0022 0446     		mov	r4, r0
 6318 0024 012B     		cmp	r3, #1
 6319 0026 02D0     		beq	.L822
 6320 0028 2046     		mov	r0, r4
 6321 002a 03B0     		add	sp, sp, #12
 6322              		@ sp needed
 6323 002c 30BD     		pop	{r4, r5, pc}
 6324              	.L822:
 6325 002e 2846     		mov	r0, r5
 6326 0030 FFF7FEFF 		bl	tms_newsay_specific
 6327 0034 2046     		mov	r0, r4
ARM GAS  /tmp/ccONvy4E.s 			page 113


 6328 0036 03B0     		add	sp, sp, #12
 6329              		@ sp needed
 6330 0038 30BD     		pop	{r4, r5, pc}
 6331              	.L824:
 6332 003a 00BF     		.align	2
 6333              	.L823:
 6334 003c 00000000 		.word	modus
 6335 0040 00000000 		.word	m_coeff
 6336 0044 00000000 		.word	T0285_2501E_coeff
 6337              		.size	tms_get_sample_5200ktable, .-tms_get_sample_5200ktable
 6338              		.section	.text.tms_get_sample_5200ktablea,"ax",%progbits
 6339              		.align	1
 6340              		.p2align 2,,3
 6341              		.global	tms_get_sample_5200ktablea
 6342              		.syntax unified
 6343              		.thumb
 6344              		.thumb_func
 6345              		.type	tms_get_sample_5200ktablea, %function
 6346              	tms_get_sample_5200ktablea:
 6347              		@ args = 0, pretend = 0, frame = 8
