ARM GAS  /tmp/ccONvy4E.s 			page 1


 GNU assembler version 2.41.0 (arm-none-eabi)
	 using BFD version (Arm GNU Toolchain 13.2.rel1 (Build arm-13.7)) 2.41.0.20231009.
 options passed	: -I -I -I -I -I -I -I -EL -march=armv7e-m+fp.dp -mfloat-abi=hard -mfpu=fpv5-d16 -meabi=5 -aghlms=src/tms5200x.lst 
 input file    	: /tmp/ccONvy4E.s
 output file   	: src/tms5200x.o
 target        	: arm-none-eabi
 time stamp    	: 2025-03-08T13:38:43.000+0100

ARM GAS  /tmp/ccONvy4E.s 			page 2


   1              		.cpu cortex-m7
   2              		.arch armv7e-m
   3              		.fpu fpv5-d16
   4              		.eabi_attribute 28, 1
   5              		.eabi_attribute 20, 1
   6              		.eabi_attribute 21, 1
   7              		.eabi_attribute 23, 3
   8              		.eabi_attribute 24, 1
   9              		.eabi_attribute 25, 1
  10              		.eabi_attribute 26, 1
  11              		.eabi_attribute 30, 2
  12              		.eabi_attribute 34, 1
  13              		.eabi_attribute 18, 4
  14              		.file	"tms5200x.c"
  15              		.text
  16              		.section	.text.extract_bits,"ax",%progbits
  17              		.align	1
  18              		.p2align 2,,3
  19              		.global	extract_bits
  20              		.syntax unified
  21              		.thumb
  22              		.thumb_func
  23              		.type	extract_bits, %function
  24              	extract_bits:
  25              		@ args = 0, pretend = 0, frame = 0
  26              		@ frame_needed = 0, uses_anonymous_args = 0
  27              		@ link register save eliminated.
  28 0000 F0B4     		push	{r4, r5, r6, r7}
  29 0002 144E     		ldr	r6, .L7
  30 0004 41B2     		sxtb	r1, r0
  31 0006 144D     		ldr	r5, .L7+4
  32 0008 3468     		ldr	r4, [r6]
  33 000a 2A78     		ldrb	r2, [r5]	@ zero_extendqisi2
  34 000c 134F     		ldr	r7, .L7+8
  35 000e 2378     		ldrb	r3, [r4]	@ zero_extendqisi2
  36 0010 02EB010C 		add	ip, r2, r1
  37 0014 FB5C     		ldrb	r3, [r7, r3]	@ zero_extendqisi2
  38 0016 BCF1080F 		cmp	ip, #8
  39 001a 4FEA0323 		lsl	r3, r3, #8
  40 001e 04DD     		ble	.L2
  41 0020 94F801C0 		ldrb	ip, [r4, #1]	@ zero_extendqisi2
  42 0024 17F80C70 		ldrb	r7, [r7, ip]	@ zero_extendqisi2
  43 0028 3B43     		orrs	r3, r3, r7
  44              	.L2:
  45 002a 9340     		lsls	r3, r3, r2
  46 002c 0244     		add	r2, r2, r0
  47 002e C1F11001 		rsb	r1, r1, #16
  48 0032 D2B2     		uxtb	r2, r2
  49 0034 98B2     		uxth	r0, r3
  50 0036 072A     		cmp	r2, #7
  51 0038 40FA01F0 		asr	r0, r0, r1
  52 003c 03D8     		bhi	.L3
  53 003e C0B2     		uxtb	r0, r0
  54 0040 2A70     		strb	r2, [r5]
  55 0042 F0BC     		pop	{r4, r5, r6, r7}
  56 0044 7047     		bx	lr
  57              	.L3:
ARM GAS  /tmp/ccONvy4E.s 			page 3


  58 0046 0134     		adds	r4, r4, #1
  59 0048 083A     		subs	r2, r2, #8
  60 004a C0B2     		uxtb	r0, r0
  61 004c 2A70     		strb	r2, [r5]
  62 004e 3460     		str	r4, [r6]
  63 0050 F0BC     		pop	{r4, r5, r6, r7}
  64 0052 7047     		bx	lr
  65              	.L8:
  66              		.align	2
  67              	.L7:
  68 0054 00000000 		.word	ptrAddr
  69 0058 00000000 		.word	ptrBit
  70 005c 00000000 		.word	byte_rev
  71              		.size	extract_bits, .-extract_bits
  72              		.section	.text.lattice_filter,"ax",%progbits
  73              		.align	1
  74              		.p2align 2,,3
  75              		.global	lattice_filter
  76              		.syntax unified
  77              		.thumb
  78              		.thumb_func
  79              		.type	lattice_filter, %function
  80              	lattice_filter:
  81              		@ args = 0, pretend = 0, frame = 72
  82              		@ frame_needed = 0, uses_anonymous_args = 0
  83 0000 C84A     		ldr	r2, .L82
  84 0002 C94B     		ldr	r3, .L82+4
  85 0004 1288     		ldrh	r2, [r2]
  86 0006 B3F90030 		ldrsh	r3, [r3]
  87 000a B2F5007F 		cmp	r2, #512
  88 000e 4FEA8313 		lsl	r3, r3, #6
  89 0012 2DE9F04F 		push	{r4, r5, r6, r7, r8, r9, r10, fp, lr}
  90 0016 93B0     		sub	sp, sp, #76
  91 0018 06DB     		blt	.L10
  92 001a A2F50071 		sub	r1, r2, #512
  93 001e A2F58062 		sub	r2, r2, #1024
  94 0022 6FF30901 		bfc	r1, #0, #10
  95 0026 521A     		subs	r2, r2, r1
  96              	.L10:
  97 0028 B3F5804F 		cmp	r3, #16384
  98 002c 06DB     		blt	.L11
  99 002e A3F58041 		sub	r1, r3, #16384
 100 0032 A3F50043 		sub	r3, r3, #32768
 101 0036 6FF30E01 		bfc	r1, #0, #15
 102 003a 5B1A     		subs	r3, r3, r1
 103              	.L11:
 104 003c 13F5804F 		cmn	r3, #16384
 105 0040 07DA     		bge	.L12
 106 0042 6FF48041 		mvn	r1, #16384
 107 0046 03F50040 		add	r0, r3, #32768
 108 004a CB1A     		subs	r3, r1, r3
 109 004c 6FF30E03 		bfc	r3, #0, #15
 110 0050 0344     		add	r3, r3, r0
 111              	.L12:
 112 0052 03FB02F2 		mul	r2, r3, r2
 113 0056 B548     		ldr	r0, .L82+8
 114 0058 DFF8D8A2 		ldr	r10, .L82+16
ARM GAS  /tmp/ccONvy4E.s 			page 4


 115 005c 5212     		asrs	r2, r2, #9
 116 005e 436A     		ldr	r3, [r0, #36]
 117 0060 B34F     		ldr	r7, .L82+12
 118 0062 42F00101 		orr	r1, r2, #1
 119 0066 B3F5007F 		cmp	r3, #512
 120 006a 7A6A     		ldr	r2, [r7, #36]
 121 006c CAF82810 		str	r1, [r10, #40]
 122 0070 06DB     		blt	.L13
 123 0072 A3F50074 		sub	r4, r3, #512
 124 0076 A3F58063 		sub	r3, r3, #1024
 125 007a 6FF30904 		bfc	r4, #0, #10
 126 007e 1B1B     		subs	r3, r3, r4
 127              	.L13:
 128 0080 13F5007F 		cmn	r3, #512
 129 0084 07DA     		bge	.L14
 130 0086 6FF40074 		mvn	r4, #512
 131 008a E41A     		subs	r4, r4, r3
 132 008c 03F58063 		add	r3, r3, #1024
 133 0090 6FF30904 		bfc	r4, #0, #10
 134 0094 2344     		add	r3, r3, r4
 135              	.L14:
 136 0096 B2F5804F 		cmp	r2, #16384
 137 009a 06DB     		blt	.L15
 138 009c A2F58044 		sub	r4, r2, #16384
 139 00a0 A2F50042 		sub	r2, r2, #32768
 140 00a4 6FF30E04 		bfc	r4, #0, #15
 141 00a8 121B     		subs	r2, r2, r4
 142              	.L15:
 143 00aa 12F5804F 		cmn	r2, #16384
 144 00ae 07DA     		bge	.L16
 145 00b0 6FF48044 		mvn	r4, #16384
 146 00b4 A41A     		subs	r4, r4, r2
 147 00b6 02F50042 		add	r2, r2, #32768
 148 00ba 6FF30E04 		bfc	r4, #0, #15
 149 00be 2244     		add	r2, r2, r4
 150              	.L16:
 151 00c0 02FB03F3 		mul	r3, r2, r3
 152 00c4 D0F82090 		ldr	r9, [r0, #32]
 153 00c8 5B12     		asrs	r3, r3, #9
 154 00ca B9F5007F 		cmp	r9, #512
 155 00ce 43F00103 		orr	r3, r3, #1
 156 00d2 A1EB0302 		sub	r2, r1, r3
 157 00d6 3B6A     		ldr	r3, [r7, #32]
 158 00d8 CAF82420 		str	r2, [r10, #36]
 159 00dc 0893     		str	r3, [sp, #32]
 160 00de 07DB     		blt	.L17
 161 00e0 A9F50073 		sub	r3, r9, #512
 162 00e4 A9F58069 		sub	r9, r9, #1024
 163 00e8 6FF30903 		bfc	r3, #0, #10
 164 00ec A9EB0309 		sub	r9, r9, r3
 165              	.L17:
 166 00f0 19F5007F 		cmn	r9, #512
 167 00f4 08DA     		bge	.L18
 168 00f6 6FF40073 		mvn	r3, #512
 169 00fa A3EB0903 		sub	r3, r3, r9
 170 00fe 09F58069 		add	r9, r9, #1024
 171 0102 6FF30903 		bfc	r3, #0, #10
ARM GAS  /tmp/ccONvy4E.s 			page 5


 172 0106 9944     		add	r9, r9, r3
 173              	.L18:
 174 0108 089B     		ldr	r3, [sp, #32]
 175 010a B3F5804F 		cmp	r3, #16384
 176 010e C0F22E83 		blt	.L71
 177 0112 A3F58041 		sub	r1, r3, #16384
 178 0116 A3F50043 		sub	r3, r3, #32768
 179 011a 6FF30E01 		bfc	r1, #0, #15
 180 011e 5B1A     		subs	r3, r3, r1
 181              	.L19:
 182 0120 13F5804F 		cmn	r3, #16384
 183 0124 07DA     		bge	.L20
 184 0126 6FF48041 		mvn	r1, #16384
 185 012a C91A     		subs	r1, r1, r3
 186 012c 03F50043 		add	r3, r3, #32768
 187 0130 6FF30E01 		bfc	r1, #0, #15
 188 0134 0B44     		add	r3, r3, r1
 189              	.L20:
 190 0136 03FB09F3 		mul	r3, r3, r9
 191 013a 5B12     		asrs	r3, r3, #9
 192 013c 43F00103 		orr	r3, r3, #1
 193 0140 D31A     		subs	r3, r2, r3
 194 0142 C269     		ldr	r2, [r0, #28]
 195 0144 0293     		str	r3, [sp, #8]
 196 0146 B2F5007F 		cmp	r2, #512
 197 014a CAF82030 		str	r3, [r10, #32]
 198 014e FB69     		ldr	r3, [r7, #28]
 199 0150 0792     		str	r2, [sp, #28]
 200 0152 0993     		str	r3, [sp, #36]
 201 0154 07DB     		blt	.L21
 202 0156 A2F50073 		sub	r3, r2, #512
 203 015a A2F58062 		sub	r2, r2, #1024
 204 015e 6FF30903 		bfc	r3, #0, #10
 205 0162 D31A     		subs	r3, r2, r3
 206 0164 0793     		str	r3, [sp, #28]
 207              	.L21:
 208 0166 079A     		ldr	r2, [sp, #28]
 209 0168 12F5007F 		cmn	r2, #512
 210 016c 08DA     		bge	.L22
 211 016e 6FF40073 		mvn	r3, #512
 212 0172 9B1A     		subs	r3, r3, r2
 213 0174 02F58062 		add	r2, r2, #1024
 214 0178 6FF30903 		bfc	r3, #0, #10
 215 017c D318     		adds	r3, r2, r3
 216 017e 0793     		str	r3, [sp, #28]
 217              	.L22:
 218 0180 099B     		ldr	r3, [sp, #36]
 219 0182 B3F5804F 		cmp	r3, #16384
 220 0186 C0F2F482 		blt	.L72
 221 018a A3F58042 		sub	r2, r3, #16384
 222 018e A3F50043 		sub	r3, r3, #32768
 223 0192 6FF30E02 		bfc	r2, #0, #15
 224 0196 9B1A     		subs	r3, r3, r2
 225              	.L23:
 226 0198 13F5804F 		cmn	r3, #16384
 227 019c 07DA     		bge	.L24
 228 019e 6FF48042 		mvn	r2, #16384
ARM GAS  /tmp/ccONvy4E.s 			page 6


 229 01a2 D21A     		subs	r2, r2, r3
 230 01a4 03F50043 		add	r3, r3, #32768
 231 01a8 6FF30E02 		bfc	r2, #0, #15
 232 01ac 1344     		add	r3, r3, r2
 233              	.L24:
 234 01ae 079A     		ldr	r2, [sp, #28]
 235 01b0 03FB02F6 		mul	r6, r3, r2
 236 01b4 029B     		ldr	r3, [sp, #8]
 237 01b6 8269     		ldr	r2, [r0, #24]
 238 01b8 7612     		asrs	r6, r6, #9
 239 01ba B2F5007F 		cmp	r2, #512
 240 01be 0692     		str	r2, [sp, #24]
 241 01c0 46F00106 		orr	r6, r6, #1
 242 01c4 A3EB0606 		sub	r6, r3, r6
 243 01c8 BB69     		ldr	r3, [r7, #24]
 244 01ca CAF81C60 		str	r6, [r10, #28]
 245 01ce 0A93     		str	r3, [sp, #40]
 246 01d0 07DB     		blt	.L25
 247 01d2 A2F50073 		sub	r3, r2, #512
 248 01d6 A2F58062 		sub	r2, r2, #1024
 249 01da 6FF30903 		bfc	r3, #0, #10
 250 01de D31A     		subs	r3, r2, r3
 251 01e0 0693     		str	r3, [sp, #24]
 252              	.L25:
 253 01e2 069A     		ldr	r2, [sp, #24]
 254 01e4 12F5007F 		cmn	r2, #512
 255 01e8 08DA     		bge	.L26
 256 01ea 6FF40073 		mvn	r3, #512
 257 01ee 9B1A     		subs	r3, r3, r2
 258 01f0 02F58062 		add	r2, r2, #1024
 259 01f4 6FF30903 		bfc	r3, #0, #10
 260 01f8 D318     		adds	r3, r2, r3
 261 01fa 0693     		str	r3, [sp, #24]
 262              	.L26:
 263 01fc 0A9B     		ldr	r3, [sp, #40]
 264 01fe B3F5804F 		cmp	r3, #16384
 265 0202 C0F2B882 		blt	.L73
 266 0206 A3F58042 		sub	r2, r3, #16384
 267 020a A3F50043 		sub	r3, r3, #32768
 268 020e 6FF30E02 		bfc	r2, #0, #15
 269 0212 9B1A     		subs	r3, r3, r2
 270              	.L27:
 271 0214 13F5804F 		cmn	r3, #16384
 272 0218 07DA     		bge	.L28
 273 021a 6FF48042 		mvn	r2, #16384
 274 021e D21A     		subs	r2, r2, r3
 275 0220 03F50043 		add	r3, r3, #32768
 276 0224 6FF30E02 		bfc	r2, #0, #15
 277 0228 1344     		add	r3, r3, r2
 278              	.L28:
 279 022a 069A     		ldr	r2, [sp, #24]
 280 022c 02FB03F3 		mul	r3, r2, r3
 281 0230 4269     		ldr	r2, [r0, #20]
 282 0232 5B12     		asrs	r3, r3, #9
 283 0234 B2F5007F 		cmp	r2, #512
 284 0238 0592     		str	r2, [sp, #20]
 285 023a 43F00103 		orr	r3, r3, #1
ARM GAS  /tmp/ccONvy4E.s 			page 7


 286 023e A6EB0303 		sub	r3, r6, r3
 287 0242 0193     		str	r3, [sp, #4]
 288 0244 CAF81830 		str	r3, [r10, #24]
 289 0248 7B69     		ldr	r3, [r7, #20]
 290 024a 0B93     		str	r3, [sp, #44]
 291 024c 07DB     		blt	.L29
 292 024e A2F50073 		sub	r3, r2, #512
 293 0252 A2F58062 		sub	r2, r2, #1024
 294 0256 6FF30903 		bfc	r3, #0, #10
 295 025a D31A     		subs	r3, r2, r3
 296 025c 0593     		str	r3, [sp, #20]
 297              	.L29:
 298 025e 059A     		ldr	r2, [sp, #20]
 299 0260 12F5007F 		cmn	r2, #512
 300 0264 08DA     		bge	.L30
 301 0266 6FF40073 		mvn	r3, #512
 302 026a 9B1A     		subs	r3, r3, r2
 303 026c 02F58062 		add	r2, r2, #1024
 304 0270 6FF30903 		bfc	r3, #0, #10
 305 0274 D318     		adds	r3, r2, r3
 306 0276 0593     		str	r3, [sp, #20]
 307              	.L30:
 308 0278 0B9B     		ldr	r3, [sp, #44]
 309 027a B3F5804F 		cmp	r3, #16384
 310 027e C0F27C82 		blt	.L74
 311 0282 A3F58042 		sub	r2, r3, #16384
 312 0286 A3F50043 		sub	r3, r3, #32768
 313 028a 6FF30E02 		bfc	r2, #0, #15
 314 028e 9B1A     		subs	r3, r3, r2
 315              	.L31:
 316 0290 13F5804F 		cmn	r3, #16384
 317 0294 07DA     		bge	.L32
 318 0296 6FF48042 		mvn	r2, #16384
 319 029a D21A     		subs	r2, r2, r3
 320 029c 03F50043 		add	r3, r3, #32768
 321 02a0 6FF30E02 		bfc	r2, #0, #15
 322 02a4 1344     		add	r3, r3, r2
 323              	.L32:
 324 02a6 059A     		ldr	r2, [sp, #20]
 325 02a8 03FB02F5 		mul	r5, r3, r2
 326 02ac 019B     		ldr	r3, [sp, #4]
 327 02ae 0269     		ldr	r2, [r0, #16]
 328 02b0 6D12     		asrs	r5, r5, #9
 329 02b2 B2F5007F 		cmp	r2, #512
 330 02b6 0492     		str	r2, [sp, #16]
 331 02b8 45F00105 		orr	r5, r5, #1
 332 02bc A3EB0505 		sub	r5, r3, r5
 333 02c0 3B69     		ldr	r3, [r7, #16]
 334 02c2 CAF81450 		str	r5, [r10, #20]
 335 02c6 0C93     		str	r3, [sp, #48]
 336 02c8 07DB     		blt	.L33
 337 02ca A2F50073 		sub	r3, r2, #512
 338 02ce A2F58062 		sub	r2, r2, #1024
 339 02d2 6FF30903 		bfc	r3, #0, #10
 340 02d6 D31A     		subs	r3, r2, r3
 341 02d8 0493     		str	r3, [sp, #16]
 342              	.L33:
ARM GAS  /tmp/ccONvy4E.s 			page 8


 343 02da 049A     		ldr	r2, [sp, #16]
 344 02dc 12F5007F 		cmn	r2, #512
 345 02e0 08DA     		bge	.L34
 346 02e2 6FF40073 		mvn	r3, #512
 347 02e6 9B1A     		subs	r3, r3, r2
 348 02e8 02F58062 		add	r2, r2, #1024
 349 02ec 6FF30903 		bfc	r3, #0, #10
 350 02f0 D318     		adds	r3, r2, r3
 351 02f2 0493     		str	r3, [sp, #16]
 352              	.L34:
 353 02f4 0C9B     		ldr	r3, [sp, #48]
 354 02f6 B3F5804F 		cmp	r3, #16384
 355 02fa C0F24082 		blt	.L75
 356 02fe A3F58042 		sub	r2, r3, #16384
 357 0302 A3F50043 		sub	r3, r3, #32768
 358 0306 6FF30E02 		bfc	r2, #0, #15
 359 030a 9B1A     		subs	r3, r3, r2
 360              	.L35:
 361 030c 13F5804F 		cmn	r3, #16384
 362 0310 12DA     		bge	.L36
 363 0312 6FF48042 		mvn	r2, #16384
 364 0316 D21A     		subs	r2, r2, r3
 365 0318 03F50043 		add	r3, r3, #32768
 366 031c 6FF30E02 		bfc	r2, #0, #15
 367 0320 1344     		add	r3, r3, r2
 368 0322 09E0     		b	.L83
 369              	.L84:
 370              		.align	2
 371              	.L82:
 372 0324 00000000 		.word	m_previous_energy
 373 0328 00000000 		.word	m_excitation_data
 374 032c 00000000 		.word	m_current_k
 375 0330 00000000 		.word	m_x
 376 0334 00000000 		.word	m_u
 377              	.L83:
 378              	.L36:
 379 0338 049A     		ldr	r2, [sp, #16]
 380 033a 03FB02F4 		mul	r4, r3, r2
 381 033e C268     		ldr	r2, [r0, #12]
 382 0340 FB68     		ldr	r3, [r7, #12]
 383 0342 6412     		asrs	r4, r4, #9
 384 0344 B2F5007F 		cmp	r2, #512
 385 0348 0392     		str	r2, [sp, #12]
 386 034a 44F00104 		orr	r4, r4, #1
 387 034e 0D93     		str	r3, [sp, #52]
 388 0350 A5EB0404 		sub	r4, r5, r4
 389 0354 CAF81040 		str	r4, [r10, #16]
 390 0358 07DB     		blt	.L37
 391 035a A2F50073 		sub	r3, r2, #512
 392 035e A2F58062 		sub	r2, r2, #1024
 393 0362 6FF30903 		bfc	r3, #0, #10
 394 0366 D31A     		subs	r3, r2, r3
 395 0368 0393     		str	r3, [sp, #12]
 396              	.L37:
 397 036a 039A     		ldr	r2, [sp, #12]
 398 036c 12F5007F 		cmn	r2, #512
 399 0370 08DA     		bge	.L38
ARM GAS  /tmp/ccONvy4E.s 			page 9


 400 0372 6FF40073 		mvn	r3, #512
 401 0376 9B1A     		subs	r3, r3, r2
 402 0378 02F58062 		add	r2, r2, #1024
 403 037c 6FF30903 		bfc	r3, #0, #10
 404 0380 D318     		adds	r3, r2, r3
 405 0382 0393     		str	r3, [sp, #12]
 406              	.L38:
 407 0384 0D9B     		ldr	r3, [sp, #52]
 408 0386 B3F5804F 		cmp	r3, #16384
 409 038a C0F2FA81 		blt	.L76
 410 038e A3F58042 		sub	r2, r3, #16384
 411 0392 A3F50043 		sub	r3, r3, #32768
 412 0396 6FF30E02 		bfc	r2, #0, #15
 413 039a 9B1A     		subs	r3, r3, r2
 414              	.L39:
 415 039c 13F5804F 		cmn	r3, #16384
 416 03a0 07DA     		bge	.L40
 417 03a2 6FF48042 		mvn	r2, #16384
 418 03a6 D21A     		subs	r2, r2, r3
 419 03a8 03F50043 		add	r3, r3, #32768
 420 03ac 6FF30E02 		bfc	r2, #0, #15
 421 03b0 1344     		add	r3, r3, r2
 422              	.L40:
 423 03b2 039A     		ldr	r2, [sp, #12]
 424 03b4 D0F80880 		ldr	r8, [r0, #8]
 425 03b8 03FB02F1 		mul	r1, r3, r2
 426 03bc BB68     		ldr	r3, [r7, #8]
 427 03be B8F5007F 		cmp	r8, #512
 428 03c2 4FEA6121 		asr	r1, r1, #9
 429 03c6 0E93     		str	r3, [sp, #56]
 430 03c8 41F00101 		orr	r1, r1, #1
 431 03cc A4EB0101 		sub	r1, r4, r1
 432 03d0 CAF80C10 		str	r1, [r10, #12]
 433 03d4 07DB     		blt	.L41
 434 03d6 A8F50073 		sub	r3, r8, #512
 435 03da A8F58068 		sub	r8, r8, #1024
 436 03de 6FF30903 		bfc	r3, #0, #10
 437 03e2 A8EB0308 		sub	r8, r8, r3
 438              	.L41:
 439 03e6 18F5007F 		cmn	r8, #512
 440 03ea 08DA     		bge	.L42
 441 03ec 6FF40073 		mvn	r3, #512
 442 03f0 A3EB0803 		sub	r3, r3, r8
 443 03f4 08F58068 		add	r8, r8, #1024
 444 03f8 6FF30903 		bfc	r3, #0, #10
 445 03fc 9844     		add	r8, r8, r3
 446              	.L42:
 447 03fe 0E9B     		ldr	r3, [sp, #56]
 448 0400 B3F5804F 		cmp	r3, #16384
 449 0404 C0F2BF81 		blt	.L77
 450 0408 A3F58042 		sub	r2, r3, #16384
 451 040c A3F50043 		sub	r3, r3, #32768
 452 0410 6FF30E02 		bfc	r2, #0, #15
 453 0414 9B1A     		subs	r3, r3, r2
 454              	.L43:
 455 0416 13F5804F 		cmn	r3, #16384
 456 041a 07DA     		bge	.L44
ARM GAS  /tmp/ccONvy4E.s 			page 10


 457 041c 6FF48042 		mvn	r2, #16384
 458 0420 D21A     		subs	r2, r2, r3
 459 0422 03F50043 		add	r3, r3, #32768
 460 0426 6FF30E02 		bfc	r2, #0, #15
 461 042a 1344     		add	r3, r3, r2
 462              	.L44:
 463 042c 03FB08F2 		mul	r2, r3, r8
 464 0430 D0F804E0 		ldr	lr, [r0, #4]
 465 0434 7B68     		ldr	r3, [r7, #4]
 466 0436 5212     		asrs	r2, r2, #9
 467 0438 BEF5007F 		cmp	lr, #512
 468 043c 0F93     		str	r3, [sp, #60]
 469 043e 42F00102 		orr	r2, r2, #1
 470 0442 A1EB0202 		sub	r2, r1, r2
 471 0446 CAF80820 		str	r2, [r10, #8]
 472 044a 07DB     		blt	.L45
 473 044c AEF50073 		sub	r3, lr, #512
 474 0450 AEF5806E 		sub	lr, lr, #1024
 475 0454 6FF30903 		bfc	r3, #0, #10
 476 0458 AEEB030E 		sub	lr, lr, r3
 477              	.L45:
 478 045c 1EF5007F 		cmn	lr, #512
 479 0460 08DA     		bge	.L46
 480 0462 6FF40073 		mvn	r3, #512
 481 0466 A3EB0E03 		sub	r3, r3, lr
 482 046a 0EF5806E 		add	lr, lr, #1024
 483 046e 6FF30903 		bfc	r3, #0, #10
 484 0472 9E44     		add	lr, lr, r3
 485              	.L46:
 486 0474 0F9B     		ldr	r3, [sp, #60]
 487 0476 B3F5804F 		cmp	r3, #16384
 488 047a C0F28681 		blt	.L78
 489 047e A3F5804C 		sub	ip, r3, #16384
 490 0482 A3F50043 		sub	r3, r3, #32768
 491 0486 6FF30E0C 		bfc	ip, #0, #15
 492 048a A3EB0C03 		sub	r3, r3, ip
 493              	.L47:
 494 048e 13F5804F 		cmn	r3, #16384
 495 0492 08DA     		bge	.L48
 496 0494 6FF4804C 		mvn	ip, #16384
 497 0498 ACEB030C 		sub	ip, ip, r3
 498 049c 03F50043 		add	r3, r3, #32768
 499 04a0 6FF30E0C 		bfc	ip, #0, #15
 500 04a4 6344     		add	r3, r3, ip
 501              	.L48:
 502 04a6 03FB0EF3 		mul	r3, r3, lr
 503 04aa D0F800C0 		ldr	ip, [r0]
 504 04ae 3868     		ldr	r0, [r7]
 505 04b0 5B12     		asrs	r3, r3, #9
 506 04b2 BCF5007F 		cmp	ip, #512
 507 04b6 1090     		str	r0, [sp, #64]
 508 04b8 43F00103 		orr	r3, r3, #1
 509 04bc A2EB0303 		sub	r3, r2, r3
 510 04c0 CAF80430 		str	r3, [r10, #4]
 511 04c4 07DB     		blt	.L49
 512 04c6 ACF50070 		sub	r0, ip, #512
 513 04ca ACF5806C 		sub	ip, ip, #1024
ARM GAS  /tmp/ccONvy4E.s 			page 11


 514 04ce 6FF30900 		bfc	r0, #0, #10
 515 04d2 ACEB000C 		sub	ip, ip, r0
 516              	.L49:
 517 04d6 1CF5007F 		cmn	ip, #512
 518 04da 08DA     		bge	.L50
 519 04dc 6FF40070 		mvn	r0, #512
 520 04e0 A0EB0C00 		sub	r0, r0, ip
 521 04e4 0CF5806C 		add	ip, ip, #1024
 522 04e8 6FF30900 		bfc	r0, #0, #10
 523 04ec 8444     		add	ip, ip, r0
 524              	.L50:
 525 04ee 1098     		ldr	r0, [sp, #64]
 526 04f0 B0F5804F 		cmp	r0, #16384
 527 04f4 C0F24B81 		blt	.L79
 528 04f8 A0F5804B 		sub	fp, r0, #16384
 529 04fc A0F50040 		sub	r0, r0, #32768
 530 0500 6FF30E0B 		bfc	fp, #0, #15
 531 0504 A0EB0B00 		sub	r0, r0, fp
 532              	.L51:
 533 0508 10F5804F 		cmn	r0, #16384
 534 050c 08DA     		bge	.L52
 535 050e 6FF4804B 		mvn	fp, #16384
 536 0512 ABEB000B 		sub	fp, fp, r0
 537 0516 00F50040 		add	r0, r0, #32768
 538 051a 6FF30E0B 		bfc	fp, #0, #15
 539 051e 5844     		add	r0, r0, fp
 540              	.L52:
 541 0520 00FB0CF0 		mul	r0, r0, ip
 542 0524 4012     		asrs	r0, r0, #9
 543 0526 40F00100 		orr	r0, r0, #1
 544 052a 181A     		subs	r0, r3, r0
 545 052c 1190     		str	r0, [sp, #68]
 546 052e CAF80000 		str	r0, [r10]
 547 0532 0298     		ldr	r0, [sp, #8]
 548 0534 B0F5804F 		cmp	r0, #16384
 549 0538 C0F22B81 		blt	.L53
 550 053c A0F50040 		sub	r0, r0, #32768
 551 0540 0290     		str	r0, [sp, #8]
 552              	.L54:
 553 0542 0298     		ldr	r0, [sp, #8]
 554 0544 B6F5804F 		cmp	r6, #16384
 555 0548 09FB00F9 		mul	r9, r9, r0
 556 054c 0898     		ldr	r0, [sp, #32]
 557 054e 4FEA6929 		asr	r9, r9, #9
 558 0552 49F00109 		orr	r9, r9, #1
 559 0556 8144     		add	r9, r9, r0
 560 0558 C7F82490 		str	r9, [r7, #36]
 561 055c 0ADB     		blt	.L55
 562 055e A6F58049 		sub	r9, r6, #16384
 563 0562 A6F50046 		sub	r6, r6, #32768
 564 0566 4FEAD939 		lsr	r9, r9, #15
 565 056a C9F10009 		rsb	r9, r9, #0
 566 056e 6FF30E09 		bfc	r9, #0, #15
 567 0572 4E44     		add	r6, r6, r9
 568              	.L55:
 569 0574 16F5804F 		cmn	r6, #16384
 570 0578 08DA     		bge	.L56
ARM GAS  /tmp/ccONvy4E.s 			page 12


 571 057a 6FF48049 		mvn	r9, #16384
 572 057e A9EB0609 		sub	r9, r9, r6
 573 0582 06F50046 		add	r6, r6, #32768
 574 0586 6FF30E09 		bfc	r9, #0, #15
 575 058a 4E44     		add	r6, r6, r9
 576              	.L56:
 577 058c 0798     		ldr	r0, [sp, #28]
 578 058e 00FB06F6 		mul	r6, r0, r6
 579 0592 0998     		ldr	r0, [sp, #36]
 580 0594 7612     		asrs	r6, r6, #9
 581 0596 46F00106 		orr	r6, r6, #1
 582 059a 0644     		add	r6, r6, r0
 583 059c 0198     		ldr	r0, [sp, #4]
 584 059e B0F5804F 		cmp	r0, #16384
 585 05a2 3E62     		str	r6, [r7, #32]
 586 05a4 0ADB     		blt	.L57
 587 05a6 A0F58046 		sub	r6, r0, #16384
 588 05aa A0F50049 		sub	r9, r0, #32768
 589 05ae F60B     		lsrs	r6, r6, #15
 590 05b0 7642     		rsbs	r6, r6, #0
 591 05b2 6FF30E06 		bfc	r6, #0, #15
 592 05b6 06EB0900 		add	r0, r6, r9
 593 05ba 0190     		str	r0, [sp, #4]
 594              	.L57:
 595 05bc 0198     		ldr	r0, [sp, #4]
 596 05be 10F5804F 		cmn	r0, #16384
 597 05c2 09DA     		bge	.L58
 598 05c4 6FF48046 		mvn	r6, #16384
 599 05c8 00F50049 		add	r9, r0, #32768
 600 05cc 361A     		subs	r6, r6, r0
 601 05ce 6FF30E06 		bfc	r6, #0, #15
 602 05d2 06EB0900 		add	r0, r6, r9
 603 05d6 0190     		str	r0, [sp, #4]
 604              	.L58:
 605 05d8 0698     		ldr	r0, [sp, #24]
 606 05da B5F5804F 		cmp	r5, #16384
 607 05de 019E     		ldr	r6, [sp, #4]
 608 05e0 00FB06F6 		mul	r6, r0, r6
 609 05e4 0A98     		ldr	r0, [sp, #40]
 610 05e6 4FEA6626 		asr	r6, r6, #9
 611 05ea 46F00106 		orr	r6, r6, #1
 612 05ee 0644     		add	r6, r6, r0
 613 05f0 FE61     		str	r6, [r7, #28]
 614 05f2 06DB     		blt	.L59
 615 05f4 A5F58046 		sub	r6, r5, #16384
 616 05f8 A5F50045 		sub	r5, r5, #32768
 617 05fc 6FF30E06 		bfc	r6, #0, #15
 618 0600 AD1B     		subs	r5, r5, r6
 619              	.L59:
 620 0602 15F5804F 		cmn	r5, #16384
 621 0606 07DA     		bge	.L60
 622 0608 6FF48046 		mvn	r6, #16384
 623 060c 761B     		subs	r6, r6, r5
 624 060e 05F50045 		add	r5, r5, #32768
 625 0612 6FF30E06 		bfc	r6, #0, #15
 626 0616 3544     		add	r5, r5, r6
 627              	.L60:
ARM GAS  /tmp/ccONvy4E.s 			page 13


 628 0618 0598     		ldr	r0, [sp, #20]
 629 061a B4F5804F 		cmp	r4, #16384
 630 061e 00FB05F5 		mul	r5, r0, r5
 631 0622 0B98     		ldr	r0, [sp, #44]
 632 0624 4FEA6525 		asr	r5, r5, #9
 633 0628 45F00105 		orr	r5, r5, #1
 634 062c 0544     		add	r5, r5, r0
 635 062e BD61     		str	r5, [r7, #24]
 636 0630 06DB     		blt	.L61
 637 0632 A4F58045 		sub	r5, r4, #16384
 638 0636 A4F50044 		sub	r4, r4, #32768
 639 063a 6FF30E05 		bfc	r5, #0, #15
 640 063e 641B     		subs	r4, r4, r5
 641              	.L61:
 642 0640 14F5804F 		cmn	r4, #16384
 643 0644 07DA     		bge	.L62
 644 0646 6FF48045 		mvn	r5, #16384
 645 064a 2D1B     		subs	r5, r5, r4
 646 064c 04F50044 		add	r4, r4, #32768
 647 0650 6FF30E05 		bfc	r5, #0, #15
 648 0654 2C44     		add	r4, r4, r5
 649              	.L62:
 650 0656 0498     		ldr	r0, [sp, #16]
 651 0658 B1F5804F 		cmp	r1, #16384
 652 065c 00FB04F4 		mul	r4, r0, r4
 653 0660 0C98     		ldr	r0, [sp, #48]
 654 0662 4FEA6424 		asr	r4, r4, #9
 655 0666 44F00104 		orr	r4, r4, #1
 656 066a 0444     		add	r4, r4, r0
 657 066c 7C61     		str	r4, [r7, #20]
 658 066e 06DB     		blt	.L63
 659 0670 A1F58044 		sub	r4, r1, #16384
 660 0674 A1F50041 		sub	r1, r1, #32768
 661 0678 6FF30E04 		bfc	r4, #0, #15
 662 067c 091B     		subs	r1, r1, r4
 663              	.L63:
 664 067e 11F5804F 		cmn	r1, #16384
 665 0682 07DA     		bge	.L64
 666 0684 6FF48044 		mvn	r4, #16384
 667 0688 641A     		subs	r4, r4, r1
 668 068a 01F50041 		add	r1, r1, #32768
 669 068e 6FF30E04 		bfc	r4, #0, #15
 670 0692 2144     		add	r1, r1, r4
 671              	.L64:
 672 0694 0398     		ldr	r0, [sp, #12]
 673 0696 B2F5804F 		cmp	r2, #16384
 674 069a 00FB01F1 		mul	r1, r0, r1
 675 069e 0D98     		ldr	r0, [sp, #52]
 676 06a0 4FEA6121 		asr	r1, r1, #9
 677 06a4 41F00101 		orr	r1, r1, #1
 678 06a8 0144     		add	r1, r1, r0
 679 06aa 3961     		str	r1, [r7, #16]
 680 06ac 06DB     		blt	.L65
 681 06ae A2F58041 		sub	r1, r2, #16384
 682 06b2 A2F50042 		sub	r2, r2, #32768
 683 06b6 6FF30E01 		bfc	r1, #0, #15
 684 06ba 521A     		subs	r2, r2, r1
ARM GAS  /tmp/ccONvy4E.s 			page 14


 685              	.L65:
 686 06bc 12F5804F 		cmn	r2, #16384
 687 06c0 07DA     		bge	.L66
 688 06c2 6FF48041 		mvn	r1, #16384
 689 06c6 891A     		subs	r1, r1, r2
 690 06c8 02F50042 		add	r2, r2, #32768
 691 06cc 6FF30E01 		bfc	r1, #0, #15
 692 06d0 0A44     		add	r2, r2, r1
 693              	.L66:
 694 06d2 08FB02F2 		mul	r2, r8, r2
 695 06d6 0E99     		ldr	r1, [sp, #56]
 696 06d8 B3F5804F 		cmp	r3, #16384
 697 06dc 4FEA6222 		asr	r2, r2, #9
 698 06e0 42F00102 		orr	r2, r2, #1
 699 06e4 0A44     		add	r2, r2, r1
 700 06e6 FA60     		str	r2, [r7, #12]
 701 06e8 06DB     		blt	.L67
 702 06ea A3F58042 		sub	r2, r3, #16384
 703 06ee A3F50043 		sub	r3, r3, #32768
 704 06f2 6FF30E02 		bfc	r2, #0, #15
 705 06f6 9B1A     		subs	r3, r3, r2
 706              	.L67:
 707 06f8 13F5804F 		cmn	r3, #16384
 708 06fc 07DA     		bge	.L68
 709 06fe 6FF48042 		mvn	r2, #16384
 710 0702 D21A     		subs	r2, r2, r3
 711 0704 03F50043 		add	r3, r3, #32768
 712 0708 6FF30E02 		bfc	r2, #0, #15
 713 070c 1344     		add	r3, r3, r2
 714              	.L68:
 715 070e 0EFB03F3 		mul	r3, lr, r3
 716 0712 0F9A     		ldr	r2, [sp, #60]
 717 0714 5B12     		asrs	r3, r3, #9
 718 0716 43F00103 		orr	r3, r3, #1
 719 071a 1344     		add	r3, r3, r2
 720 071c BB60     		str	r3, [r7, #8]
 721 071e 119B     		ldr	r3, [sp, #68]
 722 0720 B3F5804F 		cmp	r3, #16384
 723 0724 46DB     		blt	.L80
 724 0726 A3F58042 		sub	r2, r3, #16384
 725 072a A3F50043 		sub	r3, r3, #32768
 726 072e 6FF30E02 		bfc	r2, #0, #15
 727 0732 9B1A     		subs	r3, r3, r2
 728              	.L69:
 729 0734 13F5804F 		cmn	r3, #16384
 730 0738 07DA     		bge	.L70
 731 073a 6FF48042 		mvn	r2, #16384
 732 073e D21A     		subs	r2, r2, r3
 733 0740 03F50043 		add	r3, r3, #32768
 734 0744 6FF30E02 		bfc	r2, #0, #15
 735 0748 1344     		add	r3, r3, r2
 736              	.L70:
 737 074a 0CFB03F3 		mul	r3, ip, r3
 738 074e 119A     		ldr	r2, [sp, #68]
 739 0750 5B12     		asrs	r3, r3, #9
 740 0752 1046     		mov	r0, r2
 741 0754 3A60     		str	r2, [r7]
ARM GAS  /tmp/ccONvy4E.s 			page 15


 742 0756 109A     		ldr	r2, [sp, #64]
 743 0758 43F00103 		orr	r3, r3, #1
 744 075c 1344     		add	r3, r3, r2
 745 075e 164A     		ldr	r2, .L85
 746 0760 7B60     		str	r3, [r7, #4]
 747 0762 1268     		ldr	r2, [r2]
 748 0764 154B     		ldr	r3, .L85+4
 749 0766 1A80     		strh	r2, [r3]	@ movhi
 750 0768 13B0     		add	sp, sp, #76
 751              		@ sp needed
 752 076a BDE8F08F 		pop	{r4, r5, r6, r7, r8, r9, r10, fp, pc}
 753              	.L71:
 754 076e 089B     		ldr	r3, [sp, #32]
 755 0770 D6E4     		b	.L19
 756              	.L72:
 757 0772 099B     		ldr	r3, [sp, #36]
 758 0774 10E5     		b	.L23
 759              	.L73:
 760 0776 0A9B     		ldr	r3, [sp, #40]
 761 0778 4CE5     		b	.L27
 762              	.L74:
 763 077a 0B9B     		ldr	r3, [sp, #44]
 764 077c 88E5     		b	.L31
 765              	.L75:
 766 077e 0C9B     		ldr	r3, [sp, #48]
 767 0780 C4E5     		b	.L35
 768              	.L76:
 769 0782 0D9B     		ldr	r3, [sp, #52]
 770 0784 0AE6     		b	.L39
 771              	.L77:
 772 0786 0E9B     		ldr	r3, [sp, #56]
 773 0788 45E6     		b	.L43
 774              	.L78:
 775 078a 0F9B     		ldr	r3, [sp, #60]
 776 078c 7FE6     		b	.L47
 777              	.L79:
 778 078e 1098     		ldr	r0, [sp, #64]
 779 0790 BAE6     		b	.L51
 780              	.L53:
 781 0792 0298     		ldr	r0, [sp, #8]
 782 0794 10F5804F 		cmn	r0, #16384
 783 0798 BFF6D3AE 		bge	.L54
 784 079c 6FF4804A 		mvn	r10, #16384
 785 07a0 00F5004B 		add	fp, r0, #32768
 786 07a4 AAEB000A 		sub	r10, r10, r0
 787 07a8 6FF30E0A 		bfc	r10, #0, #15
 788 07ac 0AEB0B00 		add	r0, r10, fp
 789 07b0 0290     		str	r0, [sp, #8]
 790 07b2 C6E6     		b	.L54
 791              	.L80:
 792 07b4 119B     		ldr	r3, [sp, #68]
 793 07b6 BDE7     		b	.L69
 794              	.L86:
 795              		.align	2
 796              	.L85:
 797 07b8 00000000 		.word	m_current_energy
 798 07bc 00000000 		.word	m_previous_energy
ARM GAS  /tmp/ccONvy4E.s 			page 16


 799              		.size	lattice_filter, .-lattice_filter
 800              		.section	.text.parse_frame,"ax",%progbits
 801              		.align	1
 802              		.p2align 2,,3
 803              		.global	parse_frame
 804              		.syntax unified
 805              		.thumb
 806              		.thumb_func
 807              		.type	parse_frame, %function
 808              	parse_frame:
 809              		@ args = 0, pretend = 0, frame = 0
 810              		@ frame_needed = 0, uses_anonymous_args = 0
 811 0000 264A     		ldr	r2, .L109
 812 0002 1268     		ldr	r2, [r2]
 813 0004 F8B5     		push	{r3, r4, r5, r6, r7, lr}
 814 0006 042A     		cmp	r2, #4
 815 0008 254B     		ldr	r3, .L109+4
 816 000a 1B78     		ldrb	r3, [r3]	@ zero_extendqisi2
 817 000c 3DD0     		beq	.L96
 818 000e 072A     		cmp	r2, #7
 819 0010 3BD0     		beq	.L96
 820              	.L88:
 821 0012 244A     		ldr	r2, .L109+8
 822 0014 03F00303 		and	r3, r3, #3
 823 0018 D15C     		ldrb	r1, [r2, r3]	@ zero_extendqisi2
 824              	.L90:
 825 001a 234D     		ldr	r5, .L109+12
 826 001c 234A     		ldr	r2, .L109+16
 827 001e 2B68     		ldr	r3, [r5]
 828 0020 1170     		strb	r1, [r2]
 829 0022 9868     		ldr	r0, [r3, #8]
 830 0024 FFF7FEFF 		bl	extract_bits
 831 0028 214B     		ldr	r3, .L109+20
 832 002a C0B2     		uxtb	r0, r0
 833 002c 1870     		strb	r0, [r3]
 834 002e 58B3     		cbz	r0, .L87
 835 0030 0F28     		cmp	r0, #15
 836 0032 29D0     		beq	.L87
 837 0034 0120     		movs	r0, #1
 838 0036 1F4F     		ldr	r7, .L109+24
 839 0038 FFF7FEFF 		bl	extract_bits
 840 003c 2B68     		ldr	r3, [r5]
 841 003e 0446     		mov	r4, r0
 842 0040 D868     		ldr	r0, [r3, #12]
 843 0042 FFF7FEFF 		bl	extract_bits
 844 0046 3870     		strb	r0, [r7]
 845 0048 F4B9     		cbnz	r4, .L87
 846 004a 1B4E     		ldr	r6, .L109+28
 847              	.L94:
 848 004c 221D     		adds	r2, r4, #4
 849 004e 2B68     		ldr	r3, [r5]
 850 0050 0134     		adds	r4, r4, #1
 851 0052 53F82200 		ldr	r0, [r3, r2, lsl #2]
 852 0056 FFF7FEFF 		bl	extract_bits
 853 005a 042C     		cmp	r4, #4
 854 005c 06F8010B 		strb	r0, [r6], #1
 855 0060 F4D1     		bne	.L94
ARM GAS  /tmp/ccONvy4E.s 			page 17


 856 0062 3B78     		ldrb	r3, [r7]	@ zero_extendqisi2
 857 0064 83B1     		cbz	r3, .L87
 858 0066 2B68     		ldr	r3, [r5]
 859 0068 5A68     		ldr	r2, [r3, #4]
 860 006a 042A     		cmp	r2, #4
 861 006c 0CDD     		ble	.L87
 862 006e 134E     		ldr	r6, .L109+32
 863              	.L95:
 864 0070 221D     		adds	r2, r4, #4
 865 0072 0134     		adds	r4, r4, #1
 866 0074 53F82200 		ldr	r0, [r3, r2, lsl #2]
 867 0078 FFF7FEFF 		bl	extract_bits
 868 007c 2B68     		ldr	r3, [r5]
 869 007e 06F8010F 		strb	r0, [r6, #1]!
 870 0082 5A68     		ldr	r2, [r3, #4]
 871 0084 A242     		cmp	r2, r4
 872 0086 F3DC     		bgt	.L95
 873              	.L87:
 874 0088 F8BD     		pop	{r3, r4, r5, r6, r7, pc}
 875              	.L96:
 876 008a 5A07     		lsls	r2, r3, #29
 877 008c C1D5     		bpl	.L88
 878 008e 0220     		movs	r0, #2
 879 0090 FFF7FEFF 		bl	extract_bits
 880 0094 034B     		ldr	r3, .L109+8
 881 0096 195C     		ldrb	r1, [r3, r0]	@ zero_extendqisi2
 882 0098 BFE7     		b	.L90
 883              	.L110:
 884 009a 00BF     		.align	2
 885              	.L109:
 886 009c 00000000 		.word	m_variant
 887 00a0 00000000 		.word	m_c_variant_rate
 888 00a4 00000000 		.word	reload_table
 889 00a8 00000000 		.word	m_coeff
 890 00ac 00000000 		.word	m_IP
 891 00b0 00000000 		.word	m_new_frame_energy_idx
 892 00b4 00000000 		.word	m_new_frame_pitch_idx
 893 00b8 00000000 		.word	m_new_frame_k_idx
 894 00bc 03000000 		.word	m_new_frame_k_idx+3
 895              		.size	parse_frame, .-parse_frame
 896              		.section	.text.parse_frame_bend_5200,"ax",%progbits
 897              		.align	1
 898              		.p2align 2,,3
 899              		.global	parse_frame_bend_5200
 900              		.syntax unified
 901              		.thumb
 902              		.thumb_func
 903              		.type	parse_frame_bend_5200, %function
 904              	parse_frame_bend_5200:
 905              		@ args = 0, pretend = 0, frame = 8
 906              		@ frame_needed = 0, uses_anonymous_args = 0
 907 0000 D34A     		ldr	r2, .L141
 908 0002 D44B     		ldr	r3, .L141+4
 909 0004 1268     		ldr	r2, [r2]
 910 0006 042A     		cmp	r2, #4
 911 0008 2DE9F041 		push	{r4, r5, r6, r7, r8, lr}
 912 000c 82B0     		sub	sp, sp, #8
ARM GAS  /tmp/ccONvy4E.s 			page 18


 913 000e 1B78     		ldrb	r3, [r3]	@ zero_extendqisi2
 914 0010 00F0B581 		beq	.L122
 915 0014 072A     		cmp	r2, #7
 916 0016 00F0B281 		beq	.L122
 917              	.L112:
 918 001a CF4A     		ldr	r2, .L141+8
 919 001c 03F00303 		and	r3, r3, #3
 920 0020 D15C     		ldrb	r1, [r2, r3]	@ zero_extendqisi2
 921              	.L114:
 922 0022 CE4C     		ldr	r4, .L141+12
 923 0024 CE4A     		ldr	r2, .L141+16
 924 0026 2368     		ldr	r3, [r4]
 925 0028 1170     		strb	r1, [r2]
 926 002a 9868     		ldr	r0, [r3, #8]
 927 002c FFF7FEFF 		bl	extract_bits
 928 0030 CC4A     		ldr	r2, .L141+20
 929 0032 C0B2     		uxtb	r0, r0
 930 0034 1070     		strb	r0, [r2]
 931 0036 0028     		cmp	r0, #0
 932 0038 00F09E81 		beq	.L111
 933 003c 0F28     		cmp	r0, #15
 934 003e 00F09B81 		beq	.L111
 935 0042 C94E     		ldr	r6, .L141+24
 936 0044 F7EE006A 		vmov.f32	s13, #1.0e+0
 937 0048 C84D     		ldr	r5, .L141+28
 938 004a 07EE900A 		vmov	s15, r0	@ int
 939 004e 3378     		ldrb	r3, [r6]	@ zero_extendqisi2
 940 0050 0120     		movs	r0, #1
 941 0052 F8EEE77A 		vcvt.f32.s32	s15, s15
 942 0056 DFF81C83 		ldr	r8, .L141+36
 943 005a C3EB0313 		rsb	r3, r3, r3, lsl #4
 944 005e 05EB8313 		add	r3, r5, r3, lsl #6
 945 0062 93ED007A 		vldr.32	s14, [r3]
 946 0066 36EEC77A 		vsub.f32	s14, s13, s14
 947 006a 37EE077A 		vadd.f32	s14, s14, s14
 948 006e 27EE277A 		vmul.f32	s14, s14, s15
 949 0072 FCEEC77A 		vcvt.u32.f32	s15, s14
 950 0076 CDED017A 		vstr.32	s15, [sp, #4]	@ int
 951 007a 9DF80430 		ldrb	r3, [sp, #4]	@ zero_extendqisi2
 952 007e 0E2B     		cmp	r3, #14
 953 0080 28BF     		it	cs
 954 0082 0E23     		movcs	r3, #14
 955 0084 1370     		strb	r3, [r2]
 956 0086 FFF7FEFF 		bl	extract_bits
 957 008a 2368     		ldr	r3, [r4]
 958 008c 0746     		mov	r7, r0
 959 008e D868     		ldr	r0, [r3, #12]
 960 0090 FFF7FEFF 		bl	extract_bits
 961 0094 88F80000 		strb	r0, [r8]
 962 0098 002F     		cmp	r7, #0
 963 009a 40F06D81 		bne	.L111
 964 009e 3378     		ldrb	r3, [r6]	@ zero_extendqisi2
 965 00a0 C0B2     		uxtb	r0, r0
 966 00a2 2268     		ldr	r2, [r4]
 967 00a4 C3EB0313 		rsb	r3, r3, r3, lsl #4
 968 00a8 07EE900A 		vmov	s15, r0	@ int
 969 00ac D168     		ldr	r1, [r2, #12]
ARM GAS  /tmp/ccONvy4E.s 			page 19


 970 00ae 05EB8313 		add	r3, r5, r3, lsl #6
 971 00b2 F8EEE77A 		vcvt.f32.s32	s15, s15
 972 00b6 0529     		cmp	r1, #5
 973 00b8 93ED017A 		vldr.32	s14, [r3, #4]
 974 00bc 76EEC76A 		vsub.f32	s13, s13, s14
 975 00c0 76EEA66A 		vadd.f32	s13, s13, s13
 976 00c4 66EEA76A 		vmul.f32	s13, s13, s15
 977 00c8 FCEEE67A 		vcvt.u32.f32	s15, s13
 978 00cc CDED017A 		vstr.32	s15, [sp, #4]	@ int
 979 00d0 9DF80430 		ldrb	r3, [sp, #4]	@ zero_extendqisi2
 980 00d4 88F80030 		strb	r3, [r8]
 981 00d8 02D1     		bne	.L119
 982 00da 1F2B     		cmp	r3, #31
 983 00dc 00F25881 		bhi	.L140
 984              	.L119:
 985 00e0 3F2B     		cmp	r3, #63
 986 00e2 02D9     		bls	.L120
 987 00e4 3F23     		movs	r3, #63
 988 00e6 88F80030 		strb	r3, [r8]
 989              	.L120:
 990 00ea 1069     		ldr	r0, [r2, #16]
 991 00ec FFF7FEFF 		bl	extract_bits
 992 00f0 3378     		ldrb	r3, [r6]	@ zero_extendqisi2
 993 00f2 C0B2     		uxtb	r0, r0
 994 00f4 2268     		ldr	r2, [r4]
 995 00f6 C3EB0313 		rsb	r3, r3, r3, lsl #4
 996 00fa 9D4F     		ldr	r7, .L141+32
 997 00fc 07EE900A 		vmov	s15, r0	@ int
 998 0100 5069     		ldr	r0, [r2, #20]
 999 0102 05EB8313 		add	r3, r5, r3, lsl #6
 1000 0106 B8EEE77A 		vcvt.f32.s32	s14, s15
 1001 010a D3ED027A 		vldr.32	s15, [r3, #8]
 1002 010e 77EEA77A 		vadd.f32	s15, s15, s15
 1003 0112 67EE877A 		vmul.f32	s15, s15, s14
 1004 0116 FCEEE77A 		vcvt.u32.f32	s15, s15
 1005 011a CDED017A 		vstr.32	s15, [sp, #4]	@ int
 1006 011e 9DF80430 		ldrb	r3, [sp, #4]	@ zero_extendqisi2
 1007 0122 1F2B     		cmp	r3, #31
 1008 0124 28BF     		it	cs
 1009 0126 1F23     		movcs	r3, #31
 1010 0128 3B70     		strb	r3, [r7]
 1011 012a FFF7FEFF 		bl	extract_bits
 1012 012e 3378     		ldrb	r3, [r6]	@ zero_extendqisi2
 1013 0130 C0B2     		uxtb	r0, r0
 1014 0132 C3EB0313 		rsb	r3, r3, r3, lsl #4
 1015 0136 07EE900A 		vmov	s15, r0	@ int
 1016 013a 05EB8313 		add	r3, r5, r3, lsl #6
 1017 013e B8EEE77A 		vcvt.f32.s32	s14, s15
 1018 0142 D3ED037A 		vldr.32	s15, [r3, #12]
 1019 0146 2368     		ldr	r3, [r4]
 1020 0148 77EEA77A 		vadd.f32	s15, s15, s15
 1021 014c 9869     		ldr	r0, [r3, #24]
 1022 014e 67EE877A 		vmul.f32	s15, s15, s14
 1023 0152 FCEEE77A 		vcvt.u32.f32	s15, s15
 1024 0156 CDED017A 		vstr.32	s15, [sp, #4]	@ int
 1025 015a 9DF80430 		ldrb	r3, [sp, #4]	@ zero_extendqisi2
 1026 015e 1F2B     		cmp	r3, #31
ARM GAS  /tmp/ccONvy4E.s 			page 20


 1027 0160 28BF     		it	cs
 1028 0162 1F23     		movcs	r3, #31
 1029 0164 7B70     		strb	r3, [r7, #1]
 1030 0166 FFF7FEFF 		bl	extract_bits
 1031 016a 3378     		ldrb	r3, [r6]	@ zero_extendqisi2
 1032 016c C0B2     		uxtb	r0, r0
 1033 016e C3EB0313 		rsb	r3, r3, r3, lsl #4
 1034 0172 07EE900A 		vmov	s15, r0	@ int
 1035 0176 05EB8313 		add	r3, r5, r3, lsl #6
 1036 017a B8EEE77A 		vcvt.f32.s32	s14, s15
 1037 017e D3ED047A 		vldr.32	s15, [r3, #16]
 1038 0182 2368     		ldr	r3, [r4]
 1039 0184 77EEA77A 		vadd.f32	s15, s15, s15
 1040 0188 D869     		ldr	r0, [r3, #28]
 1041 018a 67EE877A 		vmul.f32	s15, s15, s14
 1042 018e FCEEE77A 		vcvt.u32.f32	s15, s15
 1043 0192 CDED017A 		vstr.32	s15, [sp, #4]	@ int
 1044 0196 9DF80430 		ldrb	r3, [sp, #4]	@ zero_extendqisi2
 1045 019a 0F2B     		cmp	r3, #15
 1046 019c 28BF     		it	cs
 1047 019e 0F23     		movcs	r3, #15
 1048 01a0 BB70     		strb	r3, [r7, #2]
 1049 01a2 FFF7FEFF 		bl	extract_bits
 1050 01a6 3378     		ldrb	r3, [r6]	@ zero_extendqisi2
 1051 01a8 C0B2     		uxtb	r0, r0
 1052 01aa 98F80020 		ldrb	r2, [r8]	@ zero_extendqisi2
 1053 01ae C3EB0313 		rsb	r3, r3, r3, lsl #4
 1054 01b2 07EE900A 		vmov	s15, r0	@ int
 1055 01b6 05EB8313 		add	r3, r5, r3, lsl #6
 1056 01ba B8EEE77A 		vcvt.f32.s32	s14, s15
 1057 01be D3ED057A 		vldr.32	s15, [r3, #20]
 1058 01c2 77EEA77A 		vadd.f32	s15, s15, s15
 1059 01c6 67EE877A 		vmul.f32	s15, s15, s14
 1060 01ca FCEEE77A 		vcvt.u32.f32	s15, s15
 1061 01ce CDED017A 		vstr.32	s15, [sp, #4]	@ int
 1062 01d2 9DF80430 		ldrb	r3, [sp, #4]	@ zero_extendqisi2
 1063 01d6 0F2B     		cmp	r3, #15
 1064 01d8 28BF     		it	cs
 1065 01da 0F23     		movcs	r3, #15
 1066 01dc FB70     		strb	r3, [r7, #3]
 1067 01de 002A     		cmp	r2, #0
 1068 01e0 00F0CA80 		beq	.L111
 1069 01e4 2368     		ldr	r3, [r4]
 1070 01e6 186A     		ldr	r0, [r3, #32]
 1071 01e8 FFF7FEFF 		bl	extract_bits
 1072 01ec 3378     		ldrb	r3, [r6]	@ zero_extendqisi2
 1073 01ee C0B2     		uxtb	r0, r0
 1074 01f0 C3EB0313 		rsb	r3, r3, r3, lsl #4
 1075 01f4 07EE900A 		vmov	s15, r0	@ int
 1076 01f8 05EB8313 		add	r3, r5, r3, lsl #6
 1077 01fc B8EEE77A 		vcvt.f32.s32	s14, s15
 1078 0200 D3ED067A 		vldr.32	s15, [r3, #24]
 1079 0204 77EEA77A 		vadd.f32	s15, s15, s15
 1080 0208 67EE877A 		vmul.f32	s15, s15, s14
 1081 020c FCEEE77A 		vcvt.u32.f32	s15, s15
 1082 0210 CDED017A 		vstr.32	s15, [sp, #4]	@ int
 1083 0214 9DF80430 		ldrb	r3, [sp, #4]	@ zero_extendqisi2
ARM GAS  /tmp/ccONvy4E.s 			page 21


 1084 0218 0F2B     		cmp	r3, #15
 1085 021a 28BF     		it	cs
 1086 021c 0F23     		movcs	r3, #15
 1087 021e 3B71     		strb	r3, [r7, #4]
 1088 0220 2368     		ldr	r3, [r4]
 1089 0222 586A     		ldr	r0, [r3, #36]
 1090 0224 FFF7FEFF 		bl	extract_bits
 1091 0228 3378     		ldrb	r3, [r6]	@ zero_extendqisi2
 1092 022a C0B2     		uxtb	r0, r0
 1093 022c C3EB0313 		rsb	r3, r3, r3, lsl #4
 1094 0230 07EE900A 		vmov	s15, r0	@ int
 1095 0234 05EB8313 		add	r3, r5, r3, lsl #6
 1096 0238 B8EEE77A 		vcvt.f32.s32	s14, s15
 1097 023c D3ED077A 		vldr.32	s15, [r3, #28]
 1098 0240 77EEA77A 		vadd.f32	s15, s15, s15
 1099 0244 67EE877A 		vmul.f32	s15, s15, s14
 1100 0248 FCEEE77A 		vcvt.u32.f32	s15, s15
 1101 024c CDED017A 		vstr.32	s15, [sp, #4]	@ int
 1102 0250 9DF80430 		ldrb	r3, [sp, #4]	@ zero_extendqisi2
 1103 0254 0F2B     		cmp	r3, #15
 1104 0256 28BF     		it	cs
 1105 0258 0F23     		movcs	r3, #15
 1106 025a 7B71     		strb	r3, [r7, #5]
 1107 025c 2368     		ldr	r3, [r4]
 1108 025e 986A     		ldr	r0, [r3, #40]
 1109 0260 FFF7FEFF 		bl	extract_bits
 1110 0264 3378     		ldrb	r3, [r6]	@ zero_extendqisi2
 1111 0266 C0B2     		uxtb	r0, r0
 1112 0268 C3EB0313 		rsb	r3, r3, r3, lsl #4
 1113 026c 07EE900A 		vmov	s15, r0	@ int
 1114 0270 05EB8313 		add	r3, r5, r3, lsl #6
 1115 0274 B8EEE77A 		vcvt.f32.s32	s14, s15
 1116 0278 D3ED087A 		vldr.32	s15, [r3, #32]
 1117 027c 77EEA77A 		vadd.f32	s15, s15, s15
 1118 0280 67EE877A 		vmul.f32	s15, s15, s14
 1119 0284 FCEEE77A 		vcvt.u32.f32	s15, s15
 1120 0288 CDED017A 		vstr.32	s15, [sp, #4]	@ int
 1121 028c 9DF80430 		ldrb	r3, [sp, #4]	@ zero_extendqisi2
 1122 0290 0F2B     		cmp	r3, #15
 1123 0292 28BF     		it	cs
 1124 0294 0F23     		movcs	r3, #15
 1125 0296 BB71     		strb	r3, [r7, #6]
 1126 0298 2368     		ldr	r3, [r4]
 1127 029a D86A     		ldr	r0, [r3, #44]
 1128 029c FFF7FEFF 		bl	extract_bits
 1129 02a0 3378     		ldrb	r3, [r6]	@ zero_extendqisi2
 1130 02a2 C0B2     		uxtb	r0, r0
 1131 02a4 C3EB0313 		rsb	r3, r3, r3, lsl #4
 1132 02a8 07EE900A 		vmov	s15, r0	@ int
 1133 02ac 05EB8313 		add	r3, r5, r3, lsl #6
 1134 02b0 B8EEE77A 		vcvt.f32.s32	s14, s15
 1135 02b4 D3ED097A 		vldr.32	s15, [r3, #36]
 1136 02b8 77EEA77A 		vadd.f32	s15, s15, s15
 1137 02bc 67EE877A 		vmul.f32	s15, s15, s14
 1138 02c0 FCEEE77A 		vcvt.u32.f32	s15, s15
 1139 02c4 CDED017A 		vstr.32	s15, [sp, #4]	@ int
 1140 02c8 9DF80430 		ldrb	r3, [sp, #4]	@ zero_extendqisi2
ARM GAS  /tmp/ccONvy4E.s 			page 22


 1141 02cc 072B     		cmp	r3, #7
 1142 02ce 28BF     		it	cs
 1143 02d0 0723     		movcs	r3, #7
 1144 02d2 FB71     		strb	r3, [r7, #7]
 1145 02d4 2368     		ldr	r3, [r4]
 1146 02d6 186B     		ldr	r0, [r3, #48]
 1147 02d8 FFF7FEFF 		bl	extract_bits
 1148 02dc 2368     		ldr	r3, [r4]
 1149 02de C0B2     		uxtb	r0, r0
 1150 02e0 07EE900A 		vmov	s15, r0	@ int
 1151 02e4 586B     		ldr	r0, [r3, #52]
 1152 02e6 3378     		ldrb	r3, [r6]	@ zero_extendqisi2
 1153 02e8 B8EEE77A 		vcvt.f32.s32	s14, s15
 1154 02ec C3EB0313 		rsb	r3, r3, r3, lsl #4
 1155 02f0 05EB8313 		add	r3, r5, r3, lsl #6
 1156 02f4 D3ED0A7A 		vldr.32	s15, [r3, #40]
 1157 02f8 77EEA77A 		vadd.f32	s15, s15, s15
 1158 02fc 67EE877A 		vmul.f32	s15, s15, s14
 1159 0300 FCEEE77A 		vcvt.u32.f32	s15, s15
 1160 0304 CDED017A 		vstr.32	s15, [sp, #4]	@ int
 1161 0308 9DF80430 		ldrb	r3, [sp, #4]	@ zero_extendqisi2
 1162 030c 072B     		cmp	r3, #7
 1163 030e 28BF     		it	cs
 1164 0310 0723     		movcs	r3, #7
 1165 0312 3B72     		strb	r3, [r7, #8]
 1166 0314 FFF7FEFF 		bl	extract_bits
 1167 0318 3378     		ldrb	r3, [r6]	@ zero_extendqisi2
 1168 031a C0B2     		uxtb	r0, r0
 1169 031c C3EB0313 		rsb	r3, r3, r3, lsl #4
 1170 0320 07EE900A 		vmov	s15, r0	@ int
 1171 0324 05EB8315 		add	r5, r5, r3, lsl #6
 1172 0328 B8EEE77A 		vcvt.f32.s32	s14, s15
 1173 032c D5ED0B7A 		vldr.32	s15, [r5, #44]
 1174 0330 77EEA77A 		vadd.f32	s15, s15, s15
 1175 0334 67EE877A 		vmul.f32	s15, s15, s14
 1176 0338 FCEEE77A 		vcvt.u32.f32	s15, s15
 1177 033c CDED017A 		vstr.32	s15, [sp, #4]	@ int
 1178 0340 9DF80430 		ldrb	r3, [sp, #4]	@ zero_extendqisi2
 1179 0344 072B     		cmp	r3, #7
 1180 0346 88BF     		it	hi
 1181 0348 0723     		movhi	r3, #7
 1182 034a 7B72     		strb	r3, [r7, #9]
 1183 034c 14E0     		b	.L142
 1184              	.L143:
 1185 034e 00BF     		.align	2
 1186              	.L141:
 1187 0350 00000000 		.word	m_variant
 1188 0354 00000000 		.word	m_c_variant_rate
 1189 0358 00000000 		.word	reload_table
 1190 035c 00000000 		.word	m_coeff
 1191 0360 00000000 		.word	m_IP
 1192 0364 00000000 		.word	m_new_frame_energy_idx
 1193 0368 00000000 		.word	_intmode
 1194 036c 00000000 		.word	exy
 1195 0370 00000000 		.word	m_new_frame_k_idx
 1196 0374 00000000 		.word	m_new_frame_pitch_idx
 1197              	.L142:
ARM GAS  /tmp/ccONvy4E.s 			page 23


 1198              	.L111:
 1199 0378 02B0     		add	sp, sp, #8
 1200              		@ sp needed
 1201 037a BDE8F081 		pop	{r4, r5, r6, r7, r8, pc}
 1202              	.L122:
 1203 037e 5A07     		lsls	r2, r3, #29
 1204 0380 7FF54BAE 		bpl	.L112
 1205 0384 0220     		movs	r0, #2
 1206 0386 FFF7FEFF 		bl	extract_bits
 1207 038a 034B     		ldr	r3, .L144
 1208 038c 195C     		ldrb	r1, [r3, r0]	@ zero_extendqisi2
 1209 038e 48E6     		b	.L114
 1210              	.L140:
 1211 0390 1F23     		movs	r3, #31
 1212 0392 88F80030 		strb	r3, [r8]
 1213 0396 A8E6     		b	.L120
 1214              	.L145:
 1215              		.align	2
 1216              	.L144:
 1217 0398 00000000 		.word	reload_table
 1218              		.size	parse_frame_bend_5200, .-parse_frame_bend_5200
 1219              		.section	.text.parse_frame_raw_5100,"ax",%progbits
 1220              		.align	1
 1221              		.p2align 2,,3
 1222              		.global	parse_frame_raw_5100
 1223              		.syntax unified
 1224              		.thumb
 1225              		.thumb_func
 1226              		.type	parse_frame_raw_5100, %function
 1227              	parse_frame_raw_5100:
 1228              		@ args = 0, pretend = 0, frame = 8
 1229              		@ frame_needed = 0, uses_anonymous_args = 0
 1230              		@ link register save eliminated.
 1231 0000 4E4A     		ldr	r2, .L152
 1232 0002 B3EE0F7A 		vmov.f32	s14, #3.1e+1
 1233 0006 4E4B     		ldr	r3, .L152+4
 1234 0008 F3EE0E6A 		vmov.f32	s13, #3.0e+1
 1235 000c 4D49     		ldr	r1, .L152+8
 1236 000e F2EE0E4A 		vmov.f32	s9, #1.5e+1
 1237 0012 F2EE0A7A 		vmov.f32	s15, #1.3e+1
 1238 0016 4C48     		ldr	r0, .L152+12
 1239 0018 D1ED005A 		vldr.32	s11, [r1]
 1240 001c 0021     		movs	r1, #0
 1241 001e F7EE003A 		vmov.f32	s7, #1.0e+0
 1242 0022 65EEA65A 		vmul.f32	s11, s11, s13
 1243 0026 10B4     		push	{r4}
 1244 0028 1278     		ldrb	r2, [r2]	@ zero_extendqisi2
 1245 002a 75EEA35A 		vadd.f32	s11, s11, s7
 1246 002e 83B0     		sub	sp, sp, #12
 1247 0030 464C     		ldr	r4, .L152+16
 1248 0032 C2EB0212 		rsb	r2, r2, r2, lsl #4
 1249 0036 FCEEE55A 		vcvt.u32.f32	s11, s11
 1250 003a 03EB8213 		add	r3, r3, r2, lsl #6
 1251 003e 93ED015A 		vldr.32	s10, [r3, #4]
 1252 0042 93ED026A 		vldr.32	s12, [r3, #8]
 1253 0046 25EE075A 		vmul.f32	s10, s10, s14
 1254 004a D3ED036A 		vldr.32	s13, [r3, #12]
ARM GAS  /tmp/ccONvy4E.s 			page 24


 1255 004e 26EE076A 		vmul.f32	s12, s12, s14
 1256 0052 93ED004A 		vldr.32	s8, [r3]
 1257 0056 66EEA46A 		vmul.f32	s13, s13, s9
 1258 005a 93ED047A 		vldr.32	s14, [r3, #16]
 1259 005e BCEEC55A 		vcvt.u32.f32	s10, s10
 1260 0062 CDED015A 		vstr.32	s11, [sp, #4]	@ int
 1261 0066 24EE274A 		vmul.f32	s8, s8, s15
 1262 006a BCEEC66A 		vcvt.u32.f32	s12, s12
 1263 006e 15EE102A 		vmov	r2, s10	@ int
 1264 0072 27EE247A 		vmul.f32	s14, s14, s9
 1265 0076 FCEEE66A 		vcvt.u32.f32	s13, s13
 1266 007a 62F30701 		bfi	r1, r2, #0, #8
 1267 007e 77EEC47A 		vsub.f32	s15, s15, s8
 1268 0082 16EE102A 		vmov	r2, s12	@ int
 1269 0086 BCEEC77A 		vcvt.u32.f32	s14, s14
 1270 008a 62F30F21 		bfi	r1, r2, #8, #8
 1271 008e 16EE902A 		vmov	r2, s13	@ int
 1272 0092 FCEEE77A 		vcvt.u32.f32	s15, s15
 1273 0096 62F31741 		bfi	r1, r2, #16, #8
 1274 009a 17EE102A 		vmov	r2, s14	@ int
 1275 009e 62F31F61 		bfi	r1, r2, #24, #8
 1276 00a2 17EE902A 		vmov	r2, s15	@ int
 1277 00a6 0132     		adds	r2, r2, #1
 1278 00a8 0270     		strb	r2, [r0]
 1279 00aa 9DF80420 		ldrb	r2, [sp, #4]	@ zero_extendqisi2
 1280 00ae 2848     		ldr	r0, .L152+20
 1281 00b0 2270     		strb	r2, [r4]
 1282 00b2 0160     		str	r1, [r0]
 1283 00b4 EAB3     		cbz	r2, .L146
 1284 00b6 D3ED055A 		vldr.32	s11, [r3, #20]
 1285 00ba B1EE0C5A 		vmov.f32	s10, #7.0e+0
 1286 00be D3ED067A 		vldr.32	s15, [r3, #24]
 1287 00c2 0022     		movs	r2, #0
 1288 00c4 65EEA45A 		vmul.f32	s11, s11, s9
 1289 00c8 93ED076A 		vldr.32	s12, [r3, #28]
 1290 00cc 67EEA47A 		vmul.f32	s15, s15, s9
 1291 00d0 D3ED096A 		vldr.32	s13, [r3, #36]
 1292 00d4 93ED087A 		vldr.32	s14, [r3, #32]
 1293 00d8 26EE246A 		vmul.f32	s12, s12, s9
 1294 00dc FCEEE55A 		vcvt.u32.f32	s11, s11
 1295 00e0 FCEEE77A 		vcvt.u32.f32	s15, s15
 1296 00e4 66EE856A 		vmul.f32	s13, s13, s10
 1297 00e8 27EE057A 		vmul.f32	s14, s14, s10
 1298 00ec 17EE901A 		vmov	r1, s15	@ int
 1299 00f0 D3ED0A7A 		vldr.32	s15, [r3, #40]
 1300 00f4 15EE903A 		vmov	r3, s11	@ int
 1301 00f8 BCEEC66A 		vcvt.u32.f32	s12, s12
 1302 00fc FCEEE66A 		vcvt.u32.f32	s13, s13
 1303 0100 63F30702 		bfi	r2, r3, #0, #8
 1304 0104 67EE857A 		vmul.f32	s15, s15, s10
 1305 0108 BCEEC77A 		vcvt.u32.f32	s14, s14
 1306 010c 16EE103A 		vmov	r3, s12	@ int
 1307 0110 61F30F22 		bfi	r2, r1, #8, #8
 1308 0114 16EE901A 		vmov	r1, s13	@ int
 1309 0118 FCEEE77A 		vcvt.u32.f32	s15, s15
 1310 011c 63F31742 		bfi	r2, r3, #16, #8
 1311 0120 0172     		strb	r1, [r0, #8]
ARM GAS  /tmp/ccONvy4E.s 			page 25


 1312 0122 17EE101A 		vmov	r1, s14	@ int
 1313 0126 17EE903A 		vmov	r3, s15	@ int
 1314 012a 61F31F62 		bfi	r2, r1, #24, #8
 1315 012e 4372     		strb	r3, [r0, #9]
 1316 0130 4260     		str	r2, [r0, #4]
 1317              	.L146:
 1318 0132 03B0     		add	sp, sp, #12
 1319              		@ sp needed
 1320 0134 5DF8044B 		ldr	r4, [sp], #4
 1321 0138 7047     		bx	lr
 1322              	.L153:
 1323 013a 00BF     		.align	2
 1324              	.L152:
 1325 013c 00000000 		.word	_intmode
 1326 0140 00000000 		.word	exy
 1327 0144 00000000 		.word	_selz
 1328 0148 00000000 		.word	m_new_frame_energy_idx
 1329 014c 00000000 		.word	m_new_frame_pitch_idx
 1330 0150 00000000 		.word	m_new_frame_k_idx
 1331              		.size	parse_frame_raw_5100, .-parse_frame_raw_5100
 1332              		.section	.text.parse_frame_raw_5200,"ax",%progbits
 1333              		.align	1
 1334              		.p2align 2,,3
 1335              		.global	parse_frame_raw_5200
 1336              		.syntax unified
 1337              		.thumb
 1338              		.thumb_func
 1339              		.type	parse_frame_raw_5200, %function
 1340              	parse_frame_raw_5200:
 1341              		@ args = 0, pretend = 0, frame = 8
 1342              		@ frame_needed = 0, uses_anonymous_args = 0
 1343              		@ link register save eliminated.
 1344 0000 4E4A     		ldr	r2, .L160
 1345 0002 B3EE0F7A 		vmov.f32	s14, #3.1e+1
 1346 0006 4E4B     		ldr	r3, .L160+4
 1347 0008 F2EE0E4A 		vmov.f32	s9, #1.5e+1
 1348 000c 4D49     		ldr	r1, .L160+8
 1349 000e F2EE0A7A 		vmov.f32	s15, #1.3e+1
 1350 0012 DFED4D6A 		vldr.32	s13, .L160+12
 1351 0016 F7EE003A 		vmov.f32	s7, #1.0e+0
 1352 001a D1ED005A 		vldr.32	s11, [r1]
 1353 001e 0021     		movs	r1, #0
 1354 0020 4A48     		ldr	r0, .L160+16
 1355 0022 65EEA65A 		vmul.f32	s11, s11, s13
 1356 0026 10B4     		push	{r4}
 1357 0028 1278     		ldrb	r2, [r2]	@ zero_extendqisi2
 1358 002a 75EEA35A 		vadd.f32	s11, s11, s7
 1359 002e 83B0     		sub	sp, sp, #12
 1360 0030 474C     		ldr	r4, .L160+20
 1361 0032 C2EB0212 		rsb	r2, r2, r2, lsl #4
 1362 0036 FCEEE55A 		vcvt.u32.f32	s11, s11
 1363 003a 03EB8213 		add	r3, r3, r2, lsl #6
 1364 003e 93ED015A 		vldr.32	s10, [r3, #4]
 1365 0042 93ED026A 		vldr.32	s12, [r3, #8]
 1366 0046 25EE075A 		vmul.f32	s10, s10, s14
 1367 004a D3ED036A 		vldr.32	s13, [r3, #12]
 1368 004e 26EE076A 		vmul.f32	s12, s12, s14
ARM GAS  /tmp/ccONvy4E.s 			page 26


 1369 0052 93ED004A 		vldr.32	s8, [r3]
 1370 0056 66EEA46A 		vmul.f32	s13, s13, s9
 1371 005a 93ED047A 		vldr.32	s14, [r3, #16]
 1372 005e BCEEC55A 		vcvt.u32.f32	s10, s10
 1373 0062 CDED015A 		vstr.32	s11, [sp, #4]	@ int
 1374 0066 24EE274A 		vmul.f32	s8, s8, s15
 1375 006a BCEEC66A 		vcvt.u32.f32	s12, s12
 1376 006e 15EE102A 		vmov	r2, s10	@ int
 1377 0072 27EE247A 		vmul.f32	s14, s14, s9
 1378 0076 FCEEE66A 		vcvt.u32.f32	s13, s13
 1379 007a 62F30701 		bfi	r1, r2, #0, #8
 1380 007e 77EEC47A 		vsub.f32	s15, s15, s8
 1381 0082 16EE102A 		vmov	r2, s12	@ int
 1382 0086 BCEEC77A 		vcvt.u32.f32	s14, s14
 1383 008a 62F30F21 		bfi	r1, r2, #8, #8
 1384 008e 16EE902A 		vmov	r2, s13	@ int
 1385 0092 FCEEE77A 		vcvt.u32.f32	s15, s15
 1386 0096 62F31741 		bfi	r1, r2, #16, #8
 1387 009a 17EE102A 		vmov	r2, s14	@ int
 1388 009e 62F31F61 		bfi	r1, r2, #24, #8
 1389 00a2 17EE902A 		vmov	r2, s15	@ int
 1390 00a6 0132     		adds	r2, r2, #1
 1391 00a8 0270     		strb	r2, [r0]
 1392 00aa 9DF80420 		ldrb	r2, [sp, #4]	@ zero_extendqisi2
 1393 00ae 2948     		ldr	r0, .L160+24
 1394 00b0 2270     		strb	r2, [r4]
 1395 00b2 0160     		str	r1, [r0]
 1396 00b4 EAB3     		cbz	r2, .L154
 1397 00b6 D3ED055A 		vldr.32	s11, [r3, #20]
 1398 00ba B1EE0C5A 		vmov.f32	s10, #7.0e+0
 1399 00be D3ED067A 		vldr.32	s15, [r3, #24]
 1400 00c2 0022     		movs	r2, #0
 1401 00c4 65EEA45A 		vmul.f32	s11, s11, s9
 1402 00c8 93ED076A 		vldr.32	s12, [r3, #28]
 1403 00cc 67EEA47A 		vmul.f32	s15, s15, s9
 1404 00d0 D3ED096A 		vldr.32	s13, [r3, #36]
 1405 00d4 93ED087A 		vldr.32	s14, [r3, #32]
 1406 00d8 26EE246A 		vmul.f32	s12, s12, s9
 1407 00dc FCEEE55A 		vcvt.u32.f32	s11, s11
 1408 00e0 FCEEE77A 		vcvt.u32.f32	s15, s15
 1409 00e4 66EE856A 		vmul.f32	s13, s13, s10
 1410 00e8 27EE057A 		vmul.f32	s14, s14, s10
 1411 00ec 17EE901A 		vmov	r1, s15	@ int
 1412 00f0 D3ED0A7A 		vldr.32	s15, [r3, #40]
 1413 00f4 15EE903A 		vmov	r3, s11	@ int
 1414 00f8 BCEEC66A 		vcvt.u32.f32	s12, s12
 1415 00fc FCEEE66A 		vcvt.u32.f32	s13, s13
 1416 0100 63F30702 		bfi	r2, r3, #0, #8
 1417 0104 67EE857A 		vmul.f32	s15, s15, s10
 1418 0108 BCEEC77A 		vcvt.u32.f32	s14, s14
 1419 010c 16EE103A 		vmov	r3, s12	@ int
 1420 0110 61F30F22 		bfi	r2, r1, #8, #8
 1421 0114 16EE901A 		vmov	r1, s13	@ int
 1422 0118 FCEEE77A 		vcvt.u32.f32	s15, s15
 1423 011c 63F31742 		bfi	r2, r3, #16, #8
 1424 0120 0172     		strb	r1, [r0, #8]
 1425 0122 17EE101A 		vmov	r1, s14	@ int
ARM GAS  /tmp/ccONvy4E.s 			page 27


 1426 0126 17EE903A 		vmov	r3, s15	@ int
 1427 012a 61F31F62 		bfi	r2, r1, #24, #8
 1428 012e 4372     		strb	r3, [r0, #9]
 1429 0130 4260     		str	r2, [r0, #4]
 1430              	.L154:
 1431 0132 03B0     		add	sp, sp, #12
 1432              		@ sp needed
 1433 0134 5DF8044B 		ldr	r4, [sp], #4
 1434 0138 7047     		bx	lr
 1435              	.L161:
 1436 013a 00BF     		.align	2
 1437              	.L160:
 1438 013c 00000000 		.word	_intmode
 1439 0140 00000000 		.word	exy
 1440 0144 00000000 		.word	_selz
 1441 0148 00007842 		.word	1115160576
 1442 014c 00000000 		.word	m_new_frame_energy_idx
 1443 0150 00000000 		.word	m_new_frame_pitch_idx
 1444 0154 00000000 		.word	m_new_frame_k_idx
 1445              		.size	parse_frame_raw_5200, .-parse_frame_raw_5200
 1446              		.section	.text.process,"ax",%progbits
 1447              		.align	1
 1448              		.p2align 2,,3
 1449              		.global	process
 1450              		.syntax unified
 1451              		.thumb
 1452              		.thumb_func
 1453              		.type	process, %function
 1454              	process:
 1455              		@ args = 0, pretend = 0, frame = 16
 1456              		@ frame_needed = 0, uses_anonymous_args = 0
 1457 0000 A84B     		ldr	r3, .L252
 1458 0002 2DE9F04F 		push	{r4, r5, r6, r7, r8, r9, r10, fp, lr}
 1459 0006 1F78     		ldrb	r7, [r3]	@ zero_extendqisi2
 1460 0008 85B0     		sub	sp, sp, #20
 1461 000a A74B     		ldr	r3, .L252+4
 1462 000c DFF81093 		ldr	r9, .L252+124
 1463 0010 1978     		ldrb	r1, [r3]	@ zero_extendqisi2
 1464 0012 A64B     		ldr	r3, .L252+8
 1465 0014 99F80080 		ldrb	r8, [r9]	@ zero_extendqisi2
 1466 0018 1D68     		ldr	r5, [r3]
 1467 001a 6C68     		ldr	r4, [r5, #4]
 1468 001c 002F     		cmp	r7, #0
 1469 001e 00F0D780 		beq	.L163
 1470 0022 A34B     		ldr	r3, .L252+12
 1471 0024 1B78     		ldrb	r3, [r3]	@ zero_extendqisi2
 1472 0026 A3F10103 		sub	r3, #1
 1473 002a B3FA83F3 		clz	r3, r3
 1474 002e 5B09     		lsrs	r3, r3, #5
 1475 0030 0393     		str	r3, [sp, #12]
 1476 0032 A04B     		ldr	r3, .L252+16
 1477 0034 93F800A0 		ldrb	r10, [r3]	@ zero_extendqisi2
 1478 0038 9F4B     		ldr	r3, .L252+20
 1479 003a 1B78     		ldrb	r3, [r3]	@ zero_extendqisi2
 1480 003c 002B     		cmp	r3, #0
 1481 003e 40F0D680 		bne	.L188
 1482              	.L250:
ARM GAS  /tmp/ccONvy4E.s 			page 28


 1483 0042 0323     		movs	r3, #3
 1484 0044 4FF4857E 		mov	lr, #266
 1485 0048 13FB0183 		smlabb	r3, r3, r1, r8
 1486 004c 0293     		str	r3, [sp, #8]
 1487 004e 2623     		movs	r3, #38
 1488 0050 0193     		str	r3, [sp, #4]
 1489              	.L189:
 1490 0052 9A4B     		ldr	r3, .L252+24
 1491 0054 9A49     		ldr	r1, .L252+28
 1492 0056 1B78     		ldrb	r3, [r3]	@ zero_extendqisi2
 1493 0058 9A4E     		ldr	r6, .L252+32
 1494 005a 0846     		mov	r0, r1
 1495 005c 1C33     		adds	r3, r3, #28
 1496 005e 35F81330 		ldrh	r3, [r5, r3, lsl #1]
 1497 0062 0093     		str	r3, [sp]
 1498 0064 984B     		ldr	r3, .L252+36
 1499 0066 1B78     		ldrb	r3, [r3]	@ zero_extendqisi2
 1500 0068 5C33     		adds	r3, r3, #92
 1501 006a 35F813B0 		ldrh	fp, [r5, r3, lsl #1]
 1502 006e 974B     		ldr	r3, .L252+40
 1503 0070 C3F800B0 		str	fp, [r3]
 1504 0074 0023     		movs	r3, #0
 1505              	.L190:
 1506 0076 16F8012B 		ldrb	r2, [r6], #1	@ zero_extendqisi2
 1507 007a 02EB8312 		add	r2, r2, r3, lsl #6
 1508 007e 0133     		adds	r3, r3, #1
 1509 0080 4E32     		adds	r2, r2, #78
 1510 0082 042B     		cmp	r3, #4
 1511 0084 55F82220 		ldr	r2, [r5, r2, lsl #2]
 1512 0088 40F8042B 		str	r2, [r0], #4
 1513 008c F3D1     		bne	.L190
 1514 008e 042C     		cmp	r4, #4
 1515 0090 40F31182 		ble	.L246
 1516 0094 CAF1010C 		rsb	ip, r10, #1
 1517 0098 8D4E     		ldr	r6, .L252+44
 1518 009a 8E48     		ldr	r0, .L252+48
 1519              	.L194:
 1520 009c 16F8012F 		ldrb	r2, [r6, #1]!	@ zero_extendqisi2
 1521 00a0 02EB8312 		add	r2, r2, r3, lsl #6
 1522 00a4 0133     		adds	r3, r3, #1
 1523 00a6 4E32     		adds	r2, r2, #78
 1524 00a8 A342     		cmp	r3, r4
 1525 00aa 55F82220 		ldr	r2, [r5, r2, lsl #2]
 1526 00ae 0CFB02F2 		mul	r2, ip, r2
 1527 00b2 40F8042F 		str	r2, [r0, #4]!
 1528 00b6 F1D1     		bne	.L194
 1529 00b8 874B     		ldr	r3, .L252+52
 1530 00ba 884A     		ldr	r2, .L252+56
 1531 00bc B3F90030 		ldrsh	r3, [r3]
 1532 00c0 B2F90020 		ldrsh	r2, [r2]
 1533 00c4 002F     		cmp	r7, #0
 1534 00c6 40F02F81 		bne	.L192
 1535 00ca 8048     		ldr	r0, .L252+40
 1536 00cc 0260     		str	r2, [r0]
 1537 00ce 844A     		ldr	r2, .L252+60
 1538 00d0 1360     		str	r3, [r2]
 1539              	.L195:
ARM GAS  /tmp/ccONvy4E.s 			page 29


 1540 00d2 844B     		ldr	r3, .L252+64
 1541 00d4 03EB4404 		add	r4, r3, r4, lsl #1
 1542              	.L200:
 1543 00d8 33F9022B 		ldrsh	r2, [r3], #2
 1544 00dc A342     		cmp	r3, r4
 1545 00de 41F8042B 		str	r2, [r1], #4
 1546 00e2 F9D1     		bne	.L200
 1547              	.L187:
 1548 00e4 8048     		ldr	r0, .L252+68
 1549 00e6 BAF1010F 		cmp	r10, #1
 1550 00ea 0388     		ldrh	r3, [r0]
 1551 00ec 00F05881 		beq	.L247
 1552              	.L201:
 1553 00f0 6E4A     		ldr	r2, .L252+8
 1554 00f2 7E4D     		ldr	r5, .L252+72
 1555 00f4 1168     		ldr	r1, [r2]
 1556 00f6 2A88     		ldrh	r2, [r5]
 1557 00f8 322A     		cmp	r2, #50
 1558 00fa 40F26881 		bls	.L203
 1559 00fe 91F99E2B 		ldrsb	r2, [r1, #2974]
 1560 0102 1401     		lsls	r4, r2, #4
 1561              	.L202:
 1562 0104 7A49     		ldr	r1, .L252+76
 1563 0106 0A80     		strh	r2, [r1]	@ movhi
 1564 0108 1421     		movs	r1, #20
 1565              	.L204:
 1566 010a DA08     		lsrs	r2, r3, #3
 1567 010c 0139     		subs	r1, r1, #1
 1568 010e 82EA1332 		eor	r2, r2, r3, lsr #12
 1569 0112 82EA0302 		eor	r2, r2, r3
 1570 0116 82EA9302 		eor	r2, r2, r3, lsr #2
 1571 011a 02F00102 		and	r2, r2, #1
 1572 011e 42EA4303 		orr	r3, r2, r3, lsl #1
 1573 0122 9BB2     		uxth	r3, r3
 1574 0124 F1D1     		bne	.L204
 1575 0126 0380     		strh	r3, [r0]	@ movhi
 1576 0128 20B2     		sxth	r0, r4
 1577 012a 724B     		ldr	r3, .L252+80
 1578 012c 1978     		ldrb	r1, [r3]	@ zero_extendqisi2
 1579 012e 0029     		cmp	r1, #0
 1580 0130 40F0B380 		bne	.L205
 1581 0134 A4B2     		uxth	r4, r4
 1582 0136 E310     		asrs	r3, r4, #3
 1583 0138 C4F38024 		ubfx	r4, r4, #10, #1
 1584 013c 03F0FE03 		and	r3, r3, #254
 1585 0140 2343     		orrs	r3, r3, r4
 1586 0142 43EA0010 		orr	r0, r3, r0, lsl #4
 1587              	.L206:
 1588 0146 08F10108 		add	r8, r8, #1
 1589 014a 6B4B     		ldr	r3, .L252+84
 1590 014c 5FFA88F8 		uxtb	r8, r8
 1591 0150 1A78     		ldrb	r2, [r3]	@ zero_extendqisi2
 1592 0152 B8F1020F 		cmp	r8, #2
 1593 0156 89F80080 		strb	r8, [r9]
 1594 015a 00F02D81 		beq	.L248
 1595 015e B8F1030F 		cmp	r8, #3
 1596 0162 2B88     		ldrh	r3, [r5]
ARM GAS  /tmp/ccONvy4E.s 			page 30


 1597 0164 00F03981 		beq	.L213
 1598              	.L215:
 1599 0168 0133     		adds	r3, r3, #1
 1600 016a 9CB2     		uxth	r4, r3
 1601 016c 07EE104A 		vmov	s14, r4	@ int
 1602              	.L209:
 1603 0170 624B     		ldr	r3, .L252+88
 1604 0172 DFED636A 		vldr.32	s13, .L252+92
 1605 0176 D3ED007A 		vldr.32	s15, [r3]
 1606 017a 67EEA67A 		vmul.f32	s15, s15, s13
 1607 017e FDEEE77A 		vcvt.s32.f32	s15, s15
 1608 0182 17EE903A 		vmov	r3, s15	@ int
 1609 0186 1BB2     		sxth	r3, r3
 1610 0188 7F2B     		cmp	r3, #127
 1611 018a A8BF     		it	ge
 1612 018c 7F23     		movge	r3, #127
 1613 018e 12F00106 		ands	r6, r2, #1
 1614 0192 C3F17F03 		rsb	r3, r3, #127
 1615 0196 1BB2     		sxth	r3, r3
 1616 0198 67D0     		beq	.L219
 1617 019a 4C4A     		ldr	r2, .L252+40
 1618 019c B8EEC77A 		vcvt.f32.s32	s14, s14
 1619 01a0 D2ED007A 		vldr.32	s15, [r2]	@ int
 1620 01a4 574A     		ldr	r2, .L252+96
 1621 01a6 F8EEE77A 		vcvt.f32.s32	s15, s15
 1622 01aa 02EB8303 		add	r3, r2, r3, lsl #2
 1623 01ae D3ED006A 		vldr.32	s13, [r3]
 1624 01b2 67EEA67A 		vmul.f32	s15, s15, s13
 1625 01b6 B4EEE77A 		vcmpe.f32	s14, s15
 1626 01ba F1EE10FA 		vmrs	APSR_nzcv, FPSCR
 1627 01be 69DB     		blt	.L245
 1628 01c0 0022     		movs	r2, #0
 1629              	.L220:
 1630 01c2 2A80     		strh	r2, [r5]	@ movhi
 1631 01c4 0029     		cmp	r1, #0
 1632 01c6 4BD1     		bne	.L222
 1633 01c8 4010     		asrs	r0, r0, #1
 1634              	.L242:
 1635 01ca 05B0     		add	sp, sp, #20
 1636              		@ sp needed
 1637 01cc BDE8F08F 		pop	{r4, r5, r6, r7, r8, r9, r10, fp, pc}
 1638              	.L163:
 1639 01d0 C9B9     		cbnz	r1, .L165
 1640 01d2 B8F1010F 		cmp	r8, #1
 1641 01d6 40F25C81 		bls	.L249
 1642              	.L166:
 1643 01da 364B     		ldr	r3, .L252+16
 1644 01dc 93F800A0 		ldrb	r10, [r3]	@ zero_extendqisi2
 1645              	.L167:
 1646 01e0 0023     		movs	r3, #0
 1647 01e2 0393     		str	r3, [sp, #12]
 1648 01e4 344B     		ldr	r3, .L252+20
 1649 01e6 1B78     		ldrb	r3, [r3]	@ zero_extendqisi2
 1650 01e8 002B     		cmp	r3, #0
 1651 01ea 3FF42AAF 		beq	.L250
 1652              	.L188:
 1653 01ee C3F10302 		rsb	r2, r3, #3
ARM GAS  /tmp/ccONvy4E.s 			page 31


 1654 01f2 A8EB0303 		sub	r3, r8, r3
 1655 01f6 4FF0AF0E 		mov	lr, #175
 1656 01fa 01FB0233 		mla	r3, r1, r2, r3
 1657 01fe 0293     		str	r3, [sp, #8]
 1658 0200 1923     		movs	r3, #25
 1659 0202 0193     		str	r3, [sp, #4]
 1660 0204 25E7     		b	.L189
 1661              	.L165:
 1662 0206 0C29     		cmp	r1, #12
 1663 0208 E7D1     		bne	.L166
 1664 020a B8F1010F 		cmp	r8, #1
 1665 020e E4D1     		bne	.L166
 1666 0210 3D4B     		ldr	r3, .L252+100
 1667 0212 002C     		cmp	r4, #0
 1668 0214 3D49     		ldr	r1, .L252+104
 1669 0216 0246     		mov	r2, r0
 1670 0218 1B78     		ldrb	r3, [r3]	@ zero_extendqisi2
 1671 021a DFF808A1 		ldr	r10, .L252+128
 1672 021e 03F00303 		and	r3, r3, #3
 1673 0222 3B4E     		ldr	r6, .L252+108
 1674 0224 CB5C     		ldrb	r3, [r1, r3]	@ zero_extendqisi2
 1675 0226 1F49     		ldr	r1, .L252
 1676 0228 0B70     		strb	r3, [r1]
 1677 022a 244B     		ldr	r3, .L252+24
 1678 022c 9AF80010 		ldrb	r1, [r10]	@ zero_extendqisi2
 1679 0230 1970     		strb	r1, [r3]
 1680 0232 254B     		ldr	r3, .L252+36
 1681 0234 3178     		ldrb	r1, [r6]	@ zero_extendqisi2
 1682 0236 1970     		strb	r1, [r3]
 1683 0238 0ADD     		ble	.L174
 1684 023a 364C     		ldr	r4, .L252+112
 1685 023c 3946     		mov	r1, r7
 1686 023e 2148     		ldr	r0, .L252+32
 1687              	.L173:
 1688 0240 14F8013B 		ldrb	r3, [r4], #1	@ zero_extendqisi2
 1689 0244 0131     		adds	r1, r1, #1
 1690 0246 00F8013B 		strb	r3, [r0], #1
 1691 024a 6B68     		ldr	r3, [r5, #4]
 1692 024c 8B42     		cmp	r3, r1
 1693 024e F7DC     		bgt	.L173
 1694              	.L174:
 1695 0250 314C     		ldr	r4, .L252+116
 1696 0252 2078     		ldrb	r0, [r4]	@ zero_extendqisi2
 1697 0254 0028     		cmp	r0, #0
 1698 0256 40F05A81 		bne	.L251
 1699 025a 0121     		movs	r1, #1
 1700 025c 1170     		strb	r1, [r2]
 1701 025e B4E7     		b	.L242
 1702              	.L222:
 1703 0260 4000     		lsls	r0, r0, #1
 1704 0262 00B2     		sxth	r0, r0
 1705 0264 05B0     		add	sp, sp, #20
 1706              		@ sp needed
 1707 0266 BDE8F08F 		pop	{r4, r5, r6, r7, r8, r9, r10, fp, pc}
 1708              	.L219:
 1709 026a 12F00202 		ands	r2, r2, #2
 1710 026e 00F0DF80 		beq	.L221
ARM GAS  /tmp/ccONvy4E.s 			page 32


 1711 0272 244A     		ldr	r2, .L252+96
 1712 0274 B8EEC77A 		vcvt.f32.s32	s14, s14
 1713 0278 DFED286A 		vldr.32	s13, .L252+120
 1714 027c 02EB8303 		add	r3, r2, r3, lsl #2
 1715 0280 D3ED007A 		vldr.32	s15, [r3]
 1716 0284 67EEA67A 		vmul.f32	s15, s15, s13
 1717 0288 B4EEE77A 		vcmpe.f32	s14, s15
 1718 028c F1EE10FA 		vmrs	APSR_nzcv, FPSCR
 1719 0290 80F2FD80 		bge	.L226
 1720              	.L245:
 1721 0294 C4F30802 		ubfx	r2, r4, #0, #9
 1722 0298 93E7     		b	.L220
 1723              	.L205:
 1724 029a C4F34424 		ubfx	r4, r4, #9, #5
 1725 029e 44EA4000 		orr	r0, r4, r0, lsl #1
 1726 02a2 50E7     		b	.L206
 1727              	.L253:
 1728              		.align	2
 1729              	.L252:
 1730 02a4 00000000 		.word	m_IP
 1731 02a8 00000000 		.word	m_PC
 1732 02ac 00000000 		.word	m_coeff
 1733 02b0 00000000 		.word	m_inhibit
 1734 02b4 00000000 		.word	m_OLDP
 1735 02b8 00000000 		.word	m_subc_reload
 1736 02bc 00000000 		.word	m_old_frame_energy_idx
 1737 02c0 00000000 		.word	m_current_k
 1738 02c4 00000000 		.word	m_old_frame_k_idx
 1739 02c8 00000000 		.word	m_old_frame_pitch_idx
 1740 02cc 00000000 		.word	m_current_pitch
 1741 02d0 03000000 		.word	m_old_frame_k_idx+3
 1742 02d4 0C000000 		.word	m_current_k+12
 1743 02d8 00000000 		.word	m_target_energy
 1744 02dc 00000000 		.word	m_target_pitch
 1745 02e0 00000000 		.word	m_current_energy
 1746 02e4 00000000 		.word	m_target_k
 1747 02e8 00000000 		.word	m_RNG
 1748 02ec 00000000 		.word	m_pitch_count
 1749 02f0 00000000 		.word	m_excitation_data
 1750 02f4 00000000 		.word	m_digital_select
 1751 02f8 00000000 		.word	modus
 1752 02fc 00000000 		.word	_selz
 1753 0300 00000343 		.word	1124270080
 1754 0304 00000000 		.word	logpitch
 1755 0308 00000000 		.word	m_c_variant_rate
 1756 030c 00000000 		.word	reload_table
 1757 0310 00000000 		.word	m_new_frame_pitch_idx
 1758 0314 00000000 		.word	m_new_frame_k_idx
 1759 0318 00000000 		.word	m_talk_status
 1760 031c 00008042 		.word	1115684864
 1761 0320 00000000 		.word	m_subcycle
 1762 0324 00000000 		.word	m_new_frame_energy_idx
 1763              	.L192:
 1764 0328 009D     		ldr	r5, [sp]
 1765 032a 013F     		subs	r7, r7, #1
 1766 032c 0398     		ldr	r0, [sp, #12]
 1767 032e A2EB0B02 		sub	r2, r2, fp
ARM GAS  /tmp/ccONvy4E.s 			page 33


 1768 0332 A3EB050C 		sub	ip, r3, r5
 1769 0336 07F00707 		and	r7, r7, #7
 1770 033a 80F00100 		eor	r0, r0, #1
 1771 033e 002C     		cmp	r4, #0
 1772 0340 DDE90136 		ldrd	r3, r6, [sp, #4]
 1773 0344 00FB02F2 		mul	r2, r0, r2
 1774 0348 03FB0767 		mla	r7, r3, r7, r6
 1775 034c 00FB0CF3 		mul	r3, r0, ip
 1776 0350 07FB02F2 		mul	r2, r7, r2
 1777 0354 07FB03F3 		mul	r3, r7, r3
 1778 0358 92FBFEF2 		sdiv	r2, r2, lr
 1779 035c 93FBFEF3 		sdiv	r3, r3, lr
 1780 0360 5A44     		add	r2, r2, fp
 1781 0362 2B44     		add	r3, r3, r5
 1782 0364 A24D     		ldr	r5, .L254
 1783 0366 2A60     		str	r2, [r5]
 1784 0368 A24A     		ldr	r2, .L254+4
 1785 036a 1360     		str	r3, [r2]
 1786 036c 7FF7BAAE 		ble	.L187
 1787 0370 01EB8404 		add	r4, r1, r4, lsl #2
 1788 0374 A04A     		ldr	r2, .L254+8
 1789              	.L198:
 1790 0376 0D68     		ldr	r5, [r1]
 1791 0378 32F9023B 		ldrsh	r3, [r2], #2
 1792 037c 5B1B     		subs	r3, r3, r5
 1793 037e 00FB03F3 		mul	r3, r0, r3
 1794 0382 07FB03F3 		mul	r3, r7, r3
 1795 0386 93FBFEF3 		sdiv	r3, r3, lr
 1796 038a 2B44     		add	r3, r3, r5
 1797 038c 41F8043B 		str	r3, [r1], #4
 1798 0390 A142     		cmp	r1, r4
 1799 0392 F0D1     		bne	.L198
 1800 0394 9948     		ldr	r0, .L254+12
 1801 0396 BAF1010F 		cmp	r10, #1
 1802 039a 0388     		ldrh	r3, [r0]
 1803 039c 7FF4A8AE 		bne	.L201
 1804              	.L247:
 1805 03a0 03F00102 		and	r2, r3, #1
 1806 03a4 964C     		ldr	r4, .L254+16
 1807 03a6 974D     		ldr	r5, .L254+20
 1808 03a8 002A     		cmp	r2, #0
 1809 03aa 0ABF     		itet	eq
 1810 03ac 4FF48064 		moveq	r4, #1024
 1811 03b0 6FF03F02 		mvnne	r2, #63
 1812 03b4 4022     		moveq	r2, #64
 1813 03b6 A5E6     		b	.L202
 1814              	.L248:
 1815 03b8 934B     		ldr	r3, .L254+24
 1816 03ba 1B78     		ldrb	r3, [r3]	@ zero_extendqisi2
 1817 03bc 0C2B     		cmp	r3, #12
 1818 03be 00F08B80 		beq	.L208
 1819 03c2 2C88     		ldrh	r4, [r5]
 1820 03c4 0134     		adds	r4, r4, #1
 1821 03c6 A4B2     		uxth	r4, r4
 1822 03c8 07EE104A 		vmov	s14, r4	@ int
 1823 03cc D0E6     		b	.L209
 1824              	.L203:
ARM GAS  /tmp/ccONvy4E.s 			page 34


 1825 03ce 02F29C52 		addw	r2, r2, #1436
 1826 03d2 11F91220 		ldrsb	r2, [r1, r2, lsl #1]
 1827 03d6 1401     		lsls	r4, r2, #4
 1828 03d8 94E6     		b	.L202
 1829              	.L213:
 1830 03da 8C4C     		ldr	r4, .L254+28
 1831 03dc 2478     		ldrb	r4, [r4]	@ zero_extendqisi2
 1832 03de 89F80040 		strb	r4, [r9]
 1833 03e2 12F00404 		ands	r4, r2, #4
 1834 03e6 2DD0     		beq	.L214
 1835 03e8 894C     		ldr	r4, .L254+32
 1836 03ea F7EE007A 		vmov.f32	s15, #1.0e+0
 1837 03ee F3EE016A 		vmov.f32	s13, #1.7e+1
 1838 03f2 884E     		ldr	r6, .L254+36
 1839 03f4 94ED006A 		vldr.32	s12, [r4]
 1840 03f8 B3EE007A 		vmov.f32	s14, #1.6e+1
 1841 03fc 3478     		ldrb	r4, [r6]	@ zero_extendqisi2
 1842 03fe 77EEC67A 		vsub.f32	s15, s15, s12
 1843 0402 67EEA67A 		vmul.f32	s15, s15, s13
 1844 0406 77EE677A 		vsub.f32	s15, s14, s15
 1845 040a 07EE104A 		vmov	s14, r4	@ int
 1846 040e 0134     		adds	r4, r4, #1
 1847 0410 B8EEC77A 		vcvt.f32.s32	s14, s14
 1848 0414 3470     		strb	r4, [r6]
 1849 0416 B4EEE77A 		vcmpe.f32	s14, s15
 1850 041a F1EE10FA 		vmrs	APSR_nzcv, FPSCR
 1851 041e FFF6A3AE 		blt	.L215
 1852 0422 794F     		ldr	r7, .L254+24
 1853 0424 3C78     		ldrb	r4, [r7]	@ zero_extendqisi2
 1854 0426 0134     		adds	r4, r4, #1
 1855 0428 3C70     		strb	r4, [r7]
 1856 042a 0024     		movs	r4, #0
 1857 042c 3470     		strb	r4, [r6]
 1858 042e 9BE6     		b	.L215
 1859              	.L221:
 1860 0430 6F4B     		ldr	r3, .L254
 1861 0432 17EE106A 		vmov	r6, s14	@ int
 1862 0436 1B68     		ldr	r3, [r3]
 1863 0438 B342     		cmp	r3, r6
 1864 043a 7FF7C2AE 		ble	.L220
 1865 043e C4F30802 		ubfx	r2, r4, #0, #9
 1866 0442 BEE6     		b	.L220
 1867              	.L214:
 1868 0444 1607     		lsls	r6, r2, #28
 1869 0446 5DD5     		bpl	.L217
 1870 0448 734E     		ldr	r6, .L254+40
 1871 044a F7EE007A 		vmov.f32	s15, #1.0e+0
 1872 044e F3EE016A 		vmov.f32	s13, #1.7e+1
 1873 0452 704F     		ldr	r7, .L254+36
 1874 0454 96ED006A 		vldr.32	s12, [r6]
 1875 0458 B3EE007A 		vmov.f32	s14, #1.6e+1
 1876 045c 3E78     		ldrb	r6, [r7]	@ zero_extendqisi2
 1877 045e 77EEC67A 		vsub.f32	s15, s15, s12
 1878 0462 67EEA67A 		vmul.f32	s15, s15, s13
 1879 0466 77EE677A 		vsub.f32	s15, s14, s15
 1880 046a 07EE106A 		vmov	s14, r6	@ int
 1881 046e 0136     		adds	r6, r6, #1
ARM GAS  /tmp/ccONvy4E.s 			page 35


 1882 0470 B8EEC77A 		vcvt.f32.s32	s14, s14
 1883 0474 3E70     		strb	r6, [r7]
 1884 0476 B4EEE77A 		vcmpe.f32	s14, s15
 1885 047a F1EE10FA 		vmrs	APSR_nzcv, FPSCR
 1886 047e FFF673AE 		blt	.L215
 1887 0482 614E     		ldr	r6, .L254+24
 1888 0484 3C70     		strb	r4, [r7]
 1889 0486 3478     		ldrb	r4, [r6]	@ zero_extendqisi2
 1890 0488 0134     		adds	r4, r4, #1
 1891 048a 3470     		strb	r4, [r6]
 1892 048c 6CE6     		b	.L215
 1893              	.L226:
 1894 048e 3246     		mov	r2, r6
 1895 0490 97E6     		b	.L220
 1896              	.L249:
 1897 0492 624B     		ldr	r3, .L254+44
 1898 0494 624A     		ldr	r2, .L254+48
 1899 0496 1B78     		ldrb	r3, [r3]	@ zero_extendqisi2
 1900 0498 92F800A0 		ldrb	r10, [r2]	@ zero_extendqisi2
 1901 049c B3FA83F3 		clz	r3, r3
 1902 04a0 604A     		ldr	r2, .L254+52
 1903 04a2 BAFA8AFA 		clz	r10, r10
 1904 04a6 5B09     		lsrs	r3, r3, #5
 1905 04a8 4FEA5A1A 		lsr	r10, r10, #5
 1906 04ac 1370     		strb	r3, [r2]
 1907 04ae 5E4B     		ldr	r3, .L254+56
 1908 04b0 83F800A0 		strb	r10, [r3]
 1909 04b4 94E6     		b	.L167
 1910              	.L246:
 1911 04b6 5D4B     		ldr	r3, .L254+60
 1912 04b8 5D4A     		ldr	r2, .L254+64
 1913 04ba B3F90030 		ldrsh	r3, [r3]
 1914 04be B2F90020 		ldrsh	r2, [r2]
 1915 04c2 002F     		cmp	r7, #0
 1916 04c4 7FF430AF 		bne	.L192
 1917 04c8 4948     		ldr	r0, .L254
 1918 04ca 002C     		cmp	r4, #0
 1919 04cc 0260     		str	r2, [r0]
 1920 04ce 494A     		ldr	r2, .L254+4
 1921 04d0 1360     		str	r3, [r2]
 1922 04d2 3FF7FEAD 		bgt	.L195
 1923 04d6 05E6     		b	.L187
 1924              	.L208:
 1925 04d8 564B     		ldr	r3, .L254+68
 1926 04da 1E78     		ldrb	r6, [r3]	@ zero_extendqisi2
 1927 04dc 072E     		cmp	r6, #7
 1928 04de 73D0     		beq	.L210
 1929              	.L212:
 1930 04e0 2C88     		ldrh	r4, [r5]
 1931 04e2 0134     		adds	r4, r4, #1
 1932 04e4 A4B2     		uxth	r4, r4
 1933 04e6 07EE104A 		vmov	s14, r4	@ int
 1934              	.L211:
 1935 04ea 731C     		adds	r3, r6, #1
 1936 04ec 514E     		ldr	r6, .L254+68
 1937 04ee 03F00703 		and	r3, r3, #7
 1938 04f2 3370     		strb	r3, [r6]
ARM GAS  /tmp/ccONvy4E.s 			page 36


 1939 04f4 454B     		ldr	r3, .L254+28
 1940 04f6 444E     		ldr	r6, .L254+24
 1941 04f8 1B78     		ldrb	r3, [r3]	@ zero_extendqisi2
 1942 04fa 89F80030 		strb	r3, [r9]
 1943 04fe 0023     		movs	r3, #0
 1944 0500 3370     		strb	r3, [r6]
 1945 0502 35E6     		b	.L209
 1946              	.L217:
 1947 0504 404E     		ldr	r6, .L254+24
 1948 0506 3478     		ldrb	r4, [r6]	@ zero_extendqisi2
 1949 0508 0134     		adds	r4, r4, #1
 1950 050a 3470     		strb	r4, [r6]
 1951 050c 2CE6     		b	.L215
 1952              	.L251:
 1953 050e FFF7FEFF 		bl	parse_frame
 1954 0512 9AF80030 		ldrb	r3, [r10]	@ zero_extendqisi2
 1955 0516 0F2B     		cmp	r3, #15
 1956 0518 65D0     		beq	.L176
 1957 051a 2778     		ldrb	r7, [r4]	@ zero_extendqisi2
 1958              	.L177:
 1959 051c 424A     		ldr	r2, .L254+56
 1960 051e 3578     		ldrb	r5, [r6]	@ zero_extendqisi2
 1961 0520 92F800A0 		ldrb	r10, [r2]	@ zero_extendqisi2
 1962 0524 BAF1000F 		cmp	r10, #0
 1963 0528 56D1     		bne	.L178
 1964 052a 65B1     		cbz	r5, .L179
 1965              	.L180:
 1966 052c 3D4A     		ldr	r2, .L254+52
 1967 052e 002B     		cmp	r3, #0
 1968 0530 92F80080 		ldrb	r8, [r2]	@ zero_extendqisi2
 1969 0534 A8F10108 		sub	r8, r8, #1
 1970 0538 B8FA88F8 		clz	r8, r8
 1971 053c 4FEA5818 		lsr	r8, r8, #5
 1972 0540 08BF     		it	eq
 1973 0542 4FF00008 		moveq	r8, #0
 1974              	.L179:
 1975 0546 3C4A     		ldr	r2, .L254+72
 1976 0548 1C33     		adds	r3, r3, #28
 1977 054a 384E     		ldr	r6, .L254+60
 1978 054c 1468     		ldr	r4, [r2]
 1979 054e 05F15C02 		add	r2, r5, #92
 1980 0552 3A49     		ldr	r1, .L254+76
 1981 0554 34F81330 		ldrh	r3, [r4, r3, lsl #1]
 1982 0558 34F81220 		ldrh	r2, [r4, r2, lsl #1]
 1983 055c 3380     		strh	r3, [r6]	@ movhi
 1984 055e 344B     		ldr	r3, .L254+64
 1985 0560 81F80080 		strb	r8, [r1]
 1986 0564 1A80     		strh	r2, [r3]	@ movhi
 1987 0566 0023     		movs	r3, #0
 1988 0568 3548     		ldr	r0, .L254+80
 1989 056a 2349     		ldr	r1, .L254+8
 1990              	.L181:
 1991 056c 10F8012B 		ldrb	r2, [r0], #1	@ zero_extendqisi2
 1992 0570 02EB8312 		add	r2, r2, r3, lsl #6
 1993 0574 0133     		adds	r3, r3, #1
 1994 0576 4E32     		adds	r2, r2, #78
 1995 0578 042B     		cmp	r3, #4
ARM GAS  /tmp/ccONvy4E.s 			page 37


 1996 057a 54F82220 		ldr	r2, [r4, r2, lsl #2]
 1997 057e 21F8022B 		strh	r2, [r1], #2	@ movhi
 1998 0582 F3D1     		bne	.L181
 1999 0584 D4F804C0 		ldr	ip, [r4, #4]
 2000 0588 BCF1040F 		cmp	ip, #4
 2001 058c 15DD     		ble	.L186
 2002 058e 003D     		subs	r5, r5, #0
 2003 0590 2C48     		ldr	r0, .L254+84
 2004 0592 2D49     		ldr	r1, .L254+88
 2005 0594 18BF     		it	ne
 2006 0596 0125     		movne	r5, #1
 2007              	.L185:
 2008 0598 10F8012F 		ldrb	r2, [r0, #1]!	@ zero_extendqisi2
 2009 059c 002D     		cmp	r5, #0
 2010 059e 02EB8312 		add	r2, r2, r3, lsl #6
 2011 05a2 03F10103 		add	r3, r3, #1
 2012 05a6 02F14E02 		add	r2, r2, #78
 2013 05aa 54F82220 		ldr	r2, [r4, r2, lsl #2]
 2014 05ae 08BF     		it	eq
 2015 05b0 0022     		moveq	r2, #0
 2016 05b2 9C45     		cmp	ip, r3
 2017 05b4 21F8022F 		strh	r2, [r1, #2]!	@ movhi
 2018 05b8 EED1     		bne	.L185
 2019              	.L186:
 2020 05ba 99F80080 		ldrb	r8, [r9]	@ zero_extendqisi2
 2021 05be 002F     		cmp	r7, #0
 2022 05c0 7FF490AD 		bne	.L187
 2023 05c4 3780     		strh	r7, [r6]	@ movhi
 2024 05c6 8DE5     		b	.L187
 2025              	.L210:
 2026 05c8 1C4B     		ldr	r3, .L254+76
 2027 05ca 1B78     		ldrb	r3, [r3]	@ zero_extendqisi2
 2028 05cc 012B     		cmp	r3, #1
 2029 05ce 87D1     		bne	.L212
 2030 05d0 07EE103A 		vmov	s14, r3	@ int
 2031 05d4 1C46     		mov	r4, r3
 2032 05d6 88E7     		b	.L211
 2033              	.L178:
 2034 05d8 BAF1010F 		cmp	r10, #1
 2035 05dc A6D1     		bne	.L180
 2036 05de 002D     		cmp	r5, #0
 2037 05e0 A4D0     		beq	.L180
 2038 05e2 D046     		mov	r8, r10
 2039 05e4 AFE7     		b	.L179
 2040              	.L176:
 2041 05e6 0022     		movs	r2, #0
 2042 05e8 1849     		ldr	r1, .L254+92
 2043 05ea 2270     		strb	r2, [r4]
 2044 05ec 0A70     		strb	r2, [r1]
 2045 05ee 95E7     		b	.L177
 2046              	.L255:
 2047              		.align	2
 2048              	.L254:
 2049 05f0 00000000 		.word	m_current_pitch
 2050 05f4 00000000 		.word	m_current_energy
 2051 05f8 00000000 		.word	m_target_k
 2052 05fc 00000000 		.word	m_RNG
ARM GAS  /tmp/ccONvy4E.s 			page 38


 2053 0600 00FCFFFF 		.word	-1024
 2054 0604 00000000 		.word	m_pitch_count
 2055 0608 00000000 		.word	m_PC
 2056 060c 00000000 		.word	m_subc_reload
 2057 0610 00000000 		.word	_selx
 2058 0614 00000000 		.word	counter.0
 2059 0618 00000000 		.word	_sely
 2060 061c 00000000 		.word	m_new_frame_energy_idx
 2061 0620 00000000 		.word	m_new_frame_pitch_idx
 2062 0624 00000000 		.word	m_OLDE
 2063 0628 00000000 		.word	m_OLDP
 2064 062c 00000000 		.word	m_target_energy
 2065 0630 00000000 		.word	m_target_pitch
 2066 0634 00000000 		.word	m_IP
 2067 0638 00000000 		.word	m_coeff
 2068 063c 00000000 		.word	m_inhibit
 2069 0640 00000000 		.word	m_new_frame_k_idx
 2070 0644 03000000 		.word	m_new_frame_k_idx+3
 2071 0648 06000000 		.word	m_target_k+6
 2072 064c 00000000 		.word	m_speak_external
 2073              		.size	process, .-process
 2074              		.section	.text.process_k_tabled5100,"ax",%progbits
 2075              		.align	1
 2076              		.p2align 2,,3
 2077              		.global	process_k_tabled5100
 2078              		.syntax unified
 2079              		.thumb
 2080              		.thumb_func
 2081              		.type	process_k_tabled5100, %function
 2082              	process_k_tabled5100:
 2083              		@ args = 0, pretend = 0, frame = 8
 2084              		@ frame_needed = 0, uses_anonymous_args = 0
 2085 0000 2DE9F04F 		push	{r4, r5, r6, r7, r8, r9, r10, fp, lr}
 2086 0004 944E     		ldr	r6, .L317
 2087 0006 83B0     		sub	sp, sp, #12
 2088 0008 944C     		ldr	r4, .L317+4
 2089 000a 3578     		ldrb	r5, [r6]	@ zero_extendqisi2
 2090 000c 2778     		ldrb	r7, [r4]	@ zero_extendqisi2
 2091 000e 002D     		cmp	r5, #0
 2092 0010 73D0     		beq	.L257
 2093 0012 934B     		ldr	r3, .L317+8
 2094 0014 022F     		cmp	r7, #2
 2095 0016 1B78     		ldrb	r3, [r3]	@ zero_extendqisi2
 2096 0018 A3F10103 		sub	r3, #1
 2097 001c B3FA83F3 		clz	r3, r3
 2098 0020 4FEA5313 		lsr	r3, r3, #5
 2099 0024 71D0     		beq	.L274
 2100              	.L315:
 2101 0026 8F4B     		ldr	r3, .L317+12
 2102              	.L260:
 2103 0028 1B78     		ldrb	r3, [r3]	@ zero_extendqisi2
 2104 002a 8F4F     		ldr	r7, .L317+16
 2105              	.L273:
 2106 002c 8F48     		ldr	r0, .L317+20
 2107 002e 012B     		cmp	r3, #1
 2108 0030 0288     		ldrh	r2, [r0]
 2109 0032 00F09480 		beq	.L312
ARM GAS  /tmp/ccONvy4E.s 			page 39


 2110              	.L278:
 2111 0036 8E4B     		ldr	r3, .L317+24
 2112 0038 8E4D     		ldr	r5, .L317+28
 2113 003a 1968     		ldr	r1, [r3]
 2114 003c 2B88     		ldrh	r3, [r5]
 2115 003e 322B     		cmp	r3, #50
 2116 0040 40F2A880 		bls	.L280
 2117 0044 91F99E3B 		ldrsb	r3, [r1, #2974]
 2118              	.L279:
 2119 0048 8B49     		ldr	r1, .L317+32
 2120 004a 0B80     		strh	r3, [r1]	@ movhi
 2121 004c 1421     		movs	r1, #20
 2122              	.L281:
 2123 004e D308     		lsrs	r3, r2, #3
 2124 0050 0139     		subs	r1, r1, #1
 2125 0052 83EA1233 		eor	r3, r3, r2, lsr #12
 2126 0056 83EA0203 		eor	r3, r3, r2
 2127 005a 83EA9203 		eor	r3, r3, r2, lsr #2
 2128 005e 03F00103 		and	r3, r3, #1
 2129 0062 43EA4202 		orr	r2, r3, r2, lsl #1
 2130 0066 92B2     		uxth	r2, r2
 2131 0068 F1D1     		bne	.L281
 2132 006a 0280     		strh	r2, [r0]	@ movhi
 2133 006c FFF7FEFF 		bl	lattice_filter
 2134 0070 B0F5804F 		cmp	r0, #16384
 2135 0074 06DB     		blt	.L282
 2136 0076 A0F58043 		sub	r3, r0, #16384
 2137 007a A0F50040 		sub	r0, r0, #32768
 2138 007e 6FF30E03 		bfc	r3, #0, #15
 2139 0082 C01A     		subs	r0, r0, r3
 2140              	.L282:
 2141 0084 10F5804F 		cmn	r0, #16384
 2142 0088 07DA     		bge	.L283
 2143 008a 6FF48043 		mvn	r3, #16384
 2144 008e 1B1A     		subs	r3, r3, r0
 2145 0090 00F50040 		add	r0, r0, #32768
 2146 0094 6FF30E03 		bfc	r3, #0, #15
 2147 0098 1844     		add	r0, r0, r3
 2148              	.L283:
 2149 009a 784B     		ldr	r3, .L317+36
 2150 009c 1B78     		ldrb	r3, [r3]	@ zero_extendqisi2
 2151 009e 002B     		cmp	r3, #0
 2152 00a0 65D1     		bne	.L284
 2153 00a2 03B2     		sxth	r3, r0
 2154 00a4 03F30B03 		ssat	r3, #12, r3
 2155 00a8 23F00F03 		bic	r3, r3, #15
 2156 00ac 99B2     		uxth	r1, r3
 2157 00ae CA10     		asrs	r2, r1, #3
 2158 00b0 C1F38021 		ubfx	r1, r1, #10, #1
 2159 00b4 02F0FE02 		and	r2, r2, #254
 2160 00b8 0A43     		orrs	r2, r2, r1
 2161 00ba 42EA0313 		orr	r3, r2, r3, lsl #4
 2162 00be 18B2     		sxth	r0, r3
 2163              	.L285:
 2164 00c0 2378     		ldrb	r3, [r4]	@ zero_extendqisi2
 2165 00c2 0133     		adds	r3, r3, #1
 2166 00c4 DBB2     		uxtb	r3, r3
ARM GAS  /tmp/ccONvy4E.s 			page 40


 2167 00c6 022B     		cmp	r3, #2
 2168 00c8 2370     		strb	r3, [r4]
 2169 00ca 58D0     		beq	.L313
 2170 00cc 032B     		cmp	r3, #3
 2171 00ce 2A88     		ldrh	r2, [r5]
 2172 00d0 06D1     		bne	.L293
 2173 00d2 6B4B     		ldr	r3, .L317+40
 2174 00d4 6B49     		ldr	r1, .L317+44
 2175 00d6 1B78     		ldrb	r3, [r3]	@ zero_extendqisi2
 2176 00d8 2370     		strb	r3, [r4]
 2177 00da 0B78     		ldrb	r3, [r1]	@ zero_extendqisi2
 2178 00dc 0133     		adds	r3, r3, #1
 2179 00de 0B70     		strb	r3, [r1]
 2180              	.L293:
 2181 00e0 531C     		adds	r3, r2, #1
 2182 00e2 9BB2     		uxth	r3, r3
 2183 00e4 1946     		mov	r1, r3
 2184              	.L288:
 2185 00e6 3A68     		ldr	r2, [r7]
 2186 00e8 8A42     		cmp	r2, r1
 2187 00ea CCBF     		ite	gt
 2188 00ec C3F30803 		ubfxgt	r3, r3, #0, #9
 2189 00f0 0023     		movle	r3, #0
 2190 00f2 2B80     		strh	r3, [r5]	@ movhi
 2191              	.L307:
 2192 00f4 03B0     		add	sp, sp, #12
 2193              		@ sp needed
 2194 00f6 BDE8F08F 		pop	{r4, r5, r6, r7, r8, r9, r10, fp, pc}
 2195              	.L257:
 2196 00fa 624A     		ldr	r2, .L317+44
 2197 00fc 1278     		ldrb	r2, [r2]	@ zero_extendqisi2
 2198 00fe 12BB     		cbnz	r2, .L259
 2199 0100 012F     		cmp	r7, #1
 2200 0102 4CD9     		bls	.L314
 2201              	.L296:
 2202 0104 022F     		cmp	r7, #2
 2203 0106 2B46     		mov	r3, r5
 2204 0108 8DD1     		bne	.L315
 2205              	.L274:
 2206 010a 5E4A     		ldr	r2, .L317+44
 2207 010c 1278     		ldrb	r2, [r2]	@ zero_extendqisi2
 2208 010e 012A     		cmp	r2, #1
 2209 0110 7DD0     		beq	.L275
 2210 0112 53D9     		bls	.L276
 2211 0114 023A     		subs	r2, r2, #2
 2212 0116 D1B2     		uxtb	r1, r2
 2213 0118 0929     		cmp	r1, #9
 2214 011a 18D8     		bhi	.L311
 2215 011c 5448     		ldr	r0, .L317+24
 2216 011e 83F00103 		eor	r3, r3, #1
 2217 0122 594F     		ldr	r7, .L317+48
 2218 0124 0068     		ldr	r0, [r0]
 2219 0126 5949     		ldr	r1, .L317+52
 2220 0128 2844     		add	r0, r0, r5
 2221 012a 31F91210 		ldrsh	r1, [r1, r2, lsl #1]
 2222 012e 90F9A05B 		ldrsb	r5, [r0, #2976]
 2223 0132 57F82200 		ldr	r0, [r7, r2, lsl #2]
ARM GAS  /tmp/ccONvy4E.s 			page 41


 2224 0136 091A     		subs	r1, r1, r0
 2225 0138 01FB03F3 		mul	r3, r1, r3
 2226 013c 2B41     		asrs	r3, r3, r5
 2227 013e 0344     		add	r3, r3, r0
 2228 0140 47F82230 		str	r3, [r7, r2, lsl #2]
 2229 0144 03E0     		b	.L311
 2230              	.L259:
 2231 0146 0C2A     		cmp	r2, #12
 2232 0148 DCD1     		bne	.L296
 2233 014a 012F     		cmp	r7, #1
 2234 014c 74D0     		beq	.L316
 2235              	.L311:
 2236 014e 454B     		ldr	r3, .L317+12
 2237 0150 4648     		ldr	r0, .L317+20
 2238 0152 1B78     		ldrb	r3, [r3]	@ zero_extendqisi2
 2239 0154 444F     		ldr	r7, .L317+16
 2240 0156 012B     		cmp	r3, #1
 2241 0158 0288     		ldrh	r2, [r0]
 2242 015a 7FF46CAF 		bne	.L278
 2243              	.L312:
 2244 015e 12F0010F 		tst	r2, #1
 2245 0162 444D     		ldr	r5, .L317+28
 2246 0164 14BF     		ite	ne
 2247 0166 6FF03F03 		mvnne	r3, #63
 2248 016a 4023     		moveq	r3, #64
 2249 016c 6CE7     		b	.L279
 2250              	.L284:
 2251 016e 20F00F03 		bic	r3, r0, #15
 2252 0172 C0F34420 		ubfx	r0, r0, #9, #5
 2253 0176 40EA4300 		orr	r0, r0, r3, lsl #1
 2254 017a 00B2     		sxth	r0, r0
 2255 017c A0E7     		b	.L285
 2256              	.L313:
 2257 017e DFF804C1 		ldr	ip, .L317+44
 2258 0182 9CF80030 		ldrb	r3, [ip]	@ zero_extendqisi2
 2259 0186 0C2B     		cmp	r3, #12
 2260 0188 2ED0     		beq	.L287
 2261 018a 2B88     		ldrh	r3, [r5]
 2262 018c 0133     		adds	r3, r3, #1
 2263 018e 9BB2     		uxth	r3, r3
 2264 0190 1946     		mov	r1, r3
 2265 0192 A8E7     		b	.L288
 2266              	.L280:
 2267 0194 03F29C53 		addw	r3, r3, #1436
 2268 0198 11F91330 		ldrsb	r3, [r1, r3, lsl #1]
 2269 019c 54E7     		b	.L279
 2270              	.L314:
 2271 019e 3C4B     		ldr	r3, .L317+56
 2272 01a0 3C4A     		ldr	r2, .L317+60
 2273 01a2 1B78     		ldrb	r3, [r3]	@ zero_extendqisi2
 2274 01a4 1278     		ldrb	r2, [r2]	@ zero_extendqisi2
 2275 01a6 B3FA83F3 		clz	r3, r3
 2276 01aa 3B49     		ldr	r1, .L317+64
 2277 01ac B2FA82F2 		clz	r2, r2
 2278 01b0 5B09     		lsrs	r3, r3, #5
 2279 01b2 5209     		lsrs	r2, r2, #5
 2280 01b4 0B70     		strb	r3, [r1]
ARM GAS  /tmp/ccONvy4E.s 			page 42


 2281 01b6 2B4B     		ldr	r3, .L317+12
 2282 01b8 1A70     		strb	r2, [r3]
 2283 01ba 35E7     		b	.L260
 2284              	.L276:
 2285 01bc 2C49     		ldr	r1, .L317+24
 2286 01be 83F00103 		eor	r3, r3, #1
 2287 01c2 3648     		ldr	r0, .L317+68
 2288 01c4 0968     		ldr	r1, [r1]
 2289 01c6 364A     		ldr	r2, .L317+72
 2290 01c8 2944     		add	r1, r1, r5
 2291 01ca 274F     		ldr	r7, .L317+16
 2292 01cc B2F90020 		ldrsh	r2, [r2]
 2293 01d0 91F9A05B 		ldrsb	r5, [r1, #2976]
 2294 01d4 0168     		ldr	r1, [r0]
 2295 01d6 521A     		subs	r2, r2, r1
 2296 01d8 02FB03F3 		mul	r3, r2, r3
 2297 01dc 214A     		ldr	r2, .L317+12
 2298 01de 2B41     		asrs	r3, r3, r5
 2299 01e0 0B44     		add	r3, r3, r1
 2300 01e2 0360     		str	r3, [r0]
 2301 01e4 1378     		ldrb	r3, [r2]	@ zero_extendqisi2
 2302 01e6 21E7     		b	.L273
 2303              	.L287:
 2304 01e8 3278     		ldrb	r2, [r6]	@ zero_extendqisi2
 2305 01ea 072A     		cmp	r2, #7
 2306 01ec 00F00C81 		beq	.L289
 2307              	.L291:
 2308 01f0 2B88     		ldrh	r3, [r5]
 2309 01f2 0133     		adds	r3, r3, #1
 2310 01f4 9BB2     		uxth	r3, r3
 2311 01f6 1946     		mov	r1, r3
 2312              	.L290:
 2313 01f8 0132     		adds	r2, r2, #1
 2314 01fa 02F00702 		and	r2, r2, #7
 2315 01fe 3270     		strb	r2, [r6]
 2316 0200 1F4A     		ldr	r2, .L317+40
 2317 0202 1278     		ldrb	r2, [r2]	@ zero_extendqisi2
 2318 0204 2270     		strb	r2, [r4]
 2319 0206 0022     		movs	r2, #0
 2320 0208 8CF80020 		strb	r2, [ip]
 2321 020c 6BE7     		b	.L288
 2322              	.L275:
 2323 020e 1849     		ldr	r1, .L317+24
 2324 0210 83F00103 		eor	r3, r3, #1
 2325 0214 144F     		ldr	r7, .L317+16
 2326 0216 0968     		ldr	r1, [r1]
 2327 0218 224A     		ldr	r2, .L317+76
 2328 021a 2944     		add	r1, r1, r5
 2329 021c B2F90020 		ldrsh	r2, [r2]
 2330 0220 91F9A00B 		ldrsb	r0, [r1, #2976]
 2331 0224 3968     		ldr	r1, [r7]
 2332 0226 521A     		subs	r2, r2, r1
 2333 0228 02FB03F3 		mul	r3, r2, r3
 2334 022c 0D4A     		ldr	r2, .L317+12
 2335 022e 0341     		asrs	r3, r3, r0
 2336 0230 0B44     		add	r3, r3, r1
 2337 0232 3B60     		str	r3, [r7]
ARM GAS  /tmp/ccONvy4E.s 			page 43


 2338 0234 1378     		ldrb	r3, [r2]	@ zero_extendqisi2
 2339 0236 F9E6     		b	.L273
 2340              	.L316:
 2341 0238 1B4A     		ldr	r2, .L317+80
 2342 023a 0346     		mov	r3, r0
 2343 023c 1B49     		ldr	r1, .L317+84
 2344 023e 1278     		ldrb	r2, [r2]	@ zero_extendqisi2
 2345 0240 DFF86C80 		ldr	r8, .L317+88
 2346 0244 02F00302 		and	r2, r2, #3
 2347 0248 98F80000 		ldrb	r0, [r8]	@ zero_extendqisi2
 2348 024c 8A5C     		ldrb	r2, [r1, r2]	@ zero_extendqisi2
 2349 024e 3270     		strb	r2, [r6]
 2350 0250 80BB     		cbnz	r0, .L262
 2351 0252 1F70     		strb	r7, [r3]
 2352 0254 4EE7     		b	.L307
 2353              	.L318:
 2354 0256 00BF     		.align	2
 2355              	.L317:
 2356 0258 00000000 		.word	m_IP
 2357 025c 00000000 		.word	m_subcycle
 2358 0260 00000000 		.word	m_inhibit
 2359 0264 00000000 		.word	m_OLDP
 2360 0268 00000000 		.word	m_current_pitch
 2361 026c 00000000 		.word	m_RNG
 2362 0270 00000000 		.word	m_coeff
 2363 0274 00000000 		.word	m_pitch_count
 2364 0278 00000000 		.word	m_excitation_data
 2365 027c 00000000 		.word	m_digital_select
 2366 0280 00000000 		.word	m_subc_reload
 2367 0284 00000000 		.word	m_PC
 2368 0288 00000000 		.word	m_current_k
 2369 028c 00000000 		.word	m_target_k
 2370 0290 00000000 		.word	m_new_frame_energy_idx
 2371 0294 00000000 		.word	m_new_frame_pitch_idx
 2372 0298 00000000 		.word	m_OLDE
 2373 029c 00000000 		.word	m_current_energy
 2374 02a0 00000000 		.word	m_target_energy
 2375 02a4 00000000 		.word	m_target_pitch
 2376 02a8 00000000 		.word	m_c_variant_rate
 2377 02ac 00000000 		.word	reload_table
 2378 02b0 00000000 		.word	m_talk_status
 2379              	.L262:
 2380 02b4 FFF7FEFF 		bl	parse_frame
 2381 02b8 5D4B     		ldr	r3, .L319
 2382 02ba 1978     		ldrb	r1, [r3]	@ zero_extendqisi2
 2383 02bc 0F29     		cmp	r1, #15
 2384 02be 00F0B280 		beq	.L264
 2385 02c2 98F80050 		ldrb	r5, [r8]	@ zero_extendqisi2
 2386              	.L265:
 2387 02c6 5B4B     		ldr	r3, .L319+4
 2388 02c8 5B4A     		ldr	r2, .L319+8
 2389 02ca 1B78     		ldrb	r3, [r3]	@ zero_extendqisi2
 2390 02cc 1278     		ldrb	r2, [r2]	@ zero_extendqisi2
 2391 02ce 002B     		cmp	r3, #0
 2392 02d0 40F0A180 		bne	.L266
 2393 02d4 52B1     		cbz	r2, .L267
 2394              	.L268:
ARM GAS  /tmp/ccONvy4E.s 			page 44


 2395 02d6 5948     		ldr	r0, .L319+12
 2396 02d8 0029     		cmp	r1, #0
 2397 02da 0778     		ldrb	r7, [r0]	@ zero_extendqisi2
 2398 02dc A7F10107 		sub	r7, #1
 2399 02e0 B7FA87F7 		clz	r7, r7
 2400 02e4 4FEA5717 		lsr	r7, r7, #5
 2401 02e8 08BF     		it	eq
 2402 02ea 0027     		moveq	r7, #0
 2403              	.L267:
 2404 02ec 5448     		ldr	r0, .L319+16
 2405 02ee 1C31     		adds	r1, r1, #28
 2406 02f0 DFF86CC1 		ldr	ip, .L319+48
 2407 02f4 90F80090 		ldrb	r9, [r0]	@ zero_extendqisi2
 2408 02f8 5248     		ldr	r0, .L319+20
 2409 02fa 8CF80070 		strb	r7, [ip]
 2410 02fe C9EB091A 		rsb	r10, r9, r9, lsl #4
 2411 0302 D0F80080 		ldr	r8, [r0]
 2412 0306 02F15C00 		add	r0, r2, #92
 2413 030a 4F4F     		ldr	r7, .L319+24
 2414 030c 4FEA0A1A 		lsl	r10, r10, #4
 2415 0310 38F81110 		ldrh	r1, [r8, r1, lsl #1]
 2416 0314 38F81000 		ldrh	r0, [r8, r0, lsl #1]
 2417 0318 3980     		strh	r1, [r7]	@ movhi
 2418 031a 4C49     		ldr	r1, .L319+28
 2419 031c DFED4C6A 		vldr.32	s13, .L319+32
 2420 0320 0880     		strh	r0, [r1]	@ movhi
 2421 0322 0020     		movs	r0, #0
 2422 0324 DFF840E1 		ldr	lr, .L319+56
 2423 0328 4FEA0911 		lsl	r1, r9, #4
 2424 032c DFF83CC1 		ldr	ip, .L319+60
 2425 0330 484F     		ldr	r7, .L319+36
 2426 0332 DFF83CB1 		ldr	fp, .L319+64
 2427 0336 CDE90095 		strd	r9, r5, [sp]
 2428              	.L269:
 2429 033a 1EF8019B 		ldrb	r9, [lr], #1	@ zero_extendqisi2
 2430 033e 1CF8015B 		ldrb	r5, [ip], #1	@ zero_extendqisi2
 2431 0342 4D44     		add	r5, r5, r9
 2432 0344 09EB8019 		add	r9, r9, r0, lsl #6
 2433 0348 0130     		adds	r0, r0, #1
 2434 034a 5544     		add	r5, r5, r10
 2435 034c 09F14E09 		add	r9, r9, #78
 2436 0350 0428     		cmp	r0, #4
 2437 0352 0BEB8505 		add	r5, fp, r5, lsl #2
 2438 0356 D5ED007A 		vldr.32	s15, [r5]
 2439 035a 08EB8905 		add	r5, r8, r9, lsl #2
 2440 035e 77EEA67A 		vadd.f32	s15, s15, s13
 2441 0362 95ED007A 		vldr.32	s14, [r5]	@ int
 2442 0366 B8EEC77A 		vcvt.f32.s32	s14, s14
 2443 036a 77EEA77A 		vadd.f32	s15, s15, s15
 2444 036e 67EE877A 		vmul.f32	s15, s15, s14
 2445 0372 FDEEE77A 		vcvt.s32.f32	s15, s15
 2446 0376 17EE905A 		vmov	r5, s15	@ int
 2447 037a 27F8025B 		strh	r5, [r7], #2	@ movhi
 2448 037e DCD1     		bne	.L269
 2449 0380 D8F804A0 		ldr	r10, [r8, #4]
 2450 0384 BAF1040F 		cmp	r10, #4
 2451 0388 DDE90095 		ldrd	r9, r5, [sp]
ARM GAS  /tmp/ccONvy4E.s 			page 45


 2452 038c 37DD     		ble	.L270
 2453 038e 003A     		subs	r2, r2, #0
 2454 0390 A1EB0909 		sub	r9, r1, r9
 2455 0394 0095     		str	r5, [sp]
 2456 0396 18BF     		it	ne
 2457 0398 0122     		movne	r2, #1
 2458 039a DFED2D6A 		vldr.32	s13, .L319+32
 2459 039e 4FEA0919 		lsl	r9, r9, #4
 2460 03a2 2D4F     		ldr	r7, .L319+40
 2461 03a4 DFF8CCE0 		ldr	lr, .L319+68
 2462 03a8 1546     		mov	r5, r2
 2463 03aa DFF8CCC0 		ldr	ip, .L319+72
 2464              	.L271:
 2465 03ae 17F8011F 		ldrb	r1, [r7, #1]!	@ zero_extendqisi2
 2466 03b2 002D     		cmp	r5, #0
 2467 03b4 1EF8012F 		ldrb	r2, [lr, #1]!	@ zero_extendqisi2
 2468 03b8 0A44     		add	r2, r2, r1
 2469 03ba 01EB8011 		add	r1, r1, r0, lsl #6
 2470 03be 00F10100 		add	r0, r0, #1
 2471 03c2 4A44     		add	r2, r2, r9
 2472 03c4 01F14E01 		add	r1, r1, #78
 2473 03c8 0BEB8202 		add	r2, fp, r2, lsl #2
 2474 03cc D2ED007A 		vldr.32	s15, [r2]
 2475 03d0 58F82120 		ldr	r2, [r8, r1, lsl #2]
 2476 03d4 08BF     		it	eq
 2477 03d6 0022     		moveq	r2, #0
 2478 03d8 77EEA67A 		vadd.f32	s15, s15, s13
 2479 03dc 5045     		cmp	r0, r10
 2480 03de 07EE102A 		vmov	s14, r2	@ int
 2481 03e2 77EEA77A 		vadd.f32	s15, s15, s15
 2482 03e6 B8EEC77A 		vcvt.f32.s32	s14, s14
 2483 03ea 67EE877A 		vmul.f32	s15, s15, s14
 2484 03ee FDEEE77A 		vcvt.s32.f32	s15, s15
 2485 03f2 17EE902A 		vmov	r2, s15	@ int
 2486 03f6 2CF8022F 		strh	r2, [ip, #2]!	@ movhi
 2487 03fa D8D1     		bne	.L271
 2488 03fc 009D     		ldr	r5, [sp]
 2489              	.L270:
 2490 03fe 0DB9     		cbnz	r5, .L310
 2491 0400 114A     		ldr	r2, .L319+24
 2492 0402 1580     		strh	r5, [r2]	@ movhi
 2493              	.L310:
 2494 0404 154F     		ldr	r7, .L319+44
 2495 0406 11E6     		b	.L273
 2496              	.L289:
 2497 0408 154B     		ldr	r3, .L319+48
 2498 040a 1978     		ldrb	r1, [r3]	@ zero_extendqisi2
 2499 040c 0129     		cmp	r1, #1
 2500 040e 7FF4EFAE 		bne	.L291
 2501 0412 0B46     		mov	r3, r1
 2502 0414 F0E6     		b	.L290
 2503              	.L266:
 2504 0416 012B     		cmp	r3, #1
 2505 0418 7FF45DAF 		bne	.L268
 2506 041c 002A     		cmp	r2, #0
 2507 041e 3FF45AAF 		beq	.L268
 2508 0422 1F46     		mov	r7, r3
ARM GAS  /tmp/ccONvy4E.s 			page 46


 2509 0424 62E7     		b	.L267
 2510              	.L264:
 2511 0426 0F4B     		ldr	r3, .L319+52
 2512 0428 88F80050 		strb	r5, [r8]
 2513 042c 1D70     		strb	r5, [r3]
 2514 042e 4AE7     		b	.L265
 2515              	.L320:
 2516              		.align	2
 2517              	.L319:
 2518 0430 00000000 		.word	m_new_frame_energy_idx
 2519 0434 00000000 		.word	m_OLDP
 2520 0438 00000000 		.word	m_new_frame_pitch_idx
 2521 043c 00000000 		.word	m_OLDE
 2522 0440 00000000 		.word	_intmode
 2523 0444 00000000 		.word	m_coeff
 2524 0448 00000000 		.word	m_target_energy
 2525 044c 00000000 		.word	m_target_pitch
 2526 0450 CDCCCC3D 		.word	1036831949
 2527 0454 00000000 		.word	m_target_k
 2528 0458 03000000 		.word	m_new_frame_k_idx+3
 2529 045c 00000000 		.word	m_current_pitch
 2530 0460 00000000 		.word	m_inhibit
 2531 0464 00000000 		.word	m_speak_external
 2532 0468 00000000 		.word	m_new_frame_k_idx
 2533 046c 00000000 		.word	koffset
 2534 0470 00000000 		.word	exy
 2535 0474 03000000 		.word	koffset+3
 2536 0478 06000000 		.word	m_target_k+6
 2537              		.size	process_k_tabled5100, .-process_k_tabled5100
 2538              		.section	.text.process_pitchk_tabled5100,"ax",%progbits
 2539              		.align	1
 2540              		.p2align 2,,3
 2541              		.global	process_pitchk_tabled5100
 2542              		.syntax unified
 2543              		.thumb
 2544              		.thumb_func
 2545              		.type	process_pitchk_tabled5100, %function
 2546              	process_pitchk_tabled5100:
 2547              		@ args = 0, pretend = 0, frame = 16
 2548              		@ frame_needed = 0, uses_anonymous_args = 0
 2549 0000 2DE9F04F 		push	{r4, r5, r6, r7, r8, r9, r10, fp, lr}
 2550 0004 944E     		ldr	r6, .L382
 2551 0006 85B0     		sub	sp, sp, #20
 2552 0008 944C     		ldr	r4, .L382+4
 2553 000a 3578     		ldrb	r5, [r6]	@ zero_extendqisi2
 2554 000c 2778     		ldrb	r7, [r4]	@ zero_extendqisi2
 2555 000e 002D     		cmp	r5, #0
 2556 0010 73D0     		beq	.L322
 2557 0012 934B     		ldr	r3, .L382+8
 2558 0014 022F     		cmp	r7, #2
 2559 0016 1B78     		ldrb	r3, [r3]	@ zero_extendqisi2
 2560 0018 A3F10103 		sub	r3, #1
 2561 001c B3FA83F3 		clz	r3, r3
 2562 0020 4FEA5313 		lsr	r3, r3, #5
 2563 0024 71D0     		beq	.L339
 2564              	.L380:
 2565 0026 8F4B     		ldr	r3, .L382+12
ARM GAS  /tmp/ccONvy4E.s 			page 47


 2566              	.L325:
 2567 0028 1B78     		ldrb	r3, [r3]	@ zero_extendqisi2
 2568 002a 8F4F     		ldr	r7, .L382+16
 2569              	.L338:
 2570 002c 8F48     		ldr	r0, .L382+20
 2571 002e 012B     		cmp	r3, #1
 2572 0030 0288     		ldrh	r2, [r0]
 2573 0032 00F09480 		beq	.L377
 2574              	.L343:
 2575 0036 8E4B     		ldr	r3, .L382+24
 2576 0038 8E4D     		ldr	r5, .L382+28
 2577 003a 1968     		ldr	r1, [r3]
 2578 003c 2B88     		ldrh	r3, [r5]
 2579 003e 322B     		cmp	r3, #50
 2580 0040 40F2A880 		bls	.L345
 2581 0044 91F99E3B 		ldrsb	r3, [r1, #2974]
 2582              	.L344:
 2583 0048 8B49     		ldr	r1, .L382+32
 2584 004a 0B80     		strh	r3, [r1]	@ movhi
 2585 004c 1421     		movs	r1, #20
 2586              	.L346:
 2587 004e D308     		lsrs	r3, r2, #3
 2588 0050 0139     		subs	r1, r1, #1
 2589 0052 83EA1233 		eor	r3, r3, r2, lsr #12
 2590 0056 83EA0203 		eor	r3, r3, r2
 2591 005a 83EA9203 		eor	r3, r3, r2, lsr #2
 2592 005e 03F00103 		and	r3, r3, #1
 2593 0062 43EA4202 		orr	r2, r3, r2, lsl #1
 2594 0066 92B2     		uxth	r2, r2
 2595 0068 F1D1     		bne	.L346
 2596 006a 0280     		strh	r2, [r0]	@ movhi
 2597 006c FFF7FEFF 		bl	lattice_filter
 2598 0070 B0F5804F 		cmp	r0, #16384
 2599 0074 06DB     		blt	.L347
 2600 0076 A0F58043 		sub	r3, r0, #16384
 2601 007a A0F50040 		sub	r0, r0, #32768
 2602 007e 6FF30E03 		bfc	r3, #0, #15
 2603 0082 C01A     		subs	r0, r0, r3
 2604              	.L347:
 2605 0084 10F5804F 		cmn	r0, #16384
 2606 0088 07DA     		bge	.L348
 2607 008a 6FF48043 		mvn	r3, #16384
 2608 008e 1B1A     		subs	r3, r3, r0
 2609 0090 00F50040 		add	r0, r0, #32768
 2610 0094 6FF30E03 		bfc	r3, #0, #15
 2611 0098 1844     		add	r0, r0, r3
 2612              	.L348:
 2613 009a 784B     		ldr	r3, .L382+36
 2614 009c 1B78     		ldrb	r3, [r3]	@ zero_extendqisi2
 2615 009e 002B     		cmp	r3, #0
 2616 00a0 65D1     		bne	.L349
 2617 00a2 03B2     		sxth	r3, r0
 2618 00a4 03F30B03 		ssat	r3, #12, r3
 2619 00a8 23F00F03 		bic	r3, r3, #15
 2620 00ac 99B2     		uxth	r1, r3
 2621 00ae CA10     		asrs	r2, r1, #3
 2622 00b0 C1F38021 		ubfx	r1, r1, #10, #1
ARM GAS  /tmp/ccONvy4E.s 			page 48


 2623 00b4 02F0FE02 		and	r2, r2, #254
 2624 00b8 0A43     		orrs	r2, r2, r1
 2625 00ba 42EA0313 		orr	r3, r2, r3, lsl #4
 2626 00be 18B2     		sxth	r0, r3
 2627              	.L350:
 2628 00c0 2378     		ldrb	r3, [r4]	@ zero_extendqisi2
 2629 00c2 0133     		adds	r3, r3, #1
 2630 00c4 DBB2     		uxtb	r3, r3
 2631 00c6 022B     		cmp	r3, #2
 2632 00c8 2370     		strb	r3, [r4]
 2633 00ca 58D0     		beq	.L378
 2634 00cc 032B     		cmp	r3, #3
 2635 00ce 2A88     		ldrh	r2, [r5]
 2636 00d0 06D1     		bne	.L358
 2637 00d2 6B4B     		ldr	r3, .L382+40
 2638 00d4 6B49     		ldr	r1, .L382+44
 2639 00d6 1B78     		ldrb	r3, [r3]	@ zero_extendqisi2
 2640 00d8 2370     		strb	r3, [r4]
 2641 00da 0B78     		ldrb	r3, [r1]	@ zero_extendqisi2
 2642 00dc 0133     		adds	r3, r3, #1
 2643 00de 0B70     		strb	r3, [r1]
 2644              	.L358:
 2645 00e0 531C     		adds	r3, r2, #1
 2646 00e2 9BB2     		uxth	r3, r3
 2647 00e4 1946     		mov	r1, r3
 2648              	.L353:
 2649 00e6 3A68     		ldr	r2, [r7]
 2650 00e8 8A42     		cmp	r2, r1
 2651 00ea CCBF     		ite	gt
 2652 00ec C3F30803 		ubfxgt	r3, r3, #0, #9
 2653 00f0 0023     		movle	r3, #0
 2654 00f2 2B80     		strh	r3, [r5]	@ movhi
 2655              	.L372:
 2656 00f4 05B0     		add	sp, sp, #20
 2657              		@ sp needed
 2658 00f6 BDE8F08F 		pop	{r4, r5, r6, r7, r8, r9, r10, fp, pc}
 2659              	.L322:
 2660 00fa 624A     		ldr	r2, .L382+44
 2661 00fc 1278     		ldrb	r2, [r2]	@ zero_extendqisi2
 2662 00fe 12BB     		cbnz	r2, .L324
 2663 0100 012F     		cmp	r7, #1
 2664 0102 4CD9     		bls	.L379
 2665              	.L361:
 2666 0104 022F     		cmp	r7, #2
 2667 0106 2B46     		mov	r3, r5
 2668 0108 8DD1     		bne	.L380
 2669              	.L339:
 2670 010a 5E4A     		ldr	r2, .L382+44
 2671 010c 1278     		ldrb	r2, [r2]	@ zero_extendqisi2
 2672 010e 012A     		cmp	r2, #1
 2673 0110 7DD0     		beq	.L340
 2674 0112 53D9     		bls	.L341
 2675 0114 023A     		subs	r2, r2, #2
 2676 0116 D1B2     		uxtb	r1, r2
 2677 0118 0929     		cmp	r1, #9
 2678 011a 18D8     		bhi	.L376
 2679 011c 5448     		ldr	r0, .L382+24
ARM GAS  /tmp/ccONvy4E.s 			page 49


 2680 011e 83F00103 		eor	r3, r3, #1
 2681 0122 594F     		ldr	r7, .L382+48
 2682 0124 0068     		ldr	r0, [r0]
 2683 0126 5949     		ldr	r1, .L382+52
 2684 0128 2844     		add	r0, r0, r5
 2685 012a 31F91210 		ldrsh	r1, [r1, r2, lsl #1]
 2686 012e 90F9A05B 		ldrsb	r5, [r0, #2976]
 2687 0132 57F82200 		ldr	r0, [r7, r2, lsl #2]
 2688 0136 091A     		subs	r1, r1, r0
 2689 0138 01FB03F3 		mul	r3, r1, r3
 2690 013c 2B41     		asrs	r3, r3, r5
 2691 013e 0344     		add	r3, r3, r0
 2692 0140 47F82230 		str	r3, [r7, r2, lsl #2]
 2693 0144 03E0     		b	.L376
 2694              	.L324:
 2695 0146 0C2A     		cmp	r2, #12
 2696 0148 DCD1     		bne	.L361
 2697 014a 012F     		cmp	r7, #1
 2698 014c 74D0     		beq	.L381
 2699              	.L376:
 2700 014e 454B     		ldr	r3, .L382+12
 2701 0150 4648     		ldr	r0, .L382+20
 2702 0152 1B78     		ldrb	r3, [r3]	@ zero_extendqisi2
 2703 0154 444F     		ldr	r7, .L382+16
 2704 0156 012B     		cmp	r3, #1
 2705 0158 0288     		ldrh	r2, [r0]
 2706 015a 7FF46CAF 		bne	.L343
 2707              	.L377:
 2708 015e 12F0010F 		tst	r2, #1
 2709 0162 444D     		ldr	r5, .L382+28
 2710 0164 14BF     		ite	ne
 2711 0166 6FF03F03 		mvnne	r3, #63
 2712 016a 4023     		moveq	r3, #64
 2713 016c 6CE7     		b	.L344
 2714              	.L349:
 2715 016e 20F00F03 		bic	r3, r0, #15
 2716 0172 C0F34420 		ubfx	r0, r0, #9, #5
 2717 0176 40EA4300 		orr	r0, r0, r3, lsl #1
 2718 017a 00B2     		sxth	r0, r0
 2719 017c A0E7     		b	.L350
 2720              	.L378:
 2721 017e DFF804C1 		ldr	ip, .L382+44
 2722 0182 9CF80030 		ldrb	r3, [ip]	@ zero_extendqisi2
 2723 0186 0C2B     		cmp	r3, #12
 2724 0188 2ED0     		beq	.L352
 2725 018a 2B88     		ldrh	r3, [r5]
 2726 018c 0133     		adds	r3, r3, #1
 2727 018e 9BB2     		uxth	r3, r3
 2728 0190 1946     		mov	r1, r3
 2729 0192 A8E7     		b	.L353
 2730              	.L345:
 2731 0194 03F29C53 		addw	r3, r3, #1436
 2732 0198 11F91330 		ldrsb	r3, [r1, r3, lsl #1]
 2733 019c 54E7     		b	.L344
 2734              	.L379:
 2735 019e 3C4B     		ldr	r3, .L382+56
 2736 01a0 3C4A     		ldr	r2, .L382+60
ARM GAS  /tmp/ccONvy4E.s 			page 50


 2737 01a2 1B78     		ldrb	r3, [r3]	@ zero_extendqisi2
 2738 01a4 1278     		ldrb	r2, [r2]	@ zero_extendqisi2
 2739 01a6 B3FA83F3 		clz	r3, r3
 2740 01aa 3B49     		ldr	r1, .L382+64
 2741 01ac B2FA82F2 		clz	r2, r2
 2742 01b0 5B09     		lsrs	r3, r3, #5
 2743 01b2 5209     		lsrs	r2, r2, #5
 2744 01b4 0B70     		strb	r3, [r1]
 2745 01b6 2B4B     		ldr	r3, .L382+12
 2746 01b8 1A70     		strb	r2, [r3]
 2747 01ba 35E7     		b	.L325
 2748              	.L341:
 2749 01bc 2C49     		ldr	r1, .L382+24
 2750 01be 83F00103 		eor	r3, r3, #1
 2751 01c2 3648     		ldr	r0, .L382+68
 2752 01c4 0968     		ldr	r1, [r1]
 2753 01c6 364A     		ldr	r2, .L382+72
 2754 01c8 2944     		add	r1, r1, r5
 2755 01ca 274F     		ldr	r7, .L382+16
 2756 01cc B2F90020 		ldrsh	r2, [r2]
 2757 01d0 91F9A05B 		ldrsb	r5, [r1, #2976]
 2758 01d4 0168     		ldr	r1, [r0]
 2759 01d6 521A     		subs	r2, r2, r1
 2760 01d8 02FB03F3 		mul	r3, r2, r3
 2761 01dc 214A     		ldr	r2, .L382+12
 2762 01de 2B41     		asrs	r3, r3, r5
 2763 01e0 0B44     		add	r3, r3, r1
 2764 01e2 0360     		str	r3, [r0]
 2765 01e4 1378     		ldrb	r3, [r2]	@ zero_extendqisi2
 2766 01e6 21E7     		b	.L338
 2767              	.L352:
 2768 01e8 3278     		ldrb	r2, [r6]	@ zero_extendqisi2
 2769 01ea 072A     		cmp	r2, #7
 2770 01ec 00F03381 		beq	.L354
 2771              	.L356:
 2772 01f0 2B88     		ldrh	r3, [r5]
 2773 01f2 0133     		adds	r3, r3, #1
 2774 01f4 9BB2     		uxth	r3, r3
 2775 01f6 1946     		mov	r1, r3
 2776              	.L355:
 2777 01f8 0132     		adds	r2, r2, #1
 2778 01fa 02F00702 		and	r2, r2, #7
 2779 01fe 3270     		strb	r2, [r6]
 2780 0200 1F4A     		ldr	r2, .L382+40
 2781 0202 1278     		ldrb	r2, [r2]	@ zero_extendqisi2
 2782 0204 2270     		strb	r2, [r4]
 2783 0206 0022     		movs	r2, #0
 2784 0208 8CF80020 		strb	r2, [ip]
 2785 020c 6BE7     		b	.L353
 2786              	.L340:
 2787 020e 1849     		ldr	r1, .L382+24
 2788 0210 83F00103 		eor	r3, r3, #1
 2789 0214 144F     		ldr	r7, .L382+16
 2790 0216 0968     		ldr	r1, [r1]
 2791 0218 224A     		ldr	r2, .L382+76
 2792 021a 2944     		add	r1, r1, r5
 2793 021c B2F90020 		ldrsh	r2, [r2]
ARM GAS  /tmp/ccONvy4E.s 			page 51


 2794 0220 91F9A00B 		ldrsb	r0, [r1, #2976]
 2795 0224 3968     		ldr	r1, [r7]
 2796 0226 521A     		subs	r2, r2, r1
 2797 0228 02FB03F3 		mul	r3, r2, r3
 2798 022c 0D4A     		ldr	r2, .L382+12
 2799 022e 0341     		asrs	r3, r3, r0
 2800 0230 0B44     		add	r3, r3, r1
 2801 0232 3B60     		str	r3, [r7]
 2802 0234 1378     		ldrb	r3, [r2]	@ zero_extendqisi2
 2803 0236 F9E6     		b	.L338
 2804              	.L381:
 2805 0238 1B4A     		ldr	r2, .L382+80
 2806 023a 0346     		mov	r3, r0
 2807 023c 1B49     		ldr	r1, .L382+84
 2808 023e 1278     		ldrb	r2, [r2]	@ zero_extendqisi2
 2809 0240 DFF86C80 		ldr	r8, .L382+88
 2810 0244 02F00302 		and	r2, r2, #3
 2811 0248 98F80000 		ldrb	r0, [r8]	@ zero_extendqisi2
 2812 024c 8A5C     		ldrb	r2, [r1, r2]	@ zero_extendqisi2
 2813 024e 3270     		strb	r2, [r6]
 2814 0250 80BB     		cbnz	r0, .L327
 2815 0252 1F70     		strb	r7, [r3]
 2816 0254 4EE7     		b	.L372
 2817              	.L383:
 2818 0256 00BF     		.align	2
 2819              	.L382:
 2820 0258 00000000 		.word	m_IP
 2821 025c 00000000 		.word	m_subcycle
 2822 0260 00000000 		.word	m_inhibit
 2823 0264 00000000 		.word	m_OLDP
 2824 0268 00000000 		.word	m_current_pitch
 2825 026c 00000000 		.word	m_RNG
 2826 0270 00000000 		.word	m_coeff
 2827 0274 00000000 		.word	m_pitch_count
 2828 0278 00000000 		.word	m_excitation_data
 2829 027c 00000000 		.word	m_digital_select
 2830 0280 00000000 		.word	m_subc_reload
 2831 0284 00000000 		.word	m_PC
 2832 0288 00000000 		.word	m_current_k
 2833 028c 00000000 		.word	m_target_k
 2834 0290 00000000 		.word	m_new_frame_energy_idx
 2835 0294 00000000 		.word	m_new_frame_pitch_idx
 2836 0298 00000000 		.word	m_OLDE
 2837 029c 00000000 		.word	m_current_energy
 2838 02a0 00000000 		.word	m_target_energy
 2839 02a4 00000000 		.word	m_target_pitch
 2840 02a8 00000000 		.word	m_c_variant_rate
 2841 02ac 00000000 		.word	reload_table
 2842 02b0 00000000 		.word	m_talk_status
 2843              	.L327:
 2844 02b4 FFF7FEFF 		bl	parse_frame
 2845 02b8 714B     		ldr	r3, .L384
 2846 02ba 1978     		ldrb	r1, [r3]	@ zero_extendqisi2
 2847 02bc 0F29     		cmp	r1, #15
 2848 02be 00F0D980 		beq	.L329
 2849 02c2 98F80050 		ldrb	r5, [r8]	@ zero_extendqisi2
 2850              	.L330:
ARM GAS  /tmp/ccONvy4E.s 			page 52


 2851 02c6 6F4B     		ldr	r3, .L384+4
 2852 02c8 6F4A     		ldr	r2, .L384+8
 2853 02ca 1B78     		ldrb	r3, [r3]	@ zero_extendqisi2
 2854 02cc 1278     		ldrb	r2, [r2]	@ zero_extendqisi2
 2855 02ce 002B     		cmp	r3, #0
 2856 02d0 40F0C880 		bne	.L331
 2857 02d4 52B1     		cbz	r2, .L332
 2858              	.L333:
 2859 02d6 6D48     		ldr	r0, .L384+12
 2860 02d8 0029     		cmp	r1, #0
 2861 02da 0778     		ldrb	r7, [r0]	@ zero_extendqisi2
 2862 02dc A7F10107 		sub	r7, #1
 2863 02e0 B7FA87F7 		clz	r7, r7
 2864 02e4 4FEA5717 		lsr	r7, r7, #5
 2865 02e8 08BF     		it	eq
 2866 02ea 0027     		moveq	r7, #0
 2867              	.L332:
 2868 02ec 01F11C00 		add	r0, r1, #28
 2869 02f0 6749     		ldr	r1, .L384+16
 2870 02f2 02F15C0E 		add	lr, r2, #92
 2871 02f6 DFF8C0A1 		ldr	r10, .L384+56
 2872 02fa 0978     		ldrb	r1, [r1]	@ zero_extendqisi2
 2873 02fc 4FF00108 		mov	r8, #1
 2874 0300 9FED646A 		vldr.32	s12, .L384+20
 2875 0304 C1EB0119 		rsb	r9, r1, r1, lsl #4
 2876 0308 DFF8B0C1 		ldr	ip, .L384+60
 2877 030c DFED626A 		vldr.32	s13, .L384+24
 2878 0310 02EB0912 		add	r2, r2, r9, lsl #4
 2879 0314 DCF800C0 		ldr	ip, [ip]
 2880 0318 4FEA0919 		lsl	r9, r9, #4
 2881 031c 0AEB8202 		add	r2, r10, r2, lsl #2
 2882 0320 3CF81EE0 		ldrh	lr, [ip, lr, lsl #1]
 2883 0324 3CF81000 		ldrh	r0, [ip, r0, lsl #1]
 2884 0328 92ED007A 		vldr.32	s14, [r2]
 2885 032c 07EE90EA 		vmov	s15, lr	@ int
 2886 0330 DCF80C20 		ldr	r2, [ip, #12]
 2887 0334 27EE067A 		vmul.f32	s14, s14, s12
 2888 0338 DFF884E1 		ldr	lr, .L384+64
 2889 033c 08FA02F2 		lsl	r2, r8, r2
 2890 0340 F8EEE77A 		vcvt.f32.s32	s15, s15
 2891 0344 DFF87C81 		ldr	r8, .L384+68
 2892 0348 BCEEC77A 		vcvt.u32.f32	s14, s14
 2893 034c 5FFA82FB 		uxtb	fp, r2
 2894 0350 8DED017A 		vstr.32	s14, [sp, #4]	@ int
 2895 0354 9DF80420 		ldrb	r2, [sp, #4]	@ zero_extendqisi2
 2896 0358 7F2A     		cmp	r2, #127
 2897 035a 28BF     		it	cs
 2898 035c 7F22     		movcs	r2, #127
 2899 035e 0EEB820E 		add	lr, lr, r2, lsl #2
 2900 0362 4E4A     		ldr	r2, .L384+28
 2901 0364 9EED007A 		vldr.32	s14, [lr]
 2902 0368 1770     		strb	r7, [r2]
 2903 036a 67EE877A 		vmul.f32	s15, s15, s14
 2904 036e 4C4A     		ldr	r2, .L384+32
 2905 0370 DFF854E1 		ldr	lr, .L384+72
 2906 0374 1080     		strh	r0, [r2]	@ movhi
 2907 0376 FDEEE77A 		vcvt.s32.f32	s15, s15
ARM GAS  /tmp/ccONvy4E.s 			page 53


 2908 037a 4A4A     		ldr	r2, .L384+36
 2909 037c 4A4F     		ldr	r7, .L384+40
 2910 037e 17EE900A 		vmov	r0, s15	@ int
 2911 0382 1080     		strh	r0, [r2]	@ movhi
 2912 0384 0A01     		lsls	r2, r1, #4
 2913 0386 0020     		movs	r0, #0
 2914 0388 CDE90115 		strd	r1, r5, [sp, #4]
 2915              	.L334:
 2916 038c 18F8015B 		ldrb	r5, [r8], #1	@ zero_extendqisi2
 2917 0390 1EF8011B 		ldrb	r1, [lr], #1	@ zero_extendqisi2
 2918 0394 2944     		add	r1, r1, r5
 2919 0396 05EB8015 		add	r5, r5, r0, lsl #6
 2920 039a 0130     		adds	r0, r0, #1
 2921 039c 5944     		add	r1, r1, fp
 2922 039e 4E35     		adds	r5, r5, #78
 2923 03a0 0428     		cmp	r0, #4
 2924 03a2 4944     		add	r1, r1, r9
 2925 03a4 0CEB8505 		add	r5, ip, r5, lsl #2
 2926 03a8 0AEB8101 		add	r1, r10, r1, lsl #2
 2927 03ac 95ED007A 		vldr.32	s14, [r5]	@ int
 2928 03b0 D1ED007A 		vldr.32	s15, [r1]
 2929 03b4 B8EEC77A 		vcvt.f32.s32	s14, s14
 2930 03b8 77EEA77A 		vadd.f32	s15, s15, s15
 2931 03bc 77EEA67A 		vadd.f32	s15, s15, s13
 2932 03c0 67EE877A 		vmul.f32	s15, s15, s14
 2933 03c4 FDEEE77A 		vcvt.s32.f32	s15, s15
 2934 03c8 17EE901A 		vmov	r1, s15	@ int
 2935 03cc 27F8021B 		strh	r1, [r7], #2	@ movhi
 2936 03d0 DCD1     		bne	.L334
 2937 03d2 DCF80470 		ldr	r7, [ip, #4]
 2938 03d6 042F     		cmp	r7, #4
 2939 03d8 DDE90115 		ldrd	r1, r5, [sp, #4]
 2940 03dc 0197     		str	r7, [sp, #4]
 2941 03de 35DD     		ble	.L335
 2942 03e0 521A     		subs	r2, r2, r1
 2943 03e2 0393     		str	r3, [sp, #12]
 2944 03e4 DFED2C6A 		vldr.32	s13, .L384+24
 2945 03e8 1201     		lsls	r2, r2, #4
 2946 03ea DFF8E080 		ldr	r8, .L384+76
 2947 03ee 2F4F     		ldr	r7, .L384+44
 2948 03f0 DFF8DCE0 		ldr	lr, .L384+80
 2949 03f4 9146     		mov	r9, r2
 2950 03f6 019B     		ldr	r3, [sp, #4]
 2951              	.L336:
 2952 03f8 18F8011F 		ldrb	r1, [r8, #1]!	@ zero_extendqisi2
 2953 03fc 17F8012F 		ldrb	r2, [r7, #1]!	@ zero_extendqisi2
 2954 0400 01EB0B05 		add	r5, r1, fp
 2955 0404 01EB8011 		add	r1, r1, r0, lsl #6
 2956 0408 0130     		adds	r0, r0, #1
 2957 040a 2A44     		add	r2, r2, r5
 2958 040c 4E31     		adds	r1, r1, #78
 2959 040e 9842     		cmp	r0, r3
 2960 0410 4A44     		add	r2, r2, r9
 2961 0412 0AEB8202 		add	r2, r10, r2, lsl #2
 2962 0416 D2ED007A 		vldr.32	s15, [r2]
 2963 041a 5CF82120 		ldr	r2, [ip, r1, lsl #2]
 2964 041e 4FF00101 		mov	r1, #1
ARM GAS  /tmp/ccONvy4E.s 			page 54


 2965 0422 77EEA77A 		vadd.f32	s15, s15, s15
 2966 0426 01FB02F2 		mul	r2, r1, r2
 2967 042a 07EE102A 		vmov	s14, r2	@ int
 2968 042e 77EEA67A 		vadd.f32	s15, s15, s13
 2969 0432 B8EEC77A 		vcvt.f32.s32	s14, s14
 2970 0436 67EE877A 		vmul.f32	s15, s15, s14
 2971 043a FDEEE77A 		vcvt.s32.f32	s15, s15
 2972 043e 17EE902A 		vmov	r2, s15	@ int
 2973 0442 2EF8022F 		strh	r2, [lr, #2]!	@ movhi
 2974 0446 D7D1     		bne	.L336
 2975 0448 DDE90253 		ldrd	r5, r3, [sp, #8]
 2976              	.L335:
 2977 044c 0DB9     		cbnz	r5, .L375
 2978 044e 144A     		ldr	r2, .L384+32
 2979 0450 1580     		strh	r5, [r2]	@ movhi
 2980              	.L375:
 2981 0452 174F     		ldr	r7, .L384+48
 2982 0454 EAE5     		b	.L338
 2983              	.L354:
 2984 0456 114B     		ldr	r3, .L384+28
 2985 0458 1978     		ldrb	r1, [r3]	@ zero_extendqisi2
 2986 045a 0129     		cmp	r1, #1
 2987 045c 7FF4C8AE 		bne	.L356
 2988 0460 0B46     		mov	r3, r1
 2989 0462 C9E6     		b	.L355
 2990              	.L331:
 2991 0464 012B     		cmp	r3, #1
 2992 0466 7FF436AF 		bne	.L333
 2993 046a 002A     		cmp	r2, #0
 2994 046c 3FF433AF 		beq	.L333
 2995 0470 1F46     		mov	r7, r3
 2996 0472 3BE7     		b	.L332
 2997              	.L329:
 2998 0474 0F4B     		ldr	r3, .L384+52
 2999 0476 88F80050 		strb	r5, [r8]
 3000 047a 1D70     		strb	r5, [r3]
 3001 047c 23E7     		b	.L330
 3002              	.L385:
 3003 047e 00BF     		.align	2
 3004              	.L384:
 3005 0480 00000000 		.word	m_new_frame_energy_idx
 3006 0484 00000000 		.word	m_OLDP
 3007 0488 00000000 		.word	m_new_frame_pitch_idx
 3008 048c 00000000 		.word	m_OLDE
 3009 0490 00000000 		.word	_intmode
 3010 0494 00000343 		.word	1124270080
 3011 0498 CDCCCC3D 		.word	1036831949
 3012 049c 00000000 		.word	m_inhibit
 3013 04a0 00000000 		.word	m_target_energy
 3014 04a4 00000000 		.word	m_target_pitch
 3015 04a8 00000000 		.word	m_target_k
 3016 04ac 03000000 		.word	koffset+3
 3017 04b0 00000000 		.word	m_current_pitch
 3018 04b4 00000000 		.word	m_speak_external
 3019 04b8 00000000 		.word	exy
 3020 04bc 00000000 		.word	m_coeff
 3021 04c0 00000000 		.word	logpitch
ARM GAS  /tmp/ccONvy4E.s 			page 55


 3022 04c4 00000000 		.word	m_new_frame_k_idx
 3023 04c8 00000000 		.word	koffset
 3024 04cc 03000000 		.word	m_new_frame_k_idx+3
 3025 04d0 06000000 		.word	m_target_k+6
 3026              		.size	process_pitchk_tabled5100, .-process_pitchk_tabled5100
 3027              		.section	.text.process_pitch_tabled5100,"ax",%progbits
 3028              		.align	1
 3029              		.p2align 2,,3
 3030              		.global	process_pitch_tabled5100
 3031              		.syntax unified
 3032              		.thumb
 3033              		.thumb_func
 3034              		.type	process_pitch_tabled5100, %function
 3035              	process_pitch_tabled5100:
 3036              		@ args = 0, pretend = 0, frame = 8
 3037              		@ frame_needed = 0, uses_anonymous_args = 0
 3038 0000 2DE9F043 		push	{r4, r5, r6, r7, r8, r9, lr}
 3039 0004 944E     		ldr	r6, .L447
 3040 0006 83B0     		sub	sp, sp, #12
 3041 0008 944C     		ldr	r4, .L447+4
 3042 000a 3578     		ldrb	r5, [r6]	@ zero_extendqisi2
 3043 000c 2778     		ldrb	r7, [r4]	@ zero_extendqisi2
 3044 000e 002D     		cmp	r5, #0
 3045 0010 73D0     		beq	.L387
 3046 0012 934B     		ldr	r3, .L447+8
 3047 0014 022F     		cmp	r7, #2
 3048 0016 1B78     		ldrb	r3, [r3]	@ zero_extendqisi2
 3049 0018 A3F10103 		sub	r3, #1
 3050 001c B3FA83F3 		clz	r3, r3
 3051 0020 4FEA5313 		lsr	r3, r3, #5
 3052 0024 71D0     		beq	.L406
 3053              	.L445:
 3054 0026 8F4B     		ldr	r3, .L447+12
 3055              	.L390:
 3056 0028 1978     		ldrb	r1, [r3]	@ zero_extendqisi2
 3057 002a 8F4F     		ldr	r7, .L447+16
 3058              	.L405:
 3059 002c 8F48     		ldr	r0, .L447+20
 3060 002e 0129     		cmp	r1, #1
 3061 0030 0288     		ldrh	r2, [r0]
 3062 0032 00F09480 		beq	.L442
 3063              	.L410:
 3064 0036 8E4B     		ldr	r3, .L447+24
 3065 0038 8E4D     		ldr	r5, .L447+28
 3066 003a 1968     		ldr	r1, [r3]
 3067 003c 2B88     		ldrh	r3, [r5]
 3068 003e 322B     		cmp	r3, #50
 3069 0040 40F2A880 		bls	.L412
 3070 0044 91F99E3B 		ldrsb	r3, [r1, #2974]
 3071              	.L411:
 3072 0048 8B49     		ldr	r1, .L447+32
 3073 004a 0B80     		strh	r3, [r1]	@ movhi
 3074 004c 1421     		movs	r1, #20
 3075              	.L413:
 3076 004e D308     		lsrs	r3, r2, #3
 3077 0050 0139     		subs	r1, r1, #1
 3078 0052 83EA1233 		eor	r3, r3, r2, lsr #12
ARM GAS  /tmp/ccONvy4E.s 			page 56


 3079 0056 83EA0203 		eor	r3, r3, r2
 3080 005a 83EA9203 		eor	r3, r3, r2, lsr #2
 3081 005e 03F00103 		and	r3, r3, #1
 3082 0062 43EA4203 		orr	r3, r3, r2, lsl #1
 3083 0066 9AB2     		uxth	r2, r3
 3084 0068 F1D1     		bne	.L413
 3085 006a 0280     		strh	r2, [r0]	@ movhi
 3086 006c FFF7FEFF 		bl	lattice_filter
 3087 0070 B0F5804F 		cmp	r0, #16384
 3088 0074 06DB     		blt	.L414
 3089 0076 A0F58043 		sub	r3, r0, #16384
 3090 007a A0F50040 		sub	r0, r0, #32768
 3091 007e 6FF30E03 		bfc	r3, #0, #15
 3092 0082 C01A     		subs	r0, r0, r3
 3093              	.L414:
 3094 0084 10F5804F 		cmn	r0, #16384
 3095 0088 07DA     		bge	.L415
 3096 008a 6FF48043 		mvn	r3, #16384
 3097 008e 1B1A     		subs	r3, r3, r0
 3098 0090 00F50040 		add	r0, r0, #32768
 3099 0094 6FF30E03 		bfc	r3, #0, #15
 3100 0098 1844     		add	r0, r0, r3
 3101              	.L415:
 3102 009a 784B     		ldr	r3, .L447+36
 3103 009c 1B78     		ldrb	r3, [r3]	@ zero_extendqisi2
 3104 009e 002B     		cmp	r3, #0
 3105 00a0 65D1     		bne	.L416
 3106 00a2 03B2     		sxth	r3, r0
 3107 00a4 03F30B03 		ssat	r3, #12, r3
 3108 00a8 23F00F03 		bic	r3, r3, #15
 3109 00ac 99B2     		uxth	r1, r3
 3110 00ae CA10     		asrs	r2, r1, #3
 3111 00b0 C1F38021 		ubfx	r1, r1, #10, #1
 3112 00b4 02F0FE02 		and	r2, r2, #254
 3113 00b8 0A43     		orrs	r2, r2, r1
 3114 00ba 42EA0313 		orr	r3, r2, r3, lsl #4
 3115 00be 18B2     		sxth	r0, r3
 3116              	.L417:
 3117 00c0 2378     		ldrb	r3, [r4]	@ zero_extendqisi2
 3118 00c2 0133     		adds	r3, r3, #1
 3119 00c4 DBB2     		uxtb	r3, r3
 3120 00c6 022B     		cmp	r3, #2
 3121 00c8 2370     		strb	r3, [r4]
 3122 00ca 58D0     		beq	.L443
 3123 00cc 032B     		cmp	r3, #3
 3124 00ce 2A88     		ldrh	r2, [r5]
 3125 00d0 06D1     		bne	.L425
 3126 00d2 6B4B     		ldr	r3, .L447+40
 3127 00d4 6B49     		ldr	r1, .L447+44
 3128 00d6 1B78     		ldrb	r3, [r3]	@ zero_extendqisi2
 3129 00d8 2370     		strb	r3, [r4]
 3130 00da 0B78     		ldrb	r3, [r1]	@ zero_extendqisi2
 3131 00dc 0133     		adds	r3, r3, #1
 3132 00de 0B70     		strb	r3, [r1]
 3133              	.L425:
 3134 00e0 531C     		adds	r3, r2, #1
 3135 00e2 9BB2     		uxth	r3, r3
ARM GAS  /tmp/ccONvy4E.s 			page 57


 3136 00e4 1946     		mov	r1, r3
 3137              	.L420:
 3138 00e6 3A68     		ldr	r2, [r7]
 3139 00e8 8A42     		cmp	r2, r1
 3140 00ea CCBF     		ite	gt
 3141 00ec C3F30803 		ubfxgt	r3, r3, #0, #9
 3142 00f0 0023     		movle	r3, #0
 3143 00f2 2B80     		strh	r3, [r5]	@ movhi
 3144              	.L438:
 3145 00f4 03B0     		add	sp, sp, #12
 3146              		@ sp needed
 3147 00f6 BDE8F083 		pop	{r4, r5, r6, r7, r8, r9, pc}
 3148              	.L387:
 3149 00fa 624A     		ldr	r2, .L447+44
 3150 00fc 1278     		ldrb	r2, [r2]	@ zero_extendqisi2
 3151 00fe 12BB     		cbnz	r2, .L389
 3152 0100 012F     		cmp	r7, #1
 3153 0102 4CD9     		bls	.L444
 3154              	.L428:
 3155 0104 022F     		cmp	r7, #2
 3156 0106 2B46     		mov	r3, r5
 3157 0108 8DD1     		bne	.L445
 3158              	.L406:
 3159 010a 5E4A     		ldr	r2, .L447+44
 3160 010c 1278     		ldrb	r2, [r2]	@ zero_extendqisi2
 3161 010e 012A     		cmp	r2, #1
 3162 0110 7DD0     		beq	.L407
 3163 0112 53D9     		bls	.L408
 3164 0114 023A     		subs	r2, r2, #2
 3165 0116 D1B2     		uxtb	r1, r2
 3166 0118 0929     		cmp	r1, #9
 3167 011a 18D8     		bhi	.L441
 3168 011c 5448     		ldr	r0, .L447+24
 3169 011e 83F00103 		eor	r3, r3, #1
 3170 0122 594F     		ldr	r7, .L447+48
 3171 0124 0068     		ldr	r0, [r0]
 3172 0126 5949     		ldr	r1, .L447+52
 3173 0128 2844     		add	r0, r0, r5
 3174 012a 31F91210 		ldrsh	r1, [r1, r2, lsl #1]
 3175 012e 90F9A05B 		ldrsb	r5, [r0, #2976]
 3176 0132 57F82200 		ldr	r0, [r7, r2, lsl #2]
 3177 0136 091A     		subs	r1, r1, r0
 3178 0138 01FB03F3 		mul	r3, r1, r3
 3179 013c 2B41     		asrs	r3, r3, r5
 3180 013e 0344     		add	r3, r3, r0
 3181 0140 47F82230 		str	r3, [r7, r2, lsl #2]
 3182 0144 03E0     		b	.L441
 3183              	.L389:
 3184 0146 0C2A     		cmp	r2, #12
 3185 0148 DCD1     		bne	.L428
 3186 014a 012F     		cmp	r7, #1
 3187 014c 74D0     		beq	.L446
 3188              	.L441:
 3189 014e 454B     		ldr	r3, .L447+12
 3190 0150 4648     		ldr	r0, .L447+20
 3191 0152 1978     		ldrb	r1, [r3]	@ zero_extendqisi2
 3192 0154 444F     		ldr	r7, .L447+16
ARM GAS  /tmp/ccONvy4E.s 			page 58


 3193 0156 0129     		cmp	r1, #1
 3194 0158 0288     		ldrh	r2, [r0]
 3195 015a 7FF46CAF 		bne	.L410
 3196              	.L442:
 3197 015e 12F0010F 		tst	r2, #1
 3198 0162 444D     		ldr	r5, .L447+28
 3199 0164 14BF     		ite	ne
 3200 0166 6FF03F03 		mvnne	r3, #63
 3201 016a 4023     		moveq	r3, #64
 3202 016c 6CE7     		b	.L411
 3203              	.L416:
 3204 016e 20F00F03 		bic	r3, r0, #15
 3205 0172 C0F34420 		ubfx	r0, r0, #9, #5
 3206 0176 40EA4300 		orr	r0, r0, r3, lsl #1
 3207 017a 00B2     		sxth	r0, r0
 3208 017c A0E7     		b	.L417
 3209              	.L443:
 3210 017e DFF804C1 		ldr	ip, .L447+44
 3211 0182 9CF80030 		ldrb	r3, [ip]	@ zero_extendqisi2
 3212 0186 0C2B     		cmp	r3, #12
 3213 0188 2ED0     		beq	.L419
 3214 018a 2B88     		ldrh	r3, [r5]
 3215 018c 0133     		adds	r3, r3, #1
 3216 018e 9BB2     		uxth	r3, r3
 3217 0190 1946     		mov	r1, r3
 3218 0192 A8E7     		b	.L420
 3219              	.L412:
 3220 0194 03F29C53 		addw	r3, r3, #1436
 3221 0198 11F91330 		ldrsb	r3, [r1, r3, lsl #1]
 3222 019c 54E7     		b	.L411
 3223              	.L444:
 3224 019e 3C4B     		ldr	r3, .L447+56
 3225 01a0 3C4A     		ldr	r2, .L447+60
 3226 01a2 1B78     		ldrb	r3, [r3]	@ zero_extendqisi2
 3227 01a4 1278     		ldrb	r2, [r2]	@ zero_extendqisi2
 3228 01a6 B3FA83F3 		clz	r3, r3
 3229 01aa 3B49     		ldr	r1, .L447+64
 3230 01ac B2FA82F2 		clz	r2, r2
 3231 01b0 5B09     		lsrs	r3, r3, #5
 3232 01b2 5209     		lsrs	r2, r2, #5
 3233 01b4 0B70     		strb	r3, [r1]
 3234 01b6 2B4B     		ldr	r3, .L447+12
 3235 01b8 1A70     		strb	r2, [r3]
 3236 01ba 35E7     		b	.L390
 3237              	.L408:
 3238 01bc 2C49     		ldr	r1, .L447+24
 3239 01be 83F00103 		eor	r3, r3, #1
 3240 01c2 3648     		ldr	r0, .L447+68
 3241 01c4 0968     		ldr	r1, [r1]
 3242 01c6 364A     		ldr	r2, .L447+72
 3243 01c8 2944     		add	r1, r1, r5
 3244 01ca 274F     		ldr	r7, .L447+16
 3245 01cc B2F90020 		ldrsh	r2, [r2]
 3246 01d0 91F9A05B 		ldrsb	r5, [r1, #2976]
 3247 01d4 0168     		ldr	r1, [r0]
 3248 01d6 521A     		subs	r2, r2, r1
 3249 01d8 02FB03F3 		mul	r3, r2, r3
ARM GAS  /tmp/ccONvy4E.s 			page 59


 3250 01dc 214A     		ldr	r2, .L447+12
 3251 01de 2B41     		asrs	r3, r3, r5
 3252 01e0 0B44     		add	r3, r3, r1
 3253 01e2 1178     		ldrb	r1, [r2]	@ zero_extendqisi2
 3254 01e4 0360     		str	r3, [r0]
 3255 01e6 21E7     		b	.L405
 3256              	.L419:
 3257 01e8 3278     		ldrb	r2, [r6]	@ zero_extendqisi2
 3258 01ea 072A     		cmp	r2, #7
 3259 01ec 00F0ED80 		beq	.L421
 3260              	.L423:
 3261 01f0 2B88     		ldrh	r3, [r5]
 3262 01f2 0133     		adds	r3, r3, #1
 3263 01f4 9BB2     		uxth	r3, r3
 3264 01f6 1946     		mov	r1, r3
 3265              	.L422:
 3266 01f8 0132     		adds	r2, r2, #1
 3267 01fa 02F00702 		and	r2, r2, #7
 3268 01fe 3270     		strb	r2, [r6]
 3269 0200 1F4A     		ldr	r2, .L447+40
 3270 0202 1278     		ldrb	r2, [r2]	@ zero_extendqisi2
 3271 0204 2270     		strb	r2, [r4]
 3272 0206 0022     		movs	r2, #0
 3273 0208 8CF80020 		strb	r2, [ip]
 3274 020c 6BE7     		b	.L420
 3275              	.L407:
 3276 020e 1849     		ldr	r1, .L447+24
 3277 0210 83F00103 		eor	r3, r3, #1
 3278 0214 144F     		ldr	r7, .L447+16
 3279 0216 0968     		ldr	r1, [r1]
 3280 0218 224A     		ldr	r2, .L447+76
 3281 021a 2944     		add	r1, r1, r5
 3282 021c B2F90020 		ldrsh	r2, [r2]
 3283 0220 91F9A00B 		ldrsb	r0, [r1, #2976]
 3284 0224 3968     		ldr	r1, [r7]
 3285 0226 521A     		subs	r2, r2, r1
 3286 0228 02FB03F3 		mul	r3, r2, r3
 3287 022c 0D4A     		ldr	r2, .L447+12
 3288 022e 0341     		asrs	r3, r3, r0
 3289 0230 0B44     		add	r3, r3, r1
 3290 0232 1178     		ldrb	r1, [r2]	@ zero_extendqisi2
 3291 0234 3B60     		str	r3, [r7]
 3292 0236 F9E6     		b	.L405
 3293              	.L446:
 3294 0238 1B4A     		ldr	r2, .L447+80
 3295 023a 0346     		mov	r3, r0
 3296 023c 1B49     		ldr	r1, .L447+84
 3297 023e 1278     		ldrb	r2, [r2]	@ zero_extendqisi2
 3298 0240 DFF86C80 		ldr	r8, .L447+88
 3299 0244 02F00302 		and	r2, r2, #3
 3300 0248 98F80000 		ldrb	r0, [r8]	@ zero_extendqisi2
 3301 024c 8A5C     		ldrb	r2, [r1, r2]	@ zero_extendqisi2
 3302 024e 3270     		strb	r2, [r6]
 3303 0250 80BB     		cbnz	r0, .L392
 3304 0252 1F70     		strb	r7, [r3]
 3305 0254 4EE7     		b	.L438
 3306              	.L448:
ARM GAS  /tmp/ccONvy4E.s 			page 60


 3307 0256 00BF     		.align	2
 3308              	.L447:
 3309 0258 00000000 		.word	m_IP
 3310 025c 00000000 		.word	m_subcycle
 3311 0260 00000000 		.word	m_inhibit
 3312 0264 00000000 		.word	m_OLDP
 3313 0268 00000000 		.word	m_current_pitch
 3314 026c 00000000 		.word	m_RNG
 3315 0270 00000000 		.word	m_coeff
 3316 0274 00000000 		.word	m_pitch_count
 3317 0278 00000000 		.word	m_excitation_data
 3318 027c 00000000 		.word	m_digital_select
 3319 0280 00000000 		.word	m_subc_reload
 3320 0284 00000000 		.word	m_PC
 3321 0288 00000000 		.word	m_current_k
 3322 028c 00000000 		.word	m_target_k
 3323 0290 00000000 		.word	m_new_frame_energy_idx
 3324 0294 00000000 		.word	m_new_frame_pitch_idx
 3325 0298 00000000 		.word	m_OLDE
 3326 029c 00000000 		.word	m_current_energy
 3327 02a0 00000000 		.word	m_target_energy
 3328 02a4 00000000 		.word	m_target_pitch
 3329 02a8 00000000 		.word	m_c_variant_rate
 3330 02ac 00000000 		.word	reload_table
 3331 02b0 00000000 		.word	m_talk_status
 3332              	.L392:
 3333 02b4 FFF7FEFF 		bl	parse_frame
 3334 02b8 4E4B     		ldr	r3, .L449
 3335 02ba 1B78     		ldrb	r3, [r3]	@ zero_extendqisi2
 3336 02bc 0F2B     		cmp	r3, #15
 3337 02be 00F09480 		beq	.L394
 3338 02c2 98F80050 		ldrb	r5, [r8]	@ zero_extendqisi2
 3339              	.L395:
 3340 02c6 4C4A     		ldr	r2, .L449+4
 3341 02c8 1178     		ldrb	r1, [r2]	@ zero_extendqisi2
 3342 02ca 4C4A     		ldr	r2, .L449+8
 3343 02cc 92F800E0 		ldrb	lr, [r2]	@ zero_extendqisi2
 3344 02d0 0029     		cmp	r1, #0
 3345 02d2 40F08180 		bne	.L396
 3346 02d6 BEF1000F 		cmp	lr, #0
 3347 02da 0AD0     		beq	.L397
 3348              	.L398:
 3349 02dc 484A     		ldr	r2, .L449+12
 3350 02de 002B     		cmp	r3, #0
 3351 02e0 1778     		ldrb	r7, [r2]	@ zero_extendqisi2
 3352 02e2 A7F10107 		sub	r7, #1
 3353 02e6 B7FA87F7 		clz	r7, r7
 3354 02ea 4FEA5717 		lsr	r7, r7, #5
 3355 02ee 08BF     		it	eq
 3356 02f0 0027     		moveq	r7, #0
 3357              	.L397:
 3358 02f2 03F11C00 		add	r0, r3, #28
 3359 02f6 434B     		ldr	r3, .L449+16
 3360 02f8 434A     		ldr	r2, .L449+20
 3361 02fa 1B78     		ldrb	r3, [r3]	@ zero_extendqisi2
 3362 02fc 9FED437A 		vldr.32	s14, .L449+24
 3363 0300 C3EB0313 		rsb	r3, r3, r3, lsl #4
ARM GAS  /tmp/ccONvy4E.s 			page 61


 3364 0304 DFF83091 		ldr	r9, .L449+68
 3365 0308 0EEB0313 		add	r3, lr, r3, lsl #4
 3366 030c 02EB8303 		add	r3, r2, r3, lsl #2
 3367 0310 0EF15C02 		add	r2, lr, #92
 3368 0314 D3ED007A 		vldr.32	s15, [r3]
 3369 0318 3D4B     		ldr	r3, .L449+28
 3370 031a 67EE877A 		vmul.f32	s15, s15, s14
 3371 031e D3F800C0 		ldr	ip, [r3]
 3372 0322 FCEEE77A 		vcvt.u32.f32	s15, s15
 3373 0326 3CF81220 		ldrh	r2, [ip, r2, lsl #1]
 3374 032a 3CF81000 		ldrh	r0, [ip, r0, lsl #1]
 3375 032e CDED017A 		vstr.32	s15, [sp, #4]	@ int
 3376 0332 07EE902A 		vmov	s15, r2	@ int
 3377 0336 9DF80430 		ldrb	r3, [sp, #4]	@ zero_extendqisi2
 3378 033a 364A     		ldr	r2, .L449+32
 3379 033c F8EEE77A 		vcvt.f32.s32	s15, s15
 3380 0340 7F2B     		cmp	r3, #127
 3381 0342 A9F80000 		strh	r0, [r9]	@ movhi
 3382 0346 3448     		ldr	r0, .L449+36
 3383 0348 28BF     		it	cs
 3384 034a 7F23     		movcs	r3, #127
 3385 034c 02EB8303 		add	r3, r2, r3, lsl #2
 3386 0350 93ED007A 		vldr.32	s14, [r3]
 3387 0354 314B     		ldr	r3, .L449+40
 3388 0356 67EE877A 		vmul.f32	s15, s15, s14
 3389 035a 1F70     		strb	r7, [r3]
 3390 035c 304B     		ldr	r3, .L449+44
 3391 035e FDEEE77A 		vcvt.s32.f32	s15, s15
 3392 0362 304F     		ldr	r7, .L449+48
 3393 0364 17EE902A 		vmov	r2, s15	@ int
 3394 0368 1A80     		strh	r2, [r3]	@ movhi
 3395 036a 0022     		movs	r2, #0
 3396              	.L399:
 3397 036c 17F8013B 		ldrb	r3, [r7], #1	@ zero_extendqisi2
 3398 0370 03EB8213 		add	r3, r3, r2, lsl #6
 3399 0374 0132     		adds	r2, r2, #1
 3400 0376 4E33     		adds	r3, r3, #78
 3401 0378 042A     		cmp	r2, #4
 3402 037a 5CF82330 		ldr	r3, [ip, r3, lsl #2]
 3403 037e 20F8023B 		strh	r3, [r0], #2	@ movhi
 3404 0382 F3D1     		bne	.L399
 3405 0384 DCF80480 		ldr	r8, [ip, #4]
 3406 0388 B8F1040F 		cmp	r8, #4
 3407 038c 18DD     		ble	.L404
 3408 038e BEF1000E 		subs	lr, lr, #0
 3409 0392 254F     		ldr	r7, .L449+52
 3410 0394 2548     		ldr	r0, .L449+56
 3411 0396 18BF     		it	ne
 3412 0398 4FF0010E 		movne	lr, #1
 3413              	.L403:
 3414 039c 17F8013F 		ldrb	r3, [r7, #1]!	@ zero_extendqisi2
 3415 03a0 BEF1000F 		cmp	lr, #0
 3416 03a4 03EB8213 		add	r3, r3, r2, lsl #6
 3417 03a8 02F10102 		add	r2, r2, #1
 3418 03ac 03F14E03 		add	r3, r3, #78
 3419 03b0 5CF82330 		ldr	r3, [ip, r3, lsl #2]
 3420 03b4 08BF     		it	eq
ARM GAS  /tmp/ccONvy4E.s 			page 62


 3421 03b6 0023     		moveq	r3, #0
 3422 03b8 4245     		cmp	r2, r8
 3423 03ba 20F8023F 		strh	r3, [r0, #2]!	@ movhi
 3424 03be EDD1     		bne	.L403
 3425              	.L404:
 3426 03c0 0DB9     		cbnz	r5, .L440
 3427 03c2 A9F80050 		strh	r5, [r9]	@ movhi
 3428              	.L440:
 3429 03c6 1A4F     		ldr	r7, .L449+60
 3430 03c8 30E6     		b	.L405
 3431              	.L421:
 3432 03ca 144B     		ldr	r3, .L449+40
 3433 03cc 1978     		ldrb	r1, [r3]	@ zero_extendqisi2
 3434 03ce 0129     		cmp	r1, #1
 3435 03d0 7FF40EAF 		bne	.L423
 3436 03d4 0B46     		mov	r3, r1
 3437 03d6 0FE7     		b	.L422
 3438              	.L396:
 3439 03d8 0129     		cmp	r1, #1
 3440 03da 7FF47FAF 		bne	.L398
 3441 03de BEF1000F 		cmp	lr, #0
 3442 03e2 3FF47BAF 		beq	.L398
 3443 03e6 0F46     		mov	r7, r1
 3444 03e8 83E7     		b	.L397
 3445              	.L394:
 3446 03ea 124A     		ldr	r2, .L449+64
 3447 03ec 88F80050 		strb	r5, [r8]
 3448 03f0 1570     		strb	r5, [r2]
 3449 03f2 68E7     		b	.L395
 3450              	.L450:
 3451              		.align	2
 3452              	.L449:
 3453 03f4 00000000 		.word	m_new_frame_energy_idx
 3454 03f8 00000000 		.word	m_OLDP
 3455 03fc 00000000 		.word	m_new_frame_pitch_idx
 3456 0400 00000000 		.word	m_OLDE
 3457 0404 00000000 		.word	_intmode
 3458 0408 00000000 		.word	exy
 3459 040c 00000343 		.word	1124270080
 3460 0410 00000000 		.word	m_coeff
 3461 0414 00000000 		.word	logpitch
 3462 0418 00000000 		.word	m_target_k
 3463 041c 00000000 		.word	m_inhibit
 3464 0420 00000000 		.word	m_target_pitch
 3465 0424 00000000 		.word	m_new_frame_k_idx
 3466 0428 03000000 		.word	m_new_frame_k_idx+3
 3467 042c 06000000 		.word	m_target_k+6
 3468 0430 00000000 		.word	m_current_pitch
 3469 0434 00000000 		.word	m_speak_external
 3470 0438 00000000 		.word	m_target_energy
 3471              		.size	process_pitch_tabled5100, .-process_pitch_tabled5100
 3472              		.section	.text.processbend5100,"ax",%progbits
 3473              		.align	1
 3474              		.p2align 2,,3
 3475              		.global	processbend5100
 3476              		.syntax unified
 3477              		.thumb
ARM GAS  /tmp/ccONvy4E.s 			page 63


 3478              		.thumb_func
 3479              		.type	processbend5100, %function
 3480              	processbend5100:
 3481              		@ args = 0, pretend = 0, frame = 24
 3482              		@ frame_needed = 0, uses_anonymous_args = 0
 3483 0000 BC4B     		ldr	r3, .L532
 3484 0002 2DE9F04F 		push	{r4, r5, r6, r7, r8, r9, r10, fp, lr}
 3485 0006 1F78     		ldrb	r7, [r3]	@ zero_extendqisi2
 3486 0008 87B0     		sub	sp, sp, #28
 3487 000a BB4B     		ldr	r3, .L532+4
 3488 000c DFF840A3 		ldr	r10, .L532+92
 3489 0010 DFF84083 		ldr	r8, .L532+96
 3490 0014 1D68     		ldr	r5, [r3]
 3491 0016 9AF80020 		ldrb	r2, [r10]	@ zero_extendqisi2
 3492 001a 98F80060 		ldrb	r6, [r8]	@ zero_extendqisi2
 3493 001e 6C68     		ldr	r4, [r5, #4]
 3494 0020 002F     		cmp	r7, #0
 3495 0022 00F0D380 		beq	.L452
 3496 0026 B54B     		ldr	r3, .L532+8
 3497 0028 1B78     		ldrb	r3, [r3]	@ zero_extendqisi2
 3498 002a A3F10103 		sub	r3, #1
 3499 002e B3FA83F3 		clz	r3, r3
 3500 0032 5B09     		lsrs	r3, r3, #5
 3501 0034 0593     		str	r3, [sp, #20]
 3502 0036 B24B     		ldr	r3, .L532+12
 3503 0038 93F800B0 		ldrb	fp, [r3]	@ zero_extendqisi2
 3504 003c B14B     		ldr	r3, .L532+16
 3505 003e 1B78     		ldrb	r3, [r3]	@ zero_extendqisi2
 3506 0040 002B     		cmp	r3, #0
 3507 0042 40F0D180 		bne	.L477
 3508              	.L530:
 3509 0046 0323     		movs	r3, #3
 3510 0048 4FF4857E 		mov	lr, #266
 3511 004c 13FB0263 		smlabb	r3, r3, r2, r6
 3512 0050 0493     		str	r3, [sp, #16]
 3513 0052 2623     		movs	r3, #38
 3514 0054 0393     		str	r3, [sp, #12]
 3515              	.L478:
 3516 0056 AC4B     		ldr	r3, .L532+20
 3517 0058 AC49     		ldr	r1, .L532+24
 3518 005a 1B78     		ldrb	r3, [r3]	@ zero_extendqisi2
 3519 005c DFF8F892 		ldr	r9, .L532+100
 3520 0060 0E46     		mov	r6, r1
 3521 0062 1C33     		adds	r3, r3, #28
 3522 0064 DFF8E0C2 		ldr	ip, .L532+84
 3523 0068 35F81330 		ldrh	r3, [r5, r3, lsl #1]
 3524 006c 0293     		str	r3, [sp, #8]
 3525 006e A84B     		ldr	r3, .L532+28
 3526 0070 1B78     		ldrb	r3, [r3]	@ zero_extendqisi2
 3527 0072 5C33     		adds	r3, r3, #92
 3528 0074 35F81320 		ldrh	r2, [r5, r3, lsl #1]
 3529 0078 0023     		movs	r3, #0
 3530 007a C9F80020 		str	r2, [r9]
 3531              	.L479:
 3532 007e 1CF8010B 		ldrb	r0, [ip], #1	@ zero_extendqisi2
 3533 0082 00EB8310 		add	r0, r0, r3, lsl #6
 3534 0086 0133     		adds	r3, r3, #1
ARM GAS  /tmp/ccONvy4E.s 			page 64


 3535 0088 4E30     		adds	r0, r0, #78
 3536 008a 042B     		cmp	r3, #4
 3537 008c 55F82000 		ldr	r0, [r5, r0, lsl #2]
 3538 0090 46F8040B 		str	r0, [r6], #4
 3539 0094 F3D1     		bne	.L479
 3540 0096 042C     		cmp	r4, #4
 3541 0098 40F38481 		ble	.L526
 3542 009c CBF1010C 		rsb	ip, fp, #1
 3543 00a0 9C4E     		ldr	r6, .L532+32
 3544 00a2 9D48     		ldr	r0, .L532+36
 3545 00a4 0192     		str	r2, [sp, #4]
 3546              	.L483:
 3547 00a6 16F8012F 		ldrb	r2, [r6, #1]!	@ zero_extendqisi2
 3548 00aa 02EB8312 		add	r2, r2, r3, lsl #6
 3549 00ae 0133     		adds	r3, r3, #1
 3550 00b0 4E32     		adds	r2, r2, #78
 3551 00b2 A342     		cmp	r3, r4
 3552 00b4 55F82220 		ldr	r2, [r5, r2, lsl #2]
 3553 00b8 0CFB02F2 		mul	r2, ip, r2
 3554 00bc 40F8042F 		str	r2, [r0, #4]!
 3555 00c0 F1D1     		bne	.L483
 3556 00c2 964B     		ldr	r3, .L532+40
 3557 00c4 9648     		ldr	r0, .L532+44
 3558 00c6 019A     		ldr	r2, [sp, #4]
 3559 00c8 B3F90030 		ldrsh	r3, [r3]
 3560 00cc B0F90000 		ldrsh	r0, [r0]
 3561 00d0 002F     		cmp	r7, #0
 3562 00d2 40F0CA80 		bne	.L481
 3563 00d6 934A     		ldr	r2, .L532+48
 3564 00d8 C9F80000 		str	r0, [r9]
 3565 00dc 1360     		str	r3, [r2]
 3566              	.L484:
 3567 00de 924B     		ldr	r3, .L532+52
 3568 00e0 03EB4404 		add	r4, r3, r4, lsl #1
 3569              	.L489:
 3570 00e4 33F9022B 		ldrsh	r2, [r3], #2
 3571 00e8 A342     		cmp	r3, r4
 3572 00ea 41F8042B 		str	r2, [r1], #4
 3573 00ee F9D1     		bne	.L489
 3574              	.L476:
 3575 00f0 8E49     		ldr	r1, .L532+56
 3576 00f2 BBF1010F 		cmp	fp, #1
 3577 00f6 0B88     		ldrh	r3, [r1]
 3578 00f8 00F0F480 		beq	.L527
 3579              	.L490:
 3580 00fc 7E4A     		ldr	r2, .L532+4
 3581 00fe 8C4C     		ldr	r4, .L532+60
 3582 0100 1068     		ldr	r0, [r2]
 3583 0102 2288     		ldrh	r2, [r4]
 3584 0104 322A     		cmp	r2, #50
 3585 0106 40F23681 		bls	.L492
 3586 010a 90F99E2B 		ldrsb	r2, [r0, #2974]
 3587              	.L491:
 3588 010e 8948     		ldr	r0, .L532+64
 3589 0110 0280     		strh	r2, [r0]	@ movhi
 3590 0112 1420     		movs	r0, #20
 3591              	.L493:
ARM GAS  /tmp/ccONvy4E.s 			page 65


 3592 0114 DA08     		lsrs	r2, r3, #3
 3593 0116 0138     		subs	r0, r0, #1
 3594 0118 82EA1332 		eor	r2, r2, r3, lsr #12
 3595 011c 82EA0302 		eor	r2, r2, r3
 3596 0120 82EA9302 		eor	r2, r2, r3, lsr #2
 3597 0124 02F00102 		and	r2, r2, #1
 3598 0128 42EA4303 		orr	r3, r2, r3, lsl #1
 3599 012c 9BB2     		uxth	r3, r3
 3600 012e F1D1     		bne	.L493
 3601 0130 0B80     		strh	r3, [r1]	@ movhi
 3602 0132 FFF7FEFF 		bl	lattice_filter
 3603 0136 B0F5804F 		cmp	r0, #16384
 3604 013a 06DB     		blt	.L494
 3605 013c A0F58043 		sub	r3, r0, #16384
 3606 0140 A0F50040 		sub	r0, r0, #32768
 3607 0144 6FF30E03 		bfc	r3, #0, #15
 3608 0148 C01A     		subs	r0, r0, r3
 3609              	.L494:
 3610 014a 10F5804F 		cmn	r0, #16384
 3611 014e 07DA     		bge	.L495
 3612 0150 6FF48043 		mvn	r3, #16384
 3613 0154 1B1A     		subs	r3, r3, r0
 3614 0156 00F50040 		add	r0, r0, #32768
 3615 015a 6FF30E03 		bfc	r3, #0, #15
 3616 015e 1844     		add	r0, r0, r3
 3617              	.L495:
 3618 0160 754B     		ldr	r3, .L532+68
 3619 0162 1B78     		ldrb	r3, [r3]	@ zero_extendqisi2
 3620 0164 002B     		cmp	r3, #0
 3621 0166 78D1     		bne	.L496
 3622 0168 03B2     		sxth	r3, r0
 3623 016a 03F30B03 		ssat	r3, #12, r3
 3624 016e 23F00F03 		bic	r3, r3, #15
 3625 0172 99B2     		uxth	r1, r3
 3626 0174 CA10     		asrs	r2, r1, #3
 3627 0176 C1F38021 		ubfx	r1, r1, #10, #1
 3628 017a 02F0FE02 		and	r2, r2, #254
 3629 017e 0A43     		orrs	r2, r2, r1
 3630 0180 42EA0313 		orr	r3, r2, r3, lsl #4
 3631 0184 18B2     		sxth	r0, r3
 3632              	.L497:
 3633 0186 98F80030 		ldrb	r3, [r8]	@ zero_extendqisi2
 3634 018a 0133     		adds	r3, r3, #1
 3635 018c DBB2     		uxtb	r3, r3
 3636 018e 022B     		cmp	r3, #2
 3637 0190 88F80030 		strb	r3, [r8]
 3638 0194 00F0E680 		beq	.L528
 3639 0198 032B     		cmp	r3, #3
 3640 019a 2288     		ldrh	r2, [r4]
 3641 019c 08D1     		bne	.L505
 3642 019e 9AF80030 		ldrb	r3, [r10]	@ zero_extendqisi2
 3643 01a2 0133     		adds	r3, r3, #1
 3644 01a4 8AF80030 		strb	r3, [r10]
 3645 01a8 564B     		ldr	r3, .L532+16
 3646 01aa 1B78     		ldrb	r3, [r3]	@ zero_extendqisi2
 3647 01ac 88F80030 		strb	r3, [r8]
 3648              	.L505:
ARM GAS  /tmp/ccONvy4E.s 			page 66


 3649 01b0 531C     		adds	r3, r2, #1
 3650 01b2 9BB2     		uxth	r3, r3
 3651 01b4 1946     		mov	r1, r3
 3652              	.L500:
 3653 01b6 D9F80020 		ldr	r2, [r9]
 3654 01ba 8A42     		cmp	r2, r1
 3655 01bc CCBF     		ite	gt
 3656 01be C3F30803 		ubfxgt	r3, r3, #0, #9
 3657 01c2 0023     		movle	r3, #0
 3658 01c4 2380     		strh	r3, [r4]	@ movhi
 3659              	.L522:
 3660 01c6 07B0     		add	sp, sp, #28
 3661              		@ sp needed
 3662 01c8 BDE8F08F 		pop	{r4, r5, r6, r7, r8, r9, r10, fp, pc}
 3663              	.L452:
 3664 01cc BAB9     		cbnz	r2, .L454
 3665 01ce 012E     		cmp	r6, #1
 3666 01d0 40F2D680 		bls	.L529
 3667              	.L455:
 3668 01d4 4A4B     		ldr	r3, .L532+12
 3669 01d6 93F800B0 		ldrb	fp, [r3]	@ zero_extendqisi2
 3670              	.L456:
 3671 01da 0023     		movs	r3, #0
 3672 01dc 0593     		str	r3, [sp, #20]
 3673 01de 494B     		ldr	r3, .L532+16
 3674 01e0 1B78     		ldrb	r3, [r3]	@ zero_extendqisi2
 3675 01e2 002B     		cmp	r3, #0
 3676 01e4 3FF42FAF 		beq	.L530
 3677              	.L477:
 3678 01e8 F61A     		subs	r6, r6, r3
 3679 01ea C3F10303 		rsb	r3, r3, #3
 3680 01ee 4FF0AF0E 		mov	lr, #175
 3681 01f2 02FB0363 		mla	r3, r2, r3, r6
 3682 01f6 0493     		str	r3, [sp, #16]
 3683 01f8 1923     		movs	r3, #25
 3684 01fa 0393     		str	r3, [sp, #12]
 3685 01fc 2BE7     		b	.L478
 3686              	.L454:
 3687 01fe 0C2A     		cmp	r2, #12
 3688 0200 E8D1     		bne	.L455
 3689 0202 012E     		cmp	r6, #1
 3690 0204 E6D1     		bne	.L455
 3691 0206 4D4B     		ldr	r3, .L532+72
 3692 0208 002C     		cmp	r4, #0
 3693 020a 4D4A     		ldr	r2, .L532+76
 3694 020c 0146     		mov	r1, r0
 3695 020e 1B78     		ldrb	r3, [r3]	@ zero_extendqisi2
 3696 0210 DFF848B1 		ldr	fp, .L532+104
 3697 0214 03F00303 		and	r3, r3, #3
 3698 0218 DFF84491 		ldr	r9, .L532+108
 3699 021c D35C     		ldrb	r3, [r2, r3]	@ zero_extendqisi2
 3700 021e 354A     		ldr	r2, .L532
 3701 0220 1370     		strb	r3, [r2]
 3702 0222 394B     		ldr	r3, .L532+20
 3703 0224 9BF80020 		ldrb	r2, [fp]	@ zero_extendqisi2
 3704 0228 1A70     		strb	r2, [r3]
 3705 022a 394B     		ldr	r3, .L532+28
ARM GAS  /tmp/ccONvy4E.s 			page 67


 3706 022c 99F80020 		ldrb	r2, [r9]	@ zero_extendqisi2
 3707 0230 1A70     		strb	r2, [r3]
 3708 0232 0ADD     		ble	.L463
 3709 0234 434C     		ldr	r4, .L532+80
 3710 0236 3A46     		mov	r2, r7
 3711 0238 4348     		ldr	r0, .L532+84
 3712              	.L462:
 3713 023a 14F8013B 		ldrb	r3, [r4], #1	@ zero_extendqisi2
 3714 023e 0132     		adds	r2, r2, #1
 3715 0240 00F8013B 		strb	r3, [r0], #1
 3716 0244 6B68     		ldr	r3, [r5, #4]
 3717 0246 9342     		cmp	r3, r2
 3718 0248 F7DC     		bgt	.L462
 3719              	.L463:
 3720 024a 404C     		ldr	r4, .L532+88
 3721 024c 2078     		ldrb	r0, [r4]	@ zero_extendqisi2
 3722 024e 0028     		cmp	r0, #0
 3723 0250 40F0CE80 		bne	.L531
 3724 0254 0123     		movs	r3, #1
 3725 0256 0B70     		strb	r3, [r1]
 3726 0258 B5E7     		b	.L522
 3727              	.L496:
 3728 025a 20F00F03 		bic	r3, r0, #15
 3729 025e C0F34420 		ubfx	r0, r0, #9, #5
 3730 0262 40EA4300 		orr	r0, r0, r3, lsl #1
 3731 0266 00B2     		sxth	r0, r0
 3732 0268 8DE7     		b	.L497
 3733              	.L481:
 3734 026a 801A     		subs	r0, r0, r2
 3735 026c 029E     		ldr	r6, [sp, #8]
 3736 026e 013F     		subs	r7, r7, #1
 3737 0270 059D     		ldr	r5, [sp, #20]
 3738 0272 A3EB060C 		sub	ip, r3, r6
 3739 0276 0190     		str	r0, [sp, #4]
 3740 0278 07F00707 		and	r7, r7, #7
 3741 027c 85F00105 		eor	r5, r5, #1
 3742 0280 002C     		cmp	r4, #0
 3743 0282 DDE90303 		ldrd	r0, r3, [sp, #12]
 3744 0286 00FB0737 		mla	r7, r0, r7, r3
 3745 028a 0198     		ldr	r0, [sp, #4]
 3746 028c 05FB0CF3 		mul	r3, r5, ip
 3747 0290 05FB00F0 		mul	r0, r5, r0
 3748 0294 07FB03F3 		mul	r3, r7, r3
 3749 0298 07FB00F0 		mul	r0, r7, r0
 3750 029c 93FBFEF3 		sdiv	r3, r3, lr
 3751 02a0 90FBFEF0 		sdiv	r0, r0, lr
 3752 02a4 3344     		add	r3, r3, r6
 3753 02a6 1044     		add	r0, r0, r2
 3754 02a8 1E4A     		ldr	r2, .L532+48
 3755 02aa C9F80000 		str	r0, [r9]
 3756 02ae 1360     		str	r3, [r2]
 3757 02b0 7FF71EAF 		ble	.L476
 3758 02b4 01EB8404 		add	r4, r1, r4, lsl #2
 3759 02b8 1B4A     		ldr	r2, .L532+52
 3760              	.L487:
 3761 02ba 0868     		ldr	r0, [r1]
 3762 02bc 32F9023B 		ldrsh	r3, [r2], #2
ARM GAS  /tmp/ccONvy4E.s 			page 68


 3763 02c0 1B1A     		subs	r3, r3, r0
 3764 02c2 05FB03F3 		mul	r3, r5, r3
 3765 02c6 07FB03F3 		mul	r3, r7, r3
 3766 02ca 93FBFEF3 		sdiv	r3, r3, lr
 3767 02ce 0344     		add	r3, r3, r0
 3768 02d0 41F8043B 		str	r3, [r1], #4
 3769 02d4 A142     		cmp	r1, r4
 3770 02d6 F0D1     		bne	.L487
 3771 02d8 1449     		ldr	r1, .L532+56
 3772 02da BBF1010F 		cmp	fp, #1
 3773 02de 0B88     		ldrh	r3, [r1]
 3774 02e0 7FF40CAF 		bne	.L490
 3775              	.L527:
 3776 02e4 13F0010F 		tst	r3, #1
 3777 02e8 114C     		ldr	r4, .L532+60
 3778 02ea 14BF     		ite	ne
 3779 02ec 6FF03F02 		mvnne	r2, #63
 3780 02f0 4022     		moveq	r2, #64
 3781 02f2 0CE7     		b	.L491
 3782              	.L533:
 3783              		.align	2
 3784              	.L532:
 3785 02f4 00000000 		.word	m_IP
 3786 02f8 00000000 		.word	m_coeff
 3787 02fc 00000000 		.word	m_inhibit
 3788 0300 00000000 		.word	m_OLDP
 3789 0304 00000000 		.word	m_subc_reload
 3790 0308 00000000 		.word	m_old_frame_energy_idx
 3791 030c 00000000 		.word	m_current_k
 3792 0310 00000000 		.word	m_old_frame_pitch_idx
 3793 0314 03000000 		.word	m_old_frame_k_idx+3
 3794 0318 0C000000 		.word	m_current_k+12
 3795 031c 00000000 		.word	m_target_energy
 3796 0320 00000000 		.word	m_target_pitch
 3797 0324 00000000 		.word	m_current_energy
 3798 0328 00000000 		.word	m_target_k
 3799 032c 00000000 		.word	m_RNG
 3800 0330 00000000 		.word	m_pitch_count
 3801 0334 00000000 		.word	m_excitation_data
 3802 0338 00000000 		.word	m_digital_select
 3803 033c 00000000 		.word	m_c_variant_rate
 3804 0340 00000000 		.word	reload_table
 3805 0344 00000000 		.word	m_new_frame_k_idx
 3806 0348 00000000 		.word	m_old_frame_k_idx
 3807 034c 00000000 		.word	m_talk_status
 3808 0350 00000000 		.word	m_PC
 3809 0354 00000000 		.word	m_subcycle
 3810 0358 00000000 		.word	m_current_pitch
 3811 035c 00000000 		.word	m_new_frame_energy_idx
 3812 0360 00000000 		.word	m_new_frame_pitch_idx
 3813              	.L528:
 3814 0364 9AF80030 		ldrb	r3, [r10]	@ zero_extendqisi2
 3815 0368 0C2B     		cmp	r3, #12
 3816 036a 2CD0     		beq	.L499
 3817 036c 2388     		ldrh	r3, [r4]
 3818 036e 0133     		adds	r3, r3, #1
 3819 0370 9BB2     		uxth	r3, r3
ARM GAS  /tmp/ccONvy4E.s 			page 69


 3820 0372 1946     		mov	r1, r3
 3821 0374 1FE7     		b	.L500
 3822              	.L492:
 3823 0376 02F29C52 		addw	r2, r2, #1436
 3824 037a 10F91220 		ldrsb	r2, [r0, r2, lsl #1]
 3825 037e C6E6     		b	.L491
 3826              	.L529:
 3827 0380 514B     		ldr	r3, .L534
 3828 0382 5249     		ldr	r1, .L534+4
 3829 0384 1B78     		ldrb	r3, [r3]	@ zero_extendqisi2
 3830 0386 91F800B0 		ldrb	fp, [r1]	@ zero_extendqisi2
 3831 038a B3FA83F3 		clz	r3, r3
 3832 038e 5049     		ldr	r1, .L534+8
 3833 0390 BBFA8BFB 		clz	fp, fp
 3834 0394 5B09     		lsrs	r3, r3, #5
 3835 0396 4FEA5B1B 		lsr	fp, fp, #5
 3836 039a 0B70     		strb	r3, [r1]
 3837 039c 4D4B     		ldr	r3, .L534+12
 3838 039e 83F800B0 		strb	fp, [r3]
 3839 03a2 1AE7     		b	.L456
 3840              	.L526:
 3841 03a4 4C4B     		ldr	r3, .L534+16
 3842 03a6 4D48     		ldr	r0, .L534+20
 3843 03a8 B3F90030 		ldrsh	r3, [r3]
 3844 03ac B0F90000 		ldrsh	r0, [r0]
 3845 03b0 002F     		cmp	r7, #0
 3846 03b2 7FF45AAF 		bne	.L481
 3847 03b6 4A4A     		ldr	r2, .L534+24
 3848 03b8 002C     		cmp	r4, #0
 3849 03ba C9F80000 		str	r0, [r9]
 3850 03be 1360     		str	r3, [r2]
 3851 03c0 3FF78DAE 		bgt	.L484
 3852 03c4 94E6     		b	.L476
 3853              	.L499:
 3854 03c6 474B     		ldr	r3, .L534+28
 3855 03c8 1A78     		ldrb	r2, [r3]	@ zero_extendqisi2
 3856 03ca 072A     		cmp	r2, #7
 3857 03cc 6AD0     		beq	.L501
 3858              	.L503:
 3859 03ce 2388     		ldrh	r3, [r4]
 3860 03d0 0133     		adds	r3, r3, #1
 3861 03d2 9BB2     		uxth	r3, r3
 3862 03d4 1946     		mov	r1, r3
 3863              	.L502:
 3864 03d6 0132     		adds	r2, r2, #1
 3865 03d8 424D     		ldr	r5, .L534+28
 3866 03da 02F00702 		and	r2, r2, #7
 3867 03de 2A70     		strb	r2, [r5]
 3868 03e0 414A     		ldr	r2, .L534+32
 3869 03e2 1278     		ldrb	r2, [r2]	@ zero_extendqisi2
 3870 03e4 88F80020 		strb	r2, [r8]
 3871 03e8 0022     		movs	r2, #0
 3872 03ea 8AF80020 		strb	r2, [r10]
 3873 03ee E2E6     		b	.L500
 3874              	.L531:
 3875 03f0 FFF7FEFF 		bl	parse_frame_bend_5200
 3876 03f4 9BF80030 		ldrb	r3, [fp]	@ zero_extendqisi2
ARM GAS  /tmp/ccONvy4E.s 			page 70


 3877 03f8 0F2B     		cmp	r3, #15
 3878 03fa 60D0     		beq	.L465
 3879 03fc 2778     		ldrb	r7, [r4]	@ zero_extendqisi2
 3880              	.L466:
 3881 03fe 354A     		ldr	r2, .L534+12
 3882 0400 99F80050 		ldrb	r5, [r9]	@ zero_extendqisi2
 3883 0404 92F800B0 		ldrb	fp, [r2]	@ zero_extendqisi2
 3884 0408 BBF1000F 		cmp	fp, #0
 3885 040c 50D1     		bne	.L467
 3886 040e 55B1     		cbz	r5, .L468
 3887              	.L469:
 3888 0410 2F4A     		ldr	r2, .L534+8
 3889 0412 002B     		cmp	r3, #0
 3890 0414 1678     		ldrb	r6, [r2]	@ zero_extendqisi2
 3891 0416 A6F10106 		sub	r6, #1
 3892 041a B6FA86F6 		clz	r6, r6
 3893 041e 4FEA5616 		lsr	r6, r6, #5
 3894 0422 08BF     		it	eq
 3895 0424 0026     		moveq	r6, #0
 3896              	.L468:
 3897 0426 314A     		ldr	r2, .L534+36
 3898 0428 1C33     		adds	r3, r3, #28
 3899 042a DFF8ACC0 		ldr	ip, .L534+16
 3900 042e 1468     		ldr	r4, [r2]
 3901 0430 05F15C02 		add	r2, r5, #92
 3902 0434 2E49     		ldr	r1, .L534+40
 3903 0436 34F81330 		ldrh	r3, [r4, r3, lsl #1]
 3904 043a 34F81220 		ldrh	r2, [r4, r2, lsl #1]
 3905 043e ACF80030 		strh	r3, [ip]	@ movhi
 3906 0442 264B     		ldr	r3, .L534+20
 3907 0444 0E70     		strb	r6, [r1]
 3908 0446 1A80     		strh	r2, [r3]	@ movhi
 3909 0448 0023     		movs	r3, #0
 3910 044a 2A48     		ldr	r0, .L534+44
 3911 044c 2A49     		ldr	r1, .L534+48
 3912              	.L470:
 3913 044e 10F8012B 		ldrb	r2, [r0], #1	@ zero_extendqisi2
 3914 0452 02EB8312 		add	r2, r2, r3, lsl #6
 3915 0456 0133     		adds	r3, r3, #1
 3916 0458 4E32     		adds	r2, r2, #78
 3917 045a 042B     		cmp	r3, #4
 3918 045c 54F82220 		ldr	r2, [r4, r2, lsl #2]
 3919 0460 21F8022B 		strh	r2, [r1], #2	@ movhi
 3920 0464 F3D1     		bne	.L470
 3921 0466 6668     		ldr	r6, [r4, #4]
 3922 0468 042E     		cmp	r6, #4
 3923 046a 15DD     		ble	.L475
 3924 046c 003D     		subs	r5, r5, #0
 3925 046e 2348     		ldr	r0, .L534+52
 3926 0470 2349     		ldr	r1, .L534+56
 3927 0472 18BF     		it	ne
 3928 0474 0125     		movne	r5, #1
 3929              	.L474:
 3930 0476 10F8012F 		ldrb	r2, [r0, #1]!	@ zero_extendqisi2
 3931 047a 002D     		cmp	r5, #0
 3932 047c 02EB8312 		add	r2, r2, r3, lsl #6
 3933 0480 03F10103 		add	r3, r3, #1
ARM GAS  /tmp/ccONvy4E.s 			page 71


 3934 0484 02F14E02 		add	r2, r2, #78
 3935 0488 54F82220 		ldr	r2, [r4, r2, lsl #2]
 3936 048c 08BF     		it	eq
 3937 048e 0022     		moveq	r2, #0
 3938 0490 9E42     		cmp	r6, r3
 3939 0492 21F8022F 		strh	r2, [r1, #2]!	@ movhi
 3940 0496 EED1     		bne	.L474
 3941              	.L475:
 3942 0498 0FB9     		cbnz	r7, .L525
 3943 049a ACF80070 		strh	r7, [ip]	@ movhi
 3944              	.L525:
 3945 049e DFF86890 		ldr	r9, .L534+64
 3946 04a2 25E6     		b	.L476
 3947              	.L501:
 3948 04a4 124B     		ldr	r3, .L534+40
 3949 04a6 1978     		ldrb	r1, [r3]	@ zero_extendqisi2
 3950 04a8 0129     		cmp	r1, #1
 3951 04aa 90D1     		bne	.L503
 3952 04ac 0B46     		mov	r3, r1
 3953 04ae 92E7     		b	.L502
 3954              	.L467:
 3955 04b0 BBF1010F 		cmp	fp, #1
 3956 04b4 ACD1     		bne	.L469
 3957 04b6 002D     		cmp	r5, #0
 3958 04b8 AAD0     		beq	.L469
 3959 04ba 5E46     		mov	r6, fp
 3960 04bc B3E7     		b	.L468
 3961              	.L465:
 3962 04be 0022     		movs	r2, #0
 3963 04c0 1049     		ldr	r1, .L534+60
 3964 04c2 2270     		strb	r2, [r4]
 3965 04c4 0A70     		strb	r2, [r1]
 3966 04c6 9AE7     		b	.L466
 3967              	.L535:
 3968              		.align	2
 3969              	.L534:
 3970 04c8 00000000 		.word	m_new_frame_energy_idx
 3971 04cc 00000000 		.word	m_new_frame_pitch_idx
 3972 04d0 00000000 		.word	m_OLDE
 3973 04d4 00000000 		.word	m_OLDP
 3974 04d8 00000000 		.word	m_target_energy
 3975 04dc 00000000 		.word	m_target_pitch
 3976 04e0 00000000 		.word	m_current_energy
 3977 04e4 00000000 		.word	m_IP
 3978 04e8 00000000 		.word	m_subc_reload
 3979 04ec 00000000 		.word	m_coeff
 3980 04f0 00000000 		.word	m_inhibit
 3981 04f4 00000000 		.word	m_new_frame_k_idx
 3982 04f8 00000000 		.word	m_target_k
 3983 04fc 03000000 		.word	m_new_frame_k_idx+3
 3984 0500 06000000 		.word	m_target_k+6
 3985 0504 00000000 		.word	m_speak_external
 3986 0508 00000000 		.word	m_current_pitch
 3987              		.size	processbend5100, .-processbend5100
 3988              		.section	.text.process5100raw,"ax",%progbits
 3989              		.align	1
 3990              		.p2align 2,,3
ARM GAS  /tmp/ccONvy4E.s 			page 72


 3991              		.global	process5100raw
 3992              		.syntax unified
 3993              		.thumb
 3994              		.thumb_func
 3995              		.type	process5100raw, %function
 3996              	process5100raw:
 3997              		@ args = 0, pretend = 0, frame = 16
 3998              		@ frame_needed = 0, uses_anonymous_args = 0
 3999 0000 2DE9F04F 		push	{r4, r5, r6, r7, r8, r9, r10, fp, lr}
 4000 0004 BB4B     		ldr	r3, .L595
 4001 0006 85B0     		sub	sp, sp, #20
 4002 0008 BB4D     		ldr	r5, .L595+4
 4003 000a DFF844A3 		ldr	r10, .L595+92
 4004 000e DFF84483 		ldr	r8, .L595+96
 4005 0012 2C68     		ldr	r4, [r5]
 4006 0014 1F78     		ldrb	r7, [r3]	@ zero_extendqisi2
 4007 0016 9AF80010 		ldrb	r1, [r10]	@ zero_extendqisi2
 4008 001a 98F80020 		ldrb	r2, [r8]	@ zero_extendqisi2
 4009 001e 6068     		ldr	r0, [r4, #4]
 4010 0020 17B9     		cbnz	r7, .L537
 4011 0022 0C29     		cmp	r1, #12
 4012 0024 00F0FD80 		beq	.L590
 4013              	.L537:
 4014 0028 B44B     		ldr	r3, .L595+8
 4015 002a 1B78     		ldrb	r3, [r3]	@ zero_extendqisi2
 4016 002c 002B     		cmp	r3, #0
 4017 002e 40F0A880 		bne	.L591
 4018 0032 0323     		movs	r3, #3
 4019 0034 4FF4857E 		mov	lr, #266
 4020 0038 13FB0123 		smlabb	r3, r3, r1, r2
 4021 003c 0393     		str	r3, [sp, #12]
 4022 003e 2623     		movs	r3, #38
 4023 0040 0293     		str	r3, [sp, #8]
 4024              	.L548:
 4025 0042 AF4B     		ldr	r3, .L595+12
 4026 0044 AF49     		ldr	r1, .L595+16
 4027 0046 1B78     		ldrb	r3, [r3]	@ zero_extendqisi2
 4028 0048 DFF80C93 		ldr	r9, .L595+100
 4029 004c 0D46     		mov	r5, r1
 4030 004e 1C33     		adds	r3, r3, #28
 4031 0050 AD4E     		ldr	r6, .L595+20
 4032 0052 34F81330 		ldrh	r3, [r4, r3, lsl #1]
 4033 0056 0193     		str	r3, [sp, #4]
 4034 0058 AC4B     		ldr	r3, .L595+24
 4035 005a 1B78     		ldrb	r3, [r3]	@ zero_extendqisi2
 4036 005c 5C33     		adds	r3, r3, #92
 4037 005e 34F813B0 		ldrh	fp, [r4, r3, lsl #1]
 4038 0062 AB4B     		ldr	r3, .L595+28
 4039 0064 C9F800B0 		str	fp, [r9]
 4040 0068 93F800C0 		ldrb	ip, [r3]	@ zero_extendqisi2
 4041 006c 0023     		movs	r3, #0
 4042              	.L549:
 4043 006e 16F8012B 		ldrb	r2, [r6], #1	@ zero_extendqisi2
 4044 0072 02EB8312 		add	r2, r2, r3, lsl #6
 4045 0076 0133     		adds	r3, r3, #1
 4046 0078 4E32     		adds	r2, r2, #78
 4047 007a 042B     		cmp	r3, #4
ARM GAS  /tmp/ccONvy4E.s 			page 73


 4048 007c 54F82220 		ldr	r2, [r4, r2, lsl #2]
 4049 0080 45F8042B 		str	r2, [r5], #4
 4050 0084 F3D1     		bne	.L549
 4051 0086 0428     		cmp	r0, #4
 4052 0088 40F32381 		ble	.L592
 4053 008c CCF1010C 		rsb	ip, ip, #1
 4054 0090 A04E     		ldr	r6, .L595+32
 4055 0092 A14D     		ldr	r5, .L595+36
 4056              	.L553:
 4057 0094 16F8012F 		ldrb	r2, [r6, #1]!	@ zero_extendqisi2
 4058 0098 02EB8312 		add	r2, r2, r3, lsl #6
 4059 009c 0133     		adds	r3, r3, #1
 4060 009e 4E32     		adds	r2, r2, #78
 4061 00a0 8342     		cmp	r3, r0
 4062 00a2 54F82220 		ldr	r2, [r4, r2, lsl #2]
 4063 00a6 0CFB02F2 		mul	r2, ip, r2
 4064 00aa 45F8042F 		str	r2, [r5, #4]!
 4065 00ae F1D1     		bne	.L553
 4066 00b0 9A4B     		ldr	r3, .L595+40
 4067 00b2 9B4A     		ldr	r2, .L595+44
 4068 00b4 B3F90030 		ldrsh	r3, [r3]
 4069 00b8 B2F90020 		ldrsh	r2, [r2]
 4070 00bc 002F     		cmp	r7, #0
 4071 00be 78D1     		bne	.L551
 4072 00c0 C9F80020 		str	r2, [r9]
 4073 00c4 974A     		ldr	r2, .L595+48
 4074 00c6 1360     		str	r3, [r2]
 4075              	.L554:
 4076 00c8 974B     		ldr	r3, .L595+52
 4077 00ca 03EB4000 		add	r0, r3, r0, lsl #1
 4078              	.L560:
 4079 00ce 33F9022B 		ldrsh	r2, [r3], #2
 4080 00d2 8342     		cmp	r3, r0
 4081 00d4 41F8042B 		str	r2, [r1], #4
 4082 00d8 F9D1     		bne	.L560
 4083              	.L558:
 4084 00da 944D     		ldr	r5, .L595+56
 4085 00dc 2B88     		ldrh	r3, [r5]
 4086 00de 322B     		cmp	r3, #50
 4087 00e0 62D9     		bls	.L561
 4088 00e2 94F99E2B 		ldrsb	r2, [r4, #2974]
 4089              	.L562:
 4090 00e6 924B     		ldr	r3, .L595+60
 4091 00e8 1A80     		strh	r2, [r3]	@ movhi
 4092 00ea FFF7FEFF 		bl	lattice_filter
 4093 00ee B0F5804F 		cmp	r0, #16384
 4094 00f2 06DB     		blt	.L563
 4095 00f4 A0F58043 		sub	r3, r0, #16384
 4096 00f8 A0F50040 		sub	r0, r0, #32768
 4097 00fc 6FF30E03 		bfc	r3, #0, #15
 4098 0100 C01A     		subs	r0, r0, r3
 4099              	.L563:
 4100 0102 10F5804F 		cmn	r0, #16384
 4101 0106 07DA     		bge	.L564
 4102 0108 6FF48043 		mvn	r3, #16384
 4103 010c 1B1A     		subs	r3, r3, r0
 4104 010e 00F50040 		add	r0, r0, #32768
ARM GAS  /tmp/ccONvy4E.s 			page 74


 4105 0112 6FF30E03 		bfc	r3, #0, #15
 4106 0116 1844     		add	r0, r0, r3
 4107              	.L564:
 4108 0118 864B     		ldr	r3, .L595+64
 4109 011a 1B78     		ldrb	r3, [r3]	@ zero_extendqisi2
 4110 011c 002B     		cmp	r3, #0
 4111 011e 3BD1     		bne	.L565
 4112 0120 03B2     		sxth	r3, r0
 4113 0122 03F30B03 		ssat	r3, #12, r3
 4114 0126 23F00F03 		bic	r3, r3, #15
 4115 012a 99B2     		uxth	r1, r3
 4116 012c CA10     		asrs	r2, r1, #3
 4117 012e C1F38021 		ubfx	r1, r1, #10, #1
 4118 0132 02F0FE02 		and	r2, r2, #254
 4119 0136 0A43     		orrs	r2, r2, r1
 4120 0138 42EA0313 		orr	r3, r2, r3, lsl #4
 4121 013c 18B2     		sxth	r0, r3
 4122              	.L566:
 4123 013e 98F80030 		ldrb	r3, [r8]	@ zero_extendqisi2
 4124 0142 0133     		adds	r3, r3, #1
 4125 0144 DBB2     		uxtb	r3, r3
 4126 0146 022B     		cmp	r3, #2
 4127 0148 88F80030 		strb	r3, [r8]
 4128 014c 5FD0     		beq	.L593
 4129 014e 032B     		cmp	r3, #3
 4130 0150 2A88     		ldrh	r2, [r5]
 4131 0152 08D1     		bne	.L574
 4132 0154 9AF80030 		ldrb	r3, [r10]	@ zero_extendqisi2
 4133 0158 0133     		adds	r3, r3, #1
 4134 015a 8AF80030 		strb	r3, [r10]
 4135 015e 674B     		ldr	r3, .L595+8
 4136 0160 1B78     		ldrb	r3, [r3]	@ zero_extendqisi2
 4137 0162 88F80030 		strb	r3, [r8]
 4138              	.L574:
 4139 0166 531C     		adds	r3, r2, #1
 4140 0168 9BB2     		uxth	r3, r3
 4141 016a 1946     		mov	r1, r3
 4142              	.L569:
 4143 016c D9F80020 		ldr	r2, [r9]
 4144 0170 8A42     		cmp	r2, r1
 4145 0172 CCBF     		ite	gt
 4146 0174 C3F30803 		ubfxgt	r3, r3, #0, #9
 4147 0178 0023     		movle	r3, #0
 4148 017a 2B80     		strh	r3, [r5]	@ movhi
 4149 017c 05B0     		add	sp, sp, #20
 4150              		@ sp needed
 4151 017e BDE8F08F 		pop	{r4, r5, r6, r7, r8, r9, r10, fp, pc}
 4152              	.L591:
 4153 0182 D21A     		subs	r2, r2, r3
 4154 0184 C3F10303 		rsb	r3, r3, #3
 4155 0188 4FF0AF0E 		mov	lr, #175
 4156 018c 01FB0323 		mla	r3, r1, r3, r2
 4157 0190 0393     		str	r3, [sp, #12]
 4158 0192 1923     		movs	r3, #25
 4159 0194 0293     		str	r3, [sp, #8]
 4160 0196 54E7     		b	.L548
 4161              	.L565:
ARM GAS  /tmp/ccONvy4E.s 			page 75


 4162 0198 20F00F03 		bic	r3, r0, #15
 4163 019c C0F34420 		ubfx	r0, r0, #9, #5
 4164 01a0 40EA4300 		orr	r0, r0, r3, lsl #1
 4165 01a4 00B2     		sxth	r0, r0
 4166 01a6 CAE7     		b	.L566
 4167              	.L561:
 4168 01a8 03F29C53 		addw	r3, r3, #1436
 4169 01ac 14F91320 		ldrsb	r2, [r4, r3, lsl #1]
 4170 01b0 99E7     		b	.L562
 4171              	.L551:
 4172 01b2 019E     		ldr	r6, [sp, #4]
 4173 01b4 013F     		subs	r7, r7, #1
 4174 01b6 A2EB0B02 		sub	r2, r2, fp
 4175 01ba 0028     		cmp	r0, #0
 4176 01bc A3EB060C 		sub	ip, r3, r6
 4177 01c0 07F00707 		and	r7, r7, #7
 4178 01c4 DDE90235 		ldrd	r3, r5, [sp, #8]
 4179 01c8 03FB0757 		mla	r7, r3, r7, r5
 4180 01cc 07FB02F2 		mul	r2, r7, r2
 4181 01d0 07FB0CF5 		mul	r5, r7, ip
 4182 01d4 92FBFEF3 		sdiv	r3, r2, lr
 4183 01d8 95FBFEF5 		sdiv	r5, r5, lr
 4184 01dc 5B44     		add	r3, r3, fp
 4185 01de 3544     		add	r5, r5, r6
 4186 01e0 C9F80030 		str	r3, [r9]
 4187 01e4 4F4B     		ldr	r3, .L595+48
 4188 01e6 1D60     		str	r5, [r3]
 4189 01e8 7FF777AF 		ble	.L558
 4190 01ec 01EB8000 		add	r0, r1, r0, lsl #2
 4191 01f0 4D4A     		ldr	r2, .L595+52
 4192              	.L557:
 4193 01f2 0D68     		ldr	r5, [r1]
 4194 01f4 32F9023B 		ldrsh	r3, [r2], #2
 4195 01f8 5B1B     		subs	r3, r3, r5
 4196 01fa 07FB03F3 		mul	r3, r7, r3
 4197 01fe 93FBFEF3 		sdiv	r3, r3, lr
 4198 0202 2B44     		add	r3, r3, r5
 4199 0204 41F8043B 		str	r3, [r1], #4
 4200 0208 8842     		cmp	r0, r1
 4201 020a F2D1     		bne	.L557
 4202 020c 65E7     		b	.L558
 4203              	.L593:
 4204 020e 9AF80030 		ldrb	r3, [r10]	@ zero_extendqisi2
 4205 0212 0C2B     		cmp	r3, #12
 4206 0214 00F0A480 		beq	.L568
 4207 0218 2B88     		ldrh	r3, [r5]
 4208 021a 0133     		adds	r3, r3, #1
 4209 021c 9BB2     		uxth	r3, r3
 4210 021e 1946     		mov	r1, r3
 4211 0220 A4E7     		b	.L569
 4212              	.L590:
 4213 0222 012A     		cmp	r2, #1
 4214 0224 7FF400AF 		bne	.L537
 4215 0228 434B     		ldr	r3, .L595+68
 4216 022a 0028     		cmp	r0, #0
 4217 022c 434A     		ldr	r2, .L595+72
 4218 022e 1B78     		ldrb	r3, [r3]	@ zero_extendqisi2
ARM GAS  /tmp/ccONvy4E.s 			page 76


 4219 0230 DFF82891 		ldr	r9, .L595+104
 4220 0234 03F00303 		and	r3, r3, #3
 4221 0238 414E     		ldr	r6, .L595+76
 4222 023a D35C     		ldrb	r3, [r2, r3]	@ zero_extendqisi2
 4223 023c 2D4A     		ldr	r2, .L595
 4224 023e 1370     		strb	r3, [r2]
 4225 0240 2F4B     		ldr	r3, .L595+12
 4226 0242 99F80020 		ldrb	r2, [r9]	@ zero_extendqisi2
 4227 0246 1A70     		strb	r2, [r3]
 4228 0248 304B     		ldr	r3, .L595+24
 4229 024a 3278     		ldrb	r2, [r6]	@ zero_extendqisi2
 4230 024c 1A70     		strb	r2, [r3]
 4231 024e 09DD     		ble	.L542
 4232 0250 3C49     		ldr	r1, .L595+80
 4233 0252 2D4B     		ldr	r3, .L595+20
 4234              	.L541:
 4235 0254 11F8012B 		ldrb	r2, [r1], #1	@ zero_extendqisi2
 4236 0258 0137     		adds	r7, r7, #1
 4237 025a 03F8012B 		strb	r2, [r3], #1
 4238 025e 6268     		ldr	r2, [r4, #4]
 4239 0260 BA42     		cmp	r2, r7
 4240 0262 F7DC     		bgt	.L541
 4241              	.L542:
 4242 0264 E368     		ldr	r3, [r4, #12]
 4243 0266 052B     		cmp	r3, #5
 4244 0268 00F08F80 		beq	.L594
 4245 026c FFF7FEFF 		bl	parse_frame_raw_5200
 4246              	.L543:
 4247 0270 99F80020 		ldrb	r2, [r9]	@ zero_extendqisi2
 4248 0274 3378     		ldrb	r3, [r6]	@ zero_extendqisi2
 4249 0276 2C68     		ldr	r4, [r5]
 4250 0278 1C32     		adds	r2, r2, #28
 4251 027a 5C33     		adds	r3, r3, #92
 4252 027c 3148     		ldr	r0, .L595+80
 4253 027e 34F81210 		ldrh	r1, [r4, r2, lsl #1]
 4254 0282 34F81320 		ldrh	r2, [r4, r3, lsl #1]
 4255 0286 254B     		ldr	r3, .L595+40
 4256 0288 1980     		strh	r1, [r3]	@ movhi
 4257 028a 254B     		ldr	r3, .L595+44
 4258 028c 2649     		ldr	r1, .L595+52
 4259 028e 1A80     		strh	r2, [r3]	@ movhi
 4260 0290 0022     		movs	r2, #0
 4261              	.L544:
 4262 0292 10F8013B 		ldrb	r3, [r0], #1	@ zero_extendqisi2
 4263 0296 03EB8213 		add	r3, r3, r2, lsl #6
 4264 029a 0132     		adds	r2, r2, #1
 4265 029c 4E33     		adds	r3, r3, #78
 4266 029e 042A     		cmp	r2, #4
 4267 02a0 54F82330 		ldr	r3, [r4, r3, lsl #2]
 4268 02a4 21F8023B 		strh	r3, [r1], #2	@ movhi
 4269 02a8 F3D1     		bne	.L544
 4270 02aa 6568     		ldr	r5, [r4, #4]
 4271 02ac 042D     		cmp	r5, #4
 4272 02ae 0DDD     		ble	.L589
 4273 02b0 2548     		ldr	r0, .L595+84
 4274 02b2 2649     		ldr	r1, .L595+88
 4275              	.L546:
ARM GAS  /tmp/ccONvy4E.s 			page 77


 4276 02b4 10F8013F 		ldrb	r3, [r0, #1]!	@ zero_extendqisi2
 4277 02b8 03EB8213 		add	r3, r3, r2, lsl #6
 4278 02bc 0132     		adds	r2, r2, #1
 4279 02be 4E33     		adds	r3, r3, #78
 4280 02c0 9542     		cmp	r5, r2
 4281 02c2 54F82330 		ldr	r3, [r4, r3, lsl #2]
 4282 02c6 21F8023F 		strh	r3, [r1, #2]!	@ movhi
 4283 02ca F3D1     		bne	.L546
 4284              	.L589:
 4285 02cc DFF88890 		ldr	r9, .L595+100
 4286 02d0 03E7     		b	.L558
 4287              	.L592:
 4288 02d2 124B     		ldr	r3, .L595+40
 4289 02d4 124A     		ldr	r2, .L595+44
 4290 02d6 B3F90030 		ldrsh	r3, [r3]
 4291 02da B2F90020 		ldrsh	r2, [r2]
 4292 02de 002F     		cmp	r7, #0
 4293 02e0 7FF467AF 		bne	.L551
 4294 02e4 C9F80020 		str	r2, [r9]
 4295 02e8 0028     		cmp	r0, #0
 4296 02ea 0E4A     		ldr	r2, .L595+48
 4297 02ec 1360     		str	r3, [r2]
 4298 02ee 3FF7EBAE 		bgt	.L554
 4299 02f2 F2E6     		b	.L558
 4300              	.L596:
 4301              		.align	2
 4302              	.L595:
 4303 02f4 00000000 		.word	m_IP
 4304 02f8 00000000 		.word	m_coeff
 4305 02fc 00000000 		.word	m_subc_reload
 4306 0300 00000000 		.word	m_old_frame_energy_idx
 4307 0304 00000000 		.word	m_current_k
 4308 0308 00000000 		.word	m_old_frame_k_idx
 4309 030c 00000000 		.word	m_old_frame_pitch_idx
 4310 0310 00000000 		.word	m_OLDP
 4311 0314 03000000 		.word	m_old_frame_k_idx+3
 4312 0318 0C000000 		.word	m_current_k+12
 4313 031c 00000000 		.word	m_target_energy
 4314 0320 00000000 		.word	m_target_pitch
 4315 0324 00000000 		.word	m_current_energy
 4316 0328 00000000 		.word	m_target_k
 4317 032c 00000000 		.word	m_pitch_count
 4318 0330 00000000 		.word	m_excitation_data
 4319 0334 00000000 		.word	m_digital_select
 4320 0338 00000000 		.word	m_c_variant_rate
 4321 033c 00000000 		.word	reload_table
 4322 0340 00000000 		.word	m_new_frame_pitch_idx
 4323 0344 00000000 		.word	m_new_frame_k_idx
 4324 0348 03000000 		.word	m_new_frame_k_idx+3
 4325 034c 06000000 		.word	m_target_k+6
 4326 0350 00000000 		.word	m_PC
 4327 0354 00000000 		.word	m_subcycle
 4328 0358 00000000 		.word	m_current_pitch
 4329 035c 00000000 		.word	m_new_frame_energy_idx
 4330              	.L568:
 4331 0360 0E4B     		ldr	r3, .L597
 4332 0362 1A78     		ldrb	r2, [r3]	@ zero_extendqisi2
ARM GAS  /tmp/ccONvy4E.s 			page 78


 4333 0364 072A     		cmp	r2, #7
 4334 0366 13D0     		beq	.L570
 4335              	.L572:
 4336 0368 2B88     		ldrh	r3, [r5]
 4337 036a 0133     		adds	r3, r3, #1
 4338 036c 9BB2     		uxth	r3, r3
 4339 036e 1946     		mov	r1, r3
 4340              	.L571:
 4341 0370 0132     		adds	r2, r2, #1
 4342 0372 0A4C     		ldr	r4, .L597
 4343 0374 02F00702 		and	r2, r2, #7
 4344 0378 2270     		strb	r2, [r4]
 4345 037a 094A     		ldr	r2, .L597+4
 4346 037c 1278     		ldrb	r2, [r2]	@ zero_extendqisi2
 4347 037e 88F80020 		strb	r2, [r8]
 4348 0382 0022     		movs	r2, #0
 4349 0384 8AF80020 		strb	r2, [r10]
 4350 0388 F0E6     		b	.L569
 4351              	.L594:
 4352 038a FFF7FEFF 		bl	parse_frame_raw_5100
 4353 038e 6FE7     		b	.L543
 4354              	.L570:
 4355 0390 044B     		ldr	r3, .L597+8
 4356 0392 1978     		ldrb	r1, [r3]	@ zero_extendqisi2
 4357 0394 0129     		cmp	r1, #1
 4358 0396 E7D1     		bne	.L572
 4359 0398 0B46     		mov	r3, r1
 4360 039a E9E7     		b	.L571
 4361              	.L598:
 4362              		.align	2
 4363              	.L597:
 4364 039c 00000000 		.word	m_IP
 4365 03a0 00000000 		.word	m_subc_reload
 4366 03a4 00000000 		.word	m_inhibit
 4367              		.size	process5100raw, .-process5100raw
 4368              		.section	.text.process5100raw_no_inter,"ax",%progbits
 4369              		.align	1
 4370              		.p2align 2,,3
 4371              		.global	process5100raw_no_inter
 4372              		.syntax unified
 4373              		.thumb
 4374              		.thumb_func
 4375              		.type	process5100raw_no_inter, %function
 4376              	process5100raw_no_inter:
 4377              		@ args = 0, pretend = 0, frame = 0
 4378              		@ frame_needed = 0, uses_anonymous_args = 0
 4379 0000 70B5     		push	{r4, r5, r6, lr}
 4380 0002 434C     		ldr	r4, .L621
 4381 0004 2368     		ldr	r3, [r4]
 4382 0006 DB68     		ldr	r3, [r3, #12]
 4383 0008 052B     		cmp	r3, #5
 4384 000a 7DD0     		beq	.L619
 4385 000c FFF7FEFF 		bl	parse_frame_raw_5200
 4386              	.L601:
 4387 0010 404A     		ldr	r2, .L621+4
 4388 0012 414B     		ldr	r3, .L621+8
 4389 0014 1278     		ldrb	r2, [r2]	@ zero_extendqisi2
ARM GAS  /tmp/ccONvy4E.s 			page 79


 4390 0016 1B78     		ldrb	r3, [r3]	@ zero_extendqisi2
 4391 0018 2168     		ldr	r1, [r4]
 4392 001a 1C32     		adds	r2, r2, #28
 4393 001c 5C33     		adds	r3, r3, #92
 4394 001e 3F48     		ldr	r0, .L621+12
 4395 0020 3F4C     		ldr	r4, .L621+16
 4396 0022 31F81330 		ldrh	r3, [r1, r3, lsl #1]
 4397 0026 31F81220 		ldrh	r2, [r1, r2, lsl #1]
 4398 002a 2360     		str	r3, [r4]
 4399 002c 0023     		movs	r3, #0
 4400 002e 0260     		str	r2, [r0]
 4401 0030 3C4D     		ldr	r5, .L621+20
 4402 0032 3D48     		ldr	r0, .L621+24
 4403              	.L602:
 4404 0034 15F8012B 		ldrb	r2, [r5], #1	@ zero_extendqisi2
 4405 0038 02EB8312 		add	r2, r2, r3, lsl #6
 4406 003c 0133     		adds	r3, r3, #1
 4407 003e 4E32     		adds	r2, r2, #78
 4408 0040 042B     		cmp	r3, #4
 4409 0042 51F82220 		ldr	r2, [r1, r2, lsl #2]
 4410 0046 40F8042B 		str	r2, [r0], #4
 4411 004a F3D1     		bne	.L602
 4412 004c 4E68     		ldr	r6, [r1, #4]
 4413 004e 042E     		cmp	r6, #4
 4414 0050 0DDD     		ble	.L607
 4415 0052 364D     		ldr	r5, .L621+28
 4416 0054 3648     		ldr	r0, .L621+32
 4417              	.L606:
 4418 0056 15F8012F 		ldrb	r2, [r5, #1]!	@ zero_extendqisi2
 4419 005a 02EB8312 		add	r2, r2, r3, lsl #6
 4420 005e 0133     		adds	r3, r3, #1
 4421 0060 4E32     		adds	r2, r2, #78
 4422 0062 B342     		cmp	r3, r6
 4423 0064 51F82220 		ldr	r2, [r1, r2, lsl #2]
 4424 0068 40F8042F 		str	r2, [r0, #4]!
 4425 006c F3D1     		bne	.L606
 4426              	.L607:
 4427 006e 314D     		ldr	r5, .L621+36
 4428 0070 2B88     		ldrh	r3, [r5]
 4429 0072 322B     		cmp	r3, #50
 4430 0074 3BD9     		bls	.L620
 4431 0076 91F99E2B 		ldrsb	r2, [r1, #2974]
 4432              	.L608:
 4433 007a 2F4B     		ldr	r3, .L621+40
 4434 007c 1A80     		strh	r2, [r3]	@ movhi
 4435 007e FFF7FEFF 		bl	lattice_filter
 4436 0082 B0F5804F 		cmp	r0, #16384
 4437 0086 06DB     		blt	.L609
 4438 0088 A0F58043 		sub	r3, r0, #16384
 4439 008c A0F50040 		sub	r0, r0, #32768
 4440 0090 6FF30E03 		bfc	r3, #0, #15
 4441 0094 C01A     		subs	r0, r0, r3
 4442              	.L609:
 4443 0096 10F5804F 		cmn	r0, #16384
 4444 009a 07DA     		bge	.L610
 4445 009c 6FF48043 		mvn	r3, #16384
 4446 00a0 00F50042 		add	r2, r0, #32768
ARM GAS  /tmp/ccONvy4E.s 			page 80


 4447 00a4 1B1A     		subs	r3, r3, r0
 4448 00a6 6FF30E03 		bfc	r3, #0, #15
 4449 00aa D018     		adds	r0, r2, r3
 4450              	.L610:
 4451 00ac 234B     		ldr	r3, .L621+44
 4452 00ae 1B78     		ldrb	r3, [r3]	@ zero_extendqisi2
 4453 00b0 13BB     		cbnz	r3, .L611
 4454 00b2 03B2     		sxth	r3, r0
 4455 00b4 03F30B03 		ssat	r3, #12, r3
 4456 00b8 23F00F03 		bic	r3, r3, #15
 4457 00bc 99B2     		uxth	r1, r3
 4458 00be CA10     		asrs	r2, r1, #3
 4459 00c0 C1F38021 		ubfx	r1, r1, #10, #1
 4460 00c4 02F0FE02 		and	r2, r2, #254
 4461 00c8 0A43     		orrs	r2, r2, r1
 4462 00ca 42EA0313 		orr	r3, r2, r3, lsl #4
 4463 00ce 18B2     		sxth	r0, r3
 4464              	.L612:
 4465 00d0 1B4A     		ldr	r2, .L621+48
 4466 00d2 2168     		ldr	r1, [r4]
 4467 00d4 1378     		ldrb	r3, [r2]	@ zero_extendqisi2
 4468 00d6 0133     		adds	r3, r3, #1
 4469 00d8 1370     		strb	r3, [r2]
 4470 00da 2B88     		ldrh	r3, [r5]
 4471 00dc 0133     		adds	r3, r3, #1
 4472 00de 9BB2     		uxth	r3, r3
 4473 00e0 8B42     		cmp	r3, r1
 4474 00e2 B4BF     		ite	lt
 4475 00e4 C3F30803 		ubfxlt	r3, r3, #0, #9
 4476 00e8 0023     		movge	r3, #0
 4477 00ea 2B80     		strh	r3, [r5]	@ movhi
 4478 00ec 70BD     		pop	{r4, r5, r6, pc}
 4479              	.L620:
 4480 00ee 03F29C53 		addw	r3, r3, #1436
 4481 00f2 11F91320 		ldrsb	r2, [r1, r3, lsl #1]
 4482 00f6 C0E7     		b	.L608
 4483              	.L611:
 4484 00f8 20F00F03 		bic	r3, r0, #15
 4485 00fc C0F34420 		ubfx	r0, r0, #9, #5
 4486 0100 40EA4300 		orr	r0, r0, r3, lsl #1
 4487 0104 00B2     		sxth	r0, r0
 4488 0106 E3E7     		b	.L612
 4489              	.L619:
 4490 0108 FFF7FEFF 		bl	parse_frame_raw_5100
 4491 010c 80E7     		b	.L601
 4492              	.L622:
 4493 010e 00BF     		.align	2
 4494              	.L621:
 4495 0110 00000000 		.word	m_coeff
 4496 0114 00000000 		.word	m_new_frame_energy_idx
 4497 0118 00000000 		.word	m_new_frame_pitch_idx
 4498 011c 00000000 		.word	m_current_energy
 4499 0120 00000000 		.word	m_current_pitch
 4500 0124 00000000 		.word	m_new_frame_k_idx
 4501 0128 00000000 		.word	m_current_k
 4502 012c 03000000 		.word	m_new_frame_k_idx+3
 4503 0130 0C000000 		.word	m_current_k+12
ARM GAS  /tmp/ccONvy4E.s 			page 81


 4504 0134 00000000 		.word	m_pitch_count
 4505 0138 00000000 		.word	m_excitation_data
 4506 013c 00000000 		.word	m_digital_select
 4507 0140 00000000 		.word	m_subcycle
 4508              		.size	process5100raw_no_inter, .-process5100raw_no_inter
 4509              		.section	.text.tms_newsay,"ax",%progbits
 4510              		.align	1
 4511              		.p2align 2,,3
 4512              		.global	tms_newsay
 4513              		.syntax unified
 4514              		.thumb
 4515              		.thumb_func
 4516              		.type	tms_newsay, %function
 4517              	tms_newsay:
 4518              		@ args = 0, pretend = 0, frame = 0
 4519              		@ frame_needed = 0, uses_anonymous_args = 0
 4520              		@ link register save eliminated.
 4521 0000 1949     		ldr	r1, .L627
 4522 0002 0123     		movs	r3, #1
 4523 0004 1948     		ldr	r0, .L627+4
 4524 0006 4968     		ldr	r1, [r1, #4]
 4525 0008 90ED007A 		vldr.32	s14, [r0]
 4526 000c D1ED037A 		vldr.32	s15, [r1, #12]
 4527 0010 1748     		ldr	r0, .L627+8
 4528 0012 67EE877A 		vmul.f32	s15, s15, s14
 4529 0016 174A     		ldr	r2, .L627+12
 4530 0018 30B4     		push	{r4, r5}
 4531 001a 4C68     		ldr	r4, [r1, #4]
 4532 001c FDEEE77A 		vcvt.s32.f32	s15, s15
 4533 0020 1370     		strb	r3, [r2]
 4534 0022 0022     		movs	r2, #0
 4535 0024 0460     		str	r4, [r0]
 4536 0026 1448     		ldr	r0, .L627+16
 4537 0028 144D     		ldr	r5, .L627+20
 4538 002a 0370     		strb	r3, [r0]
 4539 002c 17EE903A 		vmov	r3, s15	@ int
 4540 0030 0889     		ldrh	r0, [r1, #8]
 4541 0032 1BB2     		sxth	r3, r3
 4542 0034 124C     		ldr	r4, .L627+24
 4543 0036 2A70     		strb	r2, [r5]
 4544 0038 8342     		cmp	r3, r0
 4545 003a 2270     		strb	r2, [r4]
 4546 003c 02DC     		bgt	.L624
 4547 003e C01A     		subs	r0, r0, r3
 4548 0040 00B2     		sxth	r0, r0
 4549 0042 8200     		lsls	r2, r0, #2
 4550              	.L624:
 4551 0044 0C68     		ldr	r4, [r1]
 4552 0046 0023     		movs	r3, #0
 4553 0048 0E48     		ldr	r0, .L627+28
 4554 004a A258     		ldr	r2, [r4, r2]
 4555 004c 0E49     		ldr	r1, .L627+32
 4556 004e 0260     		str	r2, [r0]
 4557 0050 0C20     		movs	r0, #12
 4558 0052 0E4A     		ldr	r2, .L627+36
 4559 0054 0B70     		strb	r3, [r1]
 4560 0056 1370     		strb	r3, [r2]
ARM GAS  /tmp/ccONvy4E.s 			page 82


 4561 0058 0122     		movs	r2, #1
 4562 005a 0D49     		ldr	r1, .L627+40
 4563 005c 0D4B     		ldr	r3, .L627+44
 4564 005e 0870     		strb	r0, [r1]
 4565 0060 1A70     		strb	r2, [r3]
 4566 0062 30BC     		pop	{r4, r5}
 4567 0064 7047     		bx	lr
 4568              	.L628:
 4569 0066 00BF     		.align	2
 4570              	.L627:
 4571 0068 00000000 		.word	allTMSvocabs
 4572 006c 00000000 		.word	_selz
 4573 0070 00000000 		.word	m_coeff
 4574 0074 00000000 		.word	m_digital_select
 4575 0078 00000000 		.word	m_talk_status
 4576 007c 00000000 		.word	m_new_frame_energy_idx
 4577 0080 00000000 		.word	m_new_frame_pitch_idx
 4578 0084 00000000 		.word	ptrAddr
 4579 0088 00000000 		.word	ptrBit
 4580 008c 00000000 		.word	m_IP
 4581 0090 00000000 		.word	m_PC
 4582 0094 00000000 		.word	m_subcycle
 4583              		.size	tms_newsay, .-tms_newsay
 4584              		.section	.text.tms_newsay_lowbit,"ax",%progbits
 4585              		.align	1
 4586              		.p2align 2,,3
 4587              		.global	tms_newsay_lowbit
 4588              		.syntax unified
 4589              		.thumb
 4590              		.thumb_func
 4591              		.type	tms_newsay_lowbit, %function
 4592              	tms_newsay_lowbit:
 4593              		@ args = 0, pretend = 0, frame = 8
 4594              		@ frame_needed = 0, uses_anonymous_args = 0
 4595              		@ link register save eliminated.
 4596 0000 2949     		ldr	r1, .L637
 4597 0002 0022     		movs	r2, #0
 4598 0004 9FED297A 		vldr.32	s14, .L637+4
 4599 0008 D1ED007A 		vldr.32	s15, [r1]
 4600 000c 284B     		ldr	r3, .L637+8
 4601 000e 67EE877A 		vmul.f32	s15, s15, s14
 4602 0012 10B4     		push	{r4}
 4603 0014 FCEEE77A 		vcvt.u32.f32	s15, s15
 4604 0018 83B0     		sub	sp, sp, #12
 4605 001a 1A70     		strb	r2, [r3]
 4606 001c CDED017A 		vstr.32	s15, [sp, #4]	@ int
 4607 0020 9DF80430 		ldrb	r3, [sp, #4]	@ zero_extendqisi2
 4608 0024 472B     		cmp	r3, #71
 4609 0026 28BF     		it	cs
 4610 0028 4723     		movcs	r3, #71
 4611 002a C3F14703 		rsb	r3, r3, #71
 4612 002e DBB2     		uxtb	r3, r3
 4613 0030 122B     		cmp	r3, #18
 4614 0032 36D9     		bls	.L635
 4615 0034 472B     		cmp	r3, #71
 4616 0036 34D0     		beq	.L635
 4617 0038 1E4A     		ldr	r2, .L637+12
ARM GAS  /tmp/ccONvy4E.s 			page 83


 4618 003a 1370     		strb	r3, [r2]
 4619              	.L632:
 4620 003c 1E49     		ldr	r1, .L637+16
 4621 003e 0022     		movs	r2, #0
 4622 0040 1E48     		ldr	r0, .L637+20
 4623 0042 51F82310 		ldr	r1, [r1, r3, lsl #2]
 4624 0046 90ED007A 		vldr.32	s14, [r0]
 4625 004a D1ED037A 		vldr.32	s15, [r1, #12]
 4626 004e 1C4B     		ldr	r3, .L637+24
 4627 0050 67EE877A 		vmul.f32	s15, s15, s14
 4628 0054 4868     		ldr	r0, [r1, #4]
 4629 0056 1B4C     		ldr	r4, .L637+28
 4630 0058 1860     		str	r0, [r3]
 4631 005a 0120     		movs	r0, #1
 4632 005c FDEEE77A 		vcvt.s32.f32	s15, s15
 4633 0060 194B     		ldr	r3, .L637+32
 4634 0062 2270     		strb	r2, [r4]
 4635 0064 1870     		strb	r0, [r3]
 4636 0066 17EE903A 		vmov	r3, s15	@ int
 4637 006a 0889     		ldrh	r0, [r1, #8]
 4638 006c 174C     		ldr	r4, .L637+36
 4639 006e 1BB2     		sxth	r3, r3
 4640 0070 2270     		strb	r2, [r4]
 4641 0072 8342     		cmp	r3, r0
 4642 0074 02DC     		bgt	.L633
 4643 0076 C01A     		subs	r0, r0, r3
 4644 0078 00B2     		sxth	r0, r0
 4645 007a 8200     		lsls	r2, r0, #2
 4646              	.L633:
 4647 007c 0C68     		ldr	r4, [r1]
 4648 007e 0023     		movs	r3, #0
 4649 0080 1348     		ldr	r0, .L637+40
 4650 0082 A258     		ldr	r2, [r4, r2]
 4651 0084 1349     		ldr	r1, .L637+44
 4652 0086 0260     		str	r2, [r0]
 4653 0088 0C20     		movs	r0, #12
 4654 008a 134A     		ldr	r2, .L637+48
 4655 008c 0B70     		strb	r3, [r1]
 4656 008e 1370     		strb	r3, [r2]
 4657 0090 0122     		movs	r2, #1
 4658 0092 1249     		ldr	r1, .L637+52
 4659 0094 124B     		ldr	r3, .L637+56
 4660 0096 0870     		strb	r0, [r1]
 4661 0098 1A70     		strb	r2, [r3]
 4662 009a 03B0     		add	sp, sp, #12
 4663              		@ sp needed
 4664 009c 5DF8044B 		ldr	r4, [sp], #4
 4665 00a0 7047     		bx	lr
 4666              	.L635:
 4667 00a2 104A     		ldr	r2, .L637+60
 4668 00a4 1370     		strb	r3, [r2]
 4669 00a6 C9E7     		b	.L632
 4670              	.L638:
 4671              		.align	2
 4672              	.L637:
 4673 00a8 00000000 		.word	_sely
 4674 00ac 00009642 		.word	1117126656
ARM GAS  /tmp/ccONvy4E.s 			page 84


 4675 00b0 00000000 		.word	m_digital_select
 4676 00b4 00000000 		.word	last5200
 4677 00b8 00000000 		.word	allTMSvocabs
 4678 00bc 00000000 		.word	_selz
 4679 00c0 00000000 		.word	m_coeff
 4680 00c4 00000000 		.word	m_new_frame_energy_idx
 4681 00c8 00000000 		.word	m_talk_status
 4682 00cc 00000000 		.word	m_new_frame_pitch_idx
 4683 00d0 00000000 		.word	ptrAddr
 4684 00d4 00000000 		.word	ptrBit
 4685 00d8 00000000 		.word	m_IP
 4686 00dc 00000000 		.word	m_PC
 4687 00e0 00000000 		.word	m_subcycle
 4688 00e4 00000000 		.word	last5100
 4689              		.size	tms_newsay_lowbit, .-tms_newsay_lowbit
 4690              		.section	.text.tms_newsay_allphon,"ax",%progbits
 4691              		.align	1
 4692              		.p2align 2,,3
 4693              		.global	tms_newsay_allphon
 4694              		.syntax unified
 4695              		.thumb
 4696              		.thumb_func
 4697              		.type	tms_newsay_allphon, %function
 4698              	tms_newsay_allphon:
 4699              		@ args = 0, pretend = 0, frame = 0
 4700              		@ frame_needed = 0, uses_anonymous_args = 0
 4701              		@ link register save eliminated.
 4702 0000 1A4A     		ldr	r2, .L642
 4703 0002 0023     		movs	r3, #0
 4704 0004 1A48     		ldr	r0, .L642+4
 4705 0006 0121     		movs	r1, #1
 4706 0008 1268     		ldr	r2, [r2]
 4707 000a 90ED007A 		vldr.32	s14, [r0]
 4708 000e D2ED037A 		vldr.32	s15, [r2, #12]
 4709 0012 1848     		ldr	r0, .L642+8
 4710 0014 67EE877A 		vmul.f32	s15, s15, s14
 4711 0018 10B4     		push	{r4}
 4712 001a 174C     		ldr	r4, .L642+12
 4713 001c FDEEE77A 		vcvt.s32.f32	s15, s15
 4714 0020 0170     		strb	r1, [r0]
 4715 0022 2370     		strb	r3, [r4]
 4716 0024 1548     		ldr	r0, .L642+16
 4717 0026 5468     		ldr	r4, [r2, #4]
 4718 0028 0460     		str	r4, [r0]
 4719 002a 154C     		ldr	r4, .L642+20
 4720 002c 1548     		ldr	r0, .L642+24
 4721 002e 2370     		strb	r3, [r4]
 4722 0030 0370     		strb	r3, [r0]
 4723 0032 17EE903A 		vmov	r3, s15	@ int
 4724 0036 1089     		ldrh	r0, [r2, #8]
 4725 0038 1BB2     		sxth	r3, r3
 4726 003a 134C     		ldr	r4, .L642+28
 4727 003c 8342     		cmp	r3, r0
 4728 003e 2170     		strb	r1, [r4]
 4729 0040 1468     		ldr	r4, [r2]
 4730 0042 4FF00002 		mov	r2, #0
 4731 0046 C8BF     		it	gt
ARM GAS  /tmp/ccONvy4E.s 			page 85


 4732 0048 03B2     		sxthgt	r3, r0
 4733 004a 1048     		ldr	r0, .L642+32
 4734 004c 1049     		ldr	r1, .L642+36
 4735 004e 54F82330 		ldr	r3, [r4, r3, lsl #2]
 4736 0052 0A70     		strb	r2, [r1]
 4737 0054 0360     		str	r3, [r0]
 4738 0056 0C20     		movs	r0, #12
 4739 0058 0E4B     		ldr	r3, .L642+40
 4740 005a 0F49     		ldr	r1, .L642+44
 4741 005c 1A70     		strb	r2, [r3]
 4742 005e 0122     		movs	r2, #1
 4743 0060 0E4B     		ldr	r3, .L642+48
 4744 0062 0870     		strb	r0, [r1]
 4745 0064 1A70     		strb	r2, [r3]
 4746 0066 5DF8044B 		ldr	r4, [sp], #4
 4747 006a 7047     		bx	lr
 4748              	.L643:
 4749              		.align	2
 4750              	.L642:
 4751 006c 00000000 		.word	allTMSvocabs
 4752 0070 00000000 		.word	_selz
 4753 0074 00000000 		.word	m_digital_select
 4754 0078 00000000 		.word	last5200
 4755 007c 00000000 		.word	m_coeff
 4756 0080 00000000 		.word	m_new_frame_energy_idx
 4757 0084 00000000 		.word	m_new_frame_pitch_idx
 4758 0088 00000000 		.word	m_talk_status
 4759 008c 00000000 		.word	ptrAddr
 4760 0090 00000000 		.word	ptrBit
 4761 0094 00000000 		.word	m_IP
 4762 0098 00000000 		.word	m_PC
 4763 009c 00000000 		.word	m_subcycle
 4764              		.size	tms_newsay_allphon, .-tms_newsay_allphon
 4765              		.section	.text.tms_init,"ax",%progbits
 4766              		.align	1
 4767              		.p2align 2,,3
 4768              		.global	tms_init
 4769              		.syntax unified
 4770              		.thumb
 4771              		.thumb_func
 4772              		.type	tms_init, %function
 4773              	tms_init:
 4774              		@ args = 0, pretend = 0, frame = 0
 4775              		@ frame_needed = 0, uses_anonymous_args = 0
 4776 0000 1B48     		ldr	r0, .L648
 4777 0002 0021     		movs	r1, #0
 4778 0004 10B5     		push	{r4, lr}
 4779              	.L645:
 4780 0006 41F30B12 		sbfx	r2, r1, #4, #12
 4781 000a 42EA0112 		orr	r2, r2, r1, lsl #4
 4782 000e 0131     		adds	r1, r1, #1
 4783 0010 42F38D03 		sbfx	r3, r2, #2, #14
 4784 0014 9200     		lsls	r2, r2, #2
 4785 0016 B1F5807F 		cmp	r1, #256
 4786 001a 02F0CC02 		and	r2, r2, #204
 4787 001e 03F03303 		and	r3, r3, #51
 4788 0022 43EA0203 		orr	r3, r3, r2
ARM GAS  /tmp/ccONvy4E.s 			page 86


 4789 0026 4FEA6302 		asr	r2, r3, #1
 4790 002a 4FEA4303 		lsl	r3, r3, #1
 4791 002e 02F05502 		and	r2, r2, #85
 4792 0032 23F05503 		bic	r3, r3, #85
 4793 0036 43EA0203 		orr	r3, r3, r2
 4794 003a 00F8013F 		strb	r3, [r0, #1]!
 4795 003e E2D1     		bne	.L645
 4796 0040 0C49     		ldr	r1, .L648+4
 4797 0042 0022     		movs	r2, #0
 4798 0044 0C4C     		ldr	r4, .L648+8
 4799 0046 0D4B     		ldr	r3, .L648+12
 4800 0048 0C60     		str	r4, [r1]
 4801 004a 0D48     		ldr	r0, .L648+16
 4802 004c 0D49     		ldr	r1, .L648+20
 4803 004e 0270     		strb	r2, [r0]
 4804 0050 40F20770 		movw	r0, #1799
 4805 0054 0A70     		strb	r2, [r1]
 4806 0056 0121     		movs	r1, #1
 4807 0058 0B4C     		ldr	r4, .L648+24
 4808 005a 1A60     		str	r2, [r3]
 4809 005c 0B4A     		ldr	r2, .L648+28
 4810 005e 5C60     		str	r4, [r3, #4]
 4811 0060 1881     		strh	r0, [r3, #8]	@ movhi
 4812 0062 1170     		strb	r1, [r2]
 4813 0064 FFF7FEFF 		bl	tms_newsay
 4814 0068 BDE81040 		pop	{r4, lr}
 4815 006c FFF7FEBF 		b	tms_newsay_allphon
 4816              	.L649:
 4817              		.align	2
 4818              	.L648:
 4819 0070 FFFFFFFF 		.word	byte_rev-1
 4820 0074 00000000 		.word	m_coeff
 4821 0078 00000000 		.word	T0285_2501E_coeff
 4822 007c 00000000 		.word	m_new_frame_k_idx
 4823 0080 00000000 		.word	m_new_frame_energy_idx
 4824 0084 00000000 		.word	m_new_frame_pitch_idx
 4825 0088 0F0F0F07 		.word	118427407
 4826 008c 00000000 		.word	m_talk_status
 4827              		.size	tms_init, .-tms_init
 4828              		.section	.text.tms_newsay_TTS,"ax",%progbits
 4829              		.align	1
 4830              		.p2align 2,,3
 4831              		.global	tms_newsay_TTS
 4832              		.syntax unified
 4833              		.thumb
 4834              		.thumb_func
 4835              		.type	tms_newsay_TTS, %function
 4836              	tms_newsay_TTS:
 4837              		@ args = 0, pretend = 0, frame = 0
 4838              		@ frame_needed = 0, uses_anonymous_args = 0
 4839 0000 F8B5     		push	{r3, r4, r5, r6, r7, lr}
 4840 0002 1A49     		ldr	r1, .L654
 4841 0004 0020     		movs	r0, #0
 4842 0006 1A4C     		ldr	r4, .L654+4
 4843 0008 0D68     		ldr	r5, [r1]
 4844 000a 0121     		movs	r1, #1
 4845 000c 2378     		ldrb	r3, [r4]	@ zero_extendqisi2
ARM GAS  /tmp/ccONvy4E.s 			page 87


 4846 000e 194E     		ldr	r6, .L654+8
 4847 0010 194A     		ldr	r2, .L654+12
 4848 0012 3170     		strb	r1, [r6]
 4849 0014 D75C     		ldrb	r7, [r2, r3]	@ zero_extendqisi2
 4850 0016 0B44     		add	r3, r3, r1
 4851 0018 2E68     		ldr	r6, [r5]
 4852 001a D5F804C0 		ldr	ip, [r5, #4]
 4853 001e DBB2     		uxtb	r3, r3
 4854 0020 56F82760 		ldr	r6, [r6, r7, lsl #2]
 4855 0024 154F     		ldr	r7, .L654+16
 4856 0026 164D     		ldr	r5, .L654+20
 4857 0028 C7F800C0 		str	ip, [r7]
 4858 002c 154F     		ldr	r7, .L654+24
 4859 002e 2370     		strb	r3, [r4]
 4860 0030 3870     		strb	r0, [r7]
 4861 0032 154F     		ldr	r7, .L654+28
 4862 0034 3870     		strb	r0, [r7]
 4863 0036 154F     		ldr	r7, .L654+32
 4864 0038 3970     		strb	r1, [r7]
 4865 003a 1549     		ldr	r1, .L654+36
 4866 003c 0E60     		str	r6, [r1]
 4867 003e 1549     		ldr	r1, .L654+40
 4868 0040 0870     		strb	r0, [r1]
 4869 0042 2978     		ldrb	r1, [r5]	@ zero_extendqisi2
 4870 0044 9942     		cmp	r1, r3
 4871 0046 09D9     		bls	.L653
 4872              	.L651:
 4873 0048 134A     		ldr	r2, .L654+44
 4874 004a 0C21     		movs	r1, #12
 4875 004c 1348     		ldr	r0, .L654+48
 4876 004e 0024     		movs	r4, #0
 4877 0050 134B     		ldr	r3, .L654+52
 4878 0052 1170     		strb	r1, [r2]
 4879 0054 0122     		movs	r2, #1
 4880 0056 0470     		strb	r4, [r0]
 4881 0058 1A70     		strb	r2, [r3]
 4882 005a F8BD     		pop	{r3, r4, r5, r6, r7, pc}
 4883              	.L653:
 4884 005c 2070     		strb	r0, [r4]
 4885 005e 1020     		movs	r0, #16
 4886 0060 1049     		ldr	r1, .L654+56
 4887 0062 FFF7FEFF 		bl	text2speechforTMS
 4888 0066 2870     		strb	r0, [r5]
 4889 0068 EEE7     		b	.L651
 4890              	.L655:
 4891 006a 00BF     		.align	2
 4892              	.L654:
 4893 006c 00000000 		.word	allTMSvocabs
 4894 0070 00000000 		.word	TTSindex
 4895 0074 00000000 		.word	m_digital_select
 4896 0078 00000000 		.word	TTSoutarray
 4897 007c 00000000 		.word	m_coeff
 4898 0080 00000000 		.word	TTSlength
 4899 0084 00000000 		.word	m_new_frame_energy_idx
 4900 0088 00000000 		.word	m_new_frame_pitch_idx
 4901 008c 00000000 		.word	m_talk_status
 4902 0090 00000000 		.word	ptrAddr
ARM GAS  /tmp/ccONvy4E.s 			page 88


 4903 0094 00000000 		.word	ptrBit
 4904 0098 00000000 		.word	m_PC
 4905 009c 00000000 		.word	m_IP
 4906 00a0 00000000 		.word	m_subcycle
 4907 00a4 00000000 		.word	TTSinarray
 4908              		.size	tms_newsay_TTS, .-tms_newsay_TTS
 4909              		.section	.text.tms_retriggerTTS,"ax",%progbits
 4910              		.align	1
 4911              		.p2align 2,,3
 4912              		.global	tms_retriggerTTS
 4913              		.syntax unified
 4914              		.thumb
 4915              		.thumb_func
 4916              		.type	tms_retriggerTTS, %function
 4917              	tms_retriggerTTS:
 4918              		@ args = 0, pretend = 0, frame = 0
 4919              		@ frame_needed = 0, uses_anonymous_args = 0
 4920 0000 F8B5     		push	{r3, r4, r5, r6, r7, lr}
 4921 0002 154F     		ldr	r7, .L658
 4922 0004 0025     		movs	r5, #0
 4923 0006 154B     		ldr	r3, .L658+4
 4924 0008 0124     		movs	r4, #1
 4925 000a 3A68     		ldr	r2, [r7]
 4926 000c 1020     		movs	r0, #16
 4927 000e 144E     		ldr	r6, .L658+8
 4928 0010 5268     		ldr	r2, [r2, #4]
 4929 0012 1449     		ldr	r1, .L658+12
 4930 0014 1A60     		str	r2, [r3]
 4931 0016 3246     		mov	r2, r6
 4932 0018 134B     		ldr	r3, .L658+16
 4933 001a 0C70     		strb	r4, [r1]
 4934 001c 1D70     		strb	r5, [r3]
 4935 001e 134B     		ldr	r3, .L658+20
 4936 0020 1349     		ldr	r1, .L658+24
 4937 0022 1D70     		strb	r5, [r3]
 4938 0024 134B     		ldr	r3, .L658+28
 4939 0026 1C70     		strb	r4, [r3]
 4940 0028 FFF7FEFF 		bl	text2speechforTMS
 4941 002c 3B68     		ldr	r3, [r7]
 4942 002e 3278     		ldrb	r2, [r6]	@ zero_extendqisi2
 4943 0030 1B68     		ldr	r3, [r3]
 4944 0032 53F82210 		ldr	r1, [r3, r2, lsl #2]
 4945 0036 0C22     		movs	r2, #12
 4946 0038 0F4B     		ldr	r3, .L658+32
 4947 003a 1D70     		strb	r5, [r3]
 4948 003c 0F4B     		ldr	r3, .L658+36
 4949 003e 1C70     		strb	r4, [r3]
 4950 0040 0F4B     		ldr	r3, .L658+40
 4951 0042 1D70     		strb	r5, [r3]
 4952 0044 0F4B     		ldr	r3, .L658+44
 4953 0046 1A70     		strb	r2, [r3]
 4954 0048 0F4B     		ldr	r3, .L658+48
 4955 004a 104A     		ldr	r2, .L658+52
 4956 004c 1C70     		strb	r4, [r3]
 4957 004e 104B     		ldr	r3, .L658+56
 4958 0050 1160     		str	r1, [r2]
 4959 0052 1870     		strb	r0, [r3]
ARM GAS  /tmp/ccONvy4E.s 			page 89


 4960 0054 F8BD     		pop	{r3, r4, r5, r6, r7, pc}
 4961              	.L659:
 4962 0056 00BF     		.align	2
 4963              	.L658:
 4964 0058 00000000 		.word	allTMSvocabs
 4965 005c 00000000 		.word	m_coeff
 4966 0060 00000000 		.word	TTSoutarray
 4967 0064 00000000 		.word	m_digital_select
 4968 0068 00000000 		.word	m_new_frame_energy_idx
 4969 006c 00000000 		.word	m_new_frame_pitch_idx
 4970 0070 00000000 		.word	TTSinarray
 4971 0074 00000000 		.word	m_talk_status
 4972 0078 00000000 		.word	ptrBit
 4973 007c 00000000 		.word	TTSindex
 4974 0080 00000000 		.word	m_IP
 4975 0084 00000000 		.word	m_PC
 4976 0088 00000000 		.word	m_subcycle
 4977 008c 00000000 		.word	ptrAddr
 4978 0090 00000000 		.word	TTSlength
 4979              		.size	tms_retriggerTTS, .-tms_retriggerTTS
 4980              		.section	.text.tms_newsay_raw5100,"ax",%progbits
 4981              		.align	1
 4982              		.p2align 2,,3
 4983              		.global	tms_newsay_raw5100
 4984              		.syntax unified
 4985              		.thumb
 4986              		.thumb_func
 4987              		.type	tms_newsay_raw5100, %function
 4988              	tms_newsay_raw5100:
 4989              		@ args = 0, pretend = 0, frame = 0
 4990              		@ frame_needed = 0, uses_anonymous_args = 0
 4991              		@ link register save eliminated.
 4992 0000 0C49     		ldr	r1, .L662
 4993 0002 0022     		movs	r2, #0
 4994 0004 0123     		movs	r3, #1
 4995 0006 0868     		ldr	r0, [r1]
 4996 0008 0B49     		ldr	r1, .L662+4
 4997 000a 4068     		ldr	r0, [r0, #4]
 4998 000c 10B4     		push	{r4}
 4999 000e 0860     		str	r0, [r1]
 5000 0010 0A48     		ldr	r0, .L662+8
 5001 0012 0B4C     		ldr	r4, .L662+12
 5002 0014 0270     		strb	r2, [r0]
 5003 0016 0B49     		ldr	r1, .L662+16
 5004 0018 0B48     		ldr	r0, .L662+20
 5005 001a 0A70     		strb	r2, [r1]
 5006 001c 2370     		strb	r3, [r4]
 5007 001e 0270     		strb	r2, [r0]
 5008 0020 0C20     		movs	r0, #12
 5009 0022 0A4C     		ldr	r4, .L662+24
 5010 0024 0A49     		ldr	r1, .L662+28
 5011 0026 0B4A     		ldr	r2, .L662+32
 5012 0028 2370     		strb	r3, [r4]
 5013 002a 0870     		strb	r0, [r1]
 5014 002c 1370     		strb	r3, [r2]
 5015 002e 5DF8044B 		ldr	r4, [sp], #4
 5016 0032 7047     		bx	lr
ARM GAS  /tmp/ccONvy4E.s 			page 90


 5017              	.L663:
 5018              		.align	2
 5019              	.L662:
 5020 0034 00000000 		.word	allTMSvocabs
 5021 0038 00000000 		.word	m_coeff
 5022 003c 00000000 		.word	m_new_frame_energy_idx
 5023 0040 00000000 		.word	m_digital_select
 5024 0044 00000000 		.word	m_new_frame_pitch_idx
 5025 0048 00000000 		.word	m_IP
 5026 004c 00000000 		.word	m_talk_status
 5027 0050 00000000 		.word	m_PC
 5028 0054 00000000 		.word	m_subcycle
 5029              		.size	tms_newsay_raw5100, .-tms_newsay_raw5100
 5030              		.section	.text.tms_newsay_raw5200,"ax",%progbits
 5031              		.align	1
 5032              		.p2align 2,,3
 5033              		.global	tms_newsay_raw5200
 5034              		.syntax unified
 5035              		.thumb
 5036              		.thumb_func
 5037              		.type	tms_newsay_raw5200, %function
 5038              	tms_newsay_raw5200:
 5039              		@ args = 0, pretend = 0, frame = 0
 5040              		@ frame_needed = 0, uses_anonymous_args = 0
 5041              		@ link register save eliminated.
 5042 0000 0B49     		ldr	r1, .L666
 5043 0002 0022     		movs	r2, #0
 5044 0004 0B48     		ldr	r0, .L666+4
 5045 0006 0123     		movs	r3, #1
 5046 0008 10B4     		push	{r4}
 5047 000a 0860     		str	r0, [r1]
 5048 000c 0A48     		ldr	r0, .L666+8
 5049 000e 0B4C     		ldr	r4, .L666+12
 5050 0010 0270     		strb	r2, [r0]
 5051 0012 0B49     		ldr	r1, .L666+16
 5052 0014 0B48     		ldr	r0, .L666+20
 5053 0016 0A70     		strb	r2, [r1]
 5054 0018 2370     		strb	r3, [r4]
 5055 001a 0270     		strb	r2, [r0]
 5056 001c 0C20     		movs	r0, #12
 5057 001e 0A4C     		ldr	r4, .L666+24
 5058 0020 0A49     		ldr	r1, .L666+28
 5059 0022 0B4A     		ldr	r2, .L666+32
 5060 0024 2370     		strb	r3, [r4]
 5061 0026 0870     		strb	r0, [r1]
 5062 0028 1370     		strb	r3, [r2]
 5063 002a 5DF8044B 		ldr	r4, [sp], #4
 5064 002e 7047     		bx	lr
 5065              	.L667:
 5066              		.align	2
 5067              	.L666:
 5068 0030 00000000 		.word	m_coeff
 5069 0034 00000000 		.word	T0285_2501E_coeff
 5070 0038 00000000 		.word	m_new_frame_energy_idx
 5071 003c 00000000 		.word	m_digital_select
 5072 0040 00000000 		.word	m_new_frame_pitch_idx
 5073 0044 00000000 		.word	m_IP
ARM GAS  /tmp/ccONvy4E.s 			page 91


 5074 0048 00000000 		.word	m_talk_status
 5075 004c 00000000 		.word	m_PC
 5076 0050 00000000 		.word	m_subcycle
 5077              		.size	tms_newsay_raw5200, .-tms_newsay_raw5200
 5078              		.section	.text.tms_newsay_raw5220,"ax",%progbits
 5079              		.align	1
 5080              		.p2align 2,,3
 5081              		.global	tms_newsay_raw5220
 5082              		.syntax unified
 5083              		.thumb
 5084              		.thumb_func
 5085              		.type	tms_newsay_raw5220, %function
 5086              	tms_newsay_raw5220:
 5087              		@ args = 0, pretend = 0, frame = 0
 5088              		@ frame_needed = 0, uses_anonymous_args = 0
 5089              		@ link register save eliminated.
 5090 0000 10B4     		push	{r4}
 5091 0002 0123     		movs	r3, #1
 5092 0004 074C     		ldr	r4, .L670
 5093 0006 0849     		ldr	r1, .L670+4
 5094 0008 0022     		movs	r2, #0
 5095 000a 0848     		ldr	r0, .L670+8
 5096 000c 2370     		strb	r3, [r4]
 5097 000e 0860     		str	r0, [r1]
 5098 0010 074C     		ldr	r4, .L670+12
 5099 0012 0848     		ldr	r0, .L670+16
 5100 0014 0849     		ldr	r1, .L670+20
 5101 0016 2270     		strb	r2, [r4]
 5102 0018 0270     		strb	r2, [r0]
 5103 001a 0B70     		strb	r3, [r1]
 5104 001c 5DF8044B 		ldr	r4, [sp], #4
 5105 0020 7047     		bx	lr
 5106              	.L671:
 5107 0022 00BF     		.align	2
 5108              	.L670:
 5109 0024 00000000 		.word	m_digital_select
 5110 0028 00000000 		.word	m_coeff
 5111 002c 00000000 		.word	tms5220_coeff
 5112 0030 00000000 		.word	m_new_frame_energy_idx
 5113 0034 00000000 		.word	m_new_frame_pitch_idx
 5114 0038 00000000 		.word	m_talk_status
 5115              		.size	tms_newsay_raw5220, .-tms_newsay_raw5220
 5116              		.section	.text.tms_newsay_specific,"ax",%progbits
 5117              		.align	1
 5118              		.p2align 2,,3
 5119              		.global	tms_newsay_specific
 5120              		.syntax unified
 5121              		.thumb
 5122              		.thumb_func
 5123              		.type	tms_newsay_specific, %function
 5124              	tms_newsay_specific:
 5125              		@ args = 0, pretend = 0, frame = 0
 5126              		@ frame_needed = 0, uses_anonymous_args = 0
 5127              		@ link register save eliminated.
 5128 0000 1B4A     		ldr	r2, .L676
 5129 0002 4FF0010C 		mov	ip, #1
 5130 0006 1B4B     		ldr	r3, .L676+4
ARM GAS  /tmp/ccONvy4E.s 			page 92


 5131 0008 52F82010 		ldr	r1, [r2, r0, lsl #2]
 5132 000c 93ED007A 		vldr.32	s14, [r3]
 5133 0010 D1ED037A 		vldr.32	s15, [r1, #12]
 5134 0014 184B     		ldr	r3, .L676+8
 5135 0016 67EE877A 		vmul.f32	s15, s15, s14
 5136 001a 4A68     		ldr	r2, [r1, #4]
 5137 001c 1748     		ldr	r0, .L676+12
 5138 001e FDEEE77A 		vcvt.s32.f32	s15, s15
 5139 0022 10B4     		push	{r4}
 5140 0024 1A60     		str	r2, [r3]
 5141 0026 0022     		movs	r2, #0
 5142 0028 154B     		ldr	r3, .L676+16
 5143 002a 80F800C0 		strb	ip, [r0]
 5144 002e 1A70     		strb	r2, [r3]
 5145 0030 17EE903A 		vmov	r3, s15	@ int
 5146 0034 1348     		ldr	r0, .L676+20
 5147 0036 1BB2     		sxth	r3, r3
 5148 0038 134C     		ldr	r4, .L676+24
 5149 003a 0270     		strb	r2, [r0]
 5150 003c 0889     		ldrh	r0, [r1, #8]
 5151 003e 84F800C0 		strb	ip, [r4]
 5152 0042 8342     		cmp	r3, r0
 5153 0044 02DC     		bgt	.L673
 5154 0046 C01A     		subs	r0, r0, r3
 5155 0048 00B2     		sxth	r0, r0
 5156 004a 8200     		lsls	r2, r0, #2
 5157              	.L673:
 5158 004c 0C68     		ldr	r4, [r1]
 5159 004e 0023     		movs	r3, #0
 5160 0050 0E48     		ldr	r0, .L676+28
 5161 0052 A258     		ldr	r2, [r4, r2]
 5162 0054 0E49     		ldr	r1, .L676+32
 5163 0056 0260     		str	r2, [r0]
 5164 0058 0C20     		movs	r0, #12
 5165 005a 0E4A     		ldr	r2, .L676+36
 5166 005c 0B70     		strb	r3, [r1]
 5167 005e 1370     		strb	r3, [r2]
 5168 0060 0122     		movs	r2, #1
 5169 0062 0D49     		ldr	r1, .L676+40
 5170 0064 0D4B     		ldr	r3, .L676+44
 5171 0066 0870     		strb	r0, [r1]
 5172 0068 1A70     		strb	r2, [r3]
 5173 006a 5DF8044B 		ldr	r4, [sp], #4
 5174 006e 7047     		bx	lr
 5175              	.L677:
 5176              		.align	2
 5177              	.L676:
 5178 0070 00000000 		.word	allTMSvocabs
 5179 0074 00000000 		.word	_selz
 5180 0078 00000000 		.word	m_coeff
 5181 007c 00000000 		.word	m_digital_select
 5182 0080 00000000 		.word	m_new_frame_pitch_idx
 5183 0084 00000000 		.word	m_new_frame_energy_idx
 5184 0088 00000000 		.word	m_talk_status
 5185 008c 00000000 		.word	ptrAddr
 5186 0090 00000000 		.word	ptrBit
 5187 0094 00000000 		.word	m_IP
ARM GAS  /tmp/ccONvy4E.s 			page 93


 5188 0098 00000000 		.word	m_PC
 5189 009c 00000000 		.word	m_subcycle
 5190              		.size	tms_newsay_specific, .-tms_newsay_specific
 5191              		.section	.text.tms_newsay_specifica,"ax",%progbits
 5192              		.align	1
 5193              		.p2align 2,,3
 5194              		.global	tms_newsay_specifica
 5195              		.syntax unified
 5196              		.thumb
 5197              		.thumb_func
 5198              		.type	tms_newsay_specifica, %function
 5199              	tms_newsay_specifica:
 5200              		@ args = 0, pretend = 0, frame = 0
 5201              		@ frame_needed = 0, uses_anonymous_args = 0
 5202              		@ link register save eliminated.
 5203 0000 1949     		ldr	r1, .L682
 5204 0002 0123     		movs	r3, #1
 5205 0004 1948     		ldr	r0, .L682+4
 5206 0006 0968     		ldr	r1, [r1]
 5207 0008 90ED007A 		vldr.32	s14, [r0]
 5208 000c D1ED037A 		vldr.32	s15, [r1, #12]
 5209 0010 1748     		ldr	r0, .L682+8
 5210 0012 67EE877A 		vmul.f32	s15, s15, s14
 5211 0016 174A     		ldr	r2, .L682+12
 5212 0018 30B4     		push	{r4, r5}
 5213 001a 4C68     		ldr	r4, [r1, #4]
 5214 001c FDEEE77A 		vcvt.s32.f32	s15, s15
 5215 0020 1370     		strb	r3, [r2]
 5216 0022 0022     		movs	r2, #0
 5217 0024 0460     		str	r4, [r0]
 5218 0026 1448     		ldr	r0, .L682+16
 5219 0028 144D     		ldr	r5, .L682+20
 5220 002a 0370     		strb	r3, [r0]
 5221 002c 17EE903A 		vmov	r3, s15	@ int
 5222 0030 0889     		ldrh	r0, [r1, #8]
 5223 0032 1BB2     		sxth	r3, r3
 5224 0034 124C     		ldr	r4, .L682+24
 5225 0036 2A70     		strb	r2, [r5]
 5226 0038 8342     		cmp	r3, r0
 5227 003a 2270     		strb	r2, [r4]
 5228 003c 02DC     		bgt	.L679
 5229 003e C01A     		subs	r0, r0, r3
 5230 0040 00B2     		sxth	r0, r0
 5231 0042 8200     		lsls	r2, r0, #2
 5232              	.L679:
 5233 0044 0C68     		ldr	r4, [r1]
 5234 0046 0023     		movs	r3, #0
 5235 0048 0E48     		ldr	r0, .L682+28
 5236 004a A258     		ldr	r2, [r4, r2]
 5237 004c 0E49     		ldr	r1, .L682+32
 5238 004e 0260     		str	r2, [r0]
 5239 0050 0C20     		movs	r0, #12
 5240 0052 0E4A     		ldr	r2, .L682+36
 5241 0054 0B70     		strb	r3, [r1]
 5242 0056 1370     		strb	r3, [r2]
 5243 0058 0122     		movs	r2, #1
 5244 005a 0D49     		ldr	r1, .L682+40
ARM GAS  /tmp/ccONvy4E.s 			page 94


 5245 005c 0D4B     		ldr	r3, .L682+44
 5246 005e 0870     		strb	r0, [r1]
 5247 0060 1A70     		strb	r2, [r3]
 5248 0062 30BC     		pop	{r4, r5}
 5249 0064 7047     		bx	lr
 5250              	.L683:
 5251 0066 00BF     		.align	2
 5252              	.L682:
 5253 0068 00000000 		.word	allTMSvocabs
 5254 006c 00000000 		.word	_selz
 5255 0070 00000000 		.word	m_coeff
 5256 0074 00000000 		.word	m_digital_select
 5257 0078 00000000 		.word	m_talk_status
 5258 007c 00000000 		.word	m_new_frame_energy_idx
 5259 0080 00000000 		.word	m_new_frame_pitch_idx
 5260 0084 00000000 		.word	ptrAddr
 5261 0088 00000000 		.word	ptrBit
 5262 008c 00000000 		.word	m_IP
 5263 0090 00000000 		.word	m_PC
 5264 0094 00000000 		.word	m_subcycle
 5265              		.size	tms_newsay_specifica, .-tms_newsay_specifica
 5266              		.section	.text.tms_newsay_specificx,"ax",%progbits
 5267              		.align	1
 5268              		.p2align 2,,3
 5269              		.global	tms_newsay_specificx
 5270              		.syntax unified
 5271              		.thumb
 5272              		.thumb_func
 5273              		.type	tms_newsay_specificx, %function
 5274              	tms_newsay_specificx:
 5275              		@ args = 0, pretend = 0, frame = 0
 5276              		@ frame_needed = 0, uses_anonymous_args = 0
 5277              		@ link register save eliminated.
 5278 0000 1A4B     		ldr	r3, .L688
 5279 0002 0120     		movs	r0, #1
 5280 0004 1A49     		ldr	r1, .L688+4
 5281 0006 1B4A     		ldr	r2, .L688+8
 5282 0008 30B4     		push	{r4, r5}
 5283 000a 1C78     		ldrb	r4, [r3]	@ zero_extendqisi2
 5284 000c 92ED007A 		vldr.32	s14, [r2]
 5285 0010 0022     		movs	r2, #0
 5286 0012 51F82410 		ldr	r1, [r1, r4, lsl #2]
 5287 0016 184C     		ldr	r4, .L688+12
 5288 0018 D1ED037A 		vldr.32	s15, [r1, #12]
 5289 001c 4D68     		ldr	r5, [r1, #4]
 5290 001e 67EE877A 		vmul.f32	s15, s15, s14
 5291 0022 164B     		ldr	r3, .L688+16
 5292 0024 2560     		str	r5, [r4]
 5293 0026 164C     		ldr	r4, .L688+20
 5294 0028 FDEEE77A 		vcvt.s32.f32	s15, s15
 5295 002c 1870     		strb	r0, [r3]
 5296 002e 2270     		strb	r2, [r4]
 5297 0030 144C     		ldr	r4, .L688+24
 5298 0032 17EE903A 		vmov	r3, s15	@ int
 5299 0036 2270     		strb	r2, [r4]
 5300 0038 134C     		ldr	r4, .L688+28
 5301 003a 1BB2     		sxth	r3, r3
ARM GAS  /tmp/ccONvy4E.s 			page 95


 5302 003c 2070     		strb	r0, [r4]
 5303 003e 0889     		ldrh	r0, [r1, #8]
 5304 0040 8342     		cmp	r3, r0
 5305 0042 02DC     		bgt	.L685
 5306 0044 C01A     		subs	r0, r0, r3
 5307 0046 00B2     		sxth	r0, r0
 5308 0048 8200     		lsls	r2, r0, #2
 5309              	.L685:
 5310 004a 0C68     		ldr	r4, [r1]
 5311 004c 0023     		movs	r3, #0
 5312 004e 0F48     		ldr	r0, .L688+32
 5313 0050 A258     		ldr	r2, [r4, r2]
 5314 0052 0F49     		ldr	r1, .L688+36
 5315 0054 0260     		str	r2, [r0]
 5316 0056 0C20     		movs	r0, #12
 5317 0058 0E4A     		ldr	r2, .L688+40
 5318 005a 0B70     		strb	r3, [r1]
 5319 005c 1370     		strb	r3, [r2]
 5320 005e 0122     		movs	r2, #1
 5321 0060 0D49     		ldr	r1, .L688+44
 5322 0062 0E4B     		ldr	r3, .L688+48
 5323 0064 0870     		strb	r0, [r1]
 5324 0066 1A70     		strb	r2, [r3]
 5325 0068 30BC     		pop	{r4, r5}
 5326 006a 7047     		bx	lr
 5327              	.L689:
 5328              		.align	2
 5329              	.L688:
 5330 006c 00000000 		.word	last5200
 5331 0070 00000000 		.word	allTMSvocabs
 5332 0074 00000000 		.word	_selz
 5333 0078 00000000 		.word	m_coeff
 5334 007c 00000000 		.word	m_digital_select
 5335 0080 00000000 		.word	m_new_frame_energy_idx
 5336 0084 00000000 		.word	m_new_frame_pitch_idx
 5337 0088 00000000 		.word	m_talk_status
 5338 008c 00000000 		.word	ptrAddr
 5339 0090 00000000 		.word	ptrBit
 5340 0094 00000000 		.word	m_IP
 5341 0098 00000000 		.word	m_PC
 5342 009c 00000000 		.word	m_subcycle
 5343              		.size	tms_newsay_specificx, .-tms_newsay_specificx
 5344              		.section	.text.tms_newsay_specific5100,"ax",%progbits
 5345              		.align	1
 5346              		.p2align 2,,3
 5347              		.global	tms_newsay_specific5100
 5348              		.syntax unified
 5349              		.thumb
 5350              		.thumb_func
 5351              		.type	tms_newsay_specific5100, %function
 5352              	tms_newsay_specific5100:
 5353              		@ args = 0, pretend = 0, frame = 0
 5354              		@ frame_needed = 0, uses_anonymous_args = 0
 5355              		@ link register save eliminated.
 5356 0000 1A4B     		ldr	r3, .L694
 5357 0002 0120     		movs	r0, #1
 5358 0004 1A49     		ldr	r1, .L694+4
ARM GAS  /tmp/ccONvy4E.s 			page 96


 5359 0006 1B4A     		ldr	r2, .L694+8
 5360 0008 30B4     		push	{r4, r5}
 5361 000a 1C78     		ldrb	r4, [r3]	@ zero_extendqisi2
 5362 000c 92ED007A 		vldr.32	s14, [r2]
 5363 0010 0022     		movs	r2, #0
 5364 0012 51F82410 		ldr	r1, [r1, r4, lsl #2]
 5365 0016 184C     		ldr	r4, .L694+12
 5366 0018 D1ED037A 		vldr.32	s15, [r1, #12]
 5367 001c 4D68     		ldr	r5, [r1, #4]
 5368 001e 67EE877A 		vmul.f32	s15, s15, s14
 5369 0022 164B     		ldr	r3, .L694+16
 5370 0024 2560     		str	r5, [r4]
 5371 0026 164C     		ldr	r4, .L694+20
 5372 0028 FDEEE77A 		vcvt.s32.f32	s15, s15
 5373 002c 1870     		strb	r0, [r3]
 5374 002e 2270     		strb	r2, [r4]
 5375 0030 144C     		ldr	r4, .L694+24
 5376 0032 17EE903A 		vmov	r3, s15	@ int
 5377 0036 2270     		strb	r2, [r4]
 5378 0038 134C     		ldr	r4, .L694+28
 5379 003a 1BB2     		sxth	r3, r3
 5380 003c 2070     		strb	r0, [r4]
 5381 003e 0889     		ldrh	r0, [r1, #8]
 5382 0040 8342     		cmp	r3, r0
 5383 0042 02DC     		bgt	.L691
 5384 0044 C01A     		subs	r0, r0, r3
 5385 0046 00B2     		sxth	r0, r0
 5386 0048 8200     		lsls	r2, r0, #2
 5387              	.L691:
 5388 004a 0C68     		ldr	r4, [r1]
 5389 004c 0023     		movs	r3, #0
 5390 004e 0F48     		ldr	r0, .L694+32
 5391 0050 A258     		ldr	r2, [r4, r2]
 5392 0052 0F49     		ldr	r1, .L694+36
 5393 0054 0260     		str	r2, [r0]
 5394 0056 0C20     		movs	r0, #12
 5395 0058 0E4A     		ldr	r2, .L694+40
 5396 005a 0B70     		strb	r3, [r1]
 5397 005c 1370     		strb	r3, [r2]
 5398 005e 0122     		movs	r2, #1
 5399 0060 0D49     		ldr	r1, .L694+44
 5400 0062 0E4B     		ldr	r3, .L694+48
 5401 0064 0870     		strb	r0, [r1]
 5402 0066 1A70     		strb	r2, [r3]
 5403 0068 30BC     		pop	{r4, r5}
 5404 006a 7047     		bx	lr
 5405              	.L695:
 5406              		.align	2
 5407              	.L694:
 5408 006c 00000000 		.word	last5100
 5409 0070 00000000 		.word	allTMSvocabs
 5410 0074 00000000 		.word	_selz
 5411 0078 00000000 		.word	m_coeff
 5412 007c 00000000 		.word	m_digital_select
 5413 0080 00000000 		.word	m_new_frame_energy_idx
 5414 0084 00000000 		.word	m_new_frame_pitch_idx
 5415 0088 00000000 		.word	m_talk_status
ARM GAS  /tmp/ccONvy4E.s 			page 97


 5416 008c 00000000 		.word	ptrAddr
 5417 0090 00000000 		.word	ptrBit
 5418 0094 00000000 		.word	m_IP
 5419 0098 00000000 		.word	m_PC
 5420 009c 00000000 		.word	m_subcycle
 5421              		.size	tms_newsay_specific5100, .-tms_newsay_specific5100
 5422              		.section	.text.tms_get_sample_allphon,"ax",%progbits
 5423              		.align	1
 5424              		.p2align 2,,3
 5425              		.global	tms_get_sample_allphon
 5426              		.syntax unified
 5427              		.thumb
 5428              		.thumb_func
 5429              		.type	tms_get_sample_allphon, %function
 5430              	tms_get_sample_allphon:
 5431              		@ args = 0, pretend = 0, frame = 16
 5432              		@ frame_needed = 0, uses_anonymous_args = 0
 5433 0000 00B5     		push	{lr}
 5434 0002 85B0     		sub	sp, sp, #20
 5435 0004 0023     		movs	r3, #0
 5436 0006 0B4A     		ldr	r2, .L700
 5437 0008 0A21     		movs	r1, #10
 5438 000a 0DF10F00 		add	r0, sp, #15
 5439 000e 8DF80F30 		strb	r3, [sp, #15]
 5440 0012 1170     		strb	r1, [r2]
 5441 0014 FFF7FEFF 		bl	process
 5442 0018 9DF80F30 		ldrb	r3, [sp, #15]	@ zero_extendqisi2
 5443 001c 012B     		cmp	r3, #1
 5444 001e 02D0     		beq	.L699
 5445 0020 05B0     		add	sp, sp, #20
 5446              		@ sp needed
 5447 0022 5DF804FB 		ldr	pc, [sp], #4
 5448              	.L699:
 5449 0026 0190     		str	r0, [sp, #4]
 5450 0028 FFF7FEFF 		bl	tms_newsay_allphon
 5451 002c 0198     		ldr	r0, [sp, #4]
 5452 002e 05B0     		add	sp, sp, #20
 5453              		@ sp needed
 5454 0030 5DF804FB 		ldr	pc, [sp], #4
 5455              	.L701:
 5456              		.align	2
 5457              	.L700:
 5458 0034 00000000 		.word	modus
 5459              		.size	tms_get_sample_allphon, .-tms_get_sample_allphon
 5460              		.section	.text.tms_get_sample_allphon_sing,"ax",%progbits
 5461              		.align	1
 5462              		.p2align 2,,3
 5463              		.global	tms_get_sample_allphon_sing
 5464              		.syntax unified
 5465              		.thumb
 5466              		.thumb_func
 5467              		.type	tms_get_sample_allphon_sing, %function
 5468              	tms_get_sample_allphon_sing:
 5469              		@ args = 0, pretend = 0, frame = 16
 5470              		@ frame_needed = 0, uses_anonymous_args = 0
 5471 0000 00B5     		push	{lr}
 5472 0002 85B0     		sub	sp, sp, #20
ARM GAS  /tmp/ccONvy4E.s 			page 98


 5473 0004 0023     		movs	r3, #0
 5474 0006 0B4A     		ldr	r2, .L706
 5475 0008 0A21     		movs	r1, #10
 5476 000a 0DF10F00 		add	r0, sp, #15
 5477 000e 8DF80F30 		strb	r3, [sp, #15]
 5478 0012 1170     		strb	r1, [r2]
 5479 0014 FFF7FEFF 		bl	process
 5480 0018 9DF80F30 		ldrb	r3, [sp, #15]	@ zero_extendqisi2
 5481 001c 012B     		cmp	r3, #1
 5482 001e 02D0     		beq	.L705
 5483 0020 05B0     		add	sp, sp, #20
 5484              		@ sp needed
 5485 0022 5DF804FB 		ldr	pc, [sp], #4
 5486              	.L705:
 5487 0026 0190     		str	r0, [sp, #4]
 5488 0028 FFF7FEFF 		bl	tms_newsay_allphon
 5489 002c 0198     		ldr	r0, [sp, #4]
 5490 002e 05B0     		add	sp, sp, #20
 5491              		@ sp needed
 5492 0030 5DF804FB 		ldr	pc, [sp], #4
 5493              	.L707:
 5494              		.align	2
 5495              	.L706:
 5496 0034 00000000 		.word	modus
 5497              		.size	tms_get_sample_allphon_sing, .-tms_get_sample_allphon_sing
 5498              		.section	.text.tms_get_sample,"ax",%progbits
 5499              		.align	1
 5500              		.p2align 2,,3
 5501              		.global	tms_get_sample
 5502              		.syntax unified
 5503              		.thumb
 5504              		.thumb_func
 5505              		.type	tms_get_sample, %function
 5506              	tms_get_sample:
 5507              		@ args = 0, pretend = 0, frame = 16
 5508              		@ frame_needed = 0, uses_anonymous_args = 0
 5509 0000 00B5     		push	{lr}
 5510 0002 85B0     		sub	sp, sp, #20
 5511 0004 0B4B     		ldr	r3, .L712
 5512 0006 0021     		movs	r1, #0
 5513 0008 0122     		movs	r2, #1
 5514 000a 0DF10F00 		add	r0, sp, #15
 5515 000e 1A70     		strb	r2, [r3]
 5516 0010 8DF80F10 		strb	r1, [sp, #15]
 5517 0014 FFF7FEFF 		bl	process
 5518 0018 9DF80F30 		ldrb	r3, [sp, #15]	@ zero_extendqisi2
 5519 001c 012B     		cmp	r3, #1
 5520 001e 02D0     		beq	.L711
 5521 0020 05B0     		add	sp, sp, #20
 5522              		@ sp needed
 5523 0022 5DF804FB 		ldr	pc, [sp], #4
 5524              	.L711:
 5525 0026 0190     		str	r0, [sp, #4]
 5526 0028 FFF7FEFF 		bl	tms_newsay
 5527 002c 0198     		ldr	r0, [sp, #4]
 5528 002e 05B0     		add	sp, sp, #20
 5529              		@ sp needed
ARM GAS  /tmp/ccONvy4E.s 			page 99


 5530 0030 5DF804FB 		ldr	pc, [sp], #4
 5531              	.L713:
 5532              		.align	2
 5533              	.L712:
 5534 0034 00000000 		.word	modus
 5535              		.size	tms_get_sample, .-tms_get_sample
 5536              		.section	.text.tms_get_sample_sing,"ax",%progbits
 5537              		.align	1
 5538              		.p2align 2,,3
 5539              		.global	tms_get_sample_sing
 5540              		.syntax unified
 5541              		.thumb
 5542              		.thumb_func
 5543              		.type	tms_get_sample_sing, %function
 5544              	tms_get_sample_sing:
 5545              		@ args = 0, pretend = 0, frame = 16
 5546              		@ frame_needed = 0, uses_anonymous_args = 0
 5547 0000 00B5     		push	{lr}
 5548 0002 85B0     		sub	sp, sp, #20
 5549 0004 0B4B     		ldr	r3, .L718
 5550 0006 0021     		movs	r1, #0
 5551 0008 0222     		movs	r2, #2
 5552 000a 0DF10F00 		add	r0, sp, #15
 5553 000e 1A70     		strb	r2, [r3]
 5554 0010 8DF80F10 		strb	r1, [sp, #15]
 5555 0014 FFF7FEFF 		bl	process
 5556 0018 9DF80F30 		ldrb	r3, [sp, #15]	@ zero_extendqisi2
 5557 001c 012B     		cmp	r3, #1
 5558 001e 02D0     		beq	.L717
 5559 0020 05B0     		add	sp, sp, #20
 5560              		@ sp needed
 5561 0022 5DF804FB 		ldr	pc, [sp], #4
 5562              	.L717:
 5563 0026 0190     		str	r0, [sp, #4]
 5564 0028 FFF7FEFF 		bl	tms_newsay
 5565 002c 0198     		ldr	r0, [sp, #4]
 5566 002e 05B0     		add	sp, sp, #20
 5567              		@ sp needed
 5568 0030 5DF804FB 		ldr	pc, [sp], #4
 5569              	.L719:
 5570              		.align	2
 5571              	.L718:
 5572 0034 00000000 		.word	modus
 5573              		.size	tms_get_sample_sing, .-tms_get_sample_sing
 5574              		.section	.text.tms_get_sample_lowbit,"ax",%progbits
 5575              		.align	1
 5576              		.p2align 2,,3
 5577              		.global	tms_get_sample_lowbit
 5578              		.syntax unified
 5579              		.thumb
 5580              		.thumb_func
 5581              		.type	tms_get_sample_lowbit, %function
 5582              	tms_get_sample_lowbit:
 5583              		@ args = 0, pretend = 0, frame = 16
 5584              		@ frame_needed = 0, uses_anonymous_args = 0
 5585 0000 00B5     		push	{lr}
 5586 0002 85B0     		sub	sp, sp, #20
ARM GAS  /tmp/ccONvy4E.s 			page 100


 5587 0004 0023     		movs	r3, #0
 5588 0006 0B4A     		ldr	r2, .L724
 5589 0008 0121     		movs	r1, #1
 5590 000a 0DF10F00 		add	r0, sp, #15
 5591 000e 8DF80F30 		strb	r3, [sp, #15]
 5592 0012 1170     		strb	r1, [r2]
 5593 0014 FFF7FEFF 		bl	process
 5594 0018 9DF80F30 		ldrb	r3, [sp, #15]	@ zero_extendqisi2
 5595 001c 012B     		cmp	r3, #1
 5596 001e 02D0     		beq	.L723
 5597 0020 05B0     		add	sp, sp, #20
 5598              		@ sp needed
 5599 0022 5DF804FB 		ldr	pc, [sp], #4
 5600              	.L723:
 5601 0026 0190     		str	r0, [sp, #4]
 5602 0028 FFF7FEFF 		bl	tms_newsay_lowbit
 5603 002c 0198     		ldr	r0, [sp, #4]
 5604 002e 05B0     		add	sp, sp, #20
 5605              		@ sp needed
 5606 0030 5DF804FB 		ldr	pc, [sp], #4
 5607              	.L725:
 5608              		.align	2
 5609              	.L724:
 5610 0034 00000000 		.word	modus
 5611              		.size	tms_get_sample_lowbit, .-tms_get_sample_lowbit
 5612              		.section	.text.tms_get_sample_TTS,"ax",%progbits
 5613              		.align	1
 5614              		.p2align 2,,3
 5615              		.global	tms_get_sample_TTS
 5616              		.syntax unified
 5617              		.thumb
 5618              		.thumb_func
 5619              		.type	tms_get_sample_TTS, %function
 5620              	tms_get_sample_TTS:
 5621              		@ args = 0, pretend = 0, frame = 16
 5622              		@ frame_needed = 0, uses_anonymous_args = 0
 5623 0000 00B5     		push	{lr}
 5624 0002 85B0     		sub	sp, sp, #20
 5625 0004 0023     		movs	r3, #0
 5626 0006 0B4A     		ldr	r2, .L730
 5627 0008 0121     		movs	r1, #1
 5628 000a 0DF10F00 		add	r0, sp, #15
 5629 000e 8DF80F30 		strb	r3, [sp, #15]
 5630 0012 1170     		strb	r1, [r2]
 5631 0014 FFF7FEFF 		bl	process
 5632 0018 9DF80F30 		ldrb	r3, [sp, #15]	@ zero_extendqisi2
 5633 001c 012B     		cmp	r3, #1
 5634 001e 02D0     		beq	.L729
 5635 0020 05B0     		add	sp, sp, #20
 5636              		@ sp needed
 5637 0022 5DF804FB 		ldr	pc, [sp], #4
 5638              	.L729:
 5639 0026 0190     		str	r0, [sp, #4]
 5640 0028 FFF7FEFF 		bl	tms_newsay_TTS
 5641 002c 0198     		ldr	r0, [sp, #4]
 5642 002e 05B0     		add	sp, sp, #20
 5643              		@ sp needed
ARM GAS  /tmp/ccONvy4E.s 			page 101


 5644 0030 5DF804FB 		ldr	pc, [sp], #4
 5645              	.L731:
 5646              		.align	2
 5647              	.L730:
 5648 0034 00000000 		.word	modus
 5649              		.size	tms_get_sample_TTS, .-tms_get_sample_TTS
 5650              		.section	.text.tms_get_sample_bendlength,"ax",%progbits
 5651              		.align	1
 5652              		.p2align 2,,3
 5653              		.global	tms_get_sample_bendlength
 5654              		.syntax unified
 5655              		.thumb
 5656              		.thumb_func
 5657              		.type	tms_get_sample_bendlength, %function
 5658              	tms_get_sample_bendlength:
 5659              		@ args = 0, pretend = 0, frame = 16
 5660              		@ frame_needed = 0, uses_anonymous_args = 0
 5661 0000 00B5     		push	{lr}
 5662 0002 85B0     		sub	sp, sp, #20
 5663 0004 0023     		movs	r3, #0
 5664 0006 0B4A     		ldr	r2, .L736
 5665 0008 0421     		movs	r1, #4
 5666 000a 0DF10F00 		add	r0, sp, #15
 5667 000e 8DF80F30 		strb	r3, [sp, #15]
 5668 0012 1170     		strb	r1, [r2]
 5669 0014 FFF7FEFF 		bl	process
 5670 0018 9DF80F30 		ldrb	r3, [sp, #15]	@ zero_extendqisi2
 5671 001c 012B     		cmp	r3, #1
 5672 001e 02D0     		beq	.L735
 5673 0020 05B0     		add	sp, sp, #20
 5674              		@ sp needed
 5675 0022 5DF804FB 		ldr	pc, [sp], #4
 5676              	.L735:
 5677 0026 0190     		str	r0, [sp, #4]
 5678 0028 FFF7FEFF 		bl	tms_newsay
 5679 002c 0198     		ldr	r0, [sp, #4]
 5680 002e 05B0     		add	sp, sp, #20
 5681              		@ sp needed
 5682 0030 5DF804FB 		ldr	pc, [sp], #4
 5683              	.L737:
 5684              		.align	2
 5685              	.L736:
 5686 0034 00000000 		.word	modus
 5687              		.size	tms_get_sample_bendlength, .-tms_get_sample_bendlength
 5688              		.section	.text.tms_get_sample_raw5100,"ax",%progbits
 5689              		.align	1
 5690              		.p2align 2,,3
 5691              		.global	tms_get_sample_raw5100
 5692              		.syntax unified
 5693              		.thumb
 5694              		.thumb_func
 5695              		.type	tms_get_sample_raw5100, %function
 5696              	tms_get_sample_raw5100:
 5697              		@ args = 0, pretend = 0, frame = 0
 5698              		@ frame_needed = 0, uses_anonymous_args = 0
 5699              		@ link register save eliminated.
 5700 0000 0349     		ldr	r1, .L739
ARM GAS  /tmp/ccONvy4E.s 			page 102


 5701 0002 0020     		movs	r0, #0
 5702 0004 034B     		ldr	r3, .L739+4
 5703 0006 044A     		ldr	r2, .L739+8
 5704 0008 0870     		strb	r0, [r1]
 5705 000a 1A60     		str	r2, [r3]
 5706 000c FFF7FEBF 		b	process5100raw
 5707              	.L740:
 5708              		.align	2
 5709              	.L739:
 5710 0010 00000000 		.word	modus
 5711 0014 00000000 		.word	m_coeff
 5712 0018 00000000 		.word	T0280B_0281A_coeff
 5713              		.size	tms_get_sample_raw5100, .-tms_get_sample_raw5100
 5714              		.section	.text.tms_get_sample_raw5200,"ax",%progbits
 5715              		.align	1
 5716              		.p2align 2,,3
 5717              		.global	tms_get_sample_raw5200
 5718              		.syntax unified
 5719              		.thumb
 5720              		.thumb_func
 5721              		.type	tms_get_sample_raw5200, %function
 5722              	tms_get_sample_raw5200:
 5723              		@ args = 0, pretend = 0, frame = 0
 5724              		@ frame_needed = 0, uses_anonymous_args = 0
 5725              		@ link register save eliminated.
 5726 0000 0349     		ldr	r1, .L742
 5727 0002 0020     		movs	r0, #0
 5728 0004 034B     		ldr	r3, .L742+4
 5729 0006 044A     		ldr	r2, .L742+8
 5730 0008 0870     		strb	r0, [r1]
 5731 000a 1A60     		str	r2, [r3]
 5732 000c FFF7FEBF 		b	process5100raw
 5733              	.L743:
 5734              		.align	2
 5735              	.L742:
 5736 0010 00000000 		.word	modus
 5737 0014 00000000 		.word	m_coeff
 5738 0018 00000000 		.word	T0285_2501E_coeff
 5739              		.size	tms_get_sample_raw5200, .-tms_get_sample_raw5200
 5740              		.section	.text.tms_get_sample_raw5220,"ax",%progbits
 5741              		.align	1
 5742              		.p2align 2,,3
 5743              		.global	tms_get_sample_raw5220
 5744              		.syntax unified
 5745              		.thumb
 5746              		.thumb_func
 5747              		.type	tms_get_sample_raw5220, %function
 5748              	tms_get_sample_raw5220:
 5749              		@ args = 0, pretend = 0, frame = 0
 5750              		@ frame_needed = 0, uses_anonymous_args = 0
 5751              		@ link register save eliminated.
 5752 0000 0349     		ldr	r1, .L745
 5753 0002 0020     		movs	r0, #0
 5754 0004 034B     		ldr	r3, .L745+4
 5755 0006 044A     		ldr	r2, .L745+8
 5756 0008 0870     		strb	r0, [r1]
 5757 000a 1A60     		str	r2, [r3]
ARM GAS  /tmp/ccONvy4E.s 			page 103


 5758 000c FFF7FEBF 		b	process5100raw
 5759              	.L746:
 5760              		.align	2
 5761              	.L745:
 5762 0010 00000000 		.word	modus
 5763 0014 00000000 		.word	m_coeff
 5764 0018 00000000 		.word	tms5220_coeff
 5765              		.size	tms_get_sample_raw5220, .-tms_get_sample_raw5220
 5766              		.section	.text.tms_get_sample_bend5100,"ax",%progbits
 5767              		.align	1
 5768              		.p2align 2,,3
 5769              		.global	tms_get_sample_bend5100
 5770              		.syntax unified
 5771              		.thumb
 5772              		.thumb_func
 5773              		.type	tms_get_sample_bend5100, %function
 5774              	tms_get_sample_bend5100:
 5775              		@ args = 0, pretend = 0, frame = 8
 5776              		@ frame_needed = 0, uses_anonymous_args = 0
 5777 0000 30B5     		push	{r4, r5, lr}
 5778 0002 83B0     		sub	sp, sp, #12
 5779 0004 0023     		movs	r3, #0
 5780 0006 0D4C     		ldr	r4, .L751
 5781 0008 0546     		mov	r5, r0
 5782 000a 0D4A     		ldr	r2, .L751+4
 5783 000c 0DF10700 		add	r0, sp, #7
 5784 0010 0C49     		ldr	r1, .L751+8
 5785 0012 2370     		strb	r3, [r4]
 5786 0014 8DF80730 		strb	r3, [sp, #7]
 5787 0018 1160     		str	r1, [r2]
 5788 001a FFF7FEFF 		bl	processbend5100
 5789 001e 9DF80730 		ldrb	r3, [sp, #7]	@ zero_extendqisi2
 5790 0022 0446     		mov	r4, r0
 5791 0024 012B     		cmp	r3, #1
 5792 0026 02D0     		beq	.L750
 5793 0028 2046     		mov	r0, r4
 5794 002a 03B0     		add	sp, sp, #12
 5795              		@ sp needed
 5796 002c 30BD     		pop	{r4, r5, pc}
 5797              	.L750:
 5798 002e 2846     		mov	r0, r5
 5799 0030 FFF7FEFF 		bl	tms_newsay_specific
 5800 0034 2046     		mov	r0, r4
 5801 0036 03B0     		add	sp, sp, #12
 5802              		@ sp needed
 5803 0038 30BD     		pop	{r4, r5, pc}
 5804              	.L752:
 5805 003a 00BF     		.align	2
 5806              	.L751:
 5807 003c 00000000 		.word	modus
 5808 0040 00000000 		.word	m_coeff
 5809 0044 00000000 		.word	T0280B_0281A_coeff
 5810              		.size	tms_get_sample_bend5100, .-tms_get_sample_bend5100
 5811              		.section	.text.tms_get_sample_bend5100w,"ax",%progbits
 5812              		.align	1
 5813              		.p2align 2,,3
 5814              		.global	tms_get_sample_bend5100w
ARM GAS  /tmp/ccONvy4E.s 			page 104


 5815              		.syntax unified
 5816              		.thumb
 5817              		.thumb_func
 5818              		.type	tms_get_sample_bend5100w, %function
 5819              	tms_get_sample_bend5100w:
 5820              		@ args = 0, pretend = 0, frame = 8
 5821              		@ frame_needed = 0, uses_anonymous_args = 0
 5822 0000 10B5     		push	{r4, lr}
 5823 0002 0023     		movs	r3, #0
 5824 0004 82B0     		sub	sp, sp, #8
 5825 0006 0C48     		ldr	r0, .L757
 5826 0008 0C4A     		ldr	r2, .L757+4
 5827 000a 0D49     		ldr	r1, .L757+8
 5828 000c 0D4C     		ldr	r4, .L757+12
 5829 000e 0370     		strb	r3, [r0]
 5830 0010 0DF10700 		add	r0, sp, #7
 5831 0014 8DF80730 		strb	r3, [sp, #7]
 5832 0018 2478     		ldrb	r4, [r4]	@ zero_extendqisi2
 5833 001a 1160     		str	r1, [r2]
 5834 001c FFF7FEFF 		bl	processbend5100
 5835 0020 9DF80730 		ldrb	r3, [sp, #7]	@ zero_extendqisi2
 5836 0024 012B     		cmp	r3, #1
 5837 0026 01D0     		beq	.L756
 5838 0028 02B0     		add	sp, sp, #8
 5839              		@ sp needed
 5840 002a 10BD     		pop	{r4, pc}
 5841              	.L756:
 5842 002c 2046     		mov	r0, r4
 5843 002e FFF7FEFF 		bl	tms_newsay_specific
 5844 0032 02B0     		add	sp, sp, #8
 5845              		@ sp needed
 5846 0034 10BD     		pop	{r4, pc}
 5847              	.L758:
 5848 0036 00BF     		.align	2
 5849              	.L757:
 5850 0038 00000000 		.word	modus
 5851 003c 00000000 		.word	m_coeff
 5852 0040 00000000 		.word	T0280B_0281A_coeff
 5853 0044 00000000 		.word	last5100
 5854              		.size	tms_get_sample_bend5100w, .-tms_get_sample_bend5100w
 5855              		.section	.text.tms_get_sample_bend5200,"ax",%progbits
 5856              		.align	1
 5857              		.p2align 2,,3
 5858              		.global	tms_get_sample_bend5200
 5859              		.syntax unified
 5860              		.thumb
 5861              		.thumb_func
 5862              		.type	tms_get_sample_bend5200, %function
 5863              	tms_get_sample_bend5200:
 5864              		@ args = 0, pretend = 0, frame = 8
 5865              		@ frame_needed = 0, uses_anonymous_args = 0
 5866 0000 30B5     		push	{r4, r5, lr}
 5867 0002 83B0     		sub	sp, sp, #12
 5868 0004 0023     		movs	r3, #0
 5869 0006 0D4C     		ldr	r4, .L763
 5870 0008 0546     		mov	r5, r0
 5871 000a 0D4A     		ldr	r2, .L763+4
ARM GAS  /tmp/ccONvy4E.s 			page 105


 5872 000c 0DF10700 		add	r0, sp, #7
 5873 0010 0C49     		ldr	r1, .L763+8
 5874 0012 2370     		strb	r3, [r4]
 5875 0014 8DF80730 		strb	r3, [sp, #7]
 5876 0018 1160     		str	r1, [r2]
 5877 001a FFF7FEFF 		bl	processbend5100
 5878 001e 9DF80730 		ldrb	r3, [sp, #7]	@ zero_extendqisi2
 5879 0022 0446     		mov	r4, r0
 5880 0024 012B     		cmp	r3, #1
 5881 0026 02D0     		beq	.L762
 5882 0028 2046     		mov	r0, r4
 5883 002a 03B0     		add	sp, sp, #12
 5884              		@ sp needed
 5885 002c 30BD     		pop	{r4, r5, pc}
 5886              	.L762:
 5887 002e 2846     		mov	r0, r5
 5888 0030 FFF7FEFF 		bl	tms_newsay_specific
 5889 0034 2046     		mov	r0, r4
 5890 0036 03B0     		add	sp, sp, #12
 5891              		@ sp needed
 5892 0038 30BD     		pop	{r4, r5, pc}
 5893              	.L764:
 5894 003a 00BF     		.align	2
 5895              	.L763:
 5896 003c 00000000 		.word	modus
 5897 0040 00000000 		.word	m_coeff
 5898 0044 00000000 		.word	T0285_2501E_coeff
 5899              		.size	tms_get_sample_bend5200, .-tms_get_sample_bend5200
 5900              		.section	.text.tms_get_sample_bend5200a,"ax",%progbits
 5901              		.align	1
 5902              		.p2align 2,,3
 5903              		.global	tms_get_sample_bend5200a
 5904              		.syntax unified
 5905              		.thumb
 5906              		.thumb_func
 5907              		.type	tms_get_sample_bend5200a, %function
 5908              	tms_get_sample_bend5200a:
 5909              		@ args = 0, pretend = 0, frame = 8
 5910              		@ frame_needed = 0, uses_anonymous_args = 0
 5911 0000 10B5     		push	{r4, lr}
 5912 0002 82B0     		sub	sp, sp, #8
 5913 0004 0B4B     		ldr	r3, .L769
 5914 0006 0024     		movs	r4, #0
 5915 0008 0B49     		ldr	r1, .L769+4
 5916 000a 0C4A     		ldr	r2, .L769+8
 5917 000c 0DF10700 		add	r0, sp, #7
 5918 0010 0C70     		strb	r4, [r1]
 5919 0012 1A60     		str	r2, [r3]
 5920 0014 8DF80740 		strb	r4, [sp, #7]
 5921 0018 FFF7FEFF 		bl	processbend5100
 5922 001c 9DF80730 		ldrb	r3, [sp, #7]	@ zero_extendqisi2
 5923 0020 012B     		cmp	r3, #1
 5924 0022 01D0     		beq	.L768
 5925 0024 02B0     		add	sp, sp, #8
 5926              		@ sp needed
 5927 0026 10BD     		pop	{r4, pc}
 5928              	.L768:
ARM GAS  /tmp/ccONvy4E.s 			page 106


 5929 0028 2046     		mov	r0, r4
 5930 002a FFF7FEFF 		bl	tms_newsay_specific
 5931 002e 02B0     		add	sp, sp, #8
 5932              		@ sp needed
 5933 0030 10BD     		pop	{r4, pc}
 5934              	.L770:
 5935 0032 00BF     		.align	2
 5936              	.L769:
 5937 0034 00000000 		.word	m_coeff
 5938 0038 00000000 		.word	modus
 5939 003c 00000000 		.word	T0285_2501E_coeff
 5940              		.size	tms_get_sample_bend5200a, .-tms_get_sample_bend5200a
 5941              		.section	.text.tms_get_sample_bend5200x,"ax",%progbits
 5942              		.align	1
 5943              		.p2align 2,,3
 5944              		.global	tms_get_sample_bend5200x
 5945              		.syntax unified
 5946              		.thumb
 5947              		.thumb_func
 5948              		.type	tms_get_sample_bend5200x, %function
 5949              	tms_get_sample_bend5200x:
 5950              		@ args = 0, pretend = 0, frame = 8
 5951              		@ frame_needed = 0, uses_anonymous_args = 0
 5952 0000 10B5     		push	{r4, lr}
 5953 0002 0023     		movs	r3, #0
 5954 0004 82B0     		sub	sp, sp, #8
 5955 0006 0C48     		ldr	r0, .L775
 5956 0008 0C4A     		ldr	r2, .L775+4
 5957 000a 0D49     		ldr	r1, .L775+8
 5958 000c 0D4C     		ldr	r4, .L775+12
 5959 000e 0370     		strb	r3, [r0]
 5960 0010 0DF10700 		add	r0, sp, #7
 5961 0014 8DF80730 		strb	r3, [sp, #7]
 5962 0018 2478     		ldrb	r4, [r4]	@ zero_extendqisi2
 5963 001a 1160     		str	r1, [r2]
 5964 001c FFF7FEFF 		bl	processbend5100
 5965 0020 9DF80730 		ldrb	r3, [sp, #7]	@ zero_extendqisi2
 5966 0024 012B     		cmp	r3, #1
 5967 0026 01D0     		beq	.L774
 5968 0028 02B0     		add	sp, sp, #8
 5969              		@ sp needed
 5970 002a 10BD     		pop	{r4, pc}
 5971              	.L774:
 5972 002c 2046     		mov	r0, r4
 5973 002e FFF7FEFF 		bl	tms_newsay_specific
 5974 0032 02B0     		add	sp, sp, #8
 5975              		@ sp needed
 5976 0034 10BD     		pop	{r4, pc}
 5977              	.L776:
 5978 0036 00BF     		.align	2
 5979              	.L775:
 5980 0038 00000000 		.word	modus
 5981 003c 00000000 		.word	m_coeff
 5982 0040 00000000 		.word	T0285_2501E_coeff
 5983 0044 00000000 		.word	last5200
 5984              		.size	tms_get_sample_bend5200x, .-tms_get_sample_bend5200x
 5985              		.section	.text.tms_get_sample_5100pitchtable,"ax",%progbits
ARM GAS  /tmp/ccONvy4E.s 			page 107


 5986              		.align	1
 5987              		.p2align 2,,3
 5988              		.global	tms_get_sample_5100pitchtable
 5989              		.syntax unified
 5990              		.thumb
 5991              		.thumb_func
 5992              		.type	tms_get_sample_5100pitchtable, %function
 5993              	tms_get_sample_5100pitchtable:
 5994              		@ args = 0, pretend = 0, frame = 8
 5995              		@ frame_needed = 0, uses_anonymous_args = 0
 5996 0000 30B5     		push	{r4, r5, lr}
 5997 0002 83B0     		sub	sp, sp, #12
 5998 0004 0023     		movs	r3, #0
 5999 0006 0D4C     		ldr	r4, .L781
 6000 0008 0546     		mov	r5, r0
 6001 000a 0D4A     		ldr	r2, .L781+4
 6002 000c 0DF10700 		add	r0, sp, #7
 6003 0010 0C49     		ldr	r1, .L781+8
 6004 0012 2370     		strb	r3, [r4]
 6005 0014 8DF80730 		strb	r3, [sp, #7]
 6006 0018 1160     		str	r1, [r2]
 6007 001a FFF7FEFF 		bl	process_pitch_tabled5100
 6008 001e 9DF80730 		ldrb	r3, [sp, #7]	@ zero_extendqisi2
 6009 0022 0446     		mov	r4, r0
 6010 0024 012B     		cmp	r3, #1
 6011 0026 02D0     		beq	.L780
 6012 0028 2046     		mov	r0, r4
 6013 002a 03B0     		add	sp, sp, #12
 6014              		@ sp needed
 6015 002c 30BD     		pop	{r4, r5, pc}
 6016              	.L780:
 6017 002e 2846     		mov	r0, r5
 6018 0030 FFF7FEFF 		bl	tms_newsay_specific
 6019 0034 2046     		mov	r0, r4
 6020 0036 03B0     		add	sp, sp, #12
 6021              		@ sp needed
 6022 0038 30BD     		pop	{r4, r5, pc}
 6023              	.L782:
 6024 003a 00BF     		.align	2
 6025              	.L781:
 6026 003c 00000000 		.word	modus
 6027 0040 00000000 		.word	m_coeff
 6028 0044 00000000 		.word	T0280B_0281A_coeff
 6029              		.size	tms_get_sample_5100pitchtable, .-tms_get_sample_5100pitchtable
 6030              		.section	.text.tms_get_sample_5100pitchtablew,"ax",%progbits
 6031              		.align	1
 6032              		.p2align 2,,3
 6033              		.global	tms_get_sample_5100pitchtablew
 6034              		.syntax unified
 6035              		.thumb
 6036              		.thumb_func
 6037              		.type	tms_get_sample_5100pitchtablew, %function
 6038              	tms_get_sample_5100pitchtablew:
 6039              		@ args = 0, pretend = 0, frame = 8
 6040              		@ frame_needed = 0, uses_anonymous_args = 0
 6041 0000 10B5     		push	{r4, lr}
 6042 0002 0023     		movs	r3, #0
ARM GAS  /tmp/ccONvy4E.s 			page 108


 6043 0004 82B0     		sub	sp, sp, #8
 6044 0006 0C48     		ldr	r0, .L787
 6045 0008 0C4A     		ldr	r2, .L787+4
 6046 000a 0D49     		ldr	r1, .L787+8
 6047 000c 0D4C     		ldr	r4, .L787+12
 6048 000e 0370     		strb	r3, [r0]
 6049 0010 0DF10700 		add	r0, sp, #7
 6050 0014 8DF80730 		strb	r3, [sp, #7]
 6051 0018 2478     		ldrb	r4, [r4]	@ zero_extendqisi2
 6052 001a 1160     		str	r1, [r2]
 6053 001c FFF7FEFF 		bl	process_pitch_tabled5100
 6054 0020 9DF80730 		ldrb	r3, [sp, #7]	@ zero_extendqisi2
 6055 0024 012B     		cmp	r3, #1
 6056 0026 01D0     		beq	.L786
 6057 0028 02B0     		add	sp, sp, #8
 6058              		@ sp needed
 6059 002a 10BD     		pop	{r4, pc}
 6060              	.L786:
 6061 002c 2046     		mov	r0, r4
 6062 002e FFF7FEFF 		bl	tms_newsay_specific
 6063 0032 02B0     		add	sp, sp, #8
 6064              		@ sp needed
 6065 0034 10BD     		pop	{r4, pc}
 6066              	.L788:
 6067 0036 00BF     		.align	2
 6068              	.L787:
 6069 0038 00000000 		.word	modus
 6070 003c 00000000 		.word	m_coeff
 6071 0040 00000000 		.word	T0280B_0281A_coeff
 6072 0044 00000000 		.word	last5100
 6073              		.size	tms_get_sample_5100pitchtablew, .-tms_get_sample_5100pitchtablew
 6074              		.section	.text.tms_get_sample_5200pitchtable,"ax",%progbits
 6075              		.align	1
 6076              		.p2align 2,,3
 6077              		.global	tms_get_sample_5200pitchtable
 6078              		.syntax unified
 6079              		.thumb
 6080              		.thumb_func
 6081              		.type	tms_get_sample_5200pitchtable, %function
 6082              	tms_get_sample_5200pitchtable:
 6083              		@ args = 0, pretend = 0, frame = 8
 6084              		@ frame_needed = 0, uses_anonymous_args = 0
 6085 0000 30B5     		push	{r4, r5, lr}
 6086 0002 83B0     		sub	sp, sp, #12
 6087 0004 0023     		movs	r3, #0
 6088 0006 0D4C     		ldr	r4, .L793
 6089 0008 0546     		mov	r5, r0
 6090 000a 0D4A     		ldr	r2, .L793+4
 6091 000c 0DF10700 		add	r0, sp, #7
 6092 0010 0C49     		ldr	r1, .L793+8
 6093 0012 2370     		strb	r3, [r4]
 6094 0014 8DF80730 		strb	r3, [sp, #7]
 6095 0018 1160     		str	r1, [r2]
 6096 001a FFF7FEFF 		bl	process_pitch_tabled5100
 6097 001e 9DF80730 		ldrb	r3, [sp, #7]	@ zero_extendqisi2
 6098 0022 0446     		mov	r4, r0
 6099 0024 012B     		cmp	r3, #1
ARM GAS  /tmp/ccONvy4E.s 			page 109


 6100 0026 02D0     		beq	.L792
 6101 0028 2046     		mov	r0, r4
 6102 002a 03B0     		add	sp, sp, #12
 6103              		@ sp needed
 6104 002c 30BD     		pop	{r4, r5, pc}
 6105              	.L792:
 6106 002e 2846     		mov	r0, r5
 6107 0030 FFF7FEFF 		bl	tms_newsay_specific
 6108 0034 2046     		mov	r0, r4
 6109 0036 03B0     		add	sp, sp, #12
 6110              		@ sp needed
 6111 0038 30BD     		pop	{r4, r5, pc}
 6112              	.L794:
 6113 003a 00BF     		.align	2
 6114              	.L793:
 6115 003c 00000000 		.word	modus
 6116 0040 00000000 		.word	m_coeff
 6117 0044 00000000 		.word	T0285_2501E_coeff
 6118              		.size	tms_get_sample_5200pitchtable, .-tms_get_sample_5200pitchtable
 6119              		.section	.text.tms_get_sample_5200pitchtablea,"ax",%progbits
 6120              		.align	1
 6121              		.p2align 2,,3
 6122              		.global	tms_get_sample_5200pitchtablea
 6123              		.syntax unified
 6124              		.thumb
 6125              		.thumb_func
 6126              		.type	tms_get_sample_5200pitchtablea, %function
 6127              	tms_get_sample_5200pitchtablea:
 6128              		@ args = 0, pretend = 0, frame = 8
 6129              		@ frame_needed = 0, uses_anonymous_args = 0
 6130 0000 10B5     		push	{r4, lr}
 6131 0002 82B0     		sub	sp, sp, #8
 6132 0004 0B4B     		ldr	r3, .L799
 6133 0006 0024     		movs	r4, #0
 6134 0008 0B49     		ldr	r1, .L799+4
 6135 000a 0C4A     		ldr	r2, .L799+8
 6136 000c 0DF10700 		add	r0, sp, #7
 6137 0010 0C70     		strb	r4, [r1]
 6138 0012 1A60     		str	r2, [r3]
 6139 0014 8DF80740 		strb	r4, [sp, #7]
 6140 0018 FFF7FEFF 		bl	process_pitch_tabled5100
 6141 001c 9DF80730 		ldrb	r3, [sp, #7]	@ zero_extendqisi2
 6142 0020 012B     		cmp	r3, #1
 6143 0022 01D0     		beq	.L798
 6144 0024 02B0     		add	sp, sp, #8
 6145              		@ sp needed
 6146 0026 10BD     		pop	{r4, pc}
 6147              	.L798:
 6148 0028 2046     		mov	r0, r4
 6149 002a FFF7FEFF 		bl	tms_newsay_specific
 6150 002e 02B0     		add	sp, sp, #8
 6151              		@ sp needed
 6152 0030 10BD     		pop	{r4, pc}
 6153              	.L800:
 6154 0032 00BF     		.align	2
 6155              	.L799:
 6156 0034 00000000 		.word	m_coeff
ARM GAS  /tmp/ccONvy4E.s 			page 110


 6157 0038 00000000 		.word	modus
 6158 003c 00000000 		.word	T0285_2501E_coeff
 6159              		.size	tms_get_sample_5200pitchtablea, .-tms_get_sample_5200pitchtablea
 6160              		.section	.text.tms_get_sample_5200pitchtablex,"ax",%progbits
 6161              		.align	1
 6162              		.p2align 2,,3
 6163              		.global	tms_get_sample_5200pitchtablex
 6164              		.syntax unified
 6165              		.thumb
 6166              		.thumb_func
 6167              		.type	tms_get_sample_5200pitchtablex, %function
 6168              	tms_get_sample_5200pitchtablex:
 6169              		@ args = 0, pretend = 0, frame = 8
 6170              		@ frame_needed = 0, uses_anonymous_args = 0
 6171 0000 10B5     		push	{r4, lr}
 6172 0002 0023     		movs	r3, #0
 6173 0004 82B0     		sub	sp, sp, #8
 6174 0006 0C48     		ldr	r0, .L805
 6175 0008 0C4A     		ldr	r2, .L805+4
 6176 000a 0D49     		ldr	r1, .L805+8
 6177 000c 0D4C     		ldr	r4, .L805+12
 6178 000e 0370     		strb	r3, [r0]
 6179 0010 0DF10700 		add	r0, sp, #7
 6180 0014 8DF80730 		strb	r3, [sp, #7]
 6181 0018 2478     		ldrb	r4, [r4]	@ zero_extendqisi2
 6182 001a 1160     		str	r1, [r2]
 6183 001c FFF7FEFF 		bl	process_pitch_tabled5100
 6184 0020 9DF80730 		ldrb	r3, [sp, #7]	@ zero_extendqisi2
 6185 0024 012B     		cmp	r3, #1
 6186 0026 01D0     		beq	.L804
 6187 0028 02B0     		add	sp, sp, #8
 6188              		@ sp needed
 6189 002a 10BD     		pop	{r4, pc}
 6190              	.L804:
 6191 002c 2046     		mov	r0, r4
 6192 002e FFF7FEFF 		bl	tms_newsay_specific
 6193 0032 02B0     		add	sp, sp, #8
 6194              		@ sp needed
 6195 0034 10BD     		pop	{r4, pc}
 6196              	.L806:
 6197 0036 00BF     		.align	2
 6198              	.L805:
 6199 0038 00000000 		.word	modus
 6200 003c 00000000 		.word	m_coeff
 6201 0040 00000000 		.word	T0285_2501E_coeff
 6202 0044 00000000 		.word	last5200
 6203              		.size	tms_get_sample_5200pitchtablex, .-tms_get_sample_5200pitchtablex
 6204              		.section	.text.tms_get_sample_5100ktable,"ax",%progbits
 6205              		.align	1
 6206              		.p2align 2,,3
 6207              		.global	tms_get_sample_5100ktable
 6208              		.syntax unified
 6209              		.thumb
 6210              		.thumb_func
 6211              		.type	tms_get_sample_5100ktable, %function
 6212              	tms_get_sample_5100ktable:
 6213              		@ args = 0, pretend = 0, frame = 8
ARM GAS  /tmp/ccONvy4E.s 			page 111


 6214              		@ frame_needed = 0, uses_anonymous_args = 0
 6215 0000 30B5     		push	{r4, r5, lr}
 6216 0002 83B0     		sub	sp, sp, #12
 6217 0004 0023     		movs	r3, #0
 6218 0006 0D4C     		ldr	r4, .L811
 6219 0008 0546     		mov	r5, r0
 6220 000a 0D4A     		ldr	r2, .L811+4
 6221 000c 0DF10700 		add	r0, sp, #7
 6222 0010 0C49     		ldr	r1, .L811+8
 6223 0012 2370     		strb	r3, [r4]
 6224 0014 8DF80730 		strb	r3, [sp, #7]
 6225 0018 1160     		str	r1, [r2]
 6226 001a FFF7FEFF 		bl	process_k_tabled5100
 6227 001e 9DF80730 		ldrb	r3, [sp, #7]	@ zero_extendqisi2
 6228 0022 0446     		mov	r4, r0
 6229 0024 012B     		cmp	r3, #1
 6230 0026 02D0     		beq	.L810
 6231 0028 2046     		mov	r0, r4
 6232 002a 03B0     		add	sp, sp, #12
 6233              		@ sp needed
 6234 002c 30BD     		pop	{r4, r5, pc}
 6235              	.L810:
 6236 002e 2846     		mov	r0, r5
 6237 0030 FFF7FEFF 		bl	tms_newsay_specific
 6238 0034 2046     		mov	r0, r4
 6239 0036 03B0     		add	sp, sp, #12
 6240              		@ sp needed
 6241 0038 30BD     		pop	{r4, r5, pc}
 6242              	.L812:
 6243 003a 00BF     		.align	2
 6244              	.L811:
 6245 003c 00000000 		.word	modus
 6246 0040 00000000 		.word	m_coeff
 6247 0044 00000000 		.word	T0280B_0281A_coeff
 6248              		.size	tms_get_sample_5100ktable, .-tms_get_sample_5100ktable
 6249              		.section	.text.tms_get_sample_5100ktablew,"ax",%progbits
 6250              		.align	1
 6251              		.p2align 2,,3
 6252              		.global	tms_get_sample_5100ktablew
 6253              		.syntax unified
 6254              		.thumb
 6255              		.thumb_func
 6256              		.type	tms_get_sample_5100ktablew, %function
 6257              	tms_get_sample_5100ktablew:
 6258              		@ args = 0, pretend = 0, frame = 8
 6259              		@ frame_needed = 0, uses_anonymous_args = 0
 6260 0000 10B5     		push	{r4, lr}
 6261 0002 0023     		movs	r3, #0
 6262 0004 82B0     		sub	sp, sp, #8
 6263 0006 0C48     		ldr	r0, .L817
 6264 0008 0C4A     		ldr	r2, .L817+4
 6265 000a 0D49     		ldr	r1, .L817+8
 6266 000c 0D4C     		ldr	r4, .L817+12
 6267 000e 0370     		strb	r3, [r0]
 6268 0010 0DF10700 		add	r0, sp, #7
 6269 0014 8DF80730 		strb	r3, [sp, #7]
 6270 0018 2478     		ldrb	r4, [r4]	@ zero_extendqisi2
ARM GAS  /tmp/ccONvy4E.s 			page 112


 6271 001a 1160     		str	r1, [r2]
 6272 001c FFF7FEFF 		bl	process_k_tabled5100
 6273 0020 9DF80730 		ldrb	r3, [sp, #7]	@ zero_extendqisi2
 6274 0024 012B     		cmp	r3, #1
 6275 0026 01D0     		beq	.L816
 6276 0028 02B0     		add	sp, sp, #8
 6277              		@ sp needed
 6278 002a 10BD     		pop	{r4, pc}
 6279              	.L816:
 6280 002c 2046     		mov	r0, r4
 6281 002e FFF7FEFF 		bl	tms_newsay_specific
 6282 0032 02B0     		add	sp, sp, #8
 6283              		@ sp needed
 6284 0034 10BD     		pop	{r4, pc}
 6285              	.L818:
 6286 0036 00BF     		.align	2
 6287              	.L817:
 6288 0038 00000000 		.word	modus
 6289 003c 00000000 		.word	m_coeff
 6290 0040 00000000 		.word	T0280B_0281A_coeff
 6291 0044 00000000 		.word	last5100
 6292              		.size	tms_get_sample_5100ktablew, .-tms_get_sample_5100ktablew
 6293              		.section	.text.tms_get_sample_5200ktable,"ax",%progbits
 6294              		.align	1
 6295              		.p2align 2,,3
 6296              		.global	tms_get_sample_5200ktable
 6297              		.syntax unified
 6298              		.thumb
 6299              		.thumb_func
 6300              		.type	tms_get_sample_5200ktable, %function
 6301              	tms_get_sample_5200ktable:
 6302              		@ args = 0, pretend = 0, frame = 8
 6303              		@ frame_needed = 0, uses_anonymous_args = 0
 6304 0000 30B5     		push	{r4, r5, lr}
 6305 0002 83B0     		sub	sp, sp, #12
 6306 0004 0023     		movs	r3, #0
 6307 0006 0D4C     		ldr	r4, .L823
 6308 0008 0546     		mov	r5, r0
 6309 000a 0D4A     		ldr	r2, .L823+4
 6310 000c 0DF10700 		add	r0, sp, #7
 6311 0010 0C49     		ldr	r1, .L823+8
 6312 0012 2370     		strb	r3, [r4]
 6313 0014 8DF80730 		strb	r3, [sp, #7]
 6314 0018 1160     		str	r1, [r2]
 6315 001a FFF7FEFF 		bl	process_k_tabled5100
 6316 001e 9DF80730 		ldrb	r3, [sp, #7]	@ zero_extendqisi2
 6317 0022 0446     		mov	r4, r0
 6318 0024 012B     		cmp	r3, #1
 6319 0026 02D0     		beq	.L822
 6320 0028 2046     		mov	r0, r4
 6321 002a 03B0     		add	sp, sp, #12
 6322              		@ sp needed
 6323 002c 30BD     		pop	{r4, r5, pc}
 6324              	.L822:
 6325 002e 2846     		mov	r0, r5
 6326 0030 FFF7FEFF 		bl	tms_newsay_specific
 6327 0034 2046     		mov	r0, r4
ARM GAS  /tmp/ccONvy4E.s 			page 113


 6328 0036 03B0     		add	sp, sp, #12
 6329              		@ sp needed
 6330 0038 30BD     		pop	{r4, r5, pc}
 6331              	.L824:
 6332 003a 00BF     		.align	2
 6333              	.L823:
 6334 003c 00000000 		.word	modus
 6335 0040 00000000 		.word	m_coeff
 6336 0044 00000000 		.word	T0285_2501E_coeff
 6337              		.size	tms_get_sample_5200ktable, .-tms_get_sample_5200ktable
 6338              		.section	.text.tms_get_sample_5200ktablea,"ax",%progbits
 6339              		.align	1
 6340              		.p2align 2,,3
 6341              		.global	tms_get_sample_5200ktablea
 6342              		.syntax unified
 6343              		.thumb
 6344              		.thumb_func
 6345              		.type	tms_get_sample_5200ktablea, %function
 6346              	tms_get_sample_5200ktablea:
 6347              		@ args = 0, pretend = 0, frame = 8
 6348              		@ frame_needed = 0, uses_anonymous_args = 0
 6349 0000 10B5     		push	{r4, lr}
 6350 0002 82B0     		sub	sp, sp, #8
 6351 0004 0B4B     		ldr	r3, .L829
 6352 0006 0024     		movs	r4, #0
 6353 0008 0B49     		ldr	r1, .L829+4
 6354 000a 0C4A     		ldr	r2, .L829+8
 6355 000c 0DF10700 		add	r0, sp, #7
 6356 0010 0C70     		strb	r4, [r1]
 6357 0012 1A60     		str	r2, [r3]
 6358 0014 8DF80740 		strb	r4, [sp, #7]
 6359 0018 FFF7FEFF 		bl	process_k_tabled5100
 6360 001c 9DF80730 		ldrb	r3, [sp, #7]	@ zero_extendqisi2
 6361 0020 012B     		cmp	r3, #1
 6362 0022 01D0     		beq	.L828
 6363 0024 02B0     		add	sp, sp, #8
 6364              		@ sp needed
 6365 0026 10BD     		pop	{r4, pc}
 6366              	.L828:
 6367 0028 2046     		mov	r0, r4
 6368 002a FFF7FEFF 		bl	tms_newsay_specific
 6369 002e 02B0     		add	sp, sp, #8
 6370              		@ sp needed
 6371 0030 10BD     		pop	{r4, pc}
 6372              	.L830:
 6373 0032 00BF     		.align	2
 6374              	.L829:
 6375 0034 00000000 		.word	m_coeff
 6376 0038 00000000 		.word	modus
 6377 003c 00000000 		.word	T0285_2501E_coeff
 6378              		.size	tms_get_sample_5200ktablea, .-tms_get_sample_5200ktablea
 6379              		.section	.text.tms_get_sample_5100kandpitchtable,"ax",%progbits
 6380              		.align	1
 6381              		.p2align 2,,3
 6382              		.global	tms_get_sample_5100kandpitchtable
 6383              		.syntax unified
 6384              		.thumb
ARM GAS  /tmp/ccONvy4E.s 			page 114


 6385              		.thumb_func
 6386              		.type	tms_get_sample_5100kandpitchtable, %function
 6387              	tms_get_sample_5100kandpitchtable:
 6388              		@ args = 0, pretend = 0, frame = 8
 6389              		@ frame_needed = 0, uses_anonymous_args = 0
 6390 0000 30B5     		push	{r4, r5, lr}
 6391 0002 83B0     		sub	sp, sp, #12
 6392 0004 0023     		movs	r3, #0
 6393 0006 0D4C     		ldr	r4, .L835
 6394 0008 0546     		mov	r5, r0
 6395 000a 0D4A     		ldr	r2, .L835+4
 6396 000c 0DF10700 		add	r0, sp, #7
 6397 0010 0C49     		ldr	r1, .L835+8
 6398 0012 2370     		strb	r3, [r4]
 6399 0014 8DF80730 		strb	r3, [sp, #7]
 6400 0018 1160     		str	r1, [r2]
 6401 001a FFF7FEFF 		bl	process_pitchk_tabled5100
 6402 001e 9DF80730 		ldrb	r3, [sp, #7]	@ zero_extendqisi2
 6403 0022 0446     		mov	r4, r0
 6404 0024 012B     		cmp	r3, #1
 6405 0026 02D0     		beq	.L834
 6406 0028 2046     		mov	r0, r4
 6407 002a 03B0     		add	sp, sp, #12
 6408              		@ sp needed
 6409 002c 30BD     		pop	{r4, r5, pc}
 6410              	.L834:
 6411 002e 2846     		mov	r0, r5
 6412 0030 FFF7FEFF 		bl	tms_newsay_specific
 6413 0034 2046     		mov	r0, r4
 6414 0036 03B0     		add	sp, sp, #12
 6415              		@ sp needed
 6416 0038 30BD     		pop	{r4, r5, pc}
 6417              	.L836:
 6418 003a 00BF     		.align	2
 6419              	.L835:
 6420 003c 00000000 		.word	modus
 6421 0040 00000000 		.word	m_coeff
 6422 0044 00000000 		.word	T0280B_0281A_coeff
 6423              		.size	tms_get_sample_5100kandpitchtable, .-tms_get_sample_5100kandpitchtable
 6424              		.section	.text.tms_get_sample_5100kandpitchtablew,"ax",%progbits
 6425              		.align	1
 6426              		.p2align 2,,3
 6427              		.global	tms_get_sample_5100kandpitchtablew
 6428              		.syntax unified
 6429              		.thumb
 6430              		.thumb_func
 6431              		.type	tms_get_sample_5100kandpitchtablew, %function
 6432              	tms_get_sample_5100kandpitchtablew:
 6433              		@ args = 0, pretend = 0, frame = 8
 6434              		@ frame_needed = 0, uses_anonymous_args = 0
 6435 0000 10B5     		push	{r4, lr}
 6436 0002 0023     		movs	r3, #0
 6437 0004 82B0     		sub	sp, sp, #8
 6438 0006 0C48     		ldr	r0, .L841
 6439 0008 0C4A     		ldr	r2, .L841+4
 6440 000a 0D49     		ldr	r1, .L841+8
 6441 000c 0D4C     		ldr	r4, .L841+12
ARM GAS  /tmp/ccONvy4E.s 			page 115


 6442 000e 0370     		strb	r3, [r0]
 6443 0010 0DF10700 		add	r0, sp, #7
 6444 0014 8DF80730 		strb	r3, [sp, #7]
 6445 0018 2478     		ldrb	r4, [r4]	@ zero_extendqisi2
 6446 001a 1160     		str	r1, [r2]
 6447 001c FFF7FEFF 		bl	process_pitchk_tabled5100
 6448 0020 9DF80730 		ldrb	r3, [sp, #7]	@ zero_extendqisi2
 6449 0024 012B     		cmp	r3, #1
 6450 0026 01D0     		beq	.L840
 6451 0028 02B0     		add	sp, sp, #8
 6452              		@ sp needed
 6453 002a 10BD     		pop	{r4, pc}
 6454              	.L840:
 6455 002c 2046     		mov	r0, r4
 6456 002e FFF7FEFF 		bl	tms_newsay_specific
 6457 0032 02B0     		add	sp, sp, #8
 6458              		@ sp needed
 6459 0034 10BD     		pop	{r4, pc}
 6460              	.L842:
 6461 0036 00BF     		.align	2
 6462              	.L841:
 6463 0038 00000000 		.word	modus
 6464 003c 00000000 		.word	m_coeff
 6465 0040 00000000 		.word	T0280B_0281A_coeff
 6466 0044 00000000 		.word	last5100
 6467              		.size	tms_get_sample_5100kandpitchtablew, .-tms_get_sample_5100kandpitchtablew
 6468              		.section	.text.tms_get_sample_5200kandpitchtable,"ax",%progbits
 6469              		.align	1
 6470              		.p2align 2,,3
 6471              		.global	tms_get_sample_5200kandpitchtable
 6472              		.syntax unified
 6473              		.thumb
 6474              		.thumb_func
 6475              		.type	tms_get_sample_5200kandpitchtable, %function
 6476              	tms_get_sample_5200kandpitchtable:
 6477              		@ args = 0, pretend = 0, frame = 8
 6478              		@ frame_needed = 0, uses_anonymous_args = 0
 6479 0000 30B5     		push	{r4, r5, lr}
 6480 0002 83B0     		sub	sp, sp, #12
 6481 0004 0023     		movs	r3, #0
 6482 0006 0D4C     		ldr	r4, .L847
 6483 0008 0546     		mov	r5, r0
 6484 000a 0D4A     		ldr	r2, .L847+4
 6485 000c 0DF10700 		add	r0, sp, #7
 6486 0010 0C49     		ldr	r1, .L847+8
 6487 0012 2370     		strb	r3, [r4]
 6488 0014 8DF80730 		strb	r3, [sp, #7]
 6489 0018 1160     		str	r1, [r2]
 6490 001a FFF7FEFF 		bl	process_pitchk_tabled5100
 6491 001e 9DF80730 		ldrb	r3, [sp, #7]	@ zero_extendqisi2
 6492 0022 0446     		mov	r4, r0
 6493 0024 012B     		cmp	r3, #1
 6494 0026 02D0     		beq	.L846
 6495 0028 2046     		mov	r0, r4
 6496 002a 03B0     		add	sp, sp, #12
 6497              		@ sp needed
 6498 002c 30BD     		pop	{r4, r5, pc}
ARM GAS  /tmp/ccONvy4E.s 			page 116


 6499              	.L846:
 6500 002e 2846     		mov	r0, r5
 6501 0030 FFF7FEFF 		bl	tms_newsay_specific
 6502 0034 2046     		mov	r0, r4
 6503 0036 03B0     		add	sp, sp, #12
 6504              		@ sp needed
 6505 0038 30BD     		pop	{r4, r5, pc}
 6506              	.L848:
 6507 003a 00BF     		.align	2
 6508              	.L847:
 6509 003c 00000000 		.word	modus
 6510 0040 00000000 		.word	m_coeff
 6511 0044 00000000 		.word	T0285_2501E_coeff
 6512              		.size	tms_get_sample_5200kandpitchtable, .-tms_get_sample_5200kandpitchtable
 6513              		.section	.text.tms_get_sample_5200kandpitchtablea,"ax",%progbits
 6514              		.align	1
 6515              		.p2align 2,,3
 6516              		.global	tms_get_sample_5200kandpitchtablea
 6517              		.syntax unified
 6518              		.thumb
 6519              		.thumb_func
 6520              		.type	tms_get_sample_5200kandpitchtablea, %function
 6521              	tms_get_sample_5200kandpitchtablea:
 6522              		@ args = 0, pretend = 0, frame = 8
 6523              		@ frame_needed = 0, uses_anonymous_args = 0
 6524 0000 10B5     		push	{r4, lr}
 6525 0002 82B0     		sub	sp, sp, #8
 6526 0004 0B4B     		ldr	r3, .L853
 6527 0006 0024     		movs	r4, #0
 6528 0008 0B49     		ldr	r1, .L853+4
 6529 000a 0C4A     		ldr	r2, .L853+8
 6530 000c 0DF10700 		add	r0, sp, #7
 6531 0010 0C70     		strb	r4, [r1]
 6532 0012 1A60     		str	r2, [r3]
 6533 0014 8DF80740 		strb	r4, [sp, #7]
 6534 0018 FFF7FEFF 		bl	process_pitchk_tabled5100
 6535 001c 9DF80730 		ldrb	r3, [sp, #7]	@ zero_extendqisi2
 6536 0020 012B     		cmp	r3, #1
 6537 0022 01D0     		beq	.L852
 6538 0024 02B0     		add	sp, sp, #8
 6539              		@ sp needed
 6540 0026 10BD     		pop	{r4, pc}
 6541              	.L852:
 6542 0028 2046     		mov	r0, r4
 6543 002a FFF7FEFF 		bl	tms_newsay_specific
 6544 002e 02B0     		add	sp, sp, #8
 6545              		@ sp needed
 6546 0030 10BD     		pop	{r4, pc}
 6547              	.L854:
 6548 0032 00BF     		.align	2
 6549              	.L853:
 6550 0034 00000000 		.word	m_coeff
 6551 0038 00000000 		.word	modus
 6552 003c 00000000 		.word	T0285_2501E_coeff
 6553              		.size	tms_get_sample_5200kandpitchtablea, .-tms_get_sample_5200kandpitchtablea
 6554              		.section	.text.tms_get_sample_5200kandpitchtablex,"ax",%progbits
 6555              		.align	1
ARM GAS  /tmp/ccONvy4E.s 			page 117


 6556              		.p2align 2,,3
 6557              		.global	tms_get_sample_5200kandpitchtablex
 6558              		.syntax unified
 6559              		.thumb
 6560              		.thumb_func
 6561              		.type	tms_get_sample_5200kandpitchtablex, %function
 6562              	tms_get_sample_5200kandpitchtablex:
 6563              		@ args = 0, pretend = 0, frame = 8
 6564              		@ frame_needed = 0, uses_anonymous_args = 0
 6565 0000 10B5     		push	{r4, lr}
 6566 0002 0023     		movs	r3, #0
 6567 0004 82B0     		sub	sp, sp, #8
 6568 0006 0C48     		ldr	r0, .L859
 6569 0008 0C4A     		ldr	r2, .L859+4
 6570 000a 0D49     		ldr	r1, .L859+8
 6571 000c 0D4C     		ldr	r4, .L859+12
 6572 000e 0370     		strb	r3, [r0]
 6573 0010 0DF10700 		add	r0, sp, #7
 6574 0014 8DF80730 		strb	r3, [sp, #7]
 6575 0018 2478     		ldrb	r4, [r4]	@ zero_extendqisi2
 6576 001a 1160     		str	r1, [r2]
 6577 001c FFF7FEFF 		bl	process_pitchk_tabled5100
 6578 0020 9DF80730 		ldrb	r3, [sp, #7]	@ zero_extendqisi2
 6579 0024 012B     		cmp	r3, #1
 6580 0026 01D0     		beq	.L858
 6581 0028 02B0     		add	sp, sp, #8
 6582              		@ sp needed
 6583 002a 10BD     		pop	{r4, pc}
 6584              	.L858:
 6585 002c 2046     		mov	r0, r4
 6586 002e FFF7FEFF 		bl	tms_newsay_specific
 6587 0032 02B0     		add	sp, sp, #8
 6588              		@ sp needed
 6589 0034 10BD     		pop	{r4, pc}
 6590              	.L860:
 6591 0036 00BF     		.align	2
 6592              	.L859:
 6593 0038 00000000 		.word	modus
 6594 003c 00000000 		.word	m_coeff
 6595 0040 00000000 		.word	T0285_2501E_coeff
 6596 0044 00000000 		.word	last5200
 6597              		.size	tms_get_sample_5200kandpitchtablex, .-tms_get_sample_5200kandpitchtablex
 6598              		.section	.bss.counter.0,"aw",%nobits
 6599              		.type	counter.0, %object
 6600              		.size	counter.0, 1
 6601              	counter.0:
 6602 0000 00       		.space	1
 6603              		.global	m_true_timing
 6604              		.section	.bss.m_true_timing,"aw",%nobits
 6605              		.type	m_true_timing, %object
 6606              		.size	m_true_timing, 1
 6607              	m_true_timing:
 6608 0000 00       		.space	1
 6609              		.global	m_io_ready
 6610              		.section	.bss.m_io_ready,"aw",%nobits
 6611              		.type	m_io_ready, %object
 6612              		.size	m_io_ready, 1
ARM GAS  /tmp/ccONvy4E.s 			page 118


 6613              	m_io_ready:
 6614 0000 00       		.space	1
 6615              		.global	m_digital_select
 6616              		.section	.data.m_digital_select,"aw"
 6617              		.type	m_digital_select, %object
 6618              		.size	m_digital_select, 1
 6619              	m_digital_select:
 6620 0000 01       		.byte	1
 6621              		.global	m_excitation_data
 6622              		.section	.bss.m_excitation_data,"aw",%nobits
 6623              		.align	1
 6624              		.type	m_excitation_data, %object
 6625              		.size	m_excitation_data, 2
 6626              	m_excitation_data:
 6627 0000 0000     		.space	2
 6628              		.global	m_RNG
 6629              		.section	.bss.m_RNG,"aw",%nobits
 6630              		.align	1
 6631              		.type	m_RNG, %object
 6632              		.size	m_RNG, 2
 6633              	m_RNG:
 6634 0000 0000     		.space	2
 6635              		.global	m_x
 6636              		.section	.bss.m_x,"aw",%nobits
 6637              		.align	2
 6638              		.type	m_x, %object
 6639              		.size	m_x, 40
 6640              	m_x:
 6641 0000 00000000 		.space	40
 6641      00000000 
 6641      00000000 
 6641      00000000 
 6641      00000000 
 6642              		.global	m_u
 6643              		.section	.bss.m_u,"aw",%nobits
 6644              		.align	2
 6645              		.type	m_u, %object
 6646              		.size	m_u, 44
 6647              	m_u:
 6648 0000 00000000 		.space	44
 6648      00000000 
 6648      00000000 
 6648      00000000 
 6648      00000000 
 6649              		.global	m_pitch_count
 6650              		.section	.bss.m_pitch_count,"aw",%nobits
 6651              		.align	1
 6652              		.type	m_pitch_count, %object
 6653              		.size	m_pitch_count, 2
 6654              	m_pitch_count:
 6655 0000 0000     		.space	2
 6656              		.global	m_c_variant_rate
 6657              		.section	.bss.m_c_variant_rate,"aw",%nobits
 6658              		.type	m_c_variant_rate, %object
 6659              		.size	m_c_variant_rate, 1
 6660              	m_c_variant_rate:
 6661 0000 00       		.space	1
ARM GAS  /tmp/ccONvy4E.s 			page 119


 6662              		.global	m_pitch_zero
 6663              		.section	.bss.m_pitch_zero,"aw",%nobits
 6664              		.type	m_pitch_zero, %object
 6665              		.size	m_pitch_zero, 1
 6666              	m_pitch_zero:
 6667 0000 00       		.space	1
 6668              		.global	m_zpar
 6669              		.section	.bss.m_zpar,"aw",%nobits
 6670              		.type	m_zpar, %object
 6671              		.size	m_zpar, 1
 6672              	m_zpar:
 6673 0000 00       		.space	1
 6674              		.global	m_uv_zpar
 6675              		.section	.bss.m_uv_zpar,"aw",%nobits
 6676              		.type	m_uv_zpar, %object
 6677              		.size	m_uv_zpar, 1
 6678              	m_uv_zpar:
 6679 0000 00       		.space	1
 6680              		.global	m_inhibit
 6681              		.section	.bss.m_inhibit,"aw",%nobits
 6682              		.type	m_inhibit, %object
 6683              		.size	m_inhibit, 1
 6684              	m_inhibit:
 6685 0000 00       		.space	1
 6686              		.global	m_IP
 6687              		.section	.bss.m_IP,"aw",%nobits
 6688              		.type	m_IP, %object
 6689              		.size	m_IP, 1
 6690              	m_IP:
 6691 0000 00       		.space	1
 6692              		.global	m_PC
 6693              		.section	.bss.m_PC,"aw",%nobits
 6694              		.type	m_PC, %object
 6695              		.size	m_PC, 1
 6696              	m_PC:
 6697 0000 00       		.space	1
 6698              		.global	m_subc_reload
 6699              		.section	.data.m_subc_reload,"aw"
 6700              		.type	m_subc_reload, %object
 6701              		.size	m_subc_reload, 1
 6702              	m_subc_reload:
 6703 0000 01       		.byte	1
 6704              		.global	m_subcycle
 6705              		.section	.bss.m_subcycle,"aw",%nobits
 6706              		.type	m_subcycle, %object
 6707              		.size	m_subcycle, 1
 6708              	m_subcycle:
 6709 0000 00       		.space	1
 6710              		.global	m_previous_energy
 6711              		.section	.bss.m_previous_energy,"aw",%nobits
 6712              		.align	1
 6713              		.type	m_previous_energy, %object
 6714              		.size	m_previous_energy, 2
 6715              	m_previous_energy:
 6716 0000 0000     		.space	2
 6717              		.global	m_current_k
 6718              		.section	.bss.m_current_k,"aw",%nobits
ARM GAS  /tmp/ccONvy4E.s 			page 120


 6719              		.align	2
 6720              		.type	m_current_k, %object
 6721              		.size	m_current_k, 40
 6722              	m_current_k:
 6723 0000 00000000 		.space	40
 6723      00000000 
 6723      00000000 
 6723      00000000 
 6723      00000000 
 6724              		.global	m_current_pitch
 6725              		.section	.bss.m_current_pitch,"aw",%nobits
 6726              		.align	2
 6727              		.type	m_current_pitch, %object
 6728              		.size	m_current_pitch, 4
 6729              	m_current_pitch:
 6730 0000 00000000 		.space	4
 6731              		.global	m_current_energy
 6732              		.section	.bss.m_current_energy,"aw",%nobits
 6733              		.align	2
 6734              		.type	m_current_energy, %object
 6735              		.size	m_current_energy, 4
 6736              	m_current_energy:
 6737 0000 00000000 		.space	4
 6738              		.global	m_old_uv_zpar
 6739              		.section	.bss.m_old_uv_zpar,"aw",%nobits
 6740              		.type	m_old_uv_zpar, %object
 6741              		.size	m_old_uv_zpar, 1
 6742              	m_old_uv_zpar:
 6743 0000 00       		.space	1
 6744              		.global	m_old_zpar
 6745              		.section	.bss.m_old_zpar,"aw",%nobits
 6746              		.type	m_old_zpar, %object
 6747              		.size	m_old_zpar, 1
 6748              	m_old_zpar:
 6749 0000 00       		.space	1
 6750              		.global	m_old_frame_k_idx
 6751              		.section	.bss.m_old_frame_k_idx,"aw",%nobits
 6752              		.align	2
 6753              		.type	m_old_frame_k_idx, %object
 6754              		.size	m_old_frame_k_idx, 10
 6755              	m_old_frame_k_idx:
 6756 0000 00000000 		.space	10
 6756      00000000 
 6756      0000
 6757              		.global	m_old_frame_pitch_idx
 6758              		.section	.bss.m_old_frame_pitch_idx,"aw",%nobits
 6759              		.type	m_old_frame_pitch_idx, %object
 6760              		.size	m_old_frame_pitch_idx, 1
 6761              	m_old_frame_pitch_idx:
 6762 0000 00       		.space	1
 6763              		.global	m_old_frame_energy_idx
 6764              		.section	.bss.m_old_frame_energy_idx,"aw",%nobits
 6765              		.type	m_old_frame_energy_idx, %object
 6766              		.size	m_old_frame_energy_idx, 1
 6767              	m_old_frame_energy_idx:
 6768 0000 00       		.space	1
 6769              		.global	m_target_k
ARM GAS  /tmp/ccONvy4E.s 			page 121


 6770              		.section	.bss.m_target_k,"aw",%nobits
 6771              		.align	2
 6772              		.type	m_target_k, %object
 6773              		.size	m_target_k, 20
 6774              	m_target_k:
 6775 0000 00000000 		.space	20
 6775      00000000 
 6775      00000000 
 6775      00000000 
 6775      00000000 
 6776              		.global	m_target_pitch
 6777              		.section	.bss.m_target_pitch,"aw",%nobits
 6778              		.align	1
 6779              		.type	m_target_pitch, %object
 6780              		.size	m_target_pitch, 2
 6781              	m_target_pitch:
 6782 0000 0000     		.space	2
 6783              		.global	m_target_energy
 6784              		.section	.bss.m_target_energy,"aw",%nobits
 6785              		.align	1
 6786              		.type	m_target_energy, %object
 6787              		.size	m_target_energy, 2
 6788              	m_target_energy:
 6789 0000 0000     		.space	2
 6790              		.global	m_new_frame_k_idx
 6791              		.section	.bss.m_new_frame_k_idx,"aw",%nobits
 6792              		.align	2
 6793              		.type	m_new_frame_k_idx, %object
 6794              		.size	m_new_frame_k_idx, 10
 6795              	m_new_frame_k_idx:
 6796 0000 00000000 		.space	10
 6796      00000000 
 6796      0000
 6797              		.global	m_new_frame_pitch_idx
 6798              		.section	.bss.m_new_frame_pitch_idx,"aw",%nobits
 6799              		.type	m_new_frame_pitch_idx, %object
 6800              		.size	m_new_frame_pitch_idx, 1
 6801              	m_new_frame_pitch_idx:
 6802 0000 00       		.space	1
 6803              		.global	m_new_frame_energy_idx
 6804              		.section	.bss.m_new_frame_energy_idx,"aw",%nobits
 6805              		.type	m_new_frame_energy_idx, %object
 6806              		.size	m_new_frame_energy_idx, 1
 6807              	m_new_frame_energy_idx:
 6808 0000 00       		.space	1
 6809              		.global	m_OLDP
 6810              		.section	.bss.m_OLDP,"aw",%nobits
 6811              		.type	m_OLDP, %object
 6812              		.size	m_OLDP, 1
 6813              	m_OLDP:
 6814 0000 00       		.space	1
 6815              		.global	m_OLDE
 6816              		.section	.bss.m_OLDE,"aw",%nobits
 6817              		.type	m_OLDE, %object
 6818              		.size	m_OLDE, 1
 6819              	m_OLDE:
 6820 0000 00       		.space	1
ARM GAS  /tmp/ccONvy4E.s 			page 122


 6821              		.global	m_ready_pin
 6822              		.section	.bss.m_ready_pin,"aw",%nobits
 6823              		.type	m_ready_pin, %object
 6824              		.size	m_ready_pin, 1
 6825              	m_ready_pin:
 6826 0000 00       		.space	1
 6827              		.global	m_irq_pin
 6828              		.section	.bss.m_irq_pin,"aw",%nobits
 6829              		.type	m_irq_pin, %object
 6830              		.size	m_irq_pin, 1
 6831              	m_irq_pin:
 6832 0000 00       		.space	1
 6833              		.global	m_buffer_empty
 6834              		.section	.bss.m_buffer_empty,"aw",%nobits
 6835              		.type	m_buffer_empty, %object
 6836              		.size	m_buffer_empty, 1
 6837              	m_buffer_empty:
 6838 0000 00       		.space	1
 6839              		.global	m_buffer_low
 6840              		.section	.bss.m_buffer_low,"aw",%nobits
 6841              		.type	m_buffer_low, %object
 6842              		.size	m_buffer_low, 1
 6843              	m_buffer_low:
 6844 0000 00       		.space	1
 6845              		.global	m_TALKD
 6846              		.section	.bss.m_TALKD,"aw",%nobits
 6847              		.type	m_TALKD, %object
 6848              		.size	m_TALKD, 1
 6849              	m_TALKD:
 6850 0000 00       		.space	1
 6851              		.global	m_TALK
 6852              		.section	.bss.m_TALK,"aw",%nobits
 6853              		.type	m_TALK, %object
 6854              		.size	m_TALK, 1
 6855              	m_TALK:
 6856 0000 00       		.space	1
 6857              		.global	m_DDIS
 6858              		.section	.bss.m_DDIS,"aw",%nobits
 6859              		.type	m_DDIS, %object
 6860              		.size	m_DDIS, 1
 6861              	m_DDIS:
 6862 0000 00       		.space	1
 6863              		.global	m_SPEN
 6864              		.section	.bss.m_SPEN,"aw",%nobits
 6865              		.type	m_SPEN, %object
 6866              		.size	m_SPEN, 1
 6867              	m_SPEN:
 6868 0000 00       		.space	1
 6869              		.global	m_previous_TALK_STATUS
 6870              		.section	.bss.m_previous_TALK_STATUS,"aw",%nobits
 6871              		.type	m_previous_TALK_STATUS, %object
 6872              		.size	m_previous_TALK_STATUS, 1
 6873              	m_previous_TALK_STATUS:
 6874 0000 00       		.space	1
 6875              		.global	m_talk_status
 6876              		.section	.bss.m_talk_status,"aw",%nobits
 6877              		.type	m_talk_status, %object
ARM GAS  /tmp/ccONvy4E.s 			page 123


 6878              		.size	m_talk_status, 1
 6879              	m_talk_status:
 6880 0000 00       		.space	1
 6881              		.global	m_speak_external
 6882              		.section	.bss.m_speak_external,"aw",%nobits
 6883              		.type	m_speak_external, %object
 6884              		.size	m_speak_external, 1
 6885              	m_speak_external:
 6886 0000 00       		.space	1
 6887              		.global	m_speaking_now
 6888              		.section	.bss.m_speaking_now,"aw",%nobits
 6889              		.type	m_speaking_now, %object
 6890              		.size	m_speaking_now, 1
 6891              	m_speaking_now:
 6892 0000 00       		.space	1
 6893              		.global	m_coeff
 6894              		.section	.bss.m_coeff,"aw",%nobits
 6895              		.align	2
 6896              		.type	m_coeff, %object
 6897              		.size	m_coeff, 4
 6898              	m_coeff:
 6899 0000 00000000 		.space	4
 6900              		.global	m_variant
 6901              		.section	.bss.m_variant,"aw",%nobits
 6902              		.align	2
 6903              		.type	m_variant, %object
 6904              		.size	m_variant, 4
 6905              	m_variant:
 6906 0000 00000000 		.space	4
 6907              		.section	.rodata.reload_table,"a"
 6908              		.align	2
 6909              		.type	reload_table, %object
 6910              		.size	reload_table, 4
 6911              	reload_table:
 6912 0000 00020406 		.ascii	"\000\002\004\006"
 6913              		.section	.bss.TTSlength,"aw",%nobits
 6914              		.type	TTSlength, %object
 6915              		.size	TTSlength, 1
 6916              	TTSlength:
 6917 0000 00       		.space	1
 6918              		.section	.bss.TTSindex,"aw",%nobits
 6919              		.type	TTSindex, %object
 6920              		.size	TTSindex, 1
 6921              	TTSindex:
 6922 0000 00       		.space	1
 6923              		.section	.bss.TTSoutarray,"aw",%nobits
 6924              		.align	2
 6925              		.type	TTSoutarray, %object
 6926              		.size	TTSoutarray, 256
 6927              	TTSoutarray:
 6928 0000 00000000 		.space	256
 6928      00000000 
 6928      00000000 
 6928      00000000 
 6928      00000000 
 6929              		.global	byte_rev
 6930              		.section	.bss.byte_rev,"aw",%nobits
ARM GAS  /tmp/ccONvy4E.s 			page 124


 6931              		.align	2
 6932              		.type	byte_rev, %object
 6933              		.size	byte_rev, 256
 6934              	byte_rev:
 6935 0000 00000000 		.space	256
 6935      00000000 
 6935      00000000 
 6935      00000000 
 6935      00000000 
 6936              		.section	.bss.ptrBit,"aw",%nobits
 6937              		.type	ptrBit, %object
 6938              		.size	ptrBit, 1
 6939              	ptrBit:
 6940 0000 00       		.space	1
 6941              		.section	.bss.ptrAddr,"aw",%nobits
 6942              		.align	2
 6943              		.type	ptrAddr, %object
 6944              		.size	ptrAddr, 4
 6945              	ptrAddr:
 6946 0000 00000000 		.space	4
 6947              		.global	allTMSvocabs
 6948              		.section	.data.allTMSvocabs,"aw"
 6949              		.align	2
 6950              		.type	allTMSvocabs, %object
 6951              		.size	allTMSvocabs, 288
 6952              	allTMSvocabs:
 6953 0000 00000000 		.word	vocab_alphons
 6954 0004 00000000 		.word	vocab_vocaid
 6955 0008 00000000 		.space	280
 6955      00000000 
 6955      00000000 
 6955      00000000 
 6955      00000000 
 6956              		.section	.data.last5200,"aw"
 6957              		.type	last5200, %object
 6958              		.size	last5200, 1
 6959              	last5200:
 6960 0000 3A       		.byte	58
 6961              		.section	.data.last5100,"aw"
 6962              		.type	last5100, %object
 6963              		.size	last5100, 1
 6964              	last5100:
 6965 0000 01       		.byte	1
 6966              		.global	vocab_vocaid
 6967              		.section	.rodata.vocab_vocaid,"a"
 6968              		.align	2
 6969              		.type	vocab_vocaid, %object
 6970              		.size	vocab_vocaid, 16
 6971              	vocab_vocaid:
 6972 0000 00000000 		.word	wordlist_spellvocaid
 6973 0004 00000000 		.word	T0280F_2801A_coeff
 6974 0008 7B00     		.short	123
 6975 000a 0000     		.space	2
 6976 000c 0000FE42 		.word	1123942400
 6977              		.global	vocab_alphons
 6978              		.section	.rodata.vocab_alphons,"a"
 6979              		.align	2
ARM GAS  /tmp/ccONvy4E.s 			page 125


 6980              		.type	vocab_alphons, %object
 6981              		.size	vocab_alphons, 16
 6982              	vocab_alphons:
 6983 0000 00000000 		.word	wordlist_alphons
 6984 0004 00000000 		.word	T0285_2501E_coeff
 6985 0008 7E00     		.short	126
 6986 000a 0000     		.space	2
 6987 000c 00000243 		.word	1124204544
 6988              		.global	wordlist_spellvocaid
 6989              		.section	.data.wordlist_spellvocaid,"aw"
 6990              		.align	2
 6991              		.type	wordlist_spellvocaid, %object
 6992              		.size	wordlist_spellvocaid, 496
 6993              	wordlist_spellvocaid:
 6994 0000 00000000 		.word	sp_spkvocaid0
 6995 0004 00000000 		.word	sp_spkvocaid1
 6996 0008 00000000 		.word	sp_spkvocaid2
 6997 000c 00000000 		.word	sp_spkvocaid3
 6998 0010 00000000 		.word	sp_spkvocaid4
 6999 0014 00000000 		.word	sp_spkvocaid5
 7000 0018 00000000 		.word	sp_spkvocaid6
 7001 001c 00000000 		.word	sp_spkvocaid7
 7002 0020 00000000 		.word	sp_spkvocaid8
 7003 0024 00000000 		.word	sp_spkvocaid9
 7004 0028 00000000 		.word	sp_spkvocaid10
 7005 002c 00000000 		.word	sp_spkvocaid11
 7006 0030 00000000 		.word	sp_spkvocaid12
 7007 0034 00000000 		.word	sp_spkvocaid13
 7008 0038 00000000 		.word	sp_spkvocaid14
 7009 003c 00000000 		.word	sp_spkvocaid15
 7010 0040 00000000 		.word	sp_spkvocaid16
 7011 0044 00000000 		.word	sp_spkvocaid17
 7012 0048 00000000 		.word	sp_spkvocaid18
 7013 004c 00000000 		.word	sp_spkvocaid19
 7014 0050 00000000 		.word	sp_spkvocaid20
 7015 0054 00000000 		.word	sp_spkvocaid21
 7016 0058 00000000 		.word	sp_spkvocaid22
 7017 005c 00000000 		.word	sp_spkvocaid23
 7018 0060 00000000 		.word	sp_spkvocaid24
 7019 0064 00000000 		.word	sp_spkvocaid25
 7020 0068 00000000 		.word	sp_spkvocaid26
 7021 006c 00000000 		.word	sp_spkvocaid27
 7022 0070 00000000 		.word	sp_spkvocaid28
 7023 0074 00000000 		.word	sp_spkvocaid29
 7024 0078 00000000 		.word	sp_spkvocaid30
 7025 007c 00000000 		.word	sp_spkvocaid31
 7026 0080 00000000 		.word	sp_spkvocaid32
 7027 0084 00000000 		.word	sp_spkvocaid33
 7028 0088 00000000 		.word	sp_spkvocaid34
 7029 008c 00000000 		.word	sp_spkvocaid35
 7030 0090 00000000 		.word	sp_spkvocaid36
 7031 0094 00000000 		.word	sp_spkvocaid37
 7032 0098 00000000 		.word	sp_spkvocaid38
 7033 009c 00000000 		.word	sp_spkvocaid39
 7034 00a0 00000000 		.word	sp_spkvocaid40
 7035 00a4 00000000 		.word	sp_spkvocaid41
 7036 00a8 00000000 		.word	sp_spkvocaid42
ARM GAS  /tmp/ccONvy4E.s 			page 126


 7037 00ac 00000000 		.word	sp_spkvocaid43
 7038 00b0 00000000 		.word	sp_spkvocaid44
 7039 00b4 00000000 		.word	sp_spkvocaid45
 7040 00b8 00000000 		.word	sp_spkvocaid46
 7041 00bc 00000000 		.word	sp_spkvocaid47
 7042 00c0 00000000 		.word	sp_spkvocaid48
 7043 00c4 00000000 		.word	sp_spkvocaid49
 7044 00c8 00000000 		.word	sp_spkvocaid50
 7045 00cc 00000000 		.word	sp_spkvocaid51
 7046 00d0 00000000 		.word	sp_spkvocaid52
 7047 00d4 00000000 		.word	sp_spkvocaid53
 7048 00d8 00000000 		.word	sp_spkvocaid54
 7049 00dc 00000000 		.word	sp_spkvocaid55
 7050 00e0 00000000 		.word	sp_spkvocaid56
 7051 00e4 00000000 		.word	sp_spkvocaid57
 7052 00e8 00000000 		.word	sp_spkvocaid58
 7053 00ec 00000000 		.word	sp_spkvocaid59
 7054 00f0 00000000 		.word	sp_spkvocaid60
 7055 00f4 00000000 		.word	sp_spkvocaid61
 7056 00f8 00000000 		.word	sp_spkvocaid62
 7057 00fc 00000000 		.word	sp_spkvocaid63
 7058 0100 00000000 		.word	sp_spkvocaid64
 7059 0104 00000000 		.word	sp_spkvocaid65
 7060 0108 00000000 		.word	sp_spkvocaid66
 7061 010c 00000000 		.word	sp_spkvocaid67
 7062 0110 00000000 		.word	sp_spkvocaid68
 7063 0114 00000000 		.word	sp_spkvocaid69
 7064 0118 00000000 		.word	sp_spkvocaid70
 7065 011c 00000000 		.word	sp_spkvocaid71
 7066 0120 00000000 		.word	sp_spkvocaid72
 7067 0124 00000000 		.word	sp_spkvocaid73
 7068 0128 00000000 		.word	sp_spkvocaid74
 7069 012c 00000000 		.word	sp_spkvocaid75
 7070 0130 00000000 		.word	sp_spkvocaid76
 7071 0134 00000000 		.word	sp_spkvocaid77
 7072 0138 00000000 		.word	sp_spkvocaid78
 7073 013c 00000000 		.word	sp_spkvocaid79
 7074 0140 00000000 		.word	sp_spkvocaid80
 7075 0144 00000000 		.word	sp_spkvocaid81
 7076 0148 00000000 		.word	sp_spkvocaid82
 7077 014c 00000000 		.word	sp_spkvocaid83
 7078 0150 00000000 		.word	sp_spkvocaid84
 7079 0154 00000000 		.word	sp_spkvocaid85
 7080 0158 00000000 		.word	sp_spkvocaid86
 7081 015c 00000000 		.word	sp_spkvocaid87
 7082 0160 00000000 		.word	sp_spkvocaid88
 7083 0164 00000000 		.word	sp_spkvocaid89
 7084 0168 00000000 		.word	sp_spkvocaid90
 7085 016c 00000000 		.word	sp_spkvocaid91
 7086 0170 00000000 		.word	sp_spkvocaid92
 7087 0174 00000000 		.word	sp_spkvocaid93
 7088 0178 00000000 		.word	sp_spkvocaid94
 7089 017c 00000000 		.word	sp_spkvocaid95
 7090 0180 00000000 		.word	sp_spkvocaid96
 7091 0184 00000000 		.word	sp_spkvocaid97
 7092 0188 00000000 		.word	sp_spkvocaid98
 7093 018c 00000000 		.word	sp_spkvocaid99
ARM GAS  /tmp/ccONvy4E.s 			page 127


 7094 0190 00000000 		.word	sp_spkvocaid100
 7095 0194 00000000 		.word	sp_spkvocaid101
 7096 0198 00000000 		.word	sp_spkvocaid102
 7097 019c 00000000 		.word	sp_spkvocaid103
 7098 01a0 00000000 		.word	sp_spkvocaid104
 7099 01a4 00000000 		.word	sp_spkvocaid105
 7100 01a8 00000000 		.word	sp_spkvocaid106
 7101 01ac 00000000 		.word	sp_spkvocaid107
 7102 01b0 00000000 		.word	sp_spkvocaid108
 7103 01b4 00000000 		.word	sp_spkvocaid109
 7104 01b8 00000000 		.word	sp_spkvocaid110
 7105 01bc 00000000 		.word	sp_spkvocaid111
 7106 01c0 00000000 		.word	sp_spkvocaid112
 7107 01c4 00000000 		.word	sp_spkvocaid113
 7108 01c8 00000000 		.word	sp_spkvocaid114
 7109 01cc 00000000 		.word	sp_spkvocaid115
 7110 01d0 00000000 		.word	sp_spkvocaid116
 7111 01d4 00000000 		.word	sp_spkvocaid117
 7112 01d8 00000000 		.word	sp_spkvocaid118
 7113 01dc 00000000 		.word	sp_spkvocaid119
 7114 01e0 00000000 		.word	sp_spkvocaid120
 7115 01e4 00000000 		.word	sp_spkvocaid121
 7116 01e8 00000000 		.word	sp_spkvocaid122
 7117 01ec 00000000 		.word	sp_spkvocaid123
 7118              		.global	sp_spkvocaid123
 7119              		.section	.rodata.sp_spkvocaid123,"a"
 7120              		.align	2
 7121              		.type	sp_spkvocaid123, %object
 7122              		.size	sp_spkvocaid123, 88
 7123              	sp_spkvocaid123:
 7124 0000 2A9BE26A 		.ascii	"*\233\342jn\314S\266[\\\235\362\346<\222kbV\232g\245"
 7124      6ECC53B6 
 7124      5B5C9DF2 
 7124      E63C926B 
 7124      62569A67 
 7125 0015 904D352C 		.ascii	"\220M5,\367H!\273\252i/\000`\200{\215R\252U\014\037"
 7125      F74821BB 
 7125      AA692F00 
 7125      60807B8D 
 7125      52AA550C 
 7126 002a ABAB0E6F 		.ascii	"\253\253\016o\340quF[\316\301\362\233\364\221\316t\006"
 7126      E0717546 
 7126      5BCEC1F2 
 7126      9BF491CE 
 7126      7406
 7127 003c DE1F27DC 		.ascii	"\336\037'\334\221\024\2746\216\272\305\001O\277\035"
 7127      9114BC36 
 7127      8EBAC501 
 7127      4FBF1D
 7128 004b 0000028C 		.ascii	"\000\000\002\2147\021\240\214S\004R6|"
 7128      3711A08C 
 7128      53045236 
 7128      7C
 7129              		.global	sp_spkvocaid122
 7130              		.section	.rodata.sp_spkvocaid122,"a"
 7131              		.align	2
 7132              		.type	sp_spkvocaid122, %object
ARM GAS  /tmp/ccONvy4E.s 			page 128


 7133              		.size	sp_spkvocaid122, 99
 7134              	sp_spkvocaid122:
 7135 0000 6E8ABC6A 		.ascii	"n\212\274j\346\262{+M\225\033\201xY\353\250\336\334"
 7135      E6B27B2B 
 7135      4D951B81 
 7135      7859EBA8 
 7135      DEDC
 7136 0012 18C6A255 		.ascii	"\030\306\242U\202\271R\312:\273\256\032\365\226c\326"
 7136      82B952CA 
 7136      3ABBAE1A 
 7136      F59663D6 
 7137 0022 3E2DE92D 		.ascii	">-\351-\307\254uf\264[NY\373\256sB\2360\236\252\353"
 7137      C7AC7566 
 7137      B45B4E59 
 7137      FBAE7342 
 7137      9E309EAA 
 7138 0037 F85E6E7A 		.ascii	"\370^nzv\333u5=|\255\216\347S\351xZI\337\245\360\211"
 7138      76DB7535 
 7138      3D7CAD8E 
 7138      E753E978 
 7138      5A49DFA5 
 7139 004d B55C7E34 		.ascii	"\265\\~4!\223i%}g\265\306Z\252\373\321\250^\246\031"
 7139      21936925 
 7139      7D67B5C6 
 7139      5AAAFBD1 
 7139      A85EA619 
 7140 0061 FF1F     		.ascii	"\377\037"
 7141              		.global	sp_spkvocaid121
 7142              		.section	.rodata.sp_spkvocaid121,"a"
 7143              		.align	2
 7144              		.type	sp_spkvocaid121, %object
 7145              		.size	sp_spkvocaid121, 98
 7146              	sp_spkvocaid121:
 7147 0000 6E18ADF1 		.ascii	"n\030\255\361h\311\302pJ\364U]\273a\245\352\233\244"
 7147      68C9C270 
 7147      4AF4555D 
 7147      BB61A5EA 
 7147      9BA4
 7148 0012 72C328B5 		.ascii	"r\303(\265'K3\232\363\256\231\035\345\264\352\234C\267"
 7148      274B339A 
 7148      F3AE991D 
 7148      E5B4EA9C 
 7148      43B7
 7149 0024 F629CD07 		.ascii	"\366)\315\007\206_\354\235[\256Q\240\352#\367\222j\020"
 7149      865FEC9D 
 7149      5BAE51A0 
 7149      EA23F792 
 7149      6A10
 7150 0036 CE9D5199 		.ascii	"\316\235Q\231\014f+\202\265%\333Z\206\271y\342\262\222"
 7150      0C662B82 
 7150      B525DB5A 
 7150      86B979E2 
 7150      B292
 7151 0048 15AE9A3A 		.ascii	"\025\256\232:\351x\3156sV\303-L\245\257\315\304g\237"
 7151      E978CD36 
 7151      7356C32D 
 7151      4CA5AFCD 
ARM GAS  /tmp/ccONvy4E.s 			page 129


 7151      C4679F
 7152 005b 7A4D08F6 		.ascii	"zM\010\366\227\351\007"
 7152      97E907
 7153              		.global	sp_spkvocaid120
 7154              		.section	.rodata.sp_spkvocaid120,"a"
 7155              		.align	2
 7156              		.type	sp_spkvocaid120, %object
 7157              		.size	sp_spkvocaid120, 97
 7158              	sp_spkvocaid120:
 7159 0000 290BF795 		.ascii	")\013\367\225\310\271knY\371\257@\312=\262\211o*\326"
 7159      C8B96B6E 
 7159      59F9AF40 
 7159      CA3DB289 
 7159      6F2AD6
 7160 0013 EBE4E052 		.ascii	"\353\344\340RS}\321\3119\273\204\306\222\231G\311\332"
 7160      537DD1C9 
 7160      39BB84C6 
 7160      929947C9 
 7160      DA
 7161 0024 B92A62B5 		.ascii	"\271*b\265R\254Sv\324n\255\206\300Ho\324f\224%5\341"
 7161      52AC5376 
 7161      D46EAD86 
 7161      C0486FD4 
 7161      66942535 
 7162 0039 B26C974D 		.ascii	"\262l\227M\247\275V\330\266Il\304\314x\334\261\335\360"
 7162      A7BD56D8 
 7162      B6496CC4 
 7162      CC78DCB1 
 7162      DDF0
 7163 004b CB73BAEB 		.ascii	"\313s\272\353\272\303\207\3650Ww\325\037i`\256\353\354"
 7163      BAC387F5 
 7163      305777D5 
 7163      1F6960AE 
 7163      EBEC
 7164 005d A7D1E201 		.ascii	"\247\321\342\001"
 7165              		.global	sp_spkvocaid119
 7166              		.section	.rodata.sp_spkvocaid119,"a"
 7167              		.align	2
 7168              		.type	sp_spkvocaid119, %object
 7169              		.size	sp_spkvocaid119, 143
 7170              	sp_spkvocaid119:
 7171 0000 A7951494 		.ascii	"\247\225\024\224\272u\306(M(t\346\220\351\014\345{\012"
 7171      BA75C628 
 7171      4D2874E6 
 7171      90E90CE5 
 7171      7B0A
 7172 0012 0630E0E9 		.ascii	"\0060\340\351\022\017\034\270\256$\002\014\000\010p"
 7172      120F1CB8 
 7172      AE24020C 
 7172      000870
 7173 0021 CE3D14AD 		.ascii	"\316=\024\255\366\2148S(\"}\032\304\234\234[\326\341"
 7173      F68C3853 
 7173      28227D1A 
 7173      C49C9C5B 
 7173      D6E1
 7174 0033 557992AE 		.ascii	"Uy\222\256\354\314\271\312\332]9\250q\263\265\263J\220"
 7174      ECCCB9CA 
ARM GAS  /tmp/ccONvy4E.s 			page 130


 7174      DA5D39A8 
 7174      71B3B5B3 
 7174      4A90
 7175 0045 6D692765 		.ascii	"mi'e\325`\303*\226\356nmx-\227el\313J\006g3\320\206"
 7175      D560C32A 
 7175      96EE6E6D 
 7175      782D9765 
 7175      6CCB4A06 
 7176 005d 6D85F7A3 		.ascii	"m\205\367\243j\017'\012\256We\037Nd\032\317\252\335"
 7176      6A0F270A 
 7176      AE57651F 
 7176      4E641ACF 
 7176      AADD
 7177 006f 9D082E9A 		.ascii	"\235\010.\2328\255\272\314w%\214\027u\205\232\\He\372"
 7177      38ADBACC 
 7177      77258C17 
 7177      75859A5C 
 7177      4865FA
 7178 0082 9A2B4D54 		.ascii	"\232+MTc\2523W\253\364\326T\362"
 7178      63AA3357 
 7178      ABF4D654 
 7178      F2
 7179              		.global	sp_spkvocaid118
 7180              		.section	.rodata.sp_spkvocaid118,"a"
 7181              		.align	2
 7182              		.type	sp_spkvocaid118, %object
 7183              		.size	sp_spkvocaid118, 238
 7184              	sp_spkvocaid118:
 7185 0000 A5D9B821 		.ascii	"\245\331\270!9\221F\263\265C\242\353\254\346\375\264"
 7185      399146B3 
 7185      B543A2EB 
 7185      ACE6FDB4 
 7186 0010 5A2E3E35 		.ascii	"Z.>5\232.7_uZt\025\341\271\350\264\024B3j\366\350\305"
 7186      9A2E375F 
 7186      755A7415 
 7186      E1B9E8B4 
 7186      1442336A 
 7187 0027 3B79D463 		.ascii	";y\324c7\242t\212\214!lJgZ1\201\310\344:\275\242\014"
 7187      37A2748A 
 7187      8C216C4A 
 7187      675A3181 
 7187      C8E43ABD 
 7188 003d 8999999A 		.ascii	"\211\231\231\232Z\244\036=XW\267\255s\2727a\341\335"
 7188      5AA41E3D 
 7188      5857B7AD 
 7188      73BA3761 
 7188      E1DD
 7189 004f E8F428CB 		.ascii	"\350\364(\313\303\274\323\352^W\271\370\252\325\234"
 7189      C3BCD3EA 
 7189      5E57B9F8 
 7189      AAD59C
 7190 005e EE56B2D5 		.ascii	"\356V\262\325\25581\307\034\356Z6\362\303D\275\226\244"
 7190      AD3831C7 
 7190      1CEE5A36 
 7190      F2C344BD 
 7190      96A4
 7191 0070 F59462FA 		.ascii	"\365\224b\372uIi\337\240\320\"\222\017\226!\356\306"
ARM GAS  /tmp/ccONvy4E.s 			page 131


 7191      754969DF 
 7191      A0D02292 
 7191      0F9621EE 
 7191      C6
 7192 0081 8024550D 		.ascii	"\200$U\015\310\334\330\214\344B\205\2666i]\253\224\344"
 7192      C8DCD88C 
 7192      E44285B6 
 7192      36695DAB 
 7192      94E4
 7193 0093 5ED4B8CB 		.ascii	"^\324\270\313,.V\272\245\346X\330r\261--p\327\342R;"
 7193      2C2E56BA 
 7193      A5E658D8 
 7193      72B12D2D 
 7193      70D7E252 
 7194 00a8 9A5751EC 		.ascii	"\232WQ\354\355h5o38\306\314jIU\262V\225\325\223\356"
 7194      ED68356F 
 7194      3338C6CC 
 7194      6A4955B2 
 7194      5695D593 
 7195 00bd 62A9DA6B 		.ascii	"b\251\332kD\323%\022\263\327\360\276K8\347\264e\312"
 7195      44D32512 
 7195      B3D7F0BE 
 7195      4B38E7B4 
 7195      65CA
 7196 00cf 98F2CCEA 		.ascii	"\230\362\314\352;\035]FE\353V8b\014kOLw\3718a\253\205"
 7196      3B1D5D46 
 7196      45EB5638 
 7196      620C6B4F 
 7196      4C77F938 
 7197 00e6 FE8A2DE2 		.ascii	"\376\212-\342\206B\254~"
 7197      8642AC7E 
 7198              		.global	sp_spkvocaid117
 7199              		.section	.rodata.sp_spkvocaid117,"a"
 7200              		.align	2
 7201              		.type	sp_spkvocaid117, %object
 7202              		.size	sp_spkvocaid117, 83
 7203              	sp_spkvocaid117:
 7204 0000 0C18372A 		.ascii	"\014\0307*\200H\341*K\377)\354^k*A\3247\012\353|\242"
 7204      8048E12A 
 7204      4BFF29EC 
 7204      5E6B2A41 
 7204      D4370AEB 
 7205 0016 D7AD111D 		.ascii	"\327\255\021\035\345\306\223\202u\253X\253\247\004\347"
 7205      E5C69382 
 7205      75AB58AB 
 7205      A704E7
 7206 0025 96F17276 		.ascii	"\226\361rv[3y7\367\2673N\262%\241\037\267\335P\222\303"
 7206      5B337937 
 7206      F7B7334E 
 7206      B225A11F 
 7206      B7DD5092 
 7207 003a CFA9B9CE 		.ascii	"\317\251\271\316j:''{\355\265\327=\3534\234\222\263"
 7207      6A3A2727 
 7207      7BEDB5D7 
 7207      3DEB349C 
 7207      92B3
 7208 004c 7A2A9827 		.ascii	"z*\230'\247\223\007"
ARM GAS  /tmp/ccONvy4E.s 			page 132


 7208      A79307
 7209              		.global	sp_spkvocaid116
 7210              		.section	.rodata.sp_spkvocaid116,"a"
 7211              		.align	2
 7212              		.type	sp_spkvocaid116, %object
 7213              		.size	sp_spkvocaid116, 115
 7214              	sp_spkvocaid116:
 7215 0000 A74417EA 		.ascii	"\247D\027\352ZuV\015\252\334\325\033\207j\244\333c\246"
 7215      5A75560D 
 7215      AADCD51B 
 7215      876AA4DB 
 7215      63A6
 7216 0012 49D568F7 		.ascii	"I\325h\367\201l\223\2521n\305\321*\327S\213\015\011"
 7216      816C93AA 
 7216      316EC5D1 
 7216      2AD7538B 
 7216      0D09
 7217 0024 D92AB79E 		.ascii	"\331*\267\236\226\235[\330Fn\335{\267\210\221b@\005"
 7217      969D5BD8 
 7217      466EDD7B 
 7217      B7889162 
 7217      4005
 7218 0036 2E0E4CE4 		.ascii	".\016L\344f\300\263\346\036\204\035Yj\352\231\0317k"
 7218      66C0B3E6 
 7218      1E841D59 
 7218      6AEA9919 
 7218      376B
 7219 0048 97E4AF93 		.ascii	"\227\344\257\223^\024\311\345_\327\374\306\012B',\372"
 7219      5E14C9E5 
 7219      5FD7FCC6 
 7219      0A42272C 
 7219      FA
 7220 0059 5CA64F94 		.ascii	"\\\246O\224h\364-v\215J; \300uD\016\254@\344\300\314"
 7220      68F42D76 
 7220      8D4A3B20 
 7220      C075440E 
 7220      AC40E4C0 
 7221 006e 410C5829 		.ascii	"A\014X)\374"
 7221      FC
 7222              		.global	sp_spkvocaid115
 7223              		.section	.rodata.sp_spkvocaid115,"a"
 7224              		.align	2
 7225              		.type	sp_spkvocaid115, %object
 7226              		.size	sp_spkvocaid115, 123
 7227              	sp_spkvocaid115:
 7228 0000 65C6301E 		.ascii	"e\3060\036\322I\312\264#\335\342\235\254\351\323\226"
 7228      D249CAB4 
 7228      23DDE29D 
 7228      ACE9D396 
 7229 0010 F1D41933 		.ascii	"\361\324\0313\370-\243\2522\272O\027F\023\345\264\354"
 7229      F82DA3AA 
 7229      32BA4F17 
 7229      4613E5B4 
 7229      EC
 7230 0021 3A83A2CE 		.ascii	":\203\242\316\255\247$S\232Z\261o^)\212q7o\274\222\227"
 7230      ADA72453 
 7230      9A5AB16F 
ARM GAS  /tmp/ccONvy4E.s 			page 133


 7230      5E298A71 
 7230      376FBC92 
 7231 0036 9BC6DEA6 		.ascii	"\233\306\336\246\245H\256\025-KH\011w\206\262V\200\000"
 7231      A548AE15 
 7231      2D4B4809 
 7231      7786B256 
 7231      8000
 7232 0048 824C72A0 		.ascii	"\202Lr\240\007\323\222\272t)\211('\247\340\346\332q"
 7232      07D392BA 
 7232      74298928 
 7232      27A7E0E6 
 7232      DA71
 7233 005a 4ECECED5 		.ascii	"N\316\316\325\275\353\234R\235\263G\3179\245y\307\210"
 7233      BDEB9C52 
 7233      9DB347CF 
 7233      39A579C7 
 7233      88
 7234 006b A9B36ACF 		.ascii	"\251\263j\317\001n[\3076\000\003\212w\240\340\001"
 7234      016E5BC7 
 7234      3600038A 
 7234      77A0E001 
 7235              		.global	sp_spkvocaid114
 7236              		.section	.rodata.sp_spkvocaid114,"a"
 7237              		.align	2
 7238              		.type	sp_spkvocaid114, %object
 7239              		.size	sp_spkvocaid114, 92
 7240              	sp_spkvocaid114:
 7241 0000 047C1346 		.ascii	"\004|\023F\001\006\000\300\200p\245+\004\237\232VuV"
 7241      010600C0 
 7241      8070A52B 
 7241      049F9A56 
 7241      7556
 7242 0012 F4B67CB4 		.ascii	"\364\266|\264\243\254\350by\352\305\336\271U\035/\025"
 7242      A3ACE862 
 7242      79EAC5DE 
 7242      B9551D2F 
 7242      15
 7243 0023 6E4A1AAA 		.ascii	"nJ\032\252|\010~\325\266L\035\027y\273\343\272\232\352"
 7243      7C087ED5 
 7243      B64C1D17 
 7243      79BBE3BA 
 7243      9AEA
 7244 0035 F976D70F 		.ascii	"\371v\327\017><\342\355\214\037Ui\371\205\011\337\261"
 7244      3E3CE2ED 
 7244      8C1F5569 
 7244      F98509DF 
 7244      B1
 7245 0046 E59E961A 		.ascii	"\345\236\226\032n\025\246*\226\030\200\200h\334\004"
 7245      6E15A62A 
 7245      96188080 
 7245      68DC04
 7246 0055 A82A0481 		.ascii	"\250*\004\201\340\202\036"
 7246      E0821E
 7247              		.global	sp_spkvocaid113
 7248              		.section	.rodata.sp_spkvocaid113,"a"
 7249              		.align	2
 7250              		.type	sp_spkvocaid113, %object
ARM GAS  /tmp/ccONvy4E.s 			page 134


 7251              		.size	sp_spkvocaid113, 105
 7252              	sp_spkvocaid113:
 7253 0000 08A4E286 		.ascii	"\010\244\342\206\001\001>\231R0rh)\245\305\344\244T"
 7253      01013E99 
 7253      52307268 
 7253      29A5C5E4 
 7253      A454
 7254 0012 D35D47EE 		.ascii	"\323]G\356\211\261f\252\265\334\233V\012\265\322d\344"
 7254      89B166AA 
 7254      B5DC9B56 
 7254      0AB5D264 
 7254      E4
 7255 0023 8EEA4EBA 		.ascii	"\216\352N\272y3]\323\265u\2231\333\266]\253jk\256]3"
 7255      79335DD3 
 7255      B5759331 
 7255      DBB65DAB 
 7255      6A6BAE5D 
 7256 0038 4E25D768 		.ascii	"N%\327h\271\272\275\261o\220z\323\325\371\223\251&\273"
 7256      B9BABDB1 
 7256      6F907AD3 
 7256      D5F993A9 
 7256      26BB
 7257 004a 27CF39D3 		.ascii	"'\3179\323W6O\3343\346\237b\276\212\337\016\361D}+n"
 7257      57364FDC 
 7257      33E69F62 
 7257      BE8ADF0E 
 7257      F1447D2B 
 7258 005f 1A68B6F9 		.ascii	"\032h\266\371\236_'\362\354\007"
 7258      9E5F27F2 
 7258      EC07
 7259              		.global	sp_spkvocaid112
 7260              		.section	.rodata.sp_spkvocaid112,"a"
 7261              		.align	2
 7262              		.type	sp_spkvocaid112, %object
 7263              		.size	sp_spkvocaid112, 127
 7264              	sp_spkvocaid112:
 7265 0000 28286A0E 		.ascii	"((j\016\000\000pP\300\367\004\001l*(9\252-\023J\264"
 7265      00007050 
 7265      C0F70401 
 7265      6C2A2839 
 7265      AA2D134A 
 7266 0015 B273DB89 		.ascii	"\262s\333\211\332x\347\221\255\377T\214\3053\267\354"
 7266      DA78E791 
 7266      ADFF548C 
 7266      C533B7EC 
 7267 0025 F4B782DF 		.ascii	"\364\267\202\337*\305\363=\007~UK*\332\364*jg\322pj"
 7267      2AC5F33D 
 7267      077E554B 
 7267      2ADAF42A 
 7267      6A67D270 
 7268 003a 17C92CA4 		.ascii	"\027\311,\244\343PaR\215\311`&=\330[\255ecz\350FY\335"
 7268      E3506152 
 7268      8DC96026 
 7268      3DD85BAD 
 7268      65637AE8 
 7269 0051 E6F08C95 		.ascii	"\346\360\214\225\272\206\313\021\231#g\316\261BJm/;"
 7269      BA86CB11 
ARM GAS  /tmp/ccONvy4E.s 			page 135


 7269      992367CE 
 7269      B1424A6D 
 7269      2F3B
 7270 0063 73A71B72 		.ascii	"s\247\033rXG\312\015/&\227\261\262b\037\000(\020\":"
 7270      5847CA0D 
 7270      2F2697B1 
 7270      B2621F00 
 7270      2810223A 
 7271 0077 03C90821 		.ascii	"\003\311\010!\020\274\360\003"
 7271      10BCF003 
 7272              		.global	sp_spkvocaid111
 7273              		.section	.rodata.sp_spkvocaid111,"a"
 7274              		.align	2
 7275              		.type	sp_spkvocaid111, %object
 7276              		.size	sp_spkvocaid111, 146
 7277              	sp_spkvocaid111:
 7278 0000 2E799DAA 		.ascii	".y\235\252\244\211Z\264\266\324\330\026\027\257t\273"
 7278      A4895AB4 
 7278      B6D4D816 
 7278      17AF74BB 
 7279 0010 8BAE0A9E 		.ascii	"\213\256\012\236\333\015c}\225\274L\303\"y+\373\026"
 7279      DB0D637D 
 7279      95BC4CC3 
 7279      22792BFB 
 7279      16
 7280 0021 9C2A73F1 		.ascii	"\234*s\361E#x\3516\021\263F\212\302t\"k\257\222\245"
 7280      452378E9 
 7280      3611B346 
 7280      8AC27422 
 7280      6BAF92A5 
 7281 0035 4BD94669 		.ascii	"K\331Fi-H\267\321\217\022z\342En[\231\201\016D%\020"
 7281      2D48B7D1 
 7281      8F127AE2 
 7281      456E5B99 
 7281      810E4425 
 7282 004a A000530E 		.ascii	"\240\000S\016\324\362\274\330m\302\232eM\221\371X\016"
 7282      D4F2BCD8 
 7282      6DC29A65 
 7282      4D91F958 
 7282      0E
 7283 005b 5B07D788 		.ascii	"[\007\327\210\2477v\324\311a\037o\237q\252J\016\371"
 7283      A73776D4 
 7283      C9611F6F 
 7283      9F71AA4A 
 7283      0EF9
 7284 006d 39ED0699 		.ascii	"9\355\006\231\322\376Q\312\365|\264\363B\273key\333"
 7284      D2FE51CA 
 7284      F57CB4F3 
 7284      42BB6B65 
 7284      79DB
 7285 007f 4F26A091 		.ascii	"O&\240\221\024\011\010\370\332\224\003\006\276tE\340"
 7285      140908F8 
 7285      DA940306 
 7285      BE7445E0 
 7286 008f 59A707   		.ascii	"Y\247\007"
 7287              		.global	sp_spkvocaid110
 7288              		.section	.rodata.sp_spkvocaid110,"a"
ARM GAS  /tmp/ccONvy4E.s 			page 136


 7289              		.align	2
 7290              		.type	sp_spkvocaid110, %object
 7291              		.size	sp_spkvocaid110, 149
 7292              	sp_spkvocaid110:
 7293 0000 6EAAA51E 		.ascii	"n\252\245\036\354r\314\022\307$L\324\306\025\206\272"
 7293      EC72CC12 
 7293      C7244CD4 
 7293      C61586BA 
 7294 0010 98A5FCB9 		.ascii	"\230\245\374\271u\275\322\334d\315h\316\375\030\313"
 7294      75BDD2DC 
 7294      64CD68CE 
 7294      FD18CB
 7295 001f EA519CDE 		.ascii	"\352Q\234\336c\254\3323\217\344\325\036C%\035\311\223"
 7295      63ACDA33 
 7295      8FE4D51E 
 7295      43251DC9 
 7295      93
 7296 0030 F522775F 		.ascii	"\365\"w_SJ\226W,'\273\224\2342}\012\347\271\204j\215"
 7296      534A9657 
 7296      2C27BB94 
 7296      9C327D0A 
 7296      E7B9846A 
 7297 0045 E4623A1F 		.ascii	"\344b:\037-\210\324\322\254\263Z4\251\241\023\373\324"
 7297      2D88D4D2 
 7297      ACB35A34 
 7297      A9A113FB 
 7297      D4
 7298 0056 A4CA4DB3 		.ascii	"\244\312M\263\361\252QU\232D\242R\235l+`\277\271\206"
 7298      F1AA5155 
 7298      9A44A252 
 7298      9D6C2B60 
 7298      BFB986
 7299 0069 6669F3AA 		.ascii	"fi\363\252\370vK\270\2242\361\035\216\351b\245\336\272"
 7299      F8764BB8 
 7299      9432F11D 
 7299      8EE962A5 
 7299      DEBA
 7300 007b 5CDB543A 		.ascii	"\\\333T:tG\271n\221\267\332\312t]\027\356\322]\366\252"
 7300      7447B96E 
 7300      91B7DACA 
 7300      745D17EE 
 7300      D25DF6AA 
 7301 008f 1B966386 		.ascii	"\033\226c\206yz"
 7301      797A
 7302              		.global	sp_spkvocaid109
 7303              		.section	.rodata.sp_spkvocaid109,"a"
 7304              		.align	2
 7305              		.type	sp_spkvocaid109, %object
 7306              		.size	sp_spkvocaid109, 235
 7307              	sp_spkvocaid109:
 7308 0000 62733F6A 		.ascii	"bs?j\234M\375N\333\330\325\000\3652\367\332\266\267"
 7308      9C4DFD4E 
 7308      DBD8D500 
 7308      F532F7DA 
 7308      B6B7
 7309 0012 73B69DB3 		.ascii	"s\266\235\263\223\357T\311:\347T_f\022u\316\031\246"
 7309      93EF54C9 
ARM GAS  /tmp/ccONvy4E.s 			page 137


 7309      3AE7545F 
 7309      661275CE 
 7309      19A6
 7310 0024 C4245695 		.ascii	"\304$V\225\333`\362\270VK'\010\227\343\214\226\226\221"
 7310      DB60F2B8 
 7310      564B2708 
 7310      97E38C96 
 7310      9691
 7311 0036 E14B6367 		.ascii	"\341Kcg\315\312KC\272\321iIE\204v\224\323\242\316t\351"
 7311      CDCA4B43 
 7311      BAD16949 
 7311      45847694 
 7311      D3A2CE74 
 7312 004b CA291935 		.ascii	"\312)\0315\346\250\271R\320\272-Qr\305\244\252\320#"
 7312      E6A8B952 
 7312      D0BA2D51 
 7312      72C5A4AA 
 7312      D023
 7313 005d A9E2AB0C 		.ascii	"\251\342\253\014[\303U\335\353\034e\332f\334\301\273"
 7313      5BC355DD 
 7313      EB1C65DA 
 7313      66DCC1BB 
 7314 006d CA344DF4 		.ascii	"\3124M\364\3146\216\341\273c&\347\032\315U\307*\351"
 7314      CC368EE1 
 7314      BB6326E7 
 7314      1ACD55C7 
 7314      2AE9
 7315 007f 35AACB41 		.ascii	"5\252\313AQ\232k\224X\203,\265\227\312\321\033Gv\027"
 7315      519A6B94 
 7315      58832CB5 
 7315      97CAD11B 
 7315      477617
 7316 0092 9444F4FC 		.ascii	"\224D\364\374)\331l\014\353\352\342n\312j\336\240r+"
 7316      29D96C0C 
 7316      EBEAE26E 
 7316      CA6ADEA0 
 7316      722B
 7317 00a4 B5959DE0 		.ascii	"\265\225\235\340\324T^\273Y\207\250z\274\317:\325;\271"
 7317      D4545EBB 
 7317      5987A87A 
 7317      BCCF3AD5 
 7317      3BB9
 7318 00b6 F7927692 		.ascii	"\367\222v\222U\251\330+\343F\231\\\331\225\3235\252"
 7318      55A9D82B 
 7318      E346995C 
 7318      D995D335 
 7318      AA
 7319 00c7 AC73CBA4 		.ascii	"\254s\313\244\033XI\304\216N/\223\260\222\232\355\236"
 7319      1B5849C4 
 7319      8E4E2F93 
 7319      B0929AED 
 7319      9E
 7320 00d8 A7E1C53B 		.ascii	"\247\341\305;\232\200\315\3038\340@\200\357\302\004"
 7320      9A80CDC3 
 7320      38E04080 
 7320      EFC204
 7321 00e7 F83EF801 		.ascii	"\370>\370\001"
ARM GAS  /tmp/ccONvy4E.s 			page 138


 7322              		.global	sp_spkvocaid108
 7323              		.section	.rodata.sp_spkvocaid108,"a"
 7324              		.align	2
 7325              		.type	sp_spkvocaid108, %object
 7326              		.size	sp_spkvocaid108, 129
 7327              	sp_spkvocaid108:
 7328 0000 0A9CE529 		.ascii	"\012\234\345)\301*\325\206RD\336S\263J\325\212<\247"
 7328      C12AD586 
 7328      5244DE53 
 7328      B34AD58A 
 7328      3CA7
 7329 0012 66B5EA12 		.ascii	"f\265\352\022\215wM\345\220rSM\030\3007a\021\030\360"
 7329      8D774DE5 
 7329      9072534D 
 7329      18C03761 
 7329      1118F0
 7330 0025 AB312810 		.ascii	"\2531(\020d\360\212E\246\253\370\252\221\242*\027\313"
 7330      64F08A45 
 7330      A6ABF8AA 
 7330      91A22A17 
 7330      CB
 7331 0036 D6216B63 		.ascii	"\326!kc1\"\251RvV}D=\345\274RU\341nYi\345\242\303\\"
 7331      3122A952 
 7331      76567D44 
 7331      3DE5BC52 
 7331      55E16E59 
 7332 004f BB74CB59 		.ascii	"\273t\313Y\264\232U\345\324</M\315\330\355$\227\342"
 7332      B49A55E5 
 7332      D43C2F4D 
 7332      CDD8ED24 
 7332      97E2
 7333 0061 B261DA4D 		.ascii	"\262a\332Mt\334\272\244\244ou\314\250[Q\257\010\027"
 7333      74DCBAA4 
 7333      A46F75CC 
 7333      A85B51AF 
 7333      0817
 7334 0073 B38C0502 		.ascii	"\263\214\005\002$fb@\226\025\004\004f\366"
 7334      24666240 
 7334      96150404 
 7334      66F6
 7335              		.global	sp_spkvocaid107
 7336              		.section	.rodata.sp_spkvocaid107,"a"
 7337              		.align	2
 7338              		.type	sp_spkvocaid107, %object
 7339              		.size	sp_spkvocaid107, 137
 7340              	sp_spkvocaid107:
 7341 0000 08B8A098 		.ascii	"\010\270\240\230zq\233f&\272\264\342\034\335l\361\252"
 7341      7A719B66 
 7341      26BAB4E2 
 7341      1CDD6CF1 
 7341      AA
 7342 0011 4906A77B 		.ascii	"I\006\247{\313\323\243\014\015\365Nl(\315c2\211\311"
 7342      CBD3A30C 
 7342      0DF54E6C 
 7342      28CD6332 
 7342      89C9
 7343 0023 24BE3D24 		.ascii	"$\276=$-\221\311\\\232I;&\223\331t\027\317\254g+\316"
ARM GAS  /tmp/ccONvy4E.s 			page 139


 7343      2D91C95C 
 7343      9A493B26 
 7343      93D97417 
 7343      CFAC672B 
 7344 0038 7505DBAA 		.ascii	"u\005\333\252Q\274\2332\316E'g\335\035\024\215v^%\231"
 7344      51BC9B32 
 7344      CE452767 
 7344      DD1D148D 
 7344      765E2599 
 7345 004c 29E3AABD 		.ascii	")\343\252\275\353\352\301o\232T\2341}\234P\255(m\273"
 7345      EBEAC16F 
 7345      9A549C31 
 7345      7D9C50AD 
 7345      286DBB
 7346 005f 3A6EBE51 		.ascii	":n\276Q\306\015nC\262\302\264\353J\272\327\232)\327"
 7346      C60D6E43 
 7346      B2C2B4EB 
 7346      4ABAD79A 
 7346      29D7
 7347 0071 87F2AE8A 		.ascii	"\207\362\256\212\\^t\241\025\021&=o\2542J\214;\315\031"
 7347      5C5E74A1 
 7347      1511263D 
 7347      6FAC324A 
 7347      8C3BCD19 
 7348 0085 87869507 		.ascii	"\207\206\225\007"
 7349              		.global	sp_spkvocaid106
 7350              		.section	.rodata.sp_spkvocaid106,"a"
 7351              		.align	2
 7352              		.type	sp_spkvocaid106, %object
 7353              		.size	sp_spkvocaid106, 93
 7354              	sp_spkvocaid106:
 7355 0000 6AB390BD 		.ascii	"j\263\220\275\320l\314\3466\363\260\230\330m\367\230"
 7355      D06CCCE6 
 7355      36F3B098 
 7355      D86DF798 
 7356 0010 459A2547 		.ascii	"E\232%G\343\321\274\212H\353\332\253\006\023i\332\265"
 7356      E3D1BC8A 
 7356      48EBDAAB 
 7356      061369DA 
 7356      B5
 7357 0021 5749AA5A 		.ascii	"WI\252Z$\033\257\034u\227R\266\332eU\347\272\224bQ\353"
 7357      241BAF1C 
 7357      759752B6 
 7357      DA6555E7 
 7357      BA946251 
 7358 0036 264FB0D4 		.ascii	"&O\260\324\254\262T]c\237\232q\273+\302\226a\354\010"
 7358      ACB2545D 
 7358      639F9A71 
 7358      BB2BC296 
 7358      61EC08
 7359 0049 4FDA2B47 		.ascii	"O\332+G\355i\036\257\347(\371C?\363\264\277`\264F\017"
 7359      ED691EAF 
 7359      E728F943 
 7359      3FF3B4BF 
 7359      60B4460F 
 7360              		.global	sp_spkvocaid105
 7361              		.section	.rodata.sp_spkvocaid105,"a"
ARM GAS  /tmp/ccONvy4E.s 			page 140


 7362              		.align	2
 7363              		.type	sp_spkvocaid105, %object
 7364              		.size	sp_spkvocaid105, 92
 7365              	sp_spkvocaid105:
 7366 0000 A24FAAE8 		.ascii	"\242O\252\3503jB\273BQ\352\345\264z\234!\373\307\031"
 7366      336A42BB 
 7366      4251EAE5 
 7366      B47A9C21 
 7366      FBC719
 7367 0013 791843CF 		.ascii	"y\030C\317\217sR\265F\231o\373\304\346\035\3237\366"
 7367      8F7352B5 
 7367      46996FFB 
 7367      C4E61DD3 
 7367      37F6
 7368 0025 893518A7 		.ascii	"\2115\030\247\275\235\223\262w.{'\253\306\244\036\271"
 7368      BD9D93B2 
 7368      772E7B27 
 7368      ABC6A41E 
 7368      B9
 7369 0036 4AC6F4BA 		.ascii	"J\306\364\272\275}\254\364\233v\012a\216/G\200\247\303"
 7369      BD7DACF4 
 7369      9B760A61 
 7369      8E2F4780 
 7369      A7C3
 7370 0048 2510E0BB 		.ascii	"%\020\340\273p\015\024\370\332]\002\006\256\015\223"
 7370      700D14F8 
 7370      DA5D0206 
 7370      AE0D93
 7371 0057 8080E55D 		.ascii	"\200\200\345]\036"
 7371      1E
 7372              		.global	sp_spkvocaid104
 7373              		.section	.rodata.sp_spkvocaid104,"a"
 7374              		.align	2
 7375              		.type	sp_spkvocaid104, %object
 7376              		.size	sp_spkvocaid104, 108
 7377              	sp_spkvocaid104:
 7378 0000 2B47D11D 		.ascii	"+G\321\035\250\215[\366b\307 ^\265\234H^\001o*9\343"
 7378      A88D5BF6 
 7378      62C7205E 
 7378      B59C485E 
 7378      016F2A39 
 7379 0015 DA02DA9D 		.ascii	"\332\002\332\235\363\310\225g\270\232\334\225\263\010"
 7379      F3C89567 
 7379      B89ADC95 
 7379      B308
 7380 0023 77DAD9AB 		.ascii	"w\332\331\2534\347btuF\035\321\301|\346\2646s\200\345"
 7380      34E76274 
 7380      75461DD1 
 7380      C17CE6B4 
 7380      367380E5 
 7381 0037 2E696396 		.ascii	".ic\226\000\315\255\223\326\310\012\321\033'\235n\005"
 7381      00CDAD93 
 7381      D6C80AD1 
 7381      1B279D6E 
 7381      05
 7382 0048 6A268ABB 		.ascii	"j&\212\273E*LW\\\363j\012`\236\330\006l7\346\201\001"
 7382      452A4C57 
ARM GAS  /tmp/ccONvy4E.s 			page 141


 7382      5CF36A0A 
 7382      609ED806 
 7382      6C37E681 
 7383 005d DF853A70 		.ascii	"\337\205:pM\230\005\012l=\252\300ve\017"
 7383      4D98050A 
 7383      6C3DAAC0 
 7383      76650F
 7384              		.global	sp_spkvocaid103
 7385              		.section	.rodata.sp_spkvocaid103,"a"
 7386              		.align	2
 7387              		.type	sp_spkvocaid103, %object
 7388              		.size	sp_spkvocaid103, 134
 7389              	sp_spkvocaid103:
 7390 0000 28286A0E 		.ascii	"((j\016\000\000p`E\232\264\201\215c[\230\306r\007\265"
 7390      00007060 
 7390      459AB481 
 7390      8D635B98 
 7390      C67207B5 
 7391 0014 9334AD95 		.ascii	"\2234\255\225\034\350$g\004\033\026\226\265O\317&4m"
 7391      1CE82467 
 7391      041B1696 
 7391      B54FCF26 
 7391      346D
 7392 0026 239F96AC 		.ascii	"#\237\226\254[\370E95Z\367\264\267\035J0n*e\373\344"
 7392      5BF84539 
 7392      355AF7B4 
 7392      B71D4A30 
 7392      6E2A65FB 
 7393 003b 6442836A 		.ascii	"dB\203j\316\311\305&\273\372\342\236A\201pS\005\260"
 7393      CEC9C526 
 7393      BBFAE29E 
 7393      41817053 
 7393      05B0
 7394 004d 4D7964AF 		.ascii	"Myd\257\317\234=\361\316-9\265\035\240\233Z\212d6\201"
 7394      CF9C3DF1 
 7394      CE2D39B5 
 7394      1DA09B5A 
 7394      8A643681 
 7395 0061 3AF7D452 		.ascii	":\367\324R\240\273\001\262\251\246\224\002\231u\220"
 7395      A0BB01B2 
 7395      A9A69402 
 7395      997590
 7396 0070 2521797D 		.ascii	"%!y}\356lLE\012\352\204%E\243\240\2509\000\000\300\341"
 7396      EE6C4C45 
 7396      0AEA8425 
 7396      45A3A0A8 
 7396      390000C0 
 7397 0085 01       		.ascii	"\001"
 7398              		.global	sp_spkvocaid102
 7399              		.section	.rodata.sp_spkvocaid102,"a"
 7400              		.align	2
 7401              		.type	sp_spkvocaid102, %object
 7402              		.size	sp_spkvocaid102, 168
 7403              	sp_spkvocaid102:
 7404 0000 28286A0E 		.ascii	"((j\016\000\000p\300a\364`M+\266\362\351>\230FT\355"
 7404      000070C0 
 7404      61F4604D 
ARM GAS  /tmp/ccONvy4E.s 			page 142


 7404      2BB6F2E9 
 7404      3E984654 
 7405 0015 D0ACE51C 		.ascii	"\320\254\345\034\310\324\245\005\231\274\314~Jsb%\204"
 7405      C8D4A505 
 7405      99BCCC7E 
 7405      4A736225 
 7405      84
 7406 0026 F98E6272 		.ascii	"\371\216brS\270\344\032\305\225\302,\3115\262\037\201"
 7406      53B8E41A 
 7406      C595C22C 
 7406      C935B21F 
 7406      81
 7407 0037 15DC7B95 		.ascii	"\025\334{\225P\022<9Wi1+KDf\326\015\327\314X\223\006"
 7407      50123C39 
 7407      5769312B 
 7407      4B4466D6 
 7407      0DD7CC58 
 7408 004d 7401EEC0 		.ascii	"t\001\356\300\235!\355\014e\354\031\013\3231\242\274"
 7408      9D21ED0C 
 7408      65EC190B 
 7408      D331A2BC 
 7409 005d 7CC49823 		.ascii	"|\304\230#\\\306P\262\266\307\034\026+\222\013\011\020"
 7409      5CC650B2 
 7409      B6C71C16 
 7409      2B920B09 
 7409      10
 7410 006e F0949200 		.ascii	"\360\224\222\000/\2329\360\203\232\003\213\031\227\023"
 7410      2F9A39F0 
 7410      839A038B 
 7410      199713
 7411 007d 4449C68C 		.ascii	"DI\306\214n\327\323\364\213\212\024\256\345\241_c&\334"
 7411      6ED7D3F4 
 7411      8B8A14AE 
 7411      E5A15F63 
 7411      26DC
 7412 008f A0993F4F 		.ascii	"\240\231?OLxM\033l]m\365\212\026\372:\313((j\016\000"
 7412      4C784D1B 
 7412      6C5D6DF5 
 7412      8A16FA3A 
 7412      CB28286A 
 7413 00a5 007078   		.ascii	"\000px"
 7414              		.global	sp_spkvocaid101
 7415              		.section	.rodata.sp_spkvocaid101,"a"
 7416              		.align	2
 7417              		.type	sp_spkvocaid101, %object
 7418              		.size	sp_spkvocaid101, 116
 7419              	sp_spkvocaid101:
 7420 0000 28286A0E 		.ascii	"((j\016\000\000p``\350T\0114\260`\344`\246\2224\316"
 7420      00007060 
 7420      60E85409 
 7420      34B060E4 
 7420      60A69234 
 7421 0015 C8516D27 		.ascii	"\310Qm'\332\242\221\203\375T\252\312\273\254\032\334"
 7421      DAA29183 
 7421      FD54AACA 
 7421      BBAC1ADC 
 7422 0025 BB4AC73D 		.ascii	"\273J\307=-\332\015\343\212{F\214c.\025u\314P\322\302"
ARM GAS  /tmp/ccONvy4E.s 			page 143


 7422      2DDA0DE3 
 7422      8A7B468C 
 7422      632E1575 
 7422      CC50D2C2 
 7423 0039 CBCE5821 		.ascii	"\313\316X!\273e\224\225v|2\353\310\330\355x\037Rm\211"
 7423      BB659495 
 7423      767C32EB 
 7423      C8D8ED78 
 7423      1F526D89 
 7424 004d FA4DD7A6 		.ascii	"\372M\327\246\220\032i\030\256i\246_\322 \\\333\305"
 7424      901A6918 
 7424      AE69A65F 
 7424      D2205CDB 
 7424      C5
 7425 005e 2E6D51B8 		.ascii	".mQ\270\266\252\\H\003wU\016\375\320\004((j\016\000"
 7425      B6AA5C48 
 7425      0377550E 
 7425      FDD00428 
 7425      286A0E00 
 7426 0072 001E     		.ascii	"\000\036"
 7427              		.global	sp_spkvocaid100
 7428              		.section	.rodata.sp_spkvocaid100,"a"
 7429              		.align	2
 7430              		.type	sp_spkvocaid100, %object
 7431              		.size	sp_spkvocaid100, 65
 7432              	sp_spkvocaid100:
 7433 0000 0844EFCA 		.ascii	"\010D\357\312\201\004-e\357\022VVN\364\301=\243\355"
 7433      81042D65 
 7433      EF125656 
 7433      4EF4C13D 
 7433      A3ED
 7434 0012 9C185C69 		.ascii	"\234\030\\i\352\3069\311\246\016\223\255\263K\350\021"
 7434      EAC639C9 
 7434      A60E93AD 
 7434      B34BE811 
 7435 0022 FD04E8E3 		.ascii	"\375\004\350\343p\224\371V\250\326\376\212\255\\\207"
 7435      7094F956 
 7435      A8D6FE8A 
 7435      AD5C87
 7436 0031 A1DB0500 		.ascii	"\241\333\005\000\020\200\213p\004\274oD\300\250\364"
 7436      10808B70 
 7436      04BC6F44 
 7436      C0A8F4
 7437 0040 07       		.ascii	"\007"
 7438              		.global	sp_spkvocaid99
 7439              		.section	.rodata.sp_spkvocaid99,"a"
 7440              		.align	2
 7441              		.type	sp_spkvocaid99, %object
 7442              		.size	sp_spkvocaid99, 236
 7443              	sp_spkvocaid99:
 7444 0000 AD959412 		.ascii	"\255\225\224\0222Vn;5\307\220\214\262zjJ\301\225e\365"
 7444      32566E3B 
 7444      35C7908C 
 7444      B27A6A4A 
 7444      C19565F5 
 7445 0014 96535274 		.ascii	"\226SRti\237\250\247\304\354\332>VO\011\311\303m\355"
 7445      699FA8A7 
ARM GAS  /tmp/ccONvy4E.s 			page 144


 7445      C4ECDA3E 
 7445      564F09C9 
 7445      C36DED
 7446 0027 D422C0E3 		.ascii	"\324\"\300\343\241\032\030\360m\025\002\306$\000\003"
 7446      A11A18F0 
 7446      6D1502C6 
 7446      240003
 7447 0036 3E2923E0 		.ascii	">)#\340\254!\000(\360\235\233\005\016\374\020\021A\004"
 7447      AC210028 
 7447      F09D9B05 
 7447      0EFC1011 
 7447      4104
 7448 0048 AB385FA6 		.ascii	"\2538_\246^UW\265a\214=\333\224&\363\005kv\010\215\227"
 7448      5E5557B5 
 7448      618C3DDB 
 7448      9426F305 
 7448      6B76088D 
 7449 005d 1B255995 		.ascii	"\033%Y\225[k\252\275\013\346\302\325l:7\312Y\253\271"
 7449      5B6BAABD 
 7449      0BE6C2D5 
 7449      6C3A37CA 
 7449      59ABB9
 7450 0070 B81654B3 		.ascii	"\270\026T\263O\017\261\264\271\353\254\036\223KYG)="
 7450      4F0FB1B4 
 7450      B9EBAC1E 
 7450      934B5947 
 7450      293D
 7451 0082 57D2D257 		.ascii	"W\322\322W\002\220@\011\250\002\010\341\271j\260.\023"
 7451      02904009 
 7451      A80208E1 
 7451      B96AB02E 
 7451      13
 7452 0093 23B5B7D2 		.ascii	"#\265\267\322\235\014\035\254d\247'\335\034>a\357\\"
 7452      9D0C1DAC 
 7452      64A727DD 
 7452      1C3E61EF 
 7452      5C
 7453 00a4 337AD38E 		.ascii	"3z\323\2166;V\360\346\225%\255\035\033\335*\206^\330"
 7453      363B56F0 
 7453      E69525AD 
 7453      1D1BDD2A 
 7453      865ED8
 7454 00b7 D2B595B4 		.ascii	"\322\265\225\264\024qh\356qV\315\010(Q%\300\300a\001"
 7454      147168EE 
 7454      7156CD08 
 7454      285125C0 
 7454      C06101
 7455 00ca FC681681 		.ascii	"\374h\026\201\003\015\213\205\033\204\247{\255L\317"
 7455      030D8B85 
 7455      1B84A77B 
 7455      AD4CCF
 7456 00d9 C6901877 		.ascii	"\306\220\030w\225\276+&U\332\322\335\020\023\3555\225"
 7456      95BE2B26 
 7456      55DAD2DD 
 7456      1013ED35 
 7456      95
 7457 00ea 3E0F     		.ascii	">\017"
ARM GAS  /tmp/ccONvy4E.s 			page 145


 7458              		.global	sp_spkvocaid98
 7459              		.section	.rodata.sp_spkvocaid98,"a"
 7460              		.align	2
 7461              		.type	sp_spkvocaid98, %object
 7462              		.size	sp_spkvocaid98, 288
 7463              	sp_spkvocaid98:
 7464 0000 507A08E5 		.ascii	"Pz\010\345.\027gtS\323<^\315\356\243\353\330!\372\261"
 7464      2E176774 
 7464      53D33C5E 
 7464      CDEEA3EB 
 7464      D821FAB1 
 7465 0014 5337EA95 		.ascii	"S7\352\225t&\205n\370'\350&\216=\266\324\034\275`\323"
 7465      7426856E 
 7465      F827E826 
 7465      8E3DB6D4 
 7465      1CBD60D3 
 7466 0028 2E338FE4 		.ascii	".3\217\344tK\304\013+\301\350\221Pw]\323\312\316\246"
 7466      744BC40B 
 7466      2BC1E891 
 7466      50775DD3 
 7466      CACEA6
 7467 003b B957AD53 		.ascii	"\271W\255S\275\016K\237\312\251W\226\242\026\223\310"
 7467      BD0E4B9F 
 7467      CAA95796 
 7467      A21693C8 
 7468 004b F24C252D 		.ascii	"\362L%-\235  C\232\000\231\004\247\231\214\213\351\233"
 7468      9D202043 
 7468      9A009904 
 7468      A7998C8B 
 7468      E99B
 7469 005d 592BE910 		.ascii	"Y+\351\020\217\251\262\367^\342h\231\032V\246\331\221"
 7469      8FA9B2F7 
 7469      5EE26899 
 7469      1A56A6D9 
 7469      91
 7470 006e 322C3C63 		.ascii	"2,<c\233c\203\272\262\245\366[o\275\355*S\345J\305\232"
 7470      9B6383BA 
 7470      B2A5F65B 
 7470      6FBDED2A 
 7470      53E54AC5 
 7471 0083 5D471C00 		.ascii	"]G\034\000\012\324\234\304@\321B\241\364\034\2502\226"
 7471      0AD49CC4 
 7471      40D142A1 
 7471      F41CA832 
 7471      96
 7472 0094 57495935 		.ascii	"WIY5\275m\237\022\223ZE\333\275u\325\2204*\306ji.\232"
 7472      BD6D9F12 
 7472      935A45DB 
 7472      BD75D590 
 7472      342AC66A 
 7473 00ab 8D571536 		.ascii	"\215W\0256\270Is\213$|\224\231\213RH\244i\263x\003\317"
 7473      B849738B 
 7473      247C9499 
 7473      8B5248A4 
 7473      69B37803 
 7474 00c0 AABD56F6 		.ascii	"\252\275V\366N\036\275h\255\240\302S\263I\331^\264\007"
 7474      4E1EBD68 
ARM GAS  /tmp/ccONvy4E.s 			page 146


 7474      ADA0C253 
 7474      B349D95E 
 7474      B407
 7475 00d2 469B72AC 		.ascii	"F\233r\254x\013\356$\343\330X\346\372q\307q!5\342\343"
 7475      780BEE24 
 7475      E3D858E6 
 7475      FA71C771 
 7475      2135E2E3 
 7476 00e6 AEEBA34B 		.ascii	"\256\353\243K\345\306\351\267\\W\224\337\252Ex\246\252"
 7476      E5C6E9B7 
 7476      5C5794DF 
 7476      AA4578A6 
 7476      AA
 7477 00f7 5E59C7F4 		.ascii	"^Y\307\364lu\274\260\016\341\353\354\374\025)\334\367"
 7477      6C75BCB0 
 7477      0EE1EBEC 
 7477      FC1529DC 
 7477      F7
 7478 0108 51EC2A66 		.ascii	"Q\354*f\206\037\245\313d\331\012?(\265\313\244\343~"
 7478      861FA5CB 
 7478      64D90A3F 
 7478      28B5CBA4 
 7478      E37E
 7479 011a D64AEF2D 		.ascii	"\326J\357-\365\001"
 7479      F501
 7480              		.global	sp_spkvocaid97
 7481              		.section	.rodata.sp_spkvocaid97,"a"
 7482              		.align	2
 7483              		.type	sp_spkvocaid97, %object
 7484              		.size	sp_spkvocaid97, 358
 7485              	sp_spkvocaid97:
 7486 0000 6E2418BA 		.ascii	"n$\030\272\225T\335\230T\304\356\210\204q5\263\364\033"
 7486      9554DD98 
 7486      54C4EE88 
 7486      847135B3 
 7486      F41B
 7487 0012 4AFD3961 		.ascii	"J\3759a\314\255\330\332\011\011\340\335q\225\031\012"
 7487      CCADD8DA 
 7487      0909E0DD 
 7487      7195190A 
 7488 0022 D8A3E748 		.ascii	"\330\243\347H]\270hD\316\221\212\012\021\215\234-V-"
 7488      5DB86844 
 7488      CE918A0A 
 7488      118D9C2D 
 7488      562D
 7489 0034 E2E6B97A 		.ascii	"\342\346\271zJ\345\2730!\362\023\300\002\312-m\233\254"
 7489      4AE5BB30 
 7489      21F213C0 
 7489      02CA2D6D 
 7489      9BAC
 7490 0046 A2AB57E8 		.ascii	"\242\253W\350\332\250\"j\015\337L\202gU.>y\221\261\021"
 7490      DAA8226A 
 7490      0DDF4C82 
 7490      67552E3E 
 7490      7991B111 
 7491 005a E782F463 		.ascii	"\347\202\364c\011\3455D\345+\022S\333JI\231\267\266"
 7491      09E53544 
ARM GAS  /tmp/ccONvy4E.s 			page 147


 7491      E52B1253 
 7491      DB4A4999 
 7491      B7B6
 7492 006c 995B5BF7 		.ascii	"\231[[\367\256\304y\243\270)}d\341\330i\323\247H\321"
 7492      AEC479A3 
 7492      B8297D64 
 7492      E1D869D3 
 7492      A748D1
 7493 007f 49958E29 		.ascii	"I\225\216)\025)\3311]=[\322\262g\277\243\233>:\244\233"
 7493      1529D931 
 7493      5D3D5BD2 
 7493      B267BFA3 
 7493      9B3E3AA4 
 7494 0094 7B1BD996 		.ascii	"{\033\331\226\341r\3135\223K\301Q\252{\226\025\275\265"
 7494      E172CB35 
 7494      934BC151 
 7494      AA7B9615 
 7494      BDB5
 7495 00a6 0CAB4427 		.ascii	"\014\253D'\246\350f\234\255T\316\322,\304\\2\320\215"
 7495      A6E8669C 
 7495      AD54CED2 
 7495      2CC45C32 
 7495      D08D
 7496 00b8 AB0259BA 		.ascii	"\253\002Y\272\264\224\222\213K$Z\261\244`5\3334rM\301"
 7496      B494928B 
 7496      4B245AB1 
 7496      A46035DB 
 7496      34724DC1 
 7497 00cc 22D63980 		.ascii	"\"\3269\200\335S\003Xs2\200\266\307K,5\325E\225\214"
 7497      DD530358 
 7497      733280B6 
 7497      C74B2C35 
 7497      D545958C 
 7498 00e0 E8649793 		.ascii	"\350d\227\223{-)\320\035\005\315\222\223\313\211\344"
 7498      7B2D29D0 
 7498      1D05CD92 
 7498      93CB89E4 
 7499 00f0 28872C55 		.ascii	"(\207,U#\311\014!W\242\032^\236L\231K3n\323\231]\227"
 7499      23C90C21 
 7499      57A21A5E 
 7499      9E4C994B 
 7499      336ED399 
 7500 0106 AAC2A611 		.ascii	"\252\302\246\021\357*]\246+c\351UG\237c\231\264fl=\326"
 7500      EF2A5DA6 
 7500      2B63E955 
 7500      479F6399 
 7500      B4666C3D 
 7501 011b 76B1CC55 		.ascii	"v\261\314Uv\215\035lr\272\367\034;E\243\214\330\325"
 7501      768D1D6C 
 7501      72BAF71C 
 7501      3B45A38C 
 7501      D8D5
 7502 012d 77582108 		.ascii	"wX!\010\216]\334\264\232\031b\265&\006|U\346\201\007"
 7502      8E5DDCB4 
 7502      9A1962B5 
 7502      26067C55 
 7502      E68107
ARM GAS  /tmp/ccONvy4E.s 			page 148


 7503 0140 0EFCE822 		.ascii	"\016\374\350\"\300\363!\034`\000\000\000@6\331\033\001"
 7503      C0F3211C 
 7503      60000000 
 7503      4036D91B 
 7503      01
 7504 0151 E2C66CF6 		.ascii	"\342\306l\366\222T2q\231:\206\207_\355>\361@@\023\223"
 7504      92543271 
 7504      993A8687 
 7504      5FED3EF1 
 7504      40401393 
 7505 0165 07       		.ascii	"\007"
 7506              		.global	sp_spkvocaid96
 7507              		.section	.rodata.sp_spkvocaid96,"a"
 7508              		.align	2
 7509              		.type	sp_spkvocaid96, %object
 7510              		.size	sp_spkvocaid96, 141
 7511              	sp_spkvocaid96:
 7512 0000 6305F72E 		.ascii	"c\005\367.\321UF\367q]u\354\256\036\334\246J\333[-\330"
 7512      D15546F7 
 7512      715D75EC 
 7512      AE1EDCA6 
 7512      4ADB5B2D 
 7513 0015 0D958EBB 		.ascii	"\015\225\216\273\333*\321\254\233T\225U\242\0373\255"
 7513      DB2AD1AC 
 7513      9B549555 
 7513      A21F33AD 
 7514 0025 3A2727DB 		.ascii	":''\333\026RqVJ\2564\274\254\254\224\203Y\330X\036\251"
 7514      16527156 
 7514      4AAE34BC 
 7514      ACAC9483 
 7514      59D8581E 
 7515 003a 78D5B2B1 		.ascii	"x\325\262\261<R\315A.\0279\265\030%\262FJH\2658\273"
 7515      3C52CD41 
 7515      2E1739B5 
 7515      1825B246 
 7515      4A48B538 
 7516 004f BE3D556A 		.ascii	"\276=Uj4\011\237$\245\026\233XQVf\033\243DS\267\215"
 7516      34099F24 
 7516      A5169B58 
 7516      5156661B 
 7516      A34453B7 
 7517 0064 32560EA6 		.ascii	"2V\016\246\246ke\254\344JL'j\331Q\257\212\246\343\260"
 7517      A66B65AC 
 7517      E44A4C27 
 7517      6AD951AF 
 7517      8AA6E3B0 
 7518 0078 236F09B4 		.ascii	"#o\011\264ta;\235fdi\303\361\242\305\311\363\306\343"
 7518      74613B9D 
 7518      666469C3 
 7518      F1A2C5C9 
 7518      F3C6E3
 7519 008b CF03     		.ascii	"\317\003"
 7520              		.global	sp_spkvocaid95
 7521              		.section	.rodata.sp_spkvocaid95,"a"
 7522              		.align	2
 7523              		.type	sp_spkvocaid95, %object
 7524              		.size	sp_spkvocaid95, 95
ARM GAS  /tmp/ccONvy4E.s 			page 149


 7525              	sp_spkvocaid95:
 7526 0000 0224ABA2 		.ascii	"\002$\253\242\201\006\245T\343Z\256\226O.6-4\033\257"
 7526      8106A554 
 7526      E35AAE96 
 7526      4F2E362D 
 7526      341BAF
 7527 0013 18549573 		.ascii	"\030T\225s,j\321\253\272\004[\235\242\321\263\016\321"
 7527      2C6AD1AB 
 7527      BA045B9D 
 7527      A2D1B30E 
 7527      D1
 7528 0024 7A24AF77 		.ascii	"z$\257w\034\342\321\314\253\005\263\351\030\213\333"
 7528      1CE2D1CC 
 7528      AB05B3E9 
 7528      188BDB
 7529 0033 746EC338 		.ascii	"tn\3038f\227k\302\205J>*W\345)\303\251[o\271\306|\210"
 7529      66976BC2 
 7529      854A3E2A 
 7529      57E529C3 
 7529      A95B6FB9 
 7530 004a 64C77495 		.ascii	"d\307t\225\273T\362\015n\313\364.\230+\315TeC j="
 7530      BB54F20D 
 7530      6ECBF42E 
 7530      982BCD54 
 7530      6543206A 
 7531              		.global	sp_spkvocaid94
 7532              		.section	.rodata.sp_spkvocaid94,"a"
 7533              		.align	2
 7534              		.type	sp_spkvocaid94, %object
 7535              		.size	sp_spkvocaid94, 101
 7536              	sp_spkvocaid94:
 7537 0000 04481846 		.ascii	"\004H\030F\200\300\251\0340 `z\0319\017\023\245\223"
 7537      80C0A91C 
 7537      3020607A 
 7537      19390F13 
 7537      A593
 7538 0012 D2423491 		.ascii	"\322B4\221^9\243$k\242\361vg\036\271Z\226\254\267\323"
 7538      5E39A324 
 7538      6BA2F176 
 7538      671EB95A 
 7538      96ACB7D3 
 7539 0026 728F4451 		.ascii	"r\217DQo\273\224\221\210\242_v\253\335\023V\277\342"
 7539      6FBB9491 
 7539      88A25F76 
 7539      ABDD1356 
 7539      BFE2
 7540 0038 34AB0599 		.ascii	"4\253\005\231nEa%\211\376]\212\302IH\343\323\024\273"
 7540      6E456125 
 7540      89FE5D8A 
 7540      C24948E3 
 7540      D314BB
 7541 004b 5304F1EF 		.ascii	"S\004\361\357(\011\267s\346\235\222\353n\243\314\327"
 7541      2809B773 
 7541      E69D92EB 
 7541      6EA3CCD7 
 7542 005b 25C7DDC2 		.ascii	"%\307\335\302I\177F\212=\017"
 7542      497F468A 
ARM GAS  /tmp/ccONvy4E.s 			page 150


 7542      3D0F
 7543              		.global	sp_spkvocaid93
 7544              		.section	.rodata.sp_spkvocaid93,"a"
 7545              		.align	2
 7546              		.type	sp_spkvocaid93, %object
 7547              		.size	sp_spkvocaid93, 99
 7548              	sp_spkvocaid93:
 7549 0000 6E8ABC6A 		.ascii	"n\212\274j\346\262{+M\225\033\201xY\353\250\336\334"
 7549      E6B27B2B 
 7549      4D951B81 
 7549      7859EBA8 
 7549      DEDC
 7550 0012 18C6A255 		.ascii	"\030\306\242U\202\271R\312:\273\256\032\365\226c\326"
 7550      82B952CA 
 7550      3ABBAE1A 
 7550      F59663D6 
 7551 0022 3E2DE92D 		.ascii	">-\351-\307\254uf\264[NY\373\256sB\2360\236\252\353"
 7551      C7AC7566 
 7551      B45B4E59 
 7551      FBAE7342 
 7551      9E309EAA 
 7552 0037 F85E6E7A 		.ascii	"\370^nzv\333u5=|\255\216\347S\351xZI\337\245\360\211"
 7552      76DB7535 
 7552      3D7CAD8E 
 7552      E753E978 
 7552      5A49DFA5 
 7553 004d B55C7E34 		.ascii	"\265\\~4!\223i%}g\265\306Z\252\373\321\250^\246\031"
 7553      21936925 
 7553      7D67B5C6 
 7553      5AAAFBD1 
 7553      A85EA619 
 7554 0061 FF1F     		.ascii	"\377\037"
 7555              		.global	sp_spkvocaid92
 7556              		.section	.rodata.sp_spkvocaid92,"a"
 7557              		.align	2
 7558              		.type	sp_spkvocaid92, %object
 7559              		.size	sp_spkvocaid92, 57
 7560              	sp_spkvocaid92:
 7561 0000 A516AF9E 		.ascii	"\245\026\257\236\331rV\311\336\264\343\035\357\274r"
 7561      D97256C9 
 7561      DEB4E31D 
 7561      EFBC72
 7562 000f 89E2592B 		.ascii	"\211\342Y+g\224\034\304;F\361\234f\225\305VVJ\000\000"
 7562      67941CC4 
 7562      3B46F19C 
 7562      6695C556 
 7562      564A0000 
 7563 0023 0CF0BAC4 		.ascii	"\014\360\272\304\201\245K4\020\340\230R\011\0048&M\200"
 7563      81A54B34 
 7563      10E09852 
 7563      09043826 
 7563      4D80
 7564 0035 65822978 		.ascii	"e\202)x"
 7565              		.global	sp_spkvocaid91
 7566              		.section	.rodata.sp_spkvocaid91,"a"
 7567              		.align	2
 7568              		.type	sp_spkvocaid91, %object
ARM GAS  /tmp/ccONvy4E.s 			page 151


 7569              		.size	sp_spkvocaid91, 128
 7570              	sp_spkvocaid91:
 7571 0000 64515B5E 		.ascii	"dQ[^\236&\361&\207\253\260\3146\321z\321\252a\325\350"
 7571      9E26F126 
 7571      87ABB0CC 
 7571      36D17AD1 
 7571      AA61D5E8 
 7572 0014 B4E842DC 		.ascii	"\264\350B\334\266\316*\326\265\247\327\354\225\235\035"
 7572      B6CE2AD6 
 7572      B5A7D7EC 
 7572      959D1D
 7573 0023 0FC945A6 		.ascii	"\017\311E\246\030\265\252\344\211S\015\321\335M\345"
 7573      18B5AAE4 
 7573      89530DD1 
 7573      DD4DE5
 7574 0032 94A2DD95 		.ascii	"\224\242\335\225\242ol\305\352\011\245|\230[\031&\246"
 7574      A26F6CC5 
 7574      EA09A57C 
 7574      985B1926 
 7574      A6
 7575 0043 6854A332 		.ascii	"hT\2432\263\024\266<\313i5\245\240\275\225\323\312J"
 7575      B314B63C 
 7575      CB6935A5 
 7575      A0BD95D3 
 7575      CA4A
 7576 0055 A1B72D87 		.ascii	"\241\267-\207]\254\300L\227N\247)\207\334\212\231nf"
 7576      5DACC04C 
 7576      974EA729 
 7576      87DC8A99 
 7576      6E66
 7577 0067 C6F9D520 		.ascii	"\306\371\325 \334@\\\356RA\272A\206\204\306Js\231\033"
 7577      DC405CEE 
 7577      5241BA41 
 7577      8684C64A 
 7577      73991B
 7578 007a 4F8F09FA 		.ascii	"O\217\011\372\311\373"
 7578      C9FB
 7579              		.global	sp_spkvocaid90
 7580              		.section	.rodata.sp_spkvocaid90,"a"
 7581              		.align	2
 7582              		.type	sp_spkvocaid90, %object
 7583              		.size	sp_spkvocaid90, 94
 7584              	sp_spkvocaid90:
 7585 0000 EE441F6A 		.ascii	"\356D\037j\244\215\303)\256\314\210\235\020 \230+\002"
 7585      A48DC329 
 7585      AECC889D 
 7585      1020982B 
 7585      02
 7586 0011 4C865230 		.ascii	"L\206R0js!\"\326x\225\254T2\266\312H=(\272_\344\231"
 7586      6A732122 
 7586      D67895AC 
 7586      5432B6CA 
 7586      483D28BA 
 7587 0028 5A9A5620 		.ascii	"Z\232V r\355\264<\262\202\305:\351-\315\316\204\266"
 7587      72EDB43C 
 7587      B282C53A 
 7587      E92DCDCE 
ARM GAS  /tmp/ccONvy4E.s 			page 152


 7587      84B6
 7588 003a 52693843 		.ascii	"Ri8C0\356\254\324p\253$\232\036\306\356\026\254\374"
 7588      30EEACD4 
 7588      70AB249A 
 7588      1EC6EE16 
 7588      ACFC
 7589 004c D354FC0B 		.ascii	"\323T\374\013/\021\325\237\246b\336H\204\325\357X\376"
 7589      2F11D59F 
 7589      A662DE48 
 7589      84D5EF58 
 7589      FE
 7590 005d 07       		.ascii	"\007"
 7591              		.global	sp_spkvocaid89
 7592              		.section	.rodata.sp_spkvocaid89,"a"
 7593              		.align	2
 7594              		.type	sp_spkvocaid89, %object
 7595              		.size	sp_spkvocaid89, 99
 7596              	sp_spkvocaid89:
 7597 0000 665CC38C 		.ascii	"f\\\303\214\373\242\375t\353E!\360\255\035G\3517\032"
 7597      FBA2FD74 
 7597      EB4521F0 
 7597      AD1D47E9 
 7597      371A
 7598 0012 814EED56 		.ascii	"\201N\355VWp@\233&\243\214\354\300\336uV\3565@,\347"
 7598      5770409B 
 7598      26A38CEC 
 7598      C0DE7556 
 7598      EE35402C 
 7599 0027 CC3C4A0B 		.ascii	"\314<J\013\016f\261\270\265\354\224\\\363n\232Q\272"
 7599      0E66B1B8 
 7599      B5EC945C 
 7599      F36E9A51 
 7599      BA
 7600 0038 84FA2CB7 		.ascii	"\204\372,\267-\256p\267\235\376\204kI\207\013m\266W"
 7600      2DAE70B7 
 7600      9DFE846B 
 7600      49870B6D 
 7600      B657
 7601 004a 5DA1CE55 		.ascii	"]\241\316U\364\223x\334\237\252\372#\363d\034Q\315\207"
 7601      F49378DC 
 7601      9FAAFA23 
 7601      F3641C51 
 7601      CD87
 7602 005c EAF9D0A2 		.ascii	"\352\371\320\242\350\225\036"
 7602      E8951E
 7603              		.global	sp_spkvocaid88
 7604              		.section	.rodata.sp_spkvocaid88,"a"
 7605              		.align	2
 7606              		.type	sp_spkvocaid88, %object
 7607              		.size	sp_spkvocaid88, 70
 7608              	sp_spkvocaid88:
 7609 0000 0624ED99 		.ascii	"\006$\355\231@\227\026\012Dj:R\017\206f\033\247\245"
 7609      4097160A 
 7609      446A3A52 
 7609      0F86661B 
 7609      A7A5
 7610 0012 1103D4AF 		.ascii	"\021\003\324\257r\217-\215\240`\361\221k.m\032\205\254"
ARM GAS  /tmp/ccONvy4E.s 			page 153


 7610      728F2D8D 
 7610      A060F191 
 7610      6B2E6D1A 
 7610      85AC
 7611 0024 B753C6E0 		.ascii	"\267S\306\340\212]\245,\255\311\005{JZ\330Y\021_\267"
 7611      8A5DA52C 
 7611      ADC9057B 
 7611      4A5AD859 
 7611      115FB7
 7612 0037 92744714 		.ascii	"\222tG\024\310z'\341\314``\365q\374y"
 7612      C87A27E1 
 7612      CC6060F5 
 7612      71FC79
 7613              		.global	sp_spkvocaid87
 7614              		.section	.rodata.sp_spkvocaid87,"a"
 7615              		.align	2
 7616              		.type	sp_spkvocaid87, %object
 7617              		.size	sp_spkvocaid87, 77
 7618              	sp_spkvocaid87:
 7619 0000 A9646B32 		.ascii	"\251dk2\361vvY)9\265\316W\262R4\032\035\247\344\224"
 7619      F1767659 
 7619      2939B5CE 
 7619      57B25234 
 7619      1A1DA7E4 
 7620 0015 E03C2A57 		.ascii	"\340<*W\316\032\316{U\036\3235m\214\3548\272\355\352"
 7620      CE1ACE7B 
 7620      551ED335 
 7620      6D8CEC38 
 7620      BAEDEA
 7621 0028 D4317AF4 		.ascii	"\3241z\364\323\011\321\302bi+\260X\252\005\006lif\300"
 7621      D309D1C2 
 7621      62692BB0 
 7621      58AA0506 
 7621      6C6966C0 
 7622 003c 09A1065C 		.ascii	"\011\241\006\\\027b\201\002\317\271K \300\327\351\034"
 7622      17628102 
 7622      CFB94B20 
 7622      C0D7E91C 
 7623 004c 3C       		.ascii	"<"
 7624              		.global	sp_spkvocaid86
 7625              		.section	.rodata.sp_spkvocaid86,"a"
 7626              		.align	2
 7627              		.type	sp_spkvocaid86, %object
 7628              		.size	sp_spkvocaid86, 75
 7629              	sp_spkvocaid86:
 7630 0000 A57AF319 		.ascii	"\245z\363\031\354\015o=%\350\351`m|j\324\333\316\332"
 7630      EC0D6F3D 
 7630      25E8E960 
 7630      6D7C6AD4 
 7630      DBCEDA
 7631 0013 6A35EFAE 		.ascii	"j5\357\256\\\264\325j.N&k\253\321\315\250\010\212\332"
 7631      5CB4D56A 
 7631      2E4E266B 
 7631      ABD1CDA8 
 7631      088ADA
 7632 0026 6D98135A 		.ascii	"m\230\023Zf\223\353J\307\214\2601\235Y\236\236\241]"
 7632      6693EB4A 
ARM GAS  /tmp/ccONvy4E.s 			page 154


 7632      C78CB031 
 7632      9D599E9E 
 7632      A15D
 7633 0038 5223BFF4 		.ascii	"R#\277\364LW;\227\232\371\371g^\334.\356\322\370\001"
 7633      4C573B97 
 7633      9AF9F967 
 7633      5EDC2EEE 
 7633      D2F801
 7634              		.global	sp_spkvocaid85
 7635              		.section	.rodata.sp_spkvocaid85,"a"
 7636              		.align	2
 7637              		.type	sp_spkvocaid85, %object
 7638              		.size	sp_spkvocaid85, 82
 7639              	sp_spkvocaid85:
 7640 0000 06AC98A8 		.ascii	"\006\254\230\250@3\314\006\254$d\300\014D\0028B1\302"
 7640      4033CC06 
 7640      AC2464C0 
 7640      0C440238 
 7640      4231C2
 7641 0013 B40652D3 		.ascii	"\264\006R\323x\304\351\034\244\267\361J#8hM\343\231"
 7641      78C4E91C 
 7641      A4B7F14A 
 7641      2338684D 
 7641      E399
 7642 0025 4669CAD1 		.ascii	"Fi\312\3213\026\227\226\204sz\314N\323\312\342\360\232"
 7642      33169796 
 7642      84737ACC 
 7642      4ED3CAE2 
 7642      F09A
 7643 0037 EC8ED2E9 		.ascii	"\354\216\322\351\311s\333\\\356[C\373\222\276\346Iq"
 7643      C973DB5C 
 7643      EE5B43FB 
 7643      92BEE649 
 7643      71
 7644 0048 A66A2BD5 		.ascii	"\246j+\325\347\366\205w]<"
 7644      E7F68577 
 7644      5D3C
 7645              		.global	sp_spkvocaid84
 7646              		.section	.rodata.sp_spkvocaid84,"a"
 7647              		.align	2
 7648              		.type	sp_spkvocaid84, %object
 7649              		.size	sp_spkvocaid84, 89
 7650              	sp_spkvocaid84:
 7651 0000 0E046FA0 		.ascii	"\016\004o\240@4,\255L\243\020{rZ\356\232\241w\345\364"
 7651      40342CAD 
 7651      4CA3107B 
 7651      725AEE9A 
 7651      A177E5F4 
 7652 0014 D452D70C 		.ascii	"\324R\327\014\265'\247\245a\031jVI)\3352\324\256\342"
 7652      B527A7A5 
 7652      61196A56 
 7652      4929DD32 
 7652      D4AEE2
 7653 0027 52BB62D8 		.ascii	"R\273b\330\0359\251\017\3110;r\302\210\204\355\307\221"
 7653      1D39A90F 
 7653      C9303B72 
 7653      C28884ED 
ARM GAS  /tmp/ccONvy4E.s 			page 155


 7653      C791
 7654 0039 B8D514E1 		.ascii	"\270\325\024\341\336Rq;C\325\337\242\022\316@\"wE5\275"
 7654      DE52713B 
 7654      43D5DFA2 
 7654      12CE4022 
 7654      774535BD 
 7655 004d 82557ECB 		.ascii	"\202U~\313J\272=)\251\254\234\007"
 7655      4ABA3D29 
 7655      A9AC9C07 
 7656              		.global	sp_spkvocaid83
 7657              		.section	.rodata.sp_spkvocaid83,"a"
 7658              		.align	2
 7659              		.type	sp_spkvocaid83, %object
 7660              		.size	sp_spkvocaid83, 77
 7661              	sp_spkvocaid83:
 7662 0000 A305B5A9 		.ascii	"\243\005\265\251\342\253F\365j\312\331V\265j\315t\240"
 7662      E2AB46F5 
 7662      6ACAD956 
 7662      B56ACD74 
 7662      A0
 7663 0011 AE2ECDF8 		.ascii	"\256.\315\370-A\373T\232N[\214\376(\015\345\267\014"
 7663      2D41FB54 
 7663      9A4E5B8C 
 7663      FE280DE5 
 7663      B70C
 7664 0023 62675832 		.ascii	"bgX2l)\304\316x\334\345y\313\240w\230\313\3079h\255"
 7664      6C29C4CE 
 7664      78DCE579 
 7664      CBA07798 
 7664      CBC73968 
 7665 0038 549FE54F 		.ascii	"T\237\345O\340\356!>\255\257\304\235I}Z\336\030{\205"
 7665      E0EE213E 
 7665      ADAFC49D 
 7665      497D5ADE 
 7665      187B85
 7666 004b 7C0F     		.ascii	"|\017"
 7667              		.global	sp_spkvocaid82
 7668              		.section	.rodata.sp_spkvocaid82,"a"
 7669              		.align	2
 7670              		.type	sp_spkvocaid82, %object
 7671              		.size	sp_spkvocaid82, 84
 7672              	sp_spkvocaid82:
 7673 0000 AB45A331 		.ascii	"\253E\2431QLO\353I$\342l\235Z\235r\373IY5\031\216\312"
 7673      514C4FEB 
 7673      4924E26C 
 7673      9D5A9D72 
 7673      FB495935 
 7674 0017 A5B3EBEA 		.ascii	"\245\263\353\352QkT\016\3351\275\214\034\037js\265c"
 7674      516B540E 
 7674      DD31BD8C 
 7674      1C1F6A73 
 7674      B563
 7675 0029 D558FB88 		.ascii	"\325X\373\210K\327\261\366\3421\343\256Q\356-\247\331"
 7675      4BD7B1F6 
 7675      E231E3AE 
 7675      51EE2DA7 
 7675      D9
ARM GAS  /tmp/ccONvy4E.s 			page 156


 7676 003a 5DCBAD1A 		.ascii	"]\313\255\032\233\255\271\206G4\267R\177\325Q<\372\250"
 7676      9BADB986 
 7676      4734B752 
 7676      7FD5513C 
 7676      FAA8
 7677 004c 95AA2379 		.ascii	"\225\252#yG\323\310}"
 7677      47D3C87D 
 7678              		.global	sp_spkvocaid81
 7679              		.section	.rodata.sp_spkvocaid81,"a"
 7680              		.align	2
 7681              		.type	sp_spkvocaid81, %object
 7682              		.size	sp_spkvocaid81, 72
 7683              	sp_spkvocaid81:
 7684 0000 63D6C416 		.ascii	"c\326\304\026uv\326(\236\255r\345\234V\235J\307Y\276"
 7684      7576D628 
 7684      9EAD72E5 
 7684      9C569D4A 
 7684      C759BE
 7685 0013 EDD6D38A 		.ascii	"\355\326\323\212sI{+\2477\227\342\274u\307\214\256\324"
 7685      73497B2B 
 7685      A73797E2 
 7685      BC75C78C 
 7685      AED4
 7686 0025 B4A39565 		.ascii	"\264\243\225e}\213I$\251']\355B\203ti\272V\226:f2se"
 7686      7D8B4924 
 7686      A9275DED 
 7686      42837469 
 7686      BA56963A 
 7687 003d 6894A83A 		.ascii	"h\224\250:\352Z>\352Xm\037"
 7687      EA5A3EEA 
 7687      586D1F
 7688              		.global	sp_spkvocaid80
 7689              		.section	.rodata.sp_spkvocaid80,"a"
 7690              		.align	2
 7691              		.type	sp_spkvocaid80, %object
 7692              		.size	sp_spkvocaid80, 84
 7693              	sp_spkvocaid80:
 7694 0000 6995A41A 		.ascii	"i\225\244\032yN\366<\2758\223\362\217}\333\251\305\207"
 7694      794EF63C 
 7694      BD3893F2 
 7694      8F7DDBA9 
 7694      C587
 7695 0012 845FEDD3 		.ascii	"\204_\355\323bp\367\3308\267\217\341r\227\310V-\333"
 7695      6270F7D8 
 7695      38B78FE1 
 7695      7297C856 
 7695      2DDB
 7696 0024 F475E18F 		.ascii	"\364u\341\217\232\216\032\317\252o-\\9\237%\336\212"
 7696      9A8E1ACF 
 7696      AA6F2D5C 
 7696      399F25DE 
 7696      8A
 7697 0035 BB623E8B 		.ascii	"\273b>\213}\024w\305z\210]s\356\312\374$uV\335\223\361"
 7697      7D1477C5 
 7697      7A885D73 
 7697      EECAFC24 
 7697      7556DD93 
ARM GAS  /tmp/ccONvy4E.s 			page 157


 7698 004a 99FD8398 		.ascii	"\231\375\203\230\257\365\247\302&{"
 7698      AFF5A7C2 
 7698      267B
 7699              		.global	sp_spkvocaid79
 7700              		.section	.rodata.sp_spkvocaid79,"a"
 7701              		.align	2
 7702              		.type	sp_spkvocaid79, %object
 7703              		.size	sp_spkvocaid79, 67
 7704              	sp_spkvocaid79:
 7705 0000 011427E2 		.ascii	"\001\024'\342AK\325\031{\204\324\225jr\016\257\270'"
 7705      414BD519 
 7705      7B84D495 
 7705      6A720EAF 
 7705      B827
 7706 0012 956092D1 		.ascii	"\225`\222\321voZ\271y\247\362\261\263j\015*\231cg\216"
 7706      766F5AB9 
 7706      79A7F2B1 
 7706      B36A0D2A 
 7706      9963678E 
 7707 0026 B69355D9 		.ascii	"\266\223U\331X\271\365\204\033p\306WZI/r\365\217\222"
 7707      58B9F584 
 7707      1B70C657 
 7707      5A492F72 
 7707      F58F92
 7708 0039 E35EC1CE 		.ascii	"\343^\301\316?e\326_{\037"
 7708      3F65D65F 
 7708      7B1F
 7709              		.global	sp_spkvocaid78
 7710              		.section	.rodata.sp_spkvocaid78,"a"
 7711              		.align	2
 7712              		.type	sp_spkvocaid78, %object
 7713              		.size	sp_spkvocaid78, 89
 7714              	sp_spkvocaid78:
 7715 0000 04BC3922 		.ascii	"\004\2749\"Ai\253\2260j\226U\233wP\237\316\273\254R"
 7715      4169AB96 
 7715      306A9655 
 7715      9B77509F 
 7715      CEBBAC52 
 7716 0014 BCB16735 		.ascii	"\274\261g5Z%[\323\314\252\265J\362f\231\035y\325\350"
 7716      5A255BD3 
 7716      CCAAB54A 
 7716      F266991D 
 7716      79D5E8
 7717 0027 D5B226CE 		.ascii	"\325\262&\316\356c\330`9\325r\306v&|*\255\265\023Y\304"
 7717      EE63D860 
 7717      39D572C6 
 7717      76267C2A 
 7717      ADB51359 
 7718 003c 855B4927 		.ascii	"\205[I'0\267\2574\223oz\031\273\374\230\025\367\213"
 7718      30B7AF34 
 7718      936F7A19 
 7718      BBFC9815 
 7718      F78B
 7719 004e 21FAFAD8 		.ascii	"!\372\372\330\352&\305\3725\262\037"
 7719      EA26C5FA 
 7719      35B21F
 7720              		.global	sp_spkvocaid77
ARM GAS  /tmp/ccONvy4E.s 			page 158


 7721              		.section	.rodata.sp_spkvocaid77,"a"
 7722              		.align	2
 7723              		.type	sp_spkvocaid77, %object
 7724              		.size	sp_spkvocaid77, 81
 7725              	sp_spkvocaid77:
 7726 0000 ABFB3C69 		.ascii	"\253\373<i\262qf;5\353I\247\216\263J2\223N\035\347\226"
 7726      B271663B 
 7726      35EB49A7 
 7726      8EB34A32 
 7726      934E1DE7 
 7727 0015 55439810 		.ascii	"UC\230\020\031\273\253\205\320\241<vwo\323\3154\365"
 7727      19BBAB85 
 7727      D0A13C76 
 7727      776FD3CD 
 7727      34F5
 7728 0027 95DBB69D 		.ascii	"\225\333\266\235)\031-w\034\327\232\253RJ=\355:\327"
 7728      29192D77 
 7728      1CD79AAB 
 7728      524A3DED 
 7728      3AD7
 7729 0039 3A9596F3 		.ascii	":\225\226\363\015/\231\340\251\262\034~VN\233e\306\375"
 7729      0D2F99E0 
 7729      A9B21C7E 
 7729      564E9B65 
 7729      C6FD
 7730 004b 3E870DB3 		.ascii	">\207\015\263\361\003"
 7730      F103
 7731              		.global	sp_spkvocaid76
 7732              		.section	.rodata.sp_spkvocaid76,"a"
 7733              		.align	2
 7734              		.type	sp_spkvocaid76, %object
 7735              		.size	sp_spkvocaid76, 65
 7736              	sp_spkvocaid76:
 7737 0000 A306A73E 		.ascii	"\243\006\247>\365rV\311A$\353\342\234\\\223R\306\331"
 7737      F57256C9 
 7737      4124EBE2 
 7737      9C5C9352 
 7737      C6D9
 7738 0012 DE79E496 		.ascii	"\336y\344\226\2303WN\257\241u\3070Q\362\334\232A k\354"
 7738      9833574E 
 7738      AFA175C7 
 7738      3051F2DC 
 7738      9A41206B 
 7739 0027 EA0B0004 		.ascii	"\352\013\000\004\274\346\302\300\255!\016\254\321\352"
 7739      BCE6C2C0 
 7739      AD210EAC 
 7739      D1EA
 7740 0035 C0EA4516 		.ascii	"\300\352E\026\0100j2\003\3112?"
 7740      08306A32 
 7740      03C9323F 
 7741              		.global	sp_spkvocaid75
 7742              		.section	.rodata.sp_spkvocaid75,"a"
 7743              		.align	2
 7744              		.type	sp_spkvocaid75, %object
 7745              		.size	sp_spkvocaid75, 68
 7746              	sp_spkvocaid75:
 7747 0000 062CCDE4 		.ascii	"\006,\315\344@\327\004\255\255\332\214\350mZ\035)\201"
ARM GAS  /tmp/ccONvy4E.s 			page 159


 7747      40D704AD 
 7747      ADDA8CE8 
 7747      6D5A1D29 
 7747      81
 7748 0011 BC17B7D2 		.ascii	"\274\027\267\322\222\202\347\324.\271g\201\210\213\322"
 7748      9282E7D4 
 7748      2EB96781 
 7748      888BD2
 7749 0020 4A8B4455 		.ascii	"J\213DUk\247\224\352\221\247NN\251\205\013}\225\325"
 7749      6BA794EA 
 7749      91A74E4E 
 7749      A9850B7D 
 7749      95D5
 7750 0032 D2975498 		.ascii	"\322\227T\230))iL\241\260\233R\362\314+\356x\036"
 7750      2929694C 
 7750      A1B09B52 
 7750      F2CC2BEE 
 7750      781E
 7751              		.global	sp_spkvocaid74
 7752              		.section	.rodata.sp_spkvocaid74,"a"
 7753              		.align	2
 7754              		.type	sp_spkvocaid74, %object
 7755              		.size	sp_spkvocaid74, 70
 7756              	sp_spkvocaid74:
 7757 0000 AB256B32 		.ascii	"\253%k2y\265O-.\270bj\237\222\235K\373\305^%X\267\365"
 7757      79B54F2D 
 7757      2EB8626A 
 7757      9F929D4B 
 7757      FBC55E25 
 7758 0017 B7BAAAF7 		.ascii	"\267\272\252\367\036\345ge\2671\\\016O\177ki\273\220"
 7758      1EE56765 
 7758      B7315C0E 
 7758      4F7F6B69 
 7758      BB90
 7759 0029 9ED256DC 		.ascii	"\236\322V\334\016k\304\264\302\012P\224\213\004\032"
 7759      0E6BC4B4 
 7759      C20A5094 
 7759      8B041A
 7760 0038 08506C88 		.ascii	"\010Pl\210\004\002T\343\302@\262\256\024<"
 7760      040254E3 
 7760      C240B2AE 
 7760      143C
 7761              		.global	sp_spkvocaid73
 7762              		.section	.rodata.sp_spkvocaid73,"a"
 7763              		.align	2
 7764              		.type	sp_spkvocaid73, %object
 7765              		.size	sp_spkvocaid73, 83
 7766              	sp_spkvocaid73:
 7767 0000 AD4CA310 		.ascii	"\255L\243\020{rZ\356\232\241w\345\364\324R\327\014\265"
 7767      7B725AEE 
 7767      9AA177E5 
 7767      F4D452D7 
 7767      0CB5
 7768 0012 27A7A561 		.ascii	"'\247\245a\031jVI)\3352\324\256\342R\273b\330\0359\251"
 7768      196A5649 
 7768      29DD32D4 
 7768      AEE252BB 
ARM GAS  /tmp/ccONvy4E.s 			page 160


 7768      62D81D39 
 7769 0027 0FC9303B 		.ascii	"\017\3110;r\302\210\204\355\307\221\270\325\024\341"
 7769      72C28884 
 7769      EDC791B8 
 7769      D514E1
 7770 0036 DE52713B 		.ascii	"\336Rq;C\325\337\242\022\316@\"wE\325\334A\004\367\233"
 7770      43D5DFA2 
 7770      12CE4022 
 7770      7745D5DC 
 7770      4104F79B 
 7771 004a AABEEA8E 		.ascii	"\252\276\352\216$\020\331j\036"
 7771      2410D96A 
 7771      1E
 7772              		.global	sp_spkvocaid72
 7773              		.section	.rodata.sp_spkvocaid72,"a"
 7774              		.align	2
 7775              		.type	sp_spkvocaid72, %object
 7776              		.size	sp_spkvocaid72, 75
 7777              	sp_spkvocaid72:
 7778 0000 6431EAD9 		.ascii	"d1\352\331>\206\344j3\011\341\362\217\334Z\226\302\331"
 7778      3E86E46A 
 7778      3309E1F2 
 7778      8FDC5A96 
 7778      C2D9
 7779 0012 6777B41E 		.ascii	"gw\264\036\004,\317vo\255\215$\240yqz+\275\007\006\357"
 7779      042CCF76 
 7779      6FAD8D24 
 7779      A079717A 
 7779      2BBD0706 
 7780 0027 B5934675 		.ascii	"\265\223FuH9\2438\255f\030\272WN\336\341t\303\320s\226"
 7780      4839A338 
 7780      AD6618BA 
 7780      574EDEE1 
 7780      74C3D073 
 7781 003c C349C8F4 		.ascii	"\303I\310\364\337\304\270\033\251\332O\221\265\367\001"
 7781      DFC4B81B 
 7781      A9DA4F91 
 7781      B5F701
 7782              		.global	sp_spkvocaid71
 7783              		.section	.rodata.sp_spkvocaid71,"a"
 7784              		.align	2
 7785              		.type	sp_spkvocaid71, %object
 7786              		.size	sp_spkvocaid71, 81
 7787              	sp_spkvocaid71:
 7788 0000 0A5C9366 		.ascii	"\012\\\223f\201\001\317\224*\360\315\230\006\022\264"
 7788      8101CF94 
 7788      2AF0CD98 
 7788      0612B4
 7789 000f 989569C8 		.ascii	"\230\225i\310\226Y\261\030\023\327\0137b5\312\341k\256"
 7789      9659B118 
 7789      13D70B37 
 7789      6235CAE1 
 7789      6BAE
 7790 0021 A5A6053B 		.ascii	"\245\246\005;\332ZO\245TC<=JR+\234\371\273\224\204\231"
 7790      DA5A4FA5 
 7790      54433C3D 
 7790      4A522B9C 
ARM GAS  /tmp/ccONvy4E.s 			page 161


 7790      F9BB9484 
 7791 0036 A8EA6730 		.ascii	"\250\352g0\211+\036s\032c\376\031:\366\252;\002\301"
 7791      892B1E73 
 7791      1A63FE19 
 7791      3AF6AA3B 
 7791      02C1
 7792 0048 F42B5177 		.ascii	"\364+Qw\367\004\343U\362"
 7792      F704E355 
 7792      F2
 7793              		.global	sp_spkvocaid70
 7794              		.section	.rodata.sp_spkvocaid70,"a"
 7795              		.align	2
 7796              		.type	sp_spkvocaid70, %object
 7797              		.size	sp_spkvocaid70, 77
 7798              	sp_spkvocaid70:
 7799 0000 64319B66 		.ascii	"d1\233fZ-[/\216%\274\342\266R5S\316\307\231u\324\341"
 7799      5A2D5B2F 
 7799      8E25BCE2 
 7799      B6523553 
 7799      CEC79975 
 7800 0016 04BDCF6E 		.ascii	"\004\275\317n+\323\012x\257\325V\207\027\3609;\251W"
 7800      2BD30A78 
 7800      AFD55687 
 7800      17F0393B 
 7800      A957
 7801 0028 43D4D372 		.ascii	"C\324\323r\302\030R\260\256\310\271U)\313n\211\361\333"
 7801      C21852B0 
 7801      AEC8B955 
 7801      29CB6E89 
 7801      F1DB
 7802 003a 9D8659F7 		.ascii	"\235\206Y\367\222\232\331\225\013\316\237\031\265\206"
 7802      929AD995 
 7802      0BCE9F19 
 7802      B586
 7803 0048 61A8D978 		.ascii	"a\250\331x\017"
 7803      0F
 7804              		.global	sp_spkvocaid69
 7805              		.section	.rodata.sp_spkvocaid69,"a"
 7806              		.align	2
 7807              		.type	sp_spkvocaid69, %object
 7808              		.size	sp_spkvocaid69, 88
 7809              	sp_spkvocaid69:
 7810 0000 A77B6BB1 		.ascii	"\247{k\2619rOM\301\244s\355\234\234\275Z\325H99\032"
 7810      39724F4D 
 7810      C1A473ED 
 7810      9C9CBD5A 
 7810      D5483939 
 7811 0015 8B899633 		.ascii	"\213\211\2263\2127\226\235-uT\247#6S\356\350A\270_\266"
 7811      8A37969D 
 7811      2D7554A7 
 7811      233653EE 
 7811      E841B85F 
 7812 002a D432BCF0 		.ascii	"\3242\274\360\374,\251m&n\372]b\362J;2\325\037\227\346"
 7812      FC2CA96D 
 7812      266EFA5D 
 7812      62F24A3B 
 7812      32D51F97 
ARM GAS  /tmp/ccONvy4E.s 			page 162


 7813 003f 4E938AF3 		.ascii	"N\223\212\363\035\305\335\352\211\246\326\214\271\311"
 7813      1DC5DDEA 
 7813      89A6D68C 
 7813      B9C9
 7814 004d A27D9518 		.ascii	"\242}\225\030\367zw6N;\017"
 7814      F77A7736 
 7814      4E3B0F
 7815              		.global	sp_spkvocaid68
 7816              		.section	.rodata.sp_spkvocaid68,"a"
 7817              		.align	2
 7818              		.type	sp_spkvocaid68, %object
 7819              		.size	sp_spkvocaid68, 115
 7820              	sp_spkvocaid68:
 7821 0000 661612E2 		.ascii	"f\026\022\342:\261\303Z\254X\264k\245\365t\250\262;"
 7821      3AB1C35A 
 7821      AC58B46B 
 7821      A5F574A8 
 7821      B23B
 7822 0012 56200167 		.ascii	"V \001g\007:Uic\206V\003i3jsF\3013g\345l\2342\266\316"
 7822      073A5569 
 7822      63865603 
 7822      69336A73 
 7822      46C13367 
 7823 002c 4AC92B57 		.ascii	"J\311+WL\343\225BTi\257\324#\331\342\032\021\272K2["
 7823      4CE39542 
 7823      5469AFD4 
 7823      23D9E21A 
 7823      11BA4B32 
 7824 0041 34527D97 		.ascii	"4R}\227d\216X\244\370\256ie\233F\315=\357\312\316\234"
 7824      648E58A4 
 7824      F8AE6965 
 7824      9B46CD3D 
 7824      EFCACE9C 
 7825 0055 AB45EE55 		.ascii	"\253E\356U\254\335\024\265^\263\224l\365\245\222\364"
 7825      ACDD14B5 
 7825      5EB3946C 
 7825      F5A592F4 
 7826 0065 4AD9B30B 		.ascii	"J\331\263\013g\356\345r`\357\250\324\352\001"
 7826      67EEE572 
 7826      60EFA8D4 
 7826      EA01
 7827              		.global	sp_spkvocaid67
 7828              		.section	.rodata.sp_spkvocaid67,"a"
 7829              		.align	2
 7830              		.type	sp_spkvocaid67, %object
 7831              		.size	sp_spkvocaid67, 127
 7832              	sp_spkvocaid67:
 7833 0000 0A5C9DEA 		.ascii	"\012\\\235\352\201\005\016\034\233n\001\000\251\305"
 7833      81050E1C 
 7833      9B6E0100 
 7833      A9C5
 7834 000e A70999DD 		.ascii	"\247\011\231\335\225\202\015+\311F7\235\024U\370x\307"
 7834      95820D2B 
 7834      C946379D 
 7834      1455F878 
 7834      C7
 7835 001f 3E2529D7 		.ascii	">%)\327\361\211|Jq\306\345\033{\327\326s`\251<)ee\251"
ARM GAS  /tmp/ccONvy4E.s 			page 163


 7835      F1897C4A 
 7835      71C6E51B 
 7835      7BD7D673 
 7835      60A93C29 
 7836 0036 F4D166D2 		.ascii	"\364\321f\322\256JagM\227\333\275B\327\306I\267\010"
 7836      AE4A6167 
 7836      4D97DBBD 
 7836      42D7C649 
 7836      B708
 7837 0048 83FE8C9C 		.ascii	"\203\376\214\234n\013\006\336U\267>\361\243r\264\314"
 7837      6E0B06DE 
 7837      55B73EF1 
 7837      A372B4CC 
 7838 0058 32E40919 		.ascii	"2\344\011\031Y^\222\310\025\3325\266D\223+DFYJ\022w"
 7838      595E92C8 
 7838      15DA35B6 
 7838      44932B44 
 7838      46594A12 
 7839 006d 7155E66C 		.ascii	"qU\346l\303\200\003\021\002d\340&\300\"B\022p\360"
 7839      C3800311 
 7839      0264E026 
 7839      C0224212 
 7839      70F0
 7840              		.global	sp_spkvocaid66
 7841              		.section	.rodata.sp_spkvocaid66,"a"
 7842              		.align	2
 7843              		.type	sp_spkvocaid66, %object
 7844              		.size	sp_spkvocaid66, 115
 7845              	sp_spkvocaid66:
 7846 0000 61582DB9 		.ascii	"aX-\271Tl\302pZ\342\250\270\246\341\224\331aq\031-\333"
 7846      546CC270 
 7846      5AE2A8B8 
 7846      A6E194D9 
 7846      6171192D 
 7847 0015 14B34ADC 		.ascii	"\024\263J\334\252v\243\351\031i\024\343\332\315|a\313"
 7847      AA76A3E9 
 7847      196914E3 
 7847      DACD7C61 
 7847      CB
 7848 0026 56558672 		.ascii	"VU\206r\257\224T\362R\265|$\331\343@\236v\300\201\350"
 7848      AF9454F2 
 7848      52B57C24 
 7848      D9E3409E 
 7848      76C081E8 
 7849 003a 9203C8C3 		.ascii	"\222\003\310\303\244\364|B\303LI\031\246YX\250\317\261"
 7849      A4F47C42 
 7849      C34C4919 
 7849      A65958A8 
 7849      CFB1
 7850 004c 5C8E3297 		.ascii	"\\\2162\227\\c\007We\352\276\306uqC4\023\327\353\276"
 7850      5C630757 
 7850      65EABEC6 
 7850      75714334 
 7850      13D7EBBE 
 7851 0060 B6474295 		.ascii	"\266GB\225S<\305O\235370`\271\005\003\"\273<"
 7851      533CC54F 
 7851      9D333730 
ARM GAS  /tmp/ccONvy4E.s 			page 164


 7851      60B90503 
 7851      22BB3C
 7852              		.global	sp_spkvocaid65
 7853              		.section	.rodata.sp_spkvocaid65,"a"
 7854              		.align	2
 7855              		.type	sp_spkvocaid65, %object
 7856              		.size	sp_spkvocaid65, 90
 7857              	sp_spkvocaid65:
 7858 0000 6A2A6333 		.ascii	"j*c3\234l\334\344>\253i\330\224\351TXK\30693\371r\343"
 7858      9C6CDCE4 
 7858      3EAB69D8 
 7858      94E95458 
 7858      4BC63933 
 7859 0017 897AC719 		.ascii	"\211z\307\031\321u\232\214\235\323\223\255R\351\330"
 7859      D1759A8C 
 7859      9DD393AD 
 7859      52E9D8
 7860 0026 A7465FA9 		.ascii	"\247F_\251\332Nn=%\273\010\227\216}J\261\241i\035e\345"
 7860      DA4E6E3D 
 7860      25BB0897 
 7860      8E7D4AB1 
 7860      A1691D65 
 7861 003b EC82DB4B 		.ascii	"\354\202\333KZ\311&\270\015\205\274\234B\322\316\313"
 7861      5AC926B8 
 7861      0D85BC9C 
 7861      42D2CECB 
 7862 004b 31B5B824 		.ascii	"1\265\270$\235\257c\350QY{\217\342\264\362"
 7862      9DAF63E8 
 7862      51597B8F 
 7862      E2B4F2
 7863              		.global	sp_spkvocaid64
 7864              		.section	.rodata.sp_spkvocaid64,"a"
 7865              		.align	2
 7866              		.type	sp_spkvocaid64, %object
 7867              		.size	sp_spkvocaid64, 57
 7868              	sp_spkvocaid64:
 7869 0000 AB06ED3E 		.ascii	"\253\006\355>\275VO\255\3368r\343\256\322\215c\326\325"
 7869      BD564FAD 
 7869      DE3872E3 
 7869      AED28D63 
 7869      D6D5
 7870 0012 5E657803 		.ascii	"^ex\003\257\213\323\322H\002\221c7\245\346\010\246\306"
 7870      AF8BD3D2 
 7870      48029163 
 7870      37A5E608 
 7870      A6C6
 7871 0024 AE894E70 		.ascii	"\256\211Np\236\227R\004\2124\301\200\002\007\252.@ "
 7871      9E975204 
 7871      8A34C180 
 7871      0207AA2E 
 7871      4020
 7872 0036 368107   		.ascii	"6\201\007"
 7873              		.global	sp_spkvocaid63
 7874              		.section	.rodata.sp_spkvocaid63,"a"
 7875              		.align	2
 7876              		.type	sp_spkvocaid63, %object
 7877              		.size	sp_spkvocaid63, 77
ARM GAS  /tmp/ccONvy4E.s 			page 165


 7878              	sp_spkvocaid63:
 7879 0000 021C11A6 		.ascii	"\002\034\021\246\201\001W\273x`A*\215\245\244D\355S"
 7879      810157BB 
 7879      7860412A 
 7879      8DA5A444 
 7879      ED53
 7880 0012 A20D4B79 		.ascii	"\242\015Ky;\247\004\037\226\366\216O\2166\265tk\257"
 7880      3BA7041F 
 7880      96F68E4F 
 7880      8E36B574 
 7880      6BAF
 7881 0024 EC4D7A5B 		.ascii	"\354Mz[T\266\265\224`\312\202u\361IA\247\265t\225\225"
 7881      54B6B594 
 7881      60CA8275 
 7881      F14941A7 
 7881      B5749595 
 7882 0038 A3F6487E 		.ascii	"\243\366H~\313)z%\235\022\\c\014\321j\315P\347\343\343"
 7882      CB297A25 
 7882      9D125C63 
 7882      0CD16ACD 
 7882      50E7E3E3 
 7883 004c 03       		.ascii	"\003"
 7884              		.global	sp_spkvocaid62
 7885              		.section	.rodata.sp_spkvocaid62,"a"
 7886              		.align	2
 7887              		.type	sp_spkvocaid62, %object
 7888              		.size	sp_spkvocaid62, 72
 7889              	sp_spkvocaid62:
 7890 0000 08785E46 		.ascii	"\010x^F\2007\233\245x\263\231$)w^\331\246\361p\3515"
 7890      80379BA5 
 7890      78B39924 
 7890      29775ED9 
 7890      A6F170E9 
 7891 0015 B26DA9ED 		.ascii	"\262m\251\355\322k\2266\3340\035\323\216i\372\215\025"
 7891      D26B9636 
 7891      DC301DD3 
 7891      8E69FA8D 
 7891      15
 7892 0026 9A73D474 		.ascii	"\232s\324t\035.\243j\321B\312o\353\255\356\204\201\305"
 7892      1D2EA36A 
 7892      D142CA6F 
 7892      EBADEE84 
 7892      81C5
 7893 0038 8C3570E0 		.ascii	"\2145p\340\3720\015\014\270\306U\201'\303$x"
 7893      FA300D0C 
 7893      B8C65581 
 7893      27C32478 
 7894              		.global	sp_spkvocaid61
 7895              		.section	.rodata.sp_spkvocaid61,"a"
 7896              		.align	2
 7897              		.type	sp_spkvocaid61, %object
 7898              		.size	sp_spkvocaid61, 88
 7899              	sp_spkvocaid61:
 7900 0000 0EA4E029 		.ascii	"\016\244\340)\200\017\352\245\244d^\336RO\311!\264m"
 7900      800FEAA5 
 7900      A4645EDE 
 7900      524FC921 
ARM GAS  /tmp/ccONvy4E.s 			page 166


 7900      B46D
 7901 0012 ECDC726A 		.ascii	"\354\334rj\216!\355k\347\264\234\314\332W\316\0321K"
 7901      8E21ED6B 
 7901      E7B49CCC 
 7901      DA57CE1A 
 7901      314B
 7902 0024 65B592B1 		.ascii	"e\265\222\261}\326\034\037&\343\270\354\376\332J\327"
 7902      7DD61C1F 
 7902      26E3B8EC 
 7902      FEDA4AD7 
 7903 0034 F729BC6D 		.ascii	"\367)\274m\225\266os\332\372I\003\006*I\223@\200#\314"
 7903      95B66F73 
 7903      DAFA4903 
 7903      062A4993 
 7903      408023CC 
 7904 0048 2410E06B 		.ascii	"$\020\340kW\001\236u\023\340\350P\001VHy"
 7904      57019E75 
 7904      13E0E850 
 7904      01564879 
 7905              		.global	sp_spkvocaid60
 7906              		.section	.rodata.sp_spkvocaid60,"a"
 7907              		.align	2
 7908              		.type	sp_spkvocaid60, %object
 7909              		.size	sp_spkvocaid60, 120
 7910              	sp_spkvocaid60:
 7911 0000 65FA7AA1 		.ascii	"e\372z\241\222Q\327\210f\323)j\337\266\232\017\033&"
 7911      9251D788 
 7911      66D3296A 
 7911      DFB69A0F 
 7911      1B26
 7912 0012 55E594E8 		.ascii	"U\345\224\350&\214\253\362)\321\217\233V\355\223ch3"
 7912      268CABF2 
 7912      29D18F9B 
 7912      56ED9363 
 7912      6833
 7913 0024 EBD827E5 		.ascii	"\353\330'\345\220\352\326\265NJ>8\242j\211\304M\370"
 7913      90EAD6B5 
 7913      4E4A3E38 
 7913      A26A89C4 
 7913      4DF8
 7914 0036 8AA72099 		.ascii	"\212\247 \231\232\314V\353H\012q\345\341\321\221t\344"
 7914      9ACC56EB 
 7914      480A71E5 
 7914      E1D19174 
 7914      E4
 7915 0047 2B3C3263 		.ascii	"+<2c\031\336\233\270U\342U\223q\362\354F\253d\343\034"
 7915      19DE9BB8 
 7915      55E25593 
 7915      71F2EC46 
 7915      AB64E31C 
 7916 005b 3EB54F29 		.ascii	">\265O)*8mf\237\234tH\330\315>=\251\320\220\235\255"
 7916      2A386D66 
 7916      9F9C7448 
 7916      D8CD3E3D 
 7916      A9D0909D 
 7917 0070 8B295C45 		.ascii	"\213)\\E\204~\315\007"
 7917      847ECD07 
ARM GAS  /tmp/ccONvy4E.s 			page 167


 7918              		.global	sp_spkvocaid59
 7919              		.section	.rodata.sp_spkvocaid59,"a"
 7920              		.align	2
 7921              		.type	sp_spkvocaid59, %object
 7922              		.size	sp_spkvocaid59, 60
 7923              	sp_spkvocaid59:
 7924 0000 065CE96A 		.ascii	"\006\\\351j\3007\241\032\030p]\231\006-gkf4uV\212\306"
 7924      C037A11A 
 7924      18705D99 
 7924      062D676B 
 7924      66347556 
 7925 0016 2CEDAAAC 		.ascii	",\355\252\254\224\214I\331\325\0311\027\341\262\261"
 7925      948C49D9 
 7925      D5193117 
 7925      E1B2B1
 7926 0025 03000474 		.ascii	"\003\000\004t\367\346\201\003\333\264\033pU\271\001"
 7926      F7E68103 
 7926      DBB41B70 
 7926      55B901
 7927 0034 DBB419B0 		.ascii	"\333\264\031\260L\233\004\017"
 7927      4C9B040F 
 7928              		.global	sp_spkvocaid58
 7929              		.section	.rodata.sp_spkvocaid58,"a"
 7930              		.align	2
 7931              		.type	sp_spkvocaid58, %object
 7932              		.size	sp_spkvocaid58, 91
 7933              	sp_spkvocaid58:
 7934 0000 040C1726 		.ascii	"\004\014\027&\201\004\022\244j\343\204\213'\036\325"
 7934      810412A4 
 7934      6AE3848B 
 7934      271ED5
 7935 000f A50DE358 		.ascii	"\245\015\343X\264J\010\227\3061\373\224h6\215\262\316"
 7935      B44A0897 
 7935      C631FB94 
 7935      68368DB2 
 7935      CE
 7936 0020 29494F06 		.ascii	")IO\006e\355\233O\216n2\250\352\334|r\214\355.U\345"
 7936      65ED9B4F 
 7936      8E6E32A8 
 7936      EADC7C72 
 7936      8CED2E55 
 7937 0035 A418CAC2 		.ascii	"\244\030\312\302*\366\212\311\245\246W\225\021\262I"
 7937      2AF68AC9 
 7937      A5A65795 
 7937      11B249
 7938 0044 29CFDA26 		.ascii	")\317\332&$\233\032B\251D\252&\325I\344\012\020\245"
 7938      249B1A42 
 7938      A944AA26 
 7938      D549E40A 
 7938      10A5
 7939 0056 1302321A 		.ascii	"\023\0022\032="
 7939      3D
 7940              		.global	sp_spkvocaid57
 7941              		.section	.rodata.sp_spkvocaid57,"a"
 7942              		.align	2
 7943              		.type	sp_spkvocaid57, %object
 7944              		.size	sp_spkvocaid57, 101
ARM GAS  /tmp/ccONvy4E.s 			page 168


 7945              	sp_spkvocaid57:
 7946 0000 0414E5CC 		.ascii	"\004\024\345\314\001\007\022H\020ru\251\241\256\244"
 7946      01071248 
 7946      107275A9 
 7946      A1AEA4
 7947 000f 6499B602 		.ascii	"d\231\266\0029W\312\274|\031I\256\222E\374p`\337)\363"
 7947      3957CABC 
 7947      7C1949AE 
 7947      9245FC70 
 7947      60DF29F3 
 7948 0023 FEEE40B9 		.ascii	"\376\356@\271Rf\371\325As\205\304\367\223\212\345JI"
 7948      5266F9D5 
 7948      417385C4 
 7948      F7938AE5 
 7948      4A49
 7949 0035 ACE164E9 		.ascii	"\254\341d\351Y\222\332\215i\222+E\275\212*!w\212f\005"
 7949      5992DA8D 
 7949      69922B45 
 7949      BD8A2A21 
 7949      778A6605 
 7950 0049 4E40AE10 		.ascii	"N@\256\020\354e]\301M)\270\027\324\016\235\235w\307"
 7950      EC655DC1 
 7950      4D29B817 
 7950      D40E9D9D 
 7950      77C7
 7951 005b 291DDB0A 		.ascii	")\035\333\012\237b\031\270\251}"
 7951      9F6219B8 
 7951      A97D
 7952              		.global	sp_spkvocaid56
 7953              		.section	.rodata.sp_spkvocaid56,"a"
 7954              		.align	2
 7955              		.type	sp_spkvocaid56, %object
 7956              		.size	sp_spkvocaid56, 162
 7957              	sp_spkvocaid56:
 7958 0000 6491901E 		.ascii	"d\221\220\036^\026\310\342&\"\255L\220%\225y\351\204"
 7958      5E16C8E2 
 7958      2622AD4C 
 7958      90259579 
 7958      E984
 7959 0012 142B1213 		.ascii	"\024+\022\023\267L\275V\266.\256_\345\214\244[#*\366"
 7959      B74CBD56 
 7959      B62EAE5F 
 7959      E58CA45B 
 7959      232AF6
 7960 0025 EDA7453B 		.ascii	"\355\247E;a\\\265o;5\3722\325\216{\333i)\204Zt\354\323"
 7960      615CB56F 
 7960      3B35FA32 
 7960      D58E7BDB 
 7960      6929845A 
 7961 003c A34DF5A8 		.ascii	"\243M\365\250Le\004k\272 ^\322\3602\344\301\262\344"
 7961      4C65046B 
 7961      BA205ED2 
 7961      F032E4C1 
 7961      B2E4
 7962 004e B9563615 		.ascii	"\271V6\025\242\336\271\235b\332\224sU8FY\266,+w\235"
 7962      A2DEB99D 
 7962      62DA9473 
ARM GAS  /tmp/ccONvy4E.s 			page 169


 7962      55384659 
 7962      B62C2B77 
 7963 0063 F0687A35 		.ascii	"\360hz5\341\031>Z\324\352\314\323|-y\345\353o\276\222"
 7963      E1193E5A 
 7963      D4EACCD3 
 7963      7C2D79E5 
 7963      EB6FBE92 
 7964 0077 D503A555 		.ascii	"\325\003\245U|n\373\002\332\013y\324\317\032\272\023"
 7964      7C6EFB02 
 7964      DA0B79D4 
 7964      CF1ABA13 
 7965 0087 F32CAE28 		.ascii	"\363,\256(\013\331\346\375,\244\236j\030\370\206D\201"
 7965      0BD9E6FD 
 7965      2CA49E6A 
 7965      18F88644 
 7965      81
 7966 0098 EF4D15F8 		.ascii	"\357M\025\370\316D\200\253\202\037"
 7966      CE4480AB 
 7966      821F
 7967              		.global	sp_spkvocaid55
 7968              		.section	.rodata.sp_spkvocaid55,"a"
 7969              		.align	2
 7970              		.type	sp_spkvocaid55, %object
 7971              		.size	sp_spkvocaid55, 123
 7972              	sp_spkvocaid55:
 7973 0000 65C6301E 		.ascii	"e\3060\036\322I\312\264#\335\342\235\254\351\323\226"
 7973      D249CAB4 
 7973      23DDE29D 
 7973      ACE9D396 
 7974 0010 F1D41933 		.ascii	"\361\324\0313\370-\243\2522\272O\027F\023\345\264\354"
 7974      F82DA3AA 
 7974      32BA4F17 
 7974      4613E5B4 
 7974      EC
 7975 0021 3A83A2CE 		.ascii	":\203\242\316\255\247$S\232Z\261o^)\212q7o\274\222\227"
 7975      ADA72453 
 7975      9A5AB16F 
 7975      5E298A71 
 7975      376FBC92 
 7976 0036 9BC6DEA6 		.ascii	"\233\306\336\246\245H\256\025-KH\011w\206\262V\200\000"
 7976      A548AE15 
 7976      2D4B4809 
 7976      7786B256 
 7976      8000
 7977 0048 824C72A0 		.ascii	"\202Lr\240\007\323\222\272t)\211('\247\340\346\332q"
 7977      07D392BA 
 7977      74298928 
 7977      27A7E0E6 
 7977      DA71
 7978 005a 4ECECED5 		.ascii	"N\316\316\325\275\353\234R\235\263G\3179\245y\307\210"
 7978      BDEB9C52 
 7978      9DB347CF 
 7978      39A579C7 
 7978      88
 7979 006b A9B36ACF 		.ascii	"\251\263j\317\001n[\3076\000\003\212w\240\340\001"
 7979      016E5BC7 
 7979      3600038A 
ARM GAS  /tmp/ccONvy4E.s 			page 170


 7979      77A0E001 
 7980              		.global	sp_spkvocaid54
 7981              		.section	.rodata.sp_spkvocaid54,"a"
 7982              		.align	2
 7983              		.type	sp_spkvocaid54, %object
 7984              		.size	sp_spkvocaid54, 70
 7985              	sp_spkvocaid54:
 7986 0000 A33A955A 		.ascii	"\243:\225Z\276aV\365r#-[\355\262K\313\306O\270\324m"
 7986      BE6156F5 
 7986      72232D5B 
 7986      EDB24BCB 
 7986      C64FB8D4 
 7987 0015 57551935 		.ascii	"WU\0315K+\250\021\327\241lYS\367&&0\243\224\241\365"
 7987      4B2BA811 
 7987      D7A16C59 
 7987      53F72626 
 7987      30A394A1 
 7988 002a 87625E4E 		.ascii	"\207b^NS\371w\301\233\234gYF~\031\364\243\274\343\011"
 7988      53F977C1 
 7988      9B9C6759 
 7988      467E19F4 
 7988      A3BCE309 
 7989 003e 27E0E901 		.ascii	"'\340\351\001w\243\317\003"
 7989      77A3CF03 
 7990              		.global	sp_spkvocaid53
 7991              		.section	.rodata.sp_spkvocaid53,"a"
 7992              		.align	2
 7993              		.type	sp_spkvocaid53, %object
 7994              		.size	sp_spkvocaid53, 82
 7995              	sp_spkvocaid53:
 7996 0000 086CA622 		.ascii	"\010l\246\"\301(Qk\270\213\327\322ts\321R}\241\351\203"
 7996      C128516B 
 7996      B88BD7D2 
 7996      7473D152 
 7996      7DA1E983 
 7997 0014 564EBD63 		.ascii	"VN\275c-\305o\245p\316\263r\366\301\034\235g\345\341"
 7997      2DC56FA5 
 7997      70CEB372 
 7997      F6C11C9D 
 7997      67E5E1
 7998 0027 82D8A7F5 		.ascii	"\202\330\247\365H\313\007\210m\355\236K\\Z!r\355\226"
 7998      48CB0788 
 7998      6DED9E4B 
 7998      5C5A2172 
 7998      ED96
 7999 0039 B08462D7 		.ascii	"\260\204b\327\330-\276+\201\251\265\223|\363\004\023"
 7999      D82DBE2B 
 7999      81A9B593 
 7999      7CF30413 
 8000 0049 EF54A4D1 		.ascii	"\357T\244\321\030\203J\316\003"
 8000      18834ACE 
 8000      03
 8001              		.global	sp_spkvocaid52
 8002              		.section	.rodata.sp_spkvocaid52,"a"
 8003              		.align	2
 8004              		.type	sp_spkvocaid52, %object
 8005              		.size	sp_spkvocaid52, 63
ARM GAS  /tmp/ccONvy4E.s 			page 171


 8006              	sp_spkvocaid52:
 8007 0000 0E34A516 		.ascii	"\0164\245\026A\312\275v\004R\254\226\243qv\315Z+%\035"
 8007      41CABD76 
 8007      0452AC96 
 8007      A37176CD 
 8007      5A2B251D 
 8008 0014 62E6AB57 		.ascii	"b\346\253W,2\215\325:\217\230e\232\250\256\232\261\305"
 8008      2C328DD5 
 8008      3A8F9865 
 8008      9AA8AE9A 
 8008      B1C5
 8009 0026 C0CBC8A3 		.ascii	"\300\313\310\243a\011\216\267\261y\313\024\244O7\316"
 8009      61098EB7 
 8009      B179CB14 
 8009      A44F37CE 
 8010 0036 39D9076F 		.ascii	"9\331\007oy\273\213\255~"
 8010      79BB8BAD 
 8010      7E
 8011              		.global	sp_spkvocaid51
 8012              		.section	.rodata.sp_spkvocaid51,"a"
 8013              		.align	2
 8014              		.type	sp_spkvocaid51, %object
 8015              		.size	sp_spkvocaid51, 67
 8016              	sp_spkvocaid51:
 8017 0000 E6F23D22 		.ascii	"\346\362=\"Zv\3551[\270]\006_\034\226R\277L\221\264"
 8017      5A76ED31 
 8017      5BB85D06 
 8017      5F1C9652 
 8017      BF4C91B4 
 8018 0014 0C637E88 		.ascii	"\014c~\210\306[o\243zq\303\\\351V\015rS\244\233\235"
 8018      C65B6FA3 
 8018      7A71C35C 
 8018      E9560D72 
 8018      53A49B9D 
 8019 0028 92E48471 		.ascii	"\222\344\204qU]9\252V\347\253\333sJNk\205\024\347\220"
 8019      555D39AA 
 8019      56E7ABDB 
 8019      734A4E6B 
 8019      8514E790 
 8020 003c 8CB14C4E 		.ascii	"\214\261LN\315>>"
 8020      CD3E3E
 8021              		.global	sp_spkvocaid50
 8022              		.section	.rodata.sp_spkvocaid50,"a"
 8023              		.align	2
 8024              		.type	sp_spkvocaid50, %object
 8025              		.size	sp_spkvocaid50, 98
 8026              	sp_spkvocaid50:
 8027 0000 06D8A7AE 		.ascii	"\006\330\247\256\200\356\"\012\004\355\236j\243\351"
 8027      80EE220A 
 8027      04ED9E6A 
 8027      A3E9
 8028 000e 251A3B15 		.ascii	"%\032;\025+\256\002tq+\306\\\007\370\354\225\235?5\237"
 8028      2BAE0274 
 8028      712BC65C 
 8028      07F8EC95 
 8028      9D3F359F 
 8029 0022 2A3BEF3C 		.ascii	"*;\357<\212M\243\346\033u\316pM\0305\335\313\344\012"
ARM GAS  /tmp/ccONvy4E.s 			page 172


 8029      8A4DA3E6 
 8029      1B75CE70 
 8029      4D1835DD 
 8029      CBE40A
 8030 0035 9651E66E 		.ascii	"\226Q\346n\310\226*M%[\221\303t\205{%\240\007]b:\303"
 8030      C8962A4D 
 8030      255B91C3 
 8030      74857B25 
 8030      A0075D62 
 8031 004b DD86D953 		.ascii	"\335\206\331S\253&\273+\002.Q\225@\002\001\276P\225"
 8031      AB26BB2B 
 8031      022E5195 
 8031      400201BE 
 8031      5095
 8032 005d 4081ED5D 		.ascii	"@\201\355]\036"
 8032      1E
 8033              		.global	sp_spkvocaid49
 8034              		.section	.rodata.sp_spkvocaid49,"a"
 8035              		.align	2
 8036              		.type	sp_spkvocaid49, %object
 8037              		.size	sp_spkvocaid49, 52
 8038              	sp_spkvocaid49:
 8039 0000 624F28E2 		.ascii	"bO(\342\337R\302\354\325\201\262[\3251z \251\031\352"
 8039      DF52C2EC 
 8039      D581B25B 
 8039      D5317A20 
 8039      A919EA
 8040 0013 3B551ED6 		.ascii	";U\036\326B$G.%\251\266\230\242\271J\322+\251Yr\267"
 8040      4224472E 
 8040      25A9B698 
 8040      A2B94AD2 
 8040      2BA95972 
 8041 0028 644B6115 		.ascii	"dKa\025\373\016\311,\307*\364\363"
 8041      FB0EC92C 
 8041      C72AF4F3 
 8042              		.global	sp_spkvocaid48
 8043              		.section	.rodata.sp_spkvocaid48,"a"
 8044              		.align	2
 8045              		.type	sp_spkvocaid48, %object
 8046              		.size	sp_spkvocaid48, 71
 8047              	sp_spkvocaid48:
 8048 0000 617AA3FE 		.ascii	"az\243\376 \351\303t\322\365@\323\205eUZ\203\245O\313"
 8048      20E9C374 
 8048      D2F540D3 
 8048      8565555A 
 8048      83A54FCB 
 8049 0014 ABB202F1 		.ascii	"\253\262\002\361\326\246\311\033,\221\351\314`\267\205"
 8049      D6A6C91B 
 8049      2C91E9CC 
 8049      60B785
 8050 0023 B3F119C9 		.ascii	"\263\361\031\311L\033y\343\323\243\233P\2568\267\335"
 8050      4C1B79E3 
 8050      D3A39B50 
 8050      AE38B7DD 
 8051 0033 7A720E69 		.ascii	"zr\016i\241\031\373\244\342\223C\263QH\301\207\270\332"
 8051      A119FBA4 
 8051      E29343B3 
ARM GAS  /tmp/ccONvy4E.s 			page 173


 8051      5148C187 
 8051      B8DA
 8052 0045 AD07     		.ascii	"\255\007"
 8053              		.global	sp_spkvocaid47
 8054              		.section	.rodata.sp_spkvocaid47,"a"
 8055              		.align	2
 8056              		.type	sp_spkvocaid47, %object
 8057              		.size	sp_spkvocaid47, 115
 8058              	sp_spkvocaid47:
 8059 0000 6DB876EC 		.ascii	"m\270v\354\321\326VO\266\323\250\242\336v\353)\305\264"
 8059      D1D6564F 
 8059      B6D3A8A2 
 8059      DE76EB29 
 8059      C5B4
 8060 0012 8778EC9B 		.ascii	"\207x\354\233O\212&%\322:\225d\371X:\367p\211\207\361"
 8060      4F8A2625 
 8060      D23A9564 
 8060      F9583AF7 
 8060      708987F1 
 8061 0026 425E69B3 		.ascii	"B^i\263+\334\277%X\246R\244{1\362^#99\352\032\035W\212"
 8061      2BDCBF25 
 8061      58A652A4 
 8061      7B31F25E 
 8061      233939EA 
 8062 003e 2A24236A 		.ascii	"*$#j\255\234\265I\373\330\272e\3276\\\010\315\034ie"
 8062      AD9CB549 
 8062      FBD8BA65 
 8062      D7365C08 
 8062      CD1C6965 
 8063 0052 7A599EDA 		.ascii	"zY\236\332a\315R\262\362\240\225\331m\216\226\221\007"
 8063      61CD52B2 
 8063      F2A095D9 
 8063      6D8E9691 
 8063      07
 8064 0063 A3DE5C4B 		.ascii	"\243\336\\K\333\017S\231xB\255\017\227]\371\036"
 8064      DB0F5399 
 8064      7842AD0F 
 8064      975DF91E 
 8065              		.global	sp_spkvocaid46
 8066              		.section	.rodata.sp_spkvocaid46,"a"
 8067              		.align	2
 8068              		.type	sp_spkvocaid46, %object
 8069              		.size	sp_spkvocaid46, 128
 8070              	sp_spkvocaid46:
 8071 0000 6B58BF19 		.ascii	"kX\277\031Ay\367X\335\371\013-\365\273\272/\301U\346"
 8071      4179F758 
 8071      DDF90B2D 
 8071      F5BBBA2F 
 8071      C155E6
 8072 0013 6B8D941C 		.ascii	"k\215\224\034\243\312G\233\325\005bo\246\262Zj\200\230"
 8072      A3CA479B 
 8072      D505626F 
 8072      A6B25A6A 
 8072      8098
 8073 0025 5C6DF754 		.ascii	"\\m\367T\000Q\271\307\256>@2r\265\225\203\243\205\365"
 8073      0051B9C7 
 8073      AE3E4032 
ARM GAS  /tmp/ccONvy4E.s 			page 174


 8073      72B59583 
 8073      A385F5
 8074 0038 AA3B9D5A 		.ascii	"\252;\235ZR\230,o\000\275\247$0\333h\002}lf\220@\335"
 8074      52982C6F 
 8074      00BDA724 
 8074      30DB6802 
 8074      7D6C6690 
 8075 004e 651E8CEE 		.ascii	"e\036\214\356ds\205\370\231\275t\231ZK9W\351\242\216"
 8075      647385F8 
 8075      99BD7499 
 8075      5A4B3957 
 8075      E9A28E
 8076 0061 84B1EFD6 		.ascii	"\204\261\357\326T>H7=\263\216bGa\205\350.\331\267\201"
 8076      543E4837 
 8076      3DB38E62 
 8076      476185E8 
 8076      2ED9B781 
 8077 0075 48D61D93 		.ascii	"H\326\035\223\212\316\025D\261\212\007"
 8077      8ACE1544 
 8077      B18A07
 8078              		.global	sp_spkvocaid45
 8079              		.section	.rodata.sp_spkvocaid45,"a"
 8080              		.align	2
 8081              		.type	sp_spkvocaid45, %object
 8082              		.size	sp_spkvocaid45, 146
 8083              	sp_spkvocaid45:
 8084 0000 2A271A99 		.ascii	"*'\032\231!\212B\026\355\223\331\026\267d\342\225\222"
 8084      218A4216 
 8084      ED93D916 
 8084      B764E295 
 8084      92
 8085 0011 375EC1BB 		.ascii	"7^\301\273KcO<\202\213\253Nk\027\030\030\266\324\002"
 8085      4B634F3C 
 8085      828BAB4E 
 8085      6B171818 
 8085      B6D402
 8086 0024 07BE0BB5 		.ascii	"\007\276\013\265@\200\243B1p)\3734#u\332R\340\351\311"
 8086      4080A342 
 8086      317029FB 
 8086      342375DA 
 8086      52E0E9C9 
 8087 0038 7E7BA44C 		.ascii	"~{\244L\312L\343\361\250\223\246\033\353\246\000\276"
 8087      CA4CE3F1 
 8087      A893A61B 
 8087      EBA600BE 
 8088 0048 778B2002 		.ascii	"w\213 \002\001\022W\0071\212\335\265\010\273aX\263a"
 8088      01125707 
 8088      318ADDB5 
 8088      08BB6158 
 8088      B361
 8089 005a 0ABD734C 		.ascii	"\012\275sLA\246\363 \356\025\"\357/\244\2213\247TDy"
 8089      41A6F320 
 8089      EE1522EF 
 8089      2FA49133 
 8089      A7544479 
 8090 006e 65B19C69 		.ascii	"e\261\234i\362\372l\022=\302\222\257\301#z\244+opK\254"
 8090      F2FA6C12 
ARM GAS  /tmp/ccONvy4E.s 			page 175


 8090      3DC292AF 
 8090      C1237AA4 
 8090      2B6F704B 
 8091 0083 0C576DE3 		.ascii	"\014Wm\343M\335\231\236\252\311\263\3423\336\007"
 8091      4DDD999E 
 8091      AAC9B3E2 
 8091      33DE07
 8092              		.global	sp_spkvocaid44
 8093              		.section	.rodata.sp_spkvocaid44,"a"
 8094              		.align	2
 8095              		.type	sp_spkvocaid44, %object
 8096              		.size	sp_spkvocaid44, 117
 8097              	sp_spkvocaid44:
 8098 0000 A379B51D 		.ascii	"\243y\265\035l\275F\323eJ\271\226\254b\335eP\264\335"
 8098      6CBD46D3 
 8098      654AB996 
 8098      AC62DD65 
 8098      50B4DD
 8099 0013 391C9DDF 		.ascii	"9\034\235\337\214\347\026:\362\266Z|6 M\335d\257\357"
 8099      8CE7163A 
 8099      F2B65A7C 
 8099      36204DDD 
 8099      64AFEF
 8100 0026 5AAAD36F 		.ascii	"Z\252\323ob\323pt\023\247\014{\341\030\252\215\213\356"
 8100      62D37074 
 8100      13A70C7B 
 8100      E118AA8D 
 8100      8BEE
 8101 0038 AC35ADDD 		.ascii	"\2545\255\3352\312\235c\232pa8\033\346\032\313\232K"
 8101      32CA9D63 
 8101      9A706138 
 8101      1BE61ACB 
 8101      9A4B
 8102 004a C7DC3196 		.ascii	"\307\3341\226\261[F\261\261m\0357\224ke\331\262N\210"
 8102      B15B46B1 
 8102      B16D1D37 
 8102      946B65D9 
 8102      B24E88
 8103 005d D5ADBCD3 		.ascii	"\325\255\274\323\026\243Mt\027\304\345\226*\023\314"
 8103      16A34D74 
 8103      17C4E596 
 8103      2A13CC
 8104 006c F5406DE3 		.ascii	"\365@m\343:\025\274\326\003"
 8104      3A15BCD6 
 8104      03
 8105              		.global	sp_spkvocaid43
 8106              		.section	.rodata.sp_spkvocaid43,"a"
 8107              		.align	2
 8108              		.type	sp_spkvocaid43, %object
 8109              		.size	sp_spkvocaid43, 58
 8110              	sp_spkvocaid43:
 8111 0000 08BCD5A2 		.ascii	"\010\274\325\242A\000\273\21580G\260\006+\225\340\024"
 8111      4100BB8D 
 8111      383047B0 
 8111      062B95E0 
 8111      14
 8112 0011 5E896F3A 		.ascii	"^\211o:)\205\340\212N\264r,\246\025mg\224P$\332K\316"
ARM GAS  /tmp/ccONvy4E.s 			page 176


 8112      2985E08A 
 8112      4EB4722C 
 8112      A6156D67 
 8112      945024DA 
 8113 0027 D8D1BB9D 		.ascii	"\330\321\273\235\205\035\271\001\004\010EE\002\006b"
 8113      851DB901 
 8113      04084545 
 8113      020662
 8114 0036 66C4E001 		.ascii	"f\304\340\001"
 8115              		.global	sp_spkvocaid42
 8116              		.section	.rodata.sp_spkvocaid42,"a"
 8117              		.align	2
 8118              		.type	sp_spkvocaid42, %object
 8119              		.size	sp_spkvocaid42, 56
 8120              	sp_spkvocaid42:
 8121 0000 E5A4BA1C 		.ascii	"\345\244\272\034\022rG\017\316\324\271\026\257\026d"
 8121      1272470F 
 8121      CED4B916 
 8121      AF1664
 8122 000f 5898AE5A 		.ascii	"X\230\256Z%\212\264P\335xr\220\356e>\353\244\250\334"
 8122      258AB450 
 8122      DD787290 
 8122      EE653EEB 
 8122      A4A8DC
 8123 0022 4B733149 		.ascii	"Ks1IR{\273^I\222\270I\017\273\300$\013\345\345v\025"
 8123      527BBB5E 
 8123      4992B849 
 8123      0FBBC024 
 8123      0BE5E576 
 8124 0037 1E       		.ascii	"\036"
 8125              		.global	sp_spkvocaid41
 8126              		.section	.rodata.sp_spkvocaid41,"a"
 8127              		.align	2
 8128              		.type	sp_spkvocaid41, %object
 8129              		.size	sp_spkvocaid41, 157
 8130              	sp_spkvocaid41:
 8131 0000 6432E751 		.ascii	"d2\347Q\272\206\351dKj\363\322\011A\227\333S':[\334"
 8131      BA86E964 
 8131      4B6AF3D2 
 8131      094197DB 
 8131      53273A5B 
 8132 0015 538B2C09 		.ascii	"S\213,\011\333:\247\0063\232V\261O\361~\303\245j\337"
 8132      DB3AA706 
 8132      339A56B1 
 8132      4FF17EC3 
 8132      A56ADF
 8133 0028 328AF167 		.ascii	"2\212\361g*\245\246\227T=\033-\320\254\245[=\232`\231"
 8133      2AA5A697 
 8133      543D1B2D 
 8133      D0ACA55B 
 8133      3D9A6099 
 8134 003c D7F0A14D 		.ascii	"\327\360\241M\265*\357\261f\262\255\3063;\317\266\""
 8134      B52AEFB1 
 8134      66B2ADC6 
 8134      333BCFB6 
 8134      22
 8135 004d 4B0BAEDA 		.ascii	"K\013\256\332s\255\235m\244q\316n\307\273J\245^\320"
ARM GAS  /tmp/ccONvy4E.s 			page 177


 8135      73AD9D6D 
 8135      A471CE6E 
 8135      C7BB4AA5 
 8135      5ED0
 8136 005f 8EC9AD62 		.ascii	"\216\311\255b\033;\034\035\326\330\272A\270\312m\211"
 8136      1B3B1C1D 
 8136      D6D8BA41 
 8136      B8CA6D89 
 8137 006f C706F764 		.ascii	"\307\006\367d8\223\230\026\361\231'\315\252F\316\364"
 8137      38939816 
 8137      F19927CD 
 8137      AA46CEF4 
 8138 007f CF3D29D7 		.ascii	"\317=)\327=r\226\370\206TDdk\002N\340\244\200\201\027"
 8138      3D7296F8 
 8138      86544464 
 8138      6B024EE0 
 8138      A4808117 
 8139 0093 3805F881 		.ascii	"8\005\370\201\223\002\002N\340|"
 8139      9302024E 
 8139      E07C
 8140              		.global	sp_spkvocaid40
 8141              		.section	.rodata.sp_spkvocaid40,"a"
 8142              		.align	2
 8143              		.type	sp_spkvocaid40, %object
 8144              		.size	sp_spkvocaid40, 94
 8145              	sp_spkvocaid40:
 8146 0000 0EFC36E2 		.ascii	"\016\3746\342A\002\273\024g0ROA*\225x\245\342\215=\253"
 8146      4102BB14 
 8146      6730524F 
 8146      412A9578 
 8146      A5E28D3D 
 8147 0015 F14925B8 		.ascii	"\361I%\270De\355\223s0\251\254:7\237\234CHY\3079-\205"
 8147      4465ED93 
 8147      7330A9AC 
 8147      3A379F9C 
 8147      434859C7 
 8148 002c D0B2B1B3 		.ascii	"\320\262\261\263f\010a\255'\267l\023\206/\\\256\273"
 8148      660861AD 
 8148      27B76C13 
 8148      862F5CAE 
 8148      BB
 8149 003d C985BA9C 		.ascii	"\311\205\272\234%\001\216\014\021\340\212T\005\236M"
 8149      25018E0C 
 8149      11E08A54 
 8149      059E4D
 8150 004c D34080EF 		.ascii	"\323@\200\357\334$`\340\273T\006\256(!\340\210\222\007"
 8150      DC2460E0 
 8150      BB5406AE 
 8150      2821E088 
 8150      9207
 8151              		.global	sp_spkvocaid39
 8152              		.section	.rodata.sp_spkvocaid39,"a"
 8153              		.align	2
 8154              		.type	sp_spkvocaid39, %object
 8155              		.size	sp_spkvocaid39, 99
 8156              	sp_spkvocaid39:
 8157 0000 04DC96AE 		.ascii	"\004\334\226\256\201\003{\216YPb\312\252\021eg\247\223"
ARM GAS  /tmp/ccONvy4E.s 			page 178


 8157      81037B8E 
 8157      595062CA 
 8157      AA116567 
 8157      A793
 8158 0012 6272CBC8 		.ascii	"br\313\310\304\247\244\341\232\232\211u\002\001bqR\300"
 8158      C4A7A4E1 
 8158      9A9A8975 
 8158      02016271 
 8158      52C0
 8159 0024 6BA7D5D3 		.ascii	"k\247\325\323p\212\320Vm\206fXa\275\346\0367\216\200"
 8159      708AD056 
 8159      6D866658 
 8159      61BDE61E 
 8159      378E80
 8160 0037 74ED956E 		.ascii	"t\355\225n\030\212\025\266\253\276\364\202W\316\310"
 8160      188A15B6 
 8160      ABBEF482 
 8160      57CEC8
 8161 0046 8CF18567 		.ascii	"\214\361\205g\225yD;\260\017\201\233\214\010\3701]\201"
 8161      9579443B 
 8161      B00F819B 
 8161      8C08F831 
 8161      5D81
 8162 0058 5BDC04F8 		.ascii	"[\334\004\370\315M\200\327\335(x"
 8162      CD4D80D7 
 8162      DD2878
 8163              		.global	sp_spkvocaid38
 8164              		.section	.rodata.sp_spkvocaid38,"a"
 8165              		.align	2
 8166              		.type	sp_spkvocaid38, %object
 8167              		.size	sp_spkvocaid38, 117
 8168              	sp_spkvocaid38:
 8169 0000 0A84C9AE 		.ascii	"\012\204\311\256@\230\011\034\214\354\303X\222\245\034"
 8169      4098091C 
 8169      8CECC358 
 8169      92A51C
 8170 000f D9857317 		.ascii	"\331\205s\027\313\271\262\315g\241\232s\347\235G\266"
 8170      CBB9B2CD 
 8170      67A19A73 
 8170      E79D47B6 
 8171 001f 6DAC493B 		.ascii	"m\254I;\255bk[)w>\325\226\021\017\367\332\246\231\346"
 8171      AD626B5B 
 8171      29773ED5 
 8171      96110FF7 
 8171      DAA699E6 
 8172 0033 A3BAB22C 		.ascii	"\243\272\262,3y\223\267J>q\247\253\263\352['\014\327"
 8172      337993B7 
 8172      4A3E71A7 
 8172      ABB3EA5B 
 8172      270CD7
 8173 0046 D1D2E872 		.ascii	"\321\322\350rL\256\024\305\235#\031]\352\303+\007&z"
 8173      4CAE14C5 
 8173      9D23195D 
 8173      EAC32B07 
 8173      267A
 8174 0058 5CA667AE 		.ascii	"\\\246g\256L\365.\017\023q9\352}\353\242(~\0118\230"
 8174      4CF52E0F 
ARM GAS  /tmp/ccONvy4E.s 			page 179


 8174      137139EA 
 8174      7DEBA228 
 8174      7E093898 
 8175 006c 8C816FCD 		.ascii	"\214\201o\315\030\270\322\371\001"
 8175      18B8D2F9 
 8175      01
 8176              		.global	sp_spkvocaid37
 8177              		.section	.rodata.sp_spkvocaid37,"a"
 8178              		.align	2
 8179              		.type	sp_spkvocaid37, %object
 8180              		.size	sp_spkvocaid37, 211
 8181              	sp_spkvocaid37:
 8182 0000 AB455396 		.ascii	"\253ES\226\322sF\323\251\315c+\317\326\232\265SJ\361"
 8182      D27346D3 
 8182      A9CD632B 
 8182      CFD69AB5 
 8182      534AF1
 8183 0013 A8363550 		.ascii	"\25065P\036c\215\332l\240\260\256\034i\321D~\302X\323"
 8183      1E638DDA 
 8183      6CA0B0AE 
 8183      1C69D144 
 8183      7EC258D3 
 8184 0027 90494C55 		.ascii	"\220ILU\262\252NY\207\216\020\263\3552\335\247B\276"
 8184      B2AA4E59 
 8184      878E10B3 
 8184      ED32DDA7 
 8184      42BE
 8185 0039 D3E710D9 		.ascii	"\323\347\020\331\032\016\326\2351\246\310\353r\251\364"
 8185      1A0ED69D 
 8185      31A6C8EB 
 8185      72A9F4
 8186 0048 2C51E5E4 		.ascii	",Q\345\344Q\336Y\222k\"\221\332[4n=\312\303\006mi\346"
 8186      51DE5992 
 8186      6B2291DA 
 8186      5B346E3D 
 8186      CAC3066D 
 8187 005e 3261AAB4 		.ascii	"2a\252\264\321\026\242c\314d\211\035\224\251\213;);"
 8187      D116A263 
 8187      CC64891D 
 8187      94A98B3B 
 8187      293B
 8188 0070 79A6EEB6 		.ascii	"y\246\356\266\275z\224&Wmv\014k\315\277\302\312X^\271"
 8188      BD7A9426 
 8188      576D760C 
 8188      6BCDBFC2 
 8188      CA585EB9 
 8189 0084 5FA5D4B1 		.ascii	"_\245\324\261\202\326\330JimG-\276\221\324\313\311\232"
 8189      82D6D84A 
 8189      696D472D 
 8189      BE91D4CB 
 8189      C99A
 8190 0096 FD2AA595 		.ascii	"\375*\245\225\353\205\305\233\311\017\327\262\212Wt"
 8190      EB85C59B 
 8190      C90FD7B2 
 8190      8A5774
 8191 00a5 E6AE129D 		.ascii	"\346\256\022\235\257j\337\\a\216\013&\251\276\346*\361"
 8191      AF6ADF5C 
ARM GAS  /tmp/ccONvy4E.s 			page 180


 8191      618E0B26 
 8191      A9BEE62A 
 8191      F1
 8192 00b6 989A4DCC 		.ascii	"\230\232M\314\223\2664\261\273\244\037\\\212eGu/\307"
 8192      93B634B1 
 8192      BBA41F5C 
 8192      8A654775 
 8192      2FC7
 8193 00c8 30B3B6A3 		.ascii	"0\263\266\243n\261%n+\355\001"
 8193      6EB1256E 
 8193      2BED01
 8194              		.global	sp_spkvocaid36
 8195              		.section	.rodata.sp_spkvocaid36,"a"
 8196              		.align	2
 8197              		.type	sp_spkvocaid36, %object
 8198              		.size	sp_spkvocaid36, 106
 8199              	sp_spkvocaid36:
 8200 0000 28286A0E 		.ascii	"((j\016\000\000pp\3003s\011B)\270j\004b\247b\364u\202"
 8200      00007070 
 8200      C0337309 
 8200      4229B86A 
 8200      0462A762 
 8201 0017 2CEE6535 		.ascii	",\356e5g7\215k\366\351QN\272d\2353\242\0363\357:gF\233"
 8201      67378D6B 
 8201      F6E9514E 
 8201      BA649D33 
 8201      A21E33EF 
 8202 002f 1E3675D6 		.ascii	"\0366u\326\012\301=\375m\217\355\274\333\324\204\031"
 8202      0AC13DFD 
 8202      6D8FEDBC 
 8202      DBD48419 
 8203 003f 2799E0A9 		.ascii	"'\231\340\251\212\\^\024\3117\0319\275@\312n\303Nz\005"
 8203      8A5C5E14 
 8203      C9371939 
 8203      BD40CA6E 
 8203      C34E7A05 
 8204 0053 85CCBA9D 		.ascii	"\205\314\272\235\360\0037\375-\263\346')\362\265a\314"
 8204      F00337FD 
 8204      2DB3E627 
 8204      29F2B561 
 8204      CC
 8205 0064 AB81247D 		.ascii	"\253\201$}D?"
 8205      443F
 8206              		.global	sp_spkvocaid35
 8207              		.section	.rodata.sp_spkvocaid35,"a"
 8208              		.align	2
 8209              		.type	sp_spkvocaid35, %object
 8210              		.size	sp_spkvocaid35, 313
 8211              	sp_spkvocaid35:
 8212 0000 A59420EA 		.ascii	"\245\224 \352q\266G\251\301 \355j\317\262k\251=\005"
 8212      71B647A9 
 8212      C120ED6A 
 8212      CFB26BA9 
 8212      3D05
 8213 0012 84E51C56 		.ascii	"\204\345\034V%\217t-\327\2441\031\275\346\256U\263\212"
 8213      258F742D 
 8213      D7A43119 
ARM GAS  /tmp/ccONvy4E.s 			page 181


 8213      BDE6AE55 
 8213      B38A
 8214 0024 6A489DA7 		.ascii	"jH\235\247\352\264VAh/5\360\260Fs>\252\325\331\346\025"
 8214      EAB45641 
 8214      682F35F0 
 8214      B046733E 
 8214      AAD5D9E6 
 8215 0039 7B14ED27 		.ascii	"{\024\355'\304\252N)\252\254\223v\353Re\374d\256,\265"
 8215      C4AA4E29 
 8215      AAAC9376 
 8215      EB5265FC 
 8215      64AE2CB5 
 8216 004d A521EAA6 		.ascii	"\245!\352\246\210\364.[\326\215`\316Uw\331j\027\267"
 8216      88F42E5B 
 8216      D68D60CE 
 8216      5577D96A 
 8216      17B7
 8217 005f 70AFB2F5 		.ascii	"p\257\262\365qi\247^e\233\236\324\311~\372,\303N\321"
 8217      7169A75E 
 8217      659B9ED4 
 8217      C97EFA2C 
 8217      C34ED1
 8218 0072 0EEE55BA 		.ascii	"\016\356U\272\273,\025\346\333uwT\324\312\235X\272\007"
 8218      BB2C15E6 
 8218      DB757754 
 8218      D4CA9D58 
 8218      BA07
 8219 0084 48A45BB1 		.ascii	"H\244[\261\225oQ\216t\3428\376\306\350\253\324\366\350"
 8219      956F518E 
 8219      74E238FE 
 8219      C6E8ABD4 
 8219      F6E8
 8220 0096 5DD0EFBA 		.ascii	"]\320\357\272\255\364\207C\326[+\310\313\204Zrf\010"
 8220      ADF48743 
 8220      D65B2BC8 
 8220      CB845A72 
 8220      6608
 8221 00a8 1D2E93F4 		.ascii	"\035.\223\364\364\024\303\3356\315\351\271\270\206O"
 8221      F414C3DD 
 8221      36CDE9B9 
 8221      B8864F
 8222 00b7 93DB6E1D 		.ascii	"\223\333n\0355&\327\324\263\223ju!\205\026[\200c\315"
 8222      3526D7D4 
 8222      B3936A75 
 8222      2185165B 
 8222      8063CD
 8223 00ca 05B8D61C 		.ascii	"\005\270\326\034\201g\315A\200\340%R\213\325\315\304"
 8223      8167CD41 
 8223      80E02552 
 8223      8BD5CDC4 
 8224 00da B4A66696 		.ascii	"\264\246f\226\230\273\370\316\2554;\304\314\271wk\276"
 8224      98BBF8CE 
 8224      AD343BC4 
 8224      CCB9776B 
 8224      BE
 8225 00eb 8979E8E6 		.ascii	"\211y\350\346\321\\Vw\267U\276\371\226\272\363f\005"
 8225      D15C5677 
ARM GAS  /tmp/ccONvy4E.s 			page 182


 8225      B755BEF9 
 8225      96BAF366 
 8225      05
 8226 00fc 9CBB7455 		.ascii	"\234\273tU\326T\303w\351\272\237\213t\2261L\331P\312"
 8226      D654C377 
 8226      E9BA9F8B 
 8226      7496314C 
 8226      D950CA
 8227 010f CC63D93C 		.ascii	"\314c\331<\026\352\271\333q\245eDs\245\353\266Y\033"
 8227      16EAB9DB 
 8227      71A56544 
 8227      73A5EBB6 
 8227      591B
 8228 0121 3F0ECF2E 		.ascii	"?\016\317.\325u\333h\276k\306\235\232\010\000@\200\030"
 8228      D575DB68 
 8228      BE6BC69D 
 8228      9A080040 
 8228      8018
 8229 0133 8409C8C1 		.ascii	"\204\011\310\301\340\001"
 8229      E001
 8230              		.global	sp_spkvocaid34
 8231              		.section	.rodata.sp_spkvocaid34,"a"
 8232              		.align	2
 8233              		.type	sp_spkvocaid34, %object
 8234              		.size	sp_spkvocaid34, 288
 8235              	sp_spkvocaid34:
 8236 0000 507A08E5 		.ascii	"Pz\010\345.\027gtS\323<^\315\356\243\353\330!\372\261"
 8236      2E176774 
 8236      53D33C5E 
 8236      CDEEA3EB 
 8236      D821FAB1 
 8237 0014 5337EA95 		.ascii	"S7\352\225t&\205n\370'\350&\216=\266\324\034\275`\323"
 8237      7426856E 
 8237      F827E826 
 8237      8E3DB6D4 
 8237      1CBD60D3 
 8238 0028 2E338FE4 		.ascii	".3\217\344tK\304\013+\301\350\221Pw]\323\312\316\246"
 8238      744BC40B 
 8238      2BC1E891 
 8238      50775DD3 
 8238      CACEA6
 8239 003b B957AD53 		.ascii	"\271W\255S\275\016K\237\312\251W\226\242\026\223\310"
 8239      BD0E4B9F 
 8239      CAA95796 
 8239      A21693C8 
 8240 004b F24C252D 		.ascii	"\362L%-\235  C\232\000\231\004\247\231\214\213\351\233"
 8240      9D202043 
 8240      9A009904 
 8240      A7998C8B 
 8240      E99B
 8241 005d 592BE910 		.ascii	"Y+\351\020\217\251\262\367^\342h\231\032V\246\331\221"
 8241      8FA9B2F7 
 8241      5EE26899 
 8241      1A56A6D9 
 8241      91
 8242 006e 322C3C63 		.ascii	"2,<c\233c\203\272\262\245\366[o\275\355*S\345J\305\232"
 8242      9B6383BA 
ARM GAS  /tmp/ccONvy4E.s 			page 183


 8242      B2A5F65B 
 8242      6FBDED2A 
 8242      53E54AC5 
 8243 0083 5D471C00 		.ascii	"]G\034\000\012\324\234\304@\321B\241\364\034\2502\226"
 8243      0AD49CC4 
 8243      40D142A1 
 8243      F41CA832 
 8243      96
 8244 0094 57495935 		.ascii	"WIY5\275m\237\022\223ZE\333\275u\325\2204*\306ji.\232"
 8244      BD6D9F12 
 8244      935A45DB 
 8244      BD75D590 
 8244      342AC66A 
 8245 00ab 8D571536 		.ascii	"\215W\0256\270Is\213$|\224\231\213RH\244i\263x\003\317"
 8245      B849738B 
 8245      247C9499 
 8245      8B5248A4 
 8245      69B37803 
 8246 00c0 AABD56F6 		.ascii	"\252\275V\366N\036\275h\255\240\302S\263I\331^\264\007"
 8246      4E1EBD68 
 8246      ADA0C253 
 8246      B349D95E 
 8246      B407
 8247 00d2 469B72AC 		.ascii	"F\233r\254x\013\356$\343\330X\346\372q\307q!5\342\343"
 8247      780BEE24 
 8247      E3D858E6 
 8247      FA71C771 
 8247      2135E2E3 
 8248 00e6 AEEBA34B 		.ascii	"\256\353\243K\345\306\351\267\\W\224\337\252Ex\246\252"
 8248      E5C6E9B7 
 8248      5C5794DF 
 8248      AA4578A6 
 8248      AA
 8249 00f7 5E59C7F4 		.ascii	"^Y\307\364lu\274\260\016\341\353\354\374\025)\334\367"
 8249      6C75BCB0 
 8249      0EE1EBEC 
 8249      FC1529DC 
 8249      F7
 8250 0108 51EC2A66 		.ascii	"Q\354*f\206\037\245\313d\331\012?(\265\313\244\343~"
 8250      861FA5CB 
 8250      64D90A3F 
 8250      28B5CBA4 
 8250      E37E
 8251 011a D64AEF2D 		.ascii	"\326J\357-\365\001"
 8251      F501
 8252              		.global	sp_spkvocaid33
 8253              		.section	.rodata.sp_spkvocaid33,"a"
 8254              		.align	2
 8255              		.type	sp_spkvocaid33, %object
 8256              		.size	sp_spkvocaid33, 105
 8257              	sp_spkvocaid33:
 8258 0000 90968B5B 		.ascii	"\220\226\213[\246=\247\257\263\242\275R\251\272w\254"
 8258      A63DA7AF 
 8258      B3A2BD52 
 8258      A9BA77AC 
 8259 0010 11FC8553 		.ascii	"\021\374\205S7\335u\025?\302\335G\311\312)\251\245\257"
 8259      37DD7515 
ARM GAS  /tmp/ccONvy4E.s 			page 184


 8259      3FC2DD47 
 8259      C9CA29A9 
 8259      A5AF
 8260 0022 9D9E5CCA 		.ascii	"\235\236\\\312\211=j\344\370,\000S\"\032h\320j\314\022"
 8260      893D6AE4 
 8260      F82C0053 
 8260      221A68D0 
 8260      6ACC12
 8261 0035 996367D7 		.ascii	"\231cg\327\323b4\353h\273\247Eo^>Qn;-\370\210\362\265"
 8261      D36234EB 
 8261      68BBA745 
 8261      6F5E3E51 
 8261      6E3B2DF8 
 8262 004c B39AF711 		.ascii	"\263\232\367\021ige4\353*R\266Jj.\226\033em\327\263"
 8262      69676534 
 8262      EB2A52B6 
 8262      4A6A2E96 
 8262      1B656DD7 
 8263 0061 2D770227 		.ascii	"-w\002'\002pi\366"
 8263      027069F6 
 8264              		.global	sp_spkvocaid32
 8265              		.section	.rodata.sp_spkvocaid32,"a"
 8266              		.align	2
 8267              		.type	sp_spkvocaid32, %object
 8268              		.size	sp_spkvocaid32, 65
 8269              	sp_spkvocaid32:
 8270 0000 0844EFCA 		.ascii	"\010D\357\312\201\004-e\357\022VVN\364\301=\243\355"
 8270      81042D65 
 8270      EF125656 
 8270      4EF4C13D 
 8270      A3ED
 8271 0012 9C185C69 		.ascii	"\234\030\\i\352\3069\311\246\016\223\255\263K\350\021"
 8271      EAC639C9 
 8271      A60E93AD 
 8271      B34BE811 
 8272 0022 FD04E8E3 		.ascii	"\375\004\350\343p\224\371V\250\326\376\212\255\\\207"
 8272      7094F956 
 8272      A8D6FE8A 
 8272      AD5C87
 8273 0031 A1DB0500 		.ascii	"\241\333\005\000\020\200\213p\004\274oD\300\250\364"
 8273      10808B70 
 8273      04BC6F44 
 8273      C0A8F4
 8274 0040 07       		.ascii	"\007"
 8275              		.global	sp_spkvocaid31
 8276              		.section	.rodata.sp_spkvocaid31,"a"
 8277              		.align	2
 8278              		.type	sp_spkvocaid31, %object
 8279              		.size	sp_spkvocaid31, 94
 8280              	sp_spkvocaid31:
 8281 0000 02749F22 		.ascii	"\002t\237\"\301\211\321\245\205N\225\023\263N/\255("
 8281      C189D1A5 
 8281      854E9513 
 8281      B34E2FAD 
 8281      28
 8282 0011 2B16135A 		.ascii	"+\026\023ZVfFj&\270\255\244\224T\274\360Y\322s\331\030"
 8282      5666466A 
ARM GAS  /tmp/ccONvy4E.s 			page 185


 8282      26B8ADA4 
 8282      9454BCF0 
 8282      59D273D9 
 8283 0026 CD87724A 		.ascii	"\315\207rJ\272\322\021\303\232\032\002(R\235\201\353"
 8283      BAD211C3 
 8283      9A1A0228 
 8283      529D81EB 
 8284 0036 95C2AE54 		.ascii	"\225\302\256T\264j\255\266\335\202\203\3664\036\247"
 8284      B46AADB6 
 8284      DD8283F6 
 8284      341EA7
 8285 0045 E706F2EA 		.ascii	"\347\006\362\352=nu\016\326\331\263\335h\215\323m\223"
 8285      3D6E750E 
 8285      D6D9B3DD 
 8285      688DD36D 
 8285      93
 8286 0056 7BD2B456 		.ascii	"{\322\264Vv\003~\037"
 8286      76037E1F 
 8287              		.global	sp_spkvocaid30
 8288              		.section	.rodata.sp_spkvocaid30,"a"
 8289              		.align	2
 8290              		.type	sp_spkvocaid30, %object
 8291              		.size	sp_spkvocaid30, 172
 8292              	sp_spkvocaid30:
 8293 0000 0008F89E 		.ascii	"\000\010\370\236\244\200\251\312\014dQ*@\244m\256(w"
 8293      A480A9CA 
 8293      0C64512A 
 8293      40A46DAE 
 8293      2877
 8294 0012 6A146962 		.ascii	"j\024ibi9\310t\263\231\\R\026j\235\025\244\344\"E\273"
 8294      6939C874 
 8294      B3995C52 
 8294      166A9D15 
 8294      A4E42245 
 8295 0027 8D7ECD25 		.ascii	"\215~\315%U\3032\301\352K\316\232cY\264\207l\215\267"
 8295      55C332C1 
 8295      EA4BCE9A 
 8295      6359B487 
 8295      6C8DB7
 8296 003a 92EB4BD9 		.ascii	"\222\353K\331\251\214\300\320\237s\312\216\277\261H"
 8296      A98CC0D0 
 8296      9F73CA8E 
 8296      BFB148
 8297 0049 9B923DDB 		.ascii	"\233\222=\333PQw#\007\275\242\361\322FI\274\325\375"
 8297      50517723 
 8297      07BDA2F1 
 8297      D24649BC 
 8297      D5FD
 8298 005b CCAE1A4D 		.ascii	"\314\256\032M\251\333KM\325\361\326\242P\236Z \245C"
 8298      A9DB4B4D 
 8298      D5F1D6A2 
 8298      509E5A20 
 8298      A543
 8299 006d 66BFCFB6 		.ascii	"f\277\317\266\202Kv{+\345\0241\344\266Q\303u\332\242"
 8299      824B767B 
 8299      2BE51431 
 8299      E4B651C3 
ARM GAS  /tmp/ccONvy4E.s 			page 186


 8299      75DAA2
 8300 0080 2879FB1B 		.ascii	"(y\373\033\236\321\236A\301\325|k\263\024C\235\372\312"
 8300      9ED19E41 
 8300      C1D57C6B 
 8300      B314439D 
 8300      FACA
 8301 0092 44B9985B 		.ascii	"D\271\230[\363#\310*u'\3621\260\201:\003\007\210\021"
 8301      F323C82A 
 8301      7527F231 
 8301      B0813A03 
 8301      078811
 8302 00a5 70111103 		.ascii	"p\021\021\003\0331<"
 8302      1B313C
 8303              		.global	sp_spkvocaid29
 8304              		.section	.rodata.sp_spkvocaid29,"a"
 8305              		.align	2
 8306              		.type	sp_spkvocaid29, %object
 8307              		.size	sp_spkvocaid29, 109
 8308              	sp_spkvocaid29:
 8309 0000 62D2EC66 		.ascii	"b\322\354f\3265\371dS\273P\023\233xj\264\241\251]\373"
 8309      D635F964 
 8309      53BB5013 
 8309      9B786AB4 
 8309      A1A95DFB 
 8310 0014 B4645DCB 		.ascii	"\264d]\313\246\312\251Y\207VL\225[W-\336\250\342,\217"
 8310      A6CAA959 
 8310      87564C95 
 8310      5B572DDE 
 8310      A8E22C8F 
 8311 0028 5A8CD0D4 		.ascii	"Z\214\320\324Z\231\275\315b\231\266NJ\331A\211~\265"
 8311      5A99BDCD 
 8311      6299B64E 
 8311      4AD94189 
 8311      7EB5
 8312 003a 94722237 		.ascii	"\224r\"7\376s\253\351TO4uq\323M\226x\363\253\246\353"
 8312      FE73ABE9 
 8312      544F3475 
 8312      71D34D96 
 8312      78F3ABA6 
 8313 004f 8C6AD95B 		.ascii	"\214j\331[wW\007\303\212\264*\236\347\256\301U\333\334"
 8313      775707C3 
 8313      8AB42A9E 
 8313      E7AEC155 
 8313      DBDC
 8314 0061 AA9D8DDD 		.ascii	"\252\235\215\335\211\333\315\247)\033\343\007"
 8314      89DBCDA7 
 8314      291BE307 
 8315              		.global	sp_spkvocaid28
 8316              		.section	.rodata.sp_spkvocaid28,"a"
 8317              		.align	2
 8318              		.type	sp_spkvocaid28, %object
 8319              		.size	sp_spkvocaid28, 78
 8320              	sp_spkvocaid28:
 8321 0000 A1EBA592 		.ascii	"\241\353\245\222\245\374R7\207\245B\370\265\354\226"
 8321      A5FC5237 
 8321      87A542F8 
 8321      B5EC96
ARM GAS  /tmp/ccONvy4E.s 			page 187


 8322 000f 5824E75A 		.ascii	"X$\347Z9\0243-\353tR\012.\021U\373\346\223SpI\277\330"
 8322      3914332D 
 8322      EB74520A 
 8322      2E1155FB 
 8322      E6935370 
 8323 0026 A5169D14 		.ascii	"\245\026\235\024R\263\313H\321\310dk\227\345\035\333"
 8323      52B3CB48 
 8323      D1C8646B 
 8323      97E51DDB 
 8324 0036 E62BC927 		.ascii	"\346+\311'\335\214\\\347\312Jx\315\013D\236\035\367"
 8324      DD8C5CE7 
 8324      CA4A78CD 
 8324      0B449E1D 
 8324      F7
 8325 0047 AA56A8DD 		.ascii	"\252V\250\335\320\376?"
 8325      D0FE3F
 8326              		.global	sp_spkvocaid27
 8327              		.section	.rodata.sp_spkvocaid27,"a"
 8328              		.align	2
 8329              		.type	sp_spkvocaid27, %object
 8330              		.size	sp_spkvocaid27, 116
 8331              	sp_spkvocaid27:
 8332 0000 620AAD5D 		.ascii	"b\012\255]\220\235\311\".*\3002\263\211c\205\221\245"
 8332      909DC922 
 8332      2E2AC032 
 8332      B3896385 
 8332      91A5
 8333 0012 2D43E4F5 		.ascii	"-C\344\365\000\351\231:\337m\006\263\"\326Tx}5\320\036"
 8333      00E9993A 
 8333      DF6D06B3 
 8333      22D65478 
 8333      7D35D01E 
 8334 0026 A1F0F12A 		.ascii	"\241\360\361*d=C\341\363Y\330z\304\226\206\\&\243\276"
 8334      643D43E1 
 8334      F359D87A 
 8334      C496865C 
 8334      26A3BE
 8335 0039 22AF74F4 		.ascii	"\"\257t\364f]\215\015\371\246\253\253\330\245\266HW"
 8335      665D8D0D 
 8335      F9A6ABAB 
 8335      D8A5B648 
 8335      57
 8336 004a 25B539F3 		.ascii	"%\2659\363\341\256\257\240U\345\211<\352=:[\022yJ\230"
 8336      E1AEAFA0 
 8336      55E5893C 
 8336      EA3D3A5B 
 8336      12794A98 
 8337 005e 6556A2F0 		.ascii	"eV\242\360\262U\027\337\204\351:\023R9\266\335/\301"
 8337      B25517DF 
 8337      84E93A13 
 8337      5239B6DD 
 8337      2FC1
 8338 0070 44B9223F 		.ascii	"D\271\"?"
 8339              		.global	sp_spkvocaid26
 8340              		.section	.rodata.sp_spkvocaid26,"a"
 8341              		.align	2
 8342              		.type	sp_spkvocaid26, %object
ARM GAS  /tmp/ccONvy4E.s 			page 188


 8343              		.size	sp_spkvocaid26, 143
 8344              	sp_spkvocaid26:
 8345 0000 A7951494 		.ascii	"\247\225\024\224\272u\306(M(t\346\220\351\014\345{\012"
 8345      BA75C628 
 8345      4D2874E6 
 8345      90E90CE5 
 8345      7B0A
 8346 0012 0630E0E9 		.ascii	"\0060\340\351\022\017\034\270\256$\002\014\000\010p"
 8346      120F1CB8 
 8346      AE24020C 
 8346      000870
 8347 0021 CE3D14AD 		.ascii	"\316=\024\255\366\2148S(\"}\032\304\234\234[\326\341"
 8347      F68C3853 
 8347      28227D1A 
 8347      C49C9C5B 
 8347      D6E1
 8348 0033 557992AE 		.ascii	"Uy\222\256\354\314\271\312\332]9\250q\263\265\263J\220"
 8348      ECCCB9CA 
 8348      DA5D39A8 
 8348      71B3B5B3 
 8348      4A90
 8349 0045 6D692765 		.ascii	"mi'e\325`\303*\226\356nmx-\227el\313J\006g3\320\206"
 8349      D560C32A 
 8349      96EE6E6D 
 8349      782D9765 
 8349      6CCB4A06 
 8350 005d 6D85F7A3 		.ascii	"m\205\367\243j\017'\012\256We\037Nd\032\317\252\335"
 8350      6A0F270A 
 8350      AE57651F 
 8350      4E641ACF 
 8350      AADD
 8351 006f 9D082E9A 		.ascii	"\235\010.\2328\255\272\314w%\214\027u\205\232\\He\372"
 8351      38ADBACC 
 8351      77258C17 
 8351      75859A5C 
 8351      4865FA
 8352 0082 9A2B4D54 		.ascii	"\232+MTc\2523W\253\364\326T\362"
 8352      63AA3357 
 8352      ABF4D654 
 8352      F2
 8353              		.global	sp_spkvocaid25
 8354              		.section	.rodata.sp_spkvocaid25,"a"
 8355              		.align	2
 8356              		.type	sp_spkvocaid25, %object
 8357              		.size	sp_spkvocaid25, 83
 8358              	sp_spkvocaid25:
 8359 0000 A6F2A996 		.ascii	"\246\362\251\226\352z]\025\233\315K\374\244\2427f\270"
 8359      EA7A5D15 
 8359      9BCD4BFC 
 8359      A4A23766 
 8359      B8
 8360 0011 E41AD954 		.ascii	"\344\032\331T\017+\356urp\235\241\332\371\344h/B\254"
 8360      0F2BEE75 
 8360      72709DA1 
 8360      DAF9E468 
 8360      2F42AC
 8361 0024 D1CDA7C4 		.ascii	"\321\315\247\304\324\356\032uVK^u\263\242\364\231n\016"
ARM GAS  /tmp/ccONvy4E.s 			page 189


 8361      D4EE1A75 
 8361      564B5E75 
 8361      B3A2F499 
 8361      6E0E
 8362 0036 C4971B39 		.ascii	"\304\227\0339\274\222P\262\306\216\373Q\013~UT\000 "
 8362      BC9250B2 
 8362      C68EFB51 
 8362      0B7E5554 
 8362      0020
 8363 0048 209B1401 		.ascii	" \233\024\001\212I! Y\323\007"
 8363      8A492120 
 8363      59D307
 8364              		.global	sp_spkvocaid24
 8365              		.section	.rodata.sp_spkvocaid24,"a"
 8366              		.align	2
 8367              		.type	sp_spkvocaid24, %object
 8368              		.size	sp_spkvocaid24, 110
 8369              	sp_spkvocaid24:
 8370 0000 A1A8621A 		.ascii	"\241\250b\032\301~cuUT\2634\366\353k)\261\210hY\356"
 8370      C17E6375 
 8370      5554B334 
 8370      F6EB6B29 
 8370      B1886859 
 8371 0015 91AB7754 		.ascii	"\221\253wT\357\325-\017\357`\261\265{)u\030\203\354"
 8371      EFD52D0F 
 8371      EF60B1B5 
 8371      7B297518 
 8371      83EC
 8372 0027 8F535AD3 		.ascii	"\217SZ\323\002\335g'\315\256\004\272VN\332\3150t\257"
 8372      02DD6727 
 8372      CDAE04BA 
 8372      564EDACD 
 8372      3074AF
 8373 003a 9D74BA17 		.ascii	"\235t\272\027\210\2728\3414\307\220}q\302\251\226\241"
 8373      88BA38E1 
 8373      34C7907D 
 8373      71C2A996 
 8373      A1
 8374 004b F6A2A653 		.ascii	"\366\242\246S<c\344E%\227\213\260\214\262Eoz\225\205"
 8374      3C63E445 
 8374      25978BB0 
 8374      8CB2456F 
 8374      7A9585
 8375 005e 8685BC72 		.ascii	"\206\205\274r\242Q\365x+\3566\025\024~Q\036"
 8375      A251F578 
 8375      2BEE3615 
 8375      147E511E 
 8376              		.global	sp_spkvocaid23
 8377              		.section	.rodata.sp_spkvocaid23,"a"
 8378              		.align	2
 8379              		.type	sp_spkvocaid23, %object
 8380              		.size	sp_spkvocaid23, 139
 8381              	sp_spkvocaid23:
 8382 0000 A315AB54 		.ascii	"\243\025\253T5Uv[-;\325\210\213\262Z2\256\241[\007\312"
 8382      3555765B 
 8382      2D3BD588 
 8382      8BB25A32 
ARM GAS  /tmp/ccONvy4E.s 			page 190


 8382      AEA15B07 
 8383 0015 8C2ECD68 		.ascii	"\214.\315h*\207ajj\371Ee\301\351\015\321t\311\242.\027"
 8383      2A87616A 
 8383      6AF94565 
 8383      C1E90DD1 
 8383      74C9A22E 
 8384 002a 4C9EA625 		.ascii	"L\236\246%\353o\214|U\313\306\377\010f\342V\234\276"
 8384      EB6F8C7C 
 8384      55CBC6FF 
 8384      0866E256 
 8384      9CBE
 8385 003c 13C824AD 		.ascii	"\023\310$\255\030\377M\\IZ\325\351\213\244\334\326V"
 8385      18FF4D5C 
 8385      495AD5E9 
 8385      8BA4DCD6 
 8385      56
 8386 004d BACE9FA8 		.ascii	"\272\316\237\250\351\245l\223>\231SO;6^\223\206\226"
 8386      E9A56C93 
 8386      3E99534F 
 8386      3B365E93 
 8386      8696
 8387 005f 715CD846 		.ascii	"q\\\330F\363\244\355\0067\301\352q\31359\331}\034\273"
 8387      F3A4ED06 
 8387      37C1EA71 
 8387      CB3539D9 
 8387      7D1CBB
 8388 0072 EBC87069 		.ascii	"\353\310pi\326u\317\360\341\264\256j\236e\245\315\345"
 8388      D675CFF0 
 8388      E1B4AE6A 
 8388      9E65A5CD 
 8388      E5
 8389 0083 C43CA532 		.ascii	"\304<\2452\212\306\356\003"
 8389      8AC6EE03 
 8390              		.global	sp_spkvocaid22
 8391              		.section	.rodata.sp_spkvocaid22,"a"
 8392              		.align	2
 8393              		.type	sp_spkvocaid22, %object
 8394              		.size	sp_spkvocaid22, 119
 8395              	sp_spkvocaid22:
 8396 0000 28286A0E 		.ascii	"((j\016\000\000p\010\240P\023\003\222\011*\245\204r"
 8396      00007008 
 8396      A0501303 
 8396      92092AA5 
 8396      8472
 8397 0012 23973D4A 		.ascii	"#\227=J\214c\305a\351\226U|:w\251\312\247\204\270a\334"
 8397      8C63C561 
 8397      E996557C 
 8397      3A77A9CA 
 8397      A784B861 
 8398 0027 754E0DB9 		.ascii	"uN\015\271\303\244\243\234\026r\206[E\271c-\037\315"
 8398      C3A4A39C 
 8398      1672865B 
 8398      45B9632D 
 8398      1FCD
 8399 0039 3BD2CED8 		.ascii	";\322\316\330\301\205L{\302\271\333\216\235\254\274"
 8399      C1854C7B 
 8399      C2B9DB8E 
ARM GAS  /tmp/ccONvy4E.s 			page 191


 8399      9DACBC
 8400 0048 A68CE38B 		.ascii	"\246\214\343\213H\247\315*\307\025\321\367XPNh\314\353"
 8400      48A7CD2A 
 8400      C715D1F7 
 8400      58504E68 
 8400      CCEB
 8401 005a BEA29E70 		.ascii	"\276\242\236p}a\256\311\034\3442\235\326Y\264\310\265"
 8401      7D61AEC9 
 8401      1CE4329D 
 8401      D659B4C8 
 8401      B5
 8402 006b 8A3C7C1C 		.ascii	"\212<|\034\001\270\223[\242jY~"
 8402      01B8935B 
 8402      A26A597E 
 8403              		.global	sp_spkvocaid21
 8404              		.section	.rodata.sp_spkvocaid21,"a"
 8405              		.align	2
 8406              		.type	sp_spkvocaid21, %object
 8407              		.size	sp_spkvocaid21, 111
 8408              	sp_spkvocaid21:
 8409 0000 0878AE44 		.ascii	"\010x\256D\300\360i\024h0R0\323&\332j%\3577\215\242"
 8409      C0F06914 
 8409      68305230 
 8409      D326DA6A 
 8409      25EF378D 
 8410 0015 C9CAC16E 		.ascii	"\311\312\301n)g\222U\274\337\024\256$\253\006\267\241"
 8410      29679255 
 8410      BCDF14AE 
 8410      24AB06B7 
 8410      A1
 8411 0026 DC8957F3 		.ascii	"\334\211W\363~R\271\223\354\336\246\233e\032-g,_\207"
 8411      7E52B993 
 8411      ECDEA69B 
 8411      651A2D67 
 8411      2C5F87
 8412 0039 3DC3CED8 		.ascii	"=\303\316\330\321\256\350\204\224v\202*\317H3\365\246"
 8412      D1AEE884 
 8412      9476822A 
 8412      CF4833F5 
 8412      A6
 8413 004a E745E9A5 		.ascii	"\347E\351\245YK\317\352\3425\227n\0367/C\021\317=e#"
 8413      594BCFEA 
 8413      E235976E 
 8413      1E372F43 
 8413      11CF3D65 
 8414 005f 864A99BA 		.ascii	"\206J\231\272<e\0065Sq\204\355\034\010-\017"
 8414      3C650635 
 8414      537184ED 
 8414      1C082D0F 
 8415              		.global	sp_spkvocaid20
 8416              		.section	.rodata.sp_spkvocaid20,"a"
 8417              		.align	2
 8418              		.type	sp_spkvocaid20, %object
 8419              		.size	sp_spkvocaid20, 73
 8420              	sp_spkvocaid20:
 8421 0000 6978617E 		.ascii	"ixa~\\\314\322p\302\374(\231\247\221h\310b;K\335\260"
 8421      5CCCD270 
ARM GAS  /tmp/ccONvy4E.s 			page 192


 8421      C2FC2899 
 8421      A79168C8 
 8421      623B4BDD 
 8422 0015 B2E5B0B7 		.ascii	"\262\345\260\267\252W\345&[\373\224h;L:\362\311\301"
 8422      AA57E526 
 8422      5BFB9468 
 8422      3B4C3AF2 
 8422      C9C1
 8423 0027 4FA87694 		.ascii	"O\250v\224\225}\230\024\351\330;\217\342\352\272X\305"
 8423      957D9814 
 8423      E9D83B8F 
 8423      E2EABA58 
 8423      C5
 8424 0038 1DD5A749 		.ascii	"\035\325\247I\225\2562;\200\002I\270\010P\220\363\003"
 8424      95AE323B 
 8424      800249B8 
 8424      085090F3 
 8424      03
 8425              		.global	sp_spkvocaid19
 8426              		.section	.rodata.sp_spkvocaid19,"a"
 8427              		.align	2
 8428              		.type	sp_spkvocaid19, %object
 8429              		.size	sp_spkvocaid19, 187
 8430              	sp_spkvocaid19:
 8431 0000 28286A0E 		.ascii	"((j\016\000\000pP\035\247\260HoA\273\033>\252\252\271"
 8431      00007050 
 8431      1DA7B048 
 8431      6F41BB1B 
 8431      3EAAAAB9 
 8432 0014 DCD17256 		.ascii	"\334\321rVr\313E\245\347\210\330\331ekO#9\306\251\254"
 8432      72CB45A5 
 8432      E788D8D9 
 8432      656B4F23 
 8432      39C6A9AC 
 8433 0028 A28631A1 		.ascii	"\242\2061\241\256\3558L\313\3125\252U\231\216\265\033"
 8433      AEED384C 
 8433      CBCA35AA 
 8433      55998EB5 
 8433      1B
 8434 0039 EDA23A4E 		.ascii	"\355\242:N\017\246-\364\252\236\036mY\330U=-\271\324"
 8434      0FA62DF4 
 8434      AA9E1E6D 
 8434      59D8553D 
 8434      2DB9D4
 8435 004c B0AD525A 		.ascii	"\260\255RZ4i\356\021X\200f]\030(R\204\003P \252\311"
 8435      3469EE11 
 8435      5880665D 
 8435      18285284 
 8435      035020AA 
 8436 0061 D2BC2E37 		.ascii	"\322\274.7\252\252\245\231p\"6QrO]\213o\203\230=\272"
 8436      AAAAA599 
 8436      70223651 
 8436      724F5D8B 
 8436      6F83983D 
 8437 0076 31EF22E9 		.ascii	"1\357\"\351l\014c>\204g\366\030\326|\260\316\3549\306"
 8437      6C0C633E 
 8437      8467F618 
ARM GAS  /tmp/ccONvy4E.s 			page 193


 8437      D67CB0CE 
 8437      EC39C6
 8438 0089 34699562 		.ascii	"4i\225b\022\267\245\3439\331\304)K\3463\262L\0236\177"
 8438      12B7A5E3 
 8438      39D9C429 
 8438      4BE633B2 
 8438      4C13367F 
 8439 009d 456ED928 		.ascii	"En\331(\034\221^8\254\225?\356\312\224A9\214\314e\276"
 8439      1C915E38 
 8439      AC953FEE 
 8439      CA944139 
 8439      8CCC65BE 
 8440 00b1 CBB9158B 		.ascii	"\313\271\025\213Gjup8~"
 8440      476A7570 
 8440      387E
 8441              		.global	sp_spkvocaid18
 8442              		.section	.rodata.sp_spkvocaid18,"a"
 8443              		.align	2
 8444              		.type	sp_spkvocaid18, %object
 8445              		.size	sp_spkvocaid18, 89
 8446              	sp_spkvocaid18:
 8447 0000 04989820 		.ascii	"\004\230\230 \001\005.)\263Y(>C\022\376\333Hr\227\244"
 8447      01052E29 
 8447      B359283E 
 8447      4312FEDB 
 8447      487297A4 
 8448 0014 FC7730F7 		.ascii	"\374w0\367\036\311\331\257`\332\274\262\367WA\266h\327"
 8448      1EC9D9AF 
 8448      60DABCB2 
 8448      F75741B6 
 8448      68D7
 8449 0026 D5425A73 		.ascii	"\325BZs\253\332{\264\025\223Z\333H);&\256\212\243\233"
 8449      ABDA7BB4 
 8449      15935ADB 
 8449      48293B26 
 8449      AE8AA39B 
 8450 003a 6E082E9B 		.ascii	"n\010.\233\031u\274\030]\313\326j{\336\216t\266\265"
 8450      1975BC18 
 8450      5DCBD66A 
 8450      7BDE8E74 
 8450      B6B5
 8451 004c 749D692D 		.ascii	"t\235i-=i\000\240@\224\241\022<"
 8451      3D6900A0 
 8451      4094A112 
 8451      3C
 8452              		.global	sp_spkvocaid17
 8453              		.section	.rodata.sp_spkvocaid17,"a"
 8454              		.align	2
 8455              		.type	sp_spkvocaid17, %object
 8456              		.size	sp_spkvocaid17, 73
 8457              	sp_spkvocaid17:
 8458 0000 A44B1B3E 		.ascii	"\244K\033>\020\233m\017]\233\262\002\311\232\272U\343"
 8458      109B6D0F 
 8458      5D9BB202 
 8458      C99ABA55 
 8458      E3
 8459 0011 09A2AC74 		.ascii	"\011\242\254ti>\214\325Kj\254\276+\253\333\334rK\235"
ARM GAS  /tmp/ccONvy4E.s 			page 194


 8459      693E8CD5 
 8459      4B6AACBE 
 8459      2BABDBDC 
 8459      724B9D
 8460 0024 870F15F6 		.ascii	"\207\017\025\366]G\332b\214%\351\246p\324u\013\362\237"
 8460      5D47DA62 
 8460      8C25E9A6 
 8460      70D4750B 
 8460      F29F
 8461 0036 E1C8EBDC 		.ascii	"\341\310\353\334\245>\303UG\371Rr\270\253GP\236\270"
 8461      A53EC355 
 8461      47F95272 
 8461      B8AB4750 
 8461      9EB8
 8462 0048 7A       		.ascii	"z"
 8463              		.global	sp_spkvocaid16
 8464              		.section	.rodata.sp_spkvocaid16,"a"
 8465              		.align	2
 8466              		.type	sp_spkvocaid16, %object
 8467              		.size	sp_spkvocaid16, 94
 8468              	sp_spkvocaid16:
 8469 0000 0020400D 		.ascii	"\000 @\015\301\032hpr\320\351a\266jeW\315\\}\311\310"
 8469      C11A6870 
 8469      72D0E961 
 8469      B66A6557 
 8469      CD5C7DC9 
 8470 0015 7EAABACB 		.ascii	"~\252\272\313\232\221\303\026\015\261N-\207\352\"\036"
 8470      9A91C316 
 8470      0DB14E2D 
 8470      87EA221E 
 8471 0025 697A0E60 		.ascii	"iz\016`e\303\010\034\370)\335\003\012\240\314\356[\234"
 8471      65C3081C 
 8471      F829DD03 
 8471      0AA0CCEE 
 8471      5B9C
 8472 0037 C3725B91 		.ascii	"\303r[\221\207L\274\225v\222U\256\3748\345\226H\222"
 8472      874CBC95 
 8472      769255AE 
 8472      FC38E596 
 8472      4892
 8473 0049 798AC30B 		.ascii	"y\212\303\013\314\344;\355\230_<\303\347\033\026\257"
 8473      CCE43BED 
 8473      985F3CC3 
 8473      E71B16AF 
 8474 0059 1783D092 		.ascii	"\027\203\320\222\374"
 8474      FC
 8475              		.global	sp_spkvocaid15
 8476              		.section	.rodata.sp_spkvocaid15,"a"
 8477              		.align	2
 8478              		.type	sp_spkvocaid15, %object
 8479              		.size	sp_spkvocaid15, 109
 8480              	sp_spkvocaid15:
 8481 0000 28286A0E 		.ascii	"((j\016\000\000\004H\311\320\202\226]\\6\017\273;\257"
 8481      00000448 
 8481      C9D08296 
 8481      5D5C360F 
 8481      BB3BAF
ARM GAS  /tmp/ccONvy4E.s 			page 195


 8482 0013 14D49958 		.ascii	"\024\324\231X\306[\311\311\321\344p6S\311\226T\034'"
 8482      C65BC9C9 
 8482      D1E47036 
 8482      53C99654 
 8482      1C27
 8483 0025 B7520CCF 		.ascii	"\267R\014\317xLn\241*m\273\020Z\355 #\3458\012\263\323"
 8483      784C6EA1 
 8483      2A6DBB10 
 8483      5AED2023 
 8483      E5380AB3 
 8484 003a 862BE226 		.ascii	"\206+\342&\221\266\015[\331\315-\327\234m\271\202\321"
 8484      91B60D5B 
 8484      D9CD2DD7 
 8484      9C6DB982 
 8484      D1
 8485 004b 110BDB8E 		.ascii	"\021\013\333\216\225\244\243\026\265\023\254Q\177\247"
 8485      95A4A316 
 8485      B513AC51 
 8485      7FA7
 8486 0059 2C3728E5 		.ascii	",7(\345\335\264\022n$\301\363i[\374\300L\3762\312\003"
 8486      DDB4126E 
 8486      24C1F369 
 8486      5BFCC04C 
 8486      FE32CA03 
 8487              		.global	sp_spkvocaid14
 8488              		.section	.rodata.sp_spkvocaid14,"a"
 8489              		.align	2
 8490              		.type	sp_spkvocaid14, %object
 8491              		.size	sp_spkvocaid14, 84
 8492              	sp_spkvocaid14:
 8493 0000 AB79DF69 		.ascii	"\253y\337i2Svk\315\246N\265\033\333;\200\003\223\207"
 8493      3253766B 
 8493      CDA64EB5 
 8493      1BDB3B80 
 8493      039387
 8494 0013 32B065A8 		.ascii	"2\260e\250\004\006\\Y\352\300W\251\022\244\030\234\233"
 8494      04065C59 
 8494      EAC057A9 
 8494      12A4189C 
 8494      9B
 8495 0024 EAD93929 		.ascii	"\352\3319)Z\213\220\267s\222w\036\351gu\347\325}\014"
 8495      5A8B90B7 
 8495      7392771E 
 8495      E96775E7 
 8495      D57D0C
 8496 0037 5D6FA56B 		.ascii	"]o\245k:\333\2616\362\332\265)}\342\345\224\347Bd\370"
 8496      3ADBB136 
 8496      F2DAB529 
 8496      7DE2E594 
 8496      E74264F8 
 8497 004b D1010050 		.ascii	"\321\001\000P \230P\011\036"
 8497      20985009 
 8497      1E
 8498              		.global	sp_spkvocaid13
 8499              		.section	.rodata.sp_spkvocaid13,"a"
 8500              		.align	2
 8501              		.type	sp_spkvocaid13, %object
ARM GAS  /tmp/ccONvy4E.s 			page 196


 8502              		.size	sp_spkvocaid13, 105
 8503              	sp_spkvocaid13:
 8504 0000 AE091B51 		.ascii	"\256\011\033Q\220m|\363\315Ui\332\012\262m\312\2424"
 8504      906D7CF3 
 8504      CD5569DA 
 8504      0AB26DCA 
 8504      A234
 8505 0012 DB74AC96 		.ascii	"\333t\254\226\255\230`\257\226=\367\\\262\341\225\245"
 8505      AD9860AF 
 8505      963DF75C 
 8505      B2E195A5 
 8506 0022 DAB3E6D4 		.ascii	"\332\263\346\324\225\350H\362^a\010W\356T\015\303T\266"
 8506      95E848F2 
 8506      5E610857 
 8506      EE540DC3 
 8506      54B6
 8507 0034 DDD81FBA 		.ascii	"\335\330\037\272\255\304\204\253m0\207\3731\323|\341"
 8507      ADC484AB 
 8507      6D3087FB 
 8507      31D37CE1 
 8508 0044 2EF3A7EA 		.ascii	".\363\247\352\325\300\\%\317U3\225\271\306\224\033\251"
 8508      D5C05C25 
 8508      CF553395 
 8508      B9C6941B 
 8508      A9
 8509 0055 1BF3BA4D 		.ascii	"\033\363\272Mw5\331\004h\031\"@\224\306\014d\023L\301"
 8509      7735D904 
 8509      68192240 
 8509      94C60C64 
 8509      134CC1
 8510 0068 03       		.ascii	"\003"
 8511              		.global	sp_spkvocaid12
 8512              		.section	.rodata.sp_spkvocaid12,"a"
 8513              		.align	2
 8514              		.type	sp_spkvocaid12, %object
 8515              		.size	sp_spkvocaid12, 137
 8516              	sp_spkvocaid12:
 8517 0000 691AFE25 		.ascii	"i\032\376%\230mrk\315\272\017\241\2362z0W\212U{\365"
 8517      986D726B 
 8517      CDBA0FA1 
 8517      9E327A30 
 8517      578A557B 
 8518 0015 A4BA0DAB 		.ascii	"\244\272\015\253\316\351\321L*W\234\323\223\355\010"
 8518      CEE9D14C 
 8518      2A579CD3 
 8518      93ED08
 8519 0024 AAD8A7A7 		.ascii	"\252\330\247\247\220\026\332qn\013-i\347\224\212\315"
 8519      9016DA71 
 8519      6E0B2D69 
 8519      E7948ACD 
 8520 0034 86D4A6A9 		.ascii	"\206\324\246\251W\222\216\321\243sv\273:k\004\023\232"
 8520      57928ED1 
 8520      A37376BB 
 8520      3A6B0413 
 8520      9A
 8521 0045 B191CF8C 		.ascii	"\261\221\317\214\316-\243-\337yf\016nn\035\345\256\261"
 8521      CE2DA32D 
ARM GAS  /tmp/ccONvy4E.s 			page 197


 8521      DF79660E 
 8521      6E6E1DE5 
 8521      AEB1
 8522 0057 436A53AB 		.ascii	"CjS\253\250\355\272Z&\326v\302\325s\224}\344\270\253"
 8522      A8EDBA5A 
 8522      26D676C2 
 8522      D573947D 
 8522      E4B8AB
 8523 006a 6F4154AB 		.ascii	"oAT\253IW\367E\253p\034\236\211G\032\351\330|-WB\306"
 8523      4957F745 
 8523      AB701C9E 
 8523      89471AE9 
 8523      D87C2D57 
 8524 0080 AEF92234 		.ascii	"\256\371\"4\227\254\023\376\037"
 8524      97AC13FE 
 8524      1F
 8525              		.global	sp_spkvocaid11
 8526              		.section	.rodata.sp_spkvocaid11,"a"
 8527              		.align	2
 8528              		.type	sp_spkvocaid11, %object
 8529              		.size	sp_spkvocaid11, 90
 8530              	sp_spkvocaid11:
 8531 0000 061C616C 		.ascii	"\006\034al\300\265.\036\004\360Mz\000\327\245y\260j"
 8531      C0B52E1E 
 8531      04F04D7A 
 8531      00D7A579 
 8531      B06A
 8532 0012 912EA179 		.ascii	"\221.\241y\353\324$S\303z\321\252Y\244\205\305+\327"
 8532      EBD42453 
 8532      C37AD1AA 
 8532      59A485C5 
 8532      2BD7
 8533 0024 3C0F0BB1 		.ascii	"<\017\013\261\332\264\265\226EZH,\336m\325\340\333M"
 8533      DAB4B596 
 8533      455A482C 
 8533      DE6DD5E0 
 8533      DB4D
 8534 0036 27CEA8D1 		.ascii	"'\316\250\321\214\233e\343\326\274\037s\253\332m\273"
 8534      8C9B65E3 
 8534      D6BC1F73 
 8534      ABDA6DBB 
 8535 0046 D4663675 		.ascii	"\324f6u\352\011\337\373\310\220\210\015\240\200\265"
 8535      EA09DFFB 
 8535      C890880D 
 8535      A080B5
 8536 0055 1E089894 		.ascii	"\036\010\230\224\362"
 8536      F2
 8537              		.global	sp_spkvocaid10
 8538              		.section	.rodata.sp_spkvocaid10,"a"
 8539              		.align	2
 8540              		.type	sp_spkvocaid10, %object
 8541              		.size	sp_spkvocaid10, 94
 8542              	sp_spkvocaid10:
 8543 0000 28286A0E 		.ascii	"((j\016\000\000p\300ALj\303\313\227\010\355a\216(j\032"
 8543      000070C0 
 8543      414C6AC3 
 8543      CB9708ED 
ARM GAS  /tmp/ccONvy4E.s 			page 198


 8543      618E286A 
 8544 0015 89F25CAD 		.ascii	"\211\362\\\255\032c\347\235\263j\322*\341\037g\347\221"
 8544      1A63E79D 
 8544      B36AD22A 
 8544      E11F67E7 
 8544      91
 8545 0026 933231FD 		.ascii	"\22321\3758\271\010\240@\251\002\001\230:\020\251Q\231"
 8545      38B908A0 
 8545      40A90201 
 8545      983A10A9 
 8545      5199
 8546 0038 599BB87E 		.ascii	"Y\233\270~\260\262\2744\231|\251\351\024\246\374=R\342"
 8546      B0B2BC34 
 8546      997CA9E9 
 8546      14A6FC3D 
 8546      52E2
 8547 004a 75AF0781 		.ascii	"u\257\007\201\251\227d^\225\002\337#\306\335\304E\277"
 8547      A997645E 
 8547      9502DF23 
 8547      C6DDC445 
 8547      BF
 8548 005b 8A343C   		.ascii	"\2124<"
 8549              		.global	sp_spkvocaid9
 8550              		.section	.rodata.sp_spkvocaid9,"a"
 8551              		.align	2
 8552              		.type	sp_spkvocaid9, %object
 8553              		.size	sp_spkvocaid9, 118
 8554              	sp_spkvocaid9:
 8555 0000 28286A0E 		.ascii	"((j\016\000\000p\300\301\000_\032$\220 ec/\2144eK:\235"
 8555      000070C0 
 8555      C1005F1A 
 8555      24902065 
 8555      632F8C34 
 8556 0018 3B78C712 		.ascii	";x\307\022U\374P\364\2165\226\250\314\267\203\366\254"
 8556      55FC50F4 
 8556      8E3596A8 
 8556      CCB783F6 
 8556      AC
 8557 0029 3954913F 		.ascii	"9T\221?\005\374\243\353\274|\030\364L\267Xz%\236Vf\013"
 8557      05FCA3EB 
 8557      BC7C18F4 
 8557      4CB7587A 
 8557      259E5666 
 8558 003e F78ED43B 		.ascii	"\367\216\324;\315\026\361\203\260>\270\243\324\214\203"
 8558      CD16F183 
 8558      B03EB8A3 
 8558      D48C83
 8559 004d F55147DA 		.ascii	"\365QG\332\035\206\352m\256p7\014\333F]#\363\014\334"
 8559      1D86EA6D 
 8559      AE70370C 
 8559      DB465D23 
 8559      F30CDC
 8560 0060 2D7B4EEA 		.ascii	"-{N\352\011\2327P7Q\253\026\253\025oxAX\225T\245\007"
 8560      099A3750 
 8560      3751AB16 
 8560      AB156F78 
 8560      41589554 
ARM GAS  /tmp/ccONvy4E.s 			page 199


 8561              		.global	sp_spkvocaid8
 8562              		.section	.rodata.sp_spkvocaid8,"a"
 8563              		.align	2
 8564              		.type	sp_spkvocaid8, %object
 8565              		.size	sp_spkvocaid8, 72
 8566              	sp_spkvocaid8:
 8567 0000 28286A0E 		.ascii	"((j\016\000\000p\300A\200\244\246$()\311-G\217\322\222"
 8567      000070C0 
 8567      4180A4A6 
 8567      242829C9 
 8567      2D478FD2 
 8568 0015 7797865D 		.ascii	"w\227\206]e$\347\267\015\273\366L\243\272\266\241:Q"
 8568      6524E7B7 
 8568      0DBBF64C 
 8568      A3BAB6A1 
 8568      3A51
 8569 0027 C670A3D2 		.ascii	"\306p\243\322l\355\366\023~t\236\311mK\274\331/\313"
 8569      6CEDF613 
 8569      7E749EC9 
 8569      6D4BBCD9 
 8569      2FCB
 8570 0039 5C160028 		.ascii	"\\\026\000(\340\204\253\002#\270 \020\234\313\003"
 8570      E084AB02 
 8570      23B82010 
 8570      9CCB03
 8571              		.global	sp_spkvocaid7
 8572              		.section	.rodata.sp_spkvocaid7,"a"
 8573              		.align	2
 8574              		.type	sp_spkvocaid7, %object
 8575              		.size	sp_spkvocaid7, 115
 8576              	sp_spkvocaid7:
 8577 0000 65D7C414 		.ascii	"e\327\304\024\261vg]5*\227\211\013\263\206\267\356\025"
 8577      B176675D 
 8577      352A9789 
 8577      0BB386B7 
 8577      EE15
 8578 0012 6F1514F0 		.ascii	"o\025\024\360:\002\000\3004]\316D3rk\306m9\371\246V"
 8578      3A0200C0 
 8578      345DCE44 
 8578      33726BC6 
 8578      6D39F9A6 
 8579 0027 8CBD32B4 		.ascii	"\214\2752\264M%k\377)\340\273RV\356KAv\206\314\312\273"
 8579      4D256BFF 
 8579      29E0BB52 
 8579      56EE4B41 
 8579      7686CCCA 
 8580 003c 402C0280 		.ascii	"@,\002\2004\274m\015V5m\351\\\2521U\372\036\307\273"
 8580      34BC6D0D 
 8580      56356DE9 
 8580      5CAA3155 
 8580      FA1EC7BB 
 8581 0050 34B58D13 		.ascii	"4\265\215\023\256\265\032\256\245\323]\351C\322\326"
 8581      AEB51AAE 
 8581      A5D35DE9 
 8581      43D2D6
 8582 005f B5FB4694 		.ascii	"\265\373F\224%\257\035\363#smi\345\352'\356\2324\316"
 8582      25AF1DF3 
ARM GAS  /tmp/ccONvy4E.s 			page 200


 8582      23736D69 
 8582      E5EA27EE 
 8582      9A34CE
 8583 0072 1F       		.ascii	"\037"
 8584              		.global	sp_spkvocaid6
 8585              		.section	.rodata.sp_spkvocaid6,"a"
 8586              		.align	2
 8587              		.type	sp_spkvocaid6, %object
 8588              		.size	sp_spkvocaid6, 188
 8589              	sp_spkvocaid6:
 8590 0000 A134C61C 		.ascii	"\2414\306\034\265\221S\251\\\301kb\227\332\214\201\326"
 8590      B59153A9 
 8590      5CC16B62 
 8590      97DA8C81 
 8590      D6
 8591 0011 D46EB506 		.ascii	"\324n\265\006\007\013_5k+Y\005Z\370\306V\222rv\267\235"
 8591      070B5F35 
 8591      6B2B5905 
 8591      5AF8C656 
 8591      927276B7 
 8592 0026 3597D285 		.ascii	"5\227\322\205\231\252\366.\365Hs\025\311\325;\003\006"
 8592      99AAF62E 
 8592      F5487315 
 8592      C9D53B03 
 8592      06
 8593 0037 840203CC 		.ascii	"\204\002\003\314\272\225iL\244\313T6C\3534\025{I:\212"
 8593      BA95694C 
 8593      A4CB5436 
 8593      43EB3415 
 8593      7B493A8A 
 8594 004b 65A1DD50 		.ascii	"e\241\335P\014g\323\313j\362m\247\006\233Z^Un=%\331"
 8594      0C67D3CB 
 8594      6AF26DA7 
 8594      069B5A5E 
 8594      556E3D25 
 8595 0060 D4F2B472 		.ascii	"\324\362\264r\313\252\301\246\265\226\224P\203*\015"
 8595      CBAAC1A6 
 8595      B5969450 
 8595      832A0D
 8596 006f F6C80414 		.ascii	"\366\310\004\024m\"\200\327n\006d\027\222Vn*f\352\304"
 8596      6D2280D7 
 8596      6E066417 
 8596      92566E2A 
 8596      66EAC4
 8597 0082 6D35292A 		.ascii	"m5)*\334\227;rRGX\017\177\302U\305\335\265z\206/r\231"
 8597      DC973B72 
 8597      5247580F 
 8597      7FC255C5 
 8597      DDB57A86 
 8598 0099 7B36709F 		.ascii	"{6p\237\347\021\233va\276\010\353\346\325S|e\275\013"
 8598      E7119B76 
 8598      61BE08EB 
 8598      E6D5537C 
 8598      65BD0B
 8599 00ac 3C8B78DC 		.ascii	"<\213x\334\267%t/y\315Q\276L\255k?"
 8599      B725742F 
 8599      79CD51BE 
ARM GAS  /tmp/ccONvy4E.s 			page 201


 8599      4CAD6B3F 
 8600              		.global	sp_spkvocaid5
 8601              		.section	.rodata.sp_spkvocaid5,"a"
 8602              		.align	2
 8603              		.type	sp_spkvocaid5, %object
 8604              		.size	sp_spkvocaid5, 82
 8605              	sp_spkvocaid5:
 8606 0000 0A68D92A 		.ascii	"\012h\331*@\020e\245$Z]H\255Kvr\332@\037\217\234x\205"
 8606      401065A5 
 8606      245A5D48 
 8606      AD4B7672 
 8606      DA401F8F 
 8607 0017 4AACDA69 		.ascii	"J\254\332i\244\021\035\331kq\211\323\031p\356\222\022"
 8607      A4111DD9 
 8607      6B7189D3 
 8607      1970EE92 
 8607      12
 8608 0028 8751B0DE 		.ascii	"\207Q\260\336&%v\253\340uuJh^!\363\353\224P\214`\305"
 8608      262576AB 
 8608      E075754A 
 8608      685E21F3 
 8608      EB94508C 
 8609 003e D749211A 		.ascii	"\327I!\032Q\367o\"\200`\245\012x\020\242@\003N\032<"
 8609      51F76F22 
 8609      8060A50A 
 8609      7810A240 
 8609      034E1A3C 
 8610              		.global	sp_spkvocaid4
 8611              		.section	.rodata.sp_spkvocaid4,"a"
 8612              		.align	2
 8613              		.type	sp_spkvocaid4, %object
 8614              		.size	sp_spkvocaid4, 132
 8615              	sp_spkvocaid4:
 8616 0000 A51561FC 		.ascii	"\245\025a\374Y\324ZK\226ms\251\215\036\245\313y\213"
 8616      59D45A4B 
 8616      966D73A9 
 8616      8D1EA5CB 
 8616      798B
 8617 0012 1B3D44F1 		.ascii	"\033=D\361\350\243\223\272Sn\203\253$\3674\2740}*fj"
 8617      E8A393BA 
 8617      536E83AB 
 8617      24F734BC 
 8617      307D2A66 
 8618 0027 486D3B90 		.ascii	"Hm;\220\254\001\034\010\321\225\000iT[N\3365\"\244\234"
 8618      AC011C08 
 8618      D1950069 
 8618      545B4EDE 
 8618      3522A49C 
 8619 003b 52836B58 		.ascii	"R\203kX\3339\265Z\347\364\265\263Z\323\306\035+e\214"
 8619      DB39B55A 
 8619      E7F4B5B3 
 8619      5AD3C61D 
 8619      2B658C
 8620 004e 6694368F 		.ascii	"f\2246\217j\233\335\012].\225\262\232\007\273*\270u"
 8620      6A9BDD0A 
 8620      5D2E95B2 
 8620      9A07BB2A 
ARM GAS  /tmp/ccONvy4E.s 			page 202


 8620      B875
 8621 0060 D7536E53 		.ascii	"\327SnS\314\037\201\334]\245\243\212\222\217\271Bw\014"
 8621      CC1F81DC 
 8621      5DA5A38A 
 8621      928FB942 
 8621      770C
 8622 0072 953AF794 		.ascii	"\225:\367\224\034o*e\376\273gEiK\332\265\367\001"
 8622      1C6F2A65 
 8622      FEBB6745 
 8622      694BDAB5 
 8622      F701
 8623              		.global	sp_spkvocaid3
 8624              		.section	.rodata.sp_spkvocaid3,"a"
 8625              		.align	2
 8626              		.type	sp_spkvocaid3, %object
 8627              		.size	sp_spkvocaid3, 141
 8628              	sp_spkvocaid3:
 8629 0000 6305F72E 		.ascii	"c\005\367.\321UF\367q]u\354\256\036\334\246J\333[-\330"
 8629      D15546F7 
 8629      715D75EC 
 8629      AE1EDCA6 
 8629      4ADB5B2D 
 8630 0015 0D958EBB 		.ascii	"\015\225\216\273\333*\321\254\233T\225U\242\0373\255"
 8630      DB2AD1AC 
 8630      9B549555 
 8630      A21F33AD 
 8631 0025 3A2727DB 		.ascii	":''\333\026RqVJ\2564\274\254\254\224\203Y\330X\036\251"
 8631      16527156 
 8631      4AAE34BC 
 8631      ACAC9483 
 8631      59D8581E 
 8632 003a 78D5B2B1 		.ascii	"x\325\262\261<R\315A.\0279\265\030%\262FJH\2658\273"
 8632      3C52CD41 
 8632      2E1739B5 
 8632      1825B246 
 8632      4A48B538 
 8633 004f BE3D556A 		.ascii	"\276=Uj4\011\237$\245\026\233XQVf\033\243DS\267\215"
 8633      34099F24 
 8633      A5169B58 
 8633      5156661B 
 8633      A34453B7 
 8634 0064 32560EA6 		.ascii	"2V\016\246\246ke\254\344JL'j\331Q\257\212\246\343\260"
 8634      A66B65AC 
 8634      E44A4C27 
 8634      6AD951AF 
 8634      8AA6E3B0 
 8635 0078 236F09B4 		.ascii	"#o\011\264ta;\235fdi\303\361\242\305\311\363\306\343"
 8635      74613B9D 
 8635      666469C3 
 8635      F1A2C5C9 
 8635      F3C6E3
 8636 008b CF03     		.ascii	"\317\003"
 8637              		.global	sp_spkvocaid2
 8638              		.section	.rodata.sp_spkvocaid2,"a"
 8639              		.align	2
 8640              		.type	sp_spkvocaid2, %object
 8641              		.size	sp_spkvocaid2, 149
ARM GAS  /tmp/ccONvy4E.s 			page 203


 8642              	sp_spkvocaid2:
 8643 0000 6E1AA35E 		.ascii	"n\032\243^\024\316\374\310c5\357\303\"6\332\251\301"
 8643      14CEFCC8 
 8643      6335EFC3 
 8643      2236DAA9 
 8643      C1
 8644 0011 79449CDD 		.ascii	"yD\234\335U\274\367\210\\\2711\267\222lhp\327Y5:\263"
 8644      55BCF788 
 8644      5CB931B7 
 8644      926C6870 
 8644      D759353A 
 8645 0026 D09D3D5A 		.ascii	"\320\235=ZL&\241]\205\017`\300]q\001\314t(C\327J\241"
 8645      4C26A15D 
 8645      850F60C0 
 8645      5D7101CC 
 8645      742843D7 
 8646 003c 89DB675A 		.ascii	"\211\333gZJ\3778\330\246t\214\3746\260\325\341J\377"
 8646      4AFF38D8 
 8646      A6748CFC 
 8646      36B0D5E1 
 8646      4AFF
 8647 004e 65908DC3 		.ascii	"e\220\215\303\325\346S1\223\206\035}\235\361\204\016"
 8647      D5E65331 
 8647      93861D7D 
 8647      9DF1840E 
 8648 005e 2BA73193 		.ascii	"+\2471\223qL\200R\022\034h\320F\016f\241\033\247\015"
 8648      714C8052 
 8648      121C68D0 
 8648      460E66A1 
 8648      1BA70D
 8649 0071 E7D3CAB7 		.ascii	"\347\323\312\267\312\234m{q\031\330\213\372w_\373W\245"
 8649      CA9C6D7B 
 8649      7119D88B 
 8649      FA775FFB 
 8649      57A5
 8650 0083 9FA3BE72 		.ascii	"\237\243\276r;\012\331\032\000@\000i-\011p1\355\001"
 8650      3B0AD91A 
 8650      00400069 
 8650      2D097031 
 8650      ED01
 8651              		.global	sp_spkvocaid1
 8652              		.section	.rodata.sp_spkvocaid1,"a"
 8653              		.align	2
 8654              		.type	sp_spkvocaid1, %object
 8655              		.size	sp_spkvocaid1, 94
 8656              	sp_spkvocaid1:
 8657 0000 02582DD6 		.ascii	"\002X-\326r\016.\345\025\345\246\223\262w\356\350(+"
 8657      720E2EE5 
 8657      15E5A693 
 8657      B277EEE8 
 8657      282B
 8658 0012 67EBB2D1 		.ascii	"g\353\262\321VVI\316u\242\355\354\336\226O\232\025\315"
 8658      565649CE 
 8658      75A2EDEC 
 8658      DE964F9A 
 8658      15CD
 8659 0024 649C102D 		.ascii	"d\234\020-*\333\312:>\204WN\345uB\014\317\230\312k\273"
ARM GAS  /tmp/ccONvy4E.s 			page 204


 8659      2ADBCA3A 
 8659      3E84574E 
 8659      E575420C 
 8659      CF98CA6B 
 8660 0039 1C163E51 		.ascii	"\034\026>Q\313\2629\314u\302\271\031L\232\263\3146#"
 8660      CBB239CC 
 8660      75C2B919 
 8660      4C9AB3CC 
 8660      3623
 8661 004b 99302772 		.ascii	"\2310'r\342f\215\033\306\241X\200b]\024\210\322\371"
 8661      E2668D1B 
 8661      C6A15880 
 8661      625D1488 
 8661      D2F9
 8662 005d 01       		.ascii	"\001"
 8663              		.global	sp_spkvocaid0
 8664              		.section	.rodata.sp_spkvocaid0,"a"
 8665              		.align	2
 8666              		.type	sp_spkvocaid0, %object
 8667              		.size	sp_spkvocaid0, 175
 8668              	sp_spkvocaid0:
 8669 0000 63BAF226 		.ascii	"c\272\362&\323V\317\014\356\3128g\237\021\355\225Q\316"
 8669      D356CF0C 
 8669      EECA3867 
 8669      9F11ED95 
 8669      51CE
 8670 0012 DEEDD468 		.ascii	"\336\355\324h'\235\252\362\311\321u8w\345\233V\014&"
 8670      279DAAF2 
 8670      C9D17538 
 8670      77E59B56 
 8670      0C26
 8671 0024 2C2D6AB7 		.ascii	",-j\267htY\232/JQ\352S\027[\344\222\010Of\032\305\346"
 8671      6874599A 
 8671      2F4A51EA 
 8671      53175BE4 
 8671      92084F66 
 8672 003b 50645C55 		.ascii	"Pd\\U\266\225\255*\327\021\344\033Gs\252\254$w\216\031"
 8672      B695AD2A 
 8672      D711E41B 
 8672      4773AAAC 
 8672      24778E19 
 8673 004f 4D9A7236 		.ascii	"M\232r6\013\273$#U\223WW\231\312U\213|\2356\022\273"
 8673      0BBB2423 
 8673      55935757 
 8673      99CA558B 
 8673      7C9D3612 
 8674 0064 0A88D963 		.ascii	"\012\210\331c$\276\343\024uVOrJ\271j\237Zl\251[$\276"
 8674      24BEE314 
 8674      75564F72 
 8674      4AB96A9F 
 8674      5A6CA95B 
 8675 007a 6595121C 		.ascii	"e\225\022\034K\273\026)\3111\215\227-\000\000\007*\016"
 8675      4BBB1629 
 8675      C9318D97 
 8675      2D000007 
 8675      2A0E
 8676 008c 09A09792 		.ascii	"\011\240\227\222T\252Ib\267\206\255D\021\234\021\253"
ARM GAS  /tmp/ccONvy4E.s 			page 205


 8676      54AA4962 
 8676      B786AD44 
 8676      119C11AB 
 8677 009c 534938B4 		.ascii	"SI8\264JZ\205\234q\252\253\254VY\351\360\342\231\362"
 8677      4A5A859C 
 8677      71AAABAC 
 8677      5659E9F0 
 8677      E299F2
 8678              		.global	wordlist_arcade_one
 8679              		.section	.data.wordlist_arcade_one,"aw"
 8680              		.align	2
 8681              		.type	wordlist_arcade_one, %object
 8682              		.size	wordlist_arcade_one, 248
 8683              	wordlist_arcade_one:
 8684 0000 00000000 		.word	sp_000mm
 8685 0004 00000000 		.word	sp_001mm
 8686 0008 00000000 		.word	sp_002mm
 8687 000c 00000000 		.word	sp_003mm
 8688 0010 00000000 		.word	sp_004mm
 8689 0014 00000000 		.word	sp_005mm
 8690 0018 00000000 		.word	sp_006mm
 8691 001c 00000000 		.word	sp_007mm
 8692 0020 00000000 		.word	sp_008mm
 8693 0024 00000000 		.word	sp_009mm
 8694 0028 00000000 		.word	sp_010mm
 8695 002c 00000000 		.word	sp_011mm
 8696 0030 00000000 		.word	sp_012mm
 8697 0034 00000000 		.word	sp_015mm
 8698 0038 00000000 		.word	sp_013a
 8699 003c 00000000 		.word	sp_024a
 8700 0040 00000000 		.word	sp_0022a
 8701 0044 00000000 		.word	sp_000a
 8702 0048 00000000 		.word	sp_001a
 8703 004c 00000000 		.word	sp_005a
 8704 0050 00000000 		.word	sp_006a
 8705 0054 00000000 		.word	sp_007a
 8706 0058 00000000 		.word	sp_008a
 8707 005c 00000000 		.word	sp_010a
 8708 0060 00000000 		.word	sp_011a
 8709 0064 00000000 		.word	sp_012a
 8710 0068 00000000 		.word	sp_0141a
 8711 006c 00000000 		.word	sp_014m
 8712 0070 00000000 		.word	sp_016m
 8713 0074 00000000 		.word	sp_020m
 8714 0078 00000000 		.word	sp_005m
 8715 007c 00000000 		.word	sp_007m
 8716 0080 00000000 		.word	sp_077m
 8717 0084 00000000 		.word	sp_078m
 8718 0088 00000000 		.word	sp_012m
 8719 008c 00000000 		.word	sp_015m
 8720 0090 00000000 		.word	sp_017m
 8721 0094 00000000 		.word	sp_018m
 8722 0098 00000000 		.word	sp_019m
 8723 009c 00000000 		.word	sp_0055m
 8724 00a0 00000000 		.word	sp_0033s
 8725 00a4 00000000 		.word	sp_000s
 8726 00a8 00000000 		.word	sp_002s
ARM GAS  /tmp/ccONvy4E.s 			page 206


 8727 00ac 00000000 		.word	sp_005s
 8728 00b0 00000000 		.word	sp_006s
 8729 00b4 00000000 		.word	sp_011s
 8730 00b8 00000000 		.word	sp_007s
 8731 00bc 00000000 		.word	sp_008s
 8732 00c0 00000000 		.word	sp_009s
 8733 00c4 00000000 		.word	sp_0099s
 8734 00c8 00000000 		.word	sp_010s
 8735 00cc 00000000 		.word	sp_012s
 8736 00d0 00000000 		.word	sp_013s
 8737 00d4 00000000 		.word	sp_015s
 8738 00d8 00000000 		.word	sp_b019
 8739 00dc 00000000 		.word	sp_b018
 8740 00e0 00000000 		.word	sp_b012
 8741 00e4 00000000 		.word	sp_b011
 8742 00e8 00000000 		.word	sp_b010
 8743 00ec 00000000 		.word	sp_b009
 8744 00f0 00000000 		.word	sp_013b
 8745 00f4 00000000 		.word	sp_017b
 8746              		.global	wordlist_arcade_two
 8747              		.section	.data.wordlist_arcade_two,"aw"
 8748              		.align	2
 8749              		.type	wordlist_arcade_two, %object
 8750              		.size	wordlist_arcade_two, 256
 8751              	wordlist_arcade_two:
 8752 0000 00000000 		.word	sp_parNICE2
 8753 0004 00000000 		.word	sp_parCONGRAT
 8754 0008 00000000 		.word	sp_parALERT2
 8755 000c 00000000 		.word	sp_parALERT1
 8756 0010 00000000 		.word	sp_parFIRE
 8757 0014 00000000 		.word	sp_parSHOT
 8758 0018 00000000 		.word	sp_parCOUNT
 8759 001c 00000000 		.word	sp_parFIVE
 8760 0020 00000000 		.word	sp_parFOUR
 8761 0024 00000000 		.word	sp_parTHREE
 8762 0028 00000000 		.word	sp_parTWO
 8763 002c 00000000 		.word	sp_parONE
 8764 0030 00000000 		.word	sp_parADVANCE
 8765 0034 00000000 		.word	sp_parNICE
 8766 0038 00000000 		.word	sp_parGREAT
 8767 003c 00000000 		.word	sp_parENEMY
 8768 0040 00000000 		.word	sp_parTARGET
 8769 0044 00000000 		.word	sp_parREFUEL
 8770 0048 00000000 		.word	sp_parLASER
 8771 004c 00000000 		.word	sp_parFUEL
 8772 0050 00000000 		.word	sp_parEXTRA
 8773 0054 00000000 		.word	sp_parASTEROID
 8774 0058 00000000 		.word	sp_misc0
 8775 005c 00000000 		.word	sp_misc1
 8776 0060 00000000 		.word	sp_misc2
 8777 0064 00000000 		.word	sp_misc3
 8778 0068 00000000 		.word	sp_misc4
 8779 006c 00000000 		.word	sp_misc5
 8780 0070 00000000 		.word	sp_misc6
 8781 0074 00000000 		.word	sp_misc7
 8782 0078 00000000 		.word	sp_misc8
 8783 007c 00000000 		.word	sp_misc9
ARM GAS  /tmp/ccONvy4E.s 			page 207


 8784 0080 00000000 		.word	sp_misc10
 8785 0084 00000000 		.word	sp_misc11
 8786 0088 00000000 		.word	sp_misc14
 8787 008c 00000000 		.word	sp_misc16
 8788 0090 00000000 		.word	sp_misc17
 8789 0094 00000000 		.word	sp_misc18
 8790 0098 00000000 		.word	sp_misc19
 8791 009c 00000000 		.word	sp_misc20
 8792 00a0 00000000 		.word	sp_misc21
 8793 00a4 00000000 		.word	sp_misc22
 8794 00a8 00000000 		.word	sp_misc23
 8795 00ac 00000000 		.word	sp_misc24
 8796 00b0 00000000 		.word	sp_misc25
 8797 00b4 00000000 		.word	sp_misc26
 8798 00b8 00000000 		.word	sp_misc27
 8799 00bc 00000000 		.word	sp_misc28
 8800 00c0 00000000 		.word	sp_tron0
 8801 00c4 00000000 		.word	sp_tron1
 8802 00c8 00000000 		.word	sp_tron2
 8803 00cc 00000000 		.word	sp_tron3
 8804 00d0 00000000 		.word	sp_tron4
 8805 00d4 00000000 		.word	sp_tron5
 8806 00d8 00000000 		.word	sp_tron6
 8807 00dc 00000000 		.word	sp_tron7
 8808 00e0 00000000 		.word	sp_tron8
 8809 00e4 00000000 		.word	sp_tron9
 8810 00e8 00000000 		.word	sp_tron10
 8811 00ec 00000000 		.word	sp_tron11
 8812 00f0 00000000 		.word	sp_tron12
 8813 00f4 00000000 		.word	sp_tron13
 8814 00f8 00000000 		.word	sp_tron14
 8815 00fc 00000000 		.word	sp_tron15
 8816              		.global	wordlist_alphons
 8817              		.section	.data.wordlist_alphons,"aw"
 8818              		.align	2
 8819              		.type	wordlist_alphons, %object
 8820              		.size	wordlist_alphons, 508
 8821              	wordlist_alphons:
 8822 0000 00000000 		.word	sp_alphon1
 8823 0004 00000000 		.word	sp_alphon2
 8824 0008 00000000 		.word	sp_alphon3
 8825 000c 00000000 		.word	sp_alphon4
 8826 0010 00000000 		.word	sp_alphon5
 8827 0014 00000000 		.word	sp_alphon6
 8828 0018 00000000 		.word	sp_alphon7
 8829 001c 00000000 		.word	sp_alphon8
 8830 0020 00000000 		.word	sp_alphon9
 8831 0024 00000000 		.word	sp_alphon10
 8832 0028 00000000 		.word	sp_alphon11
 8833 002c 00000000 		.word	sp_alphon12
 8834 0030 00000000 		.word	sp_alphon13
 8835 0034 00000000 		.word	sp_alphon14
 8836 0038 00000000 		.word	sp_alphon15
 8837 003c 00000000 		.word	sp_alphon16
 8838 0040 00000000 		.word	sp_alphon17
 8839 0044 00000000 		.word	sp_alphon18
 8840 0048 00000000 		.word	sp_alphon19
ARM GAS  /tmp/ccONvy4E.s 			page 208


 8841 004c 00000000 		.word	sp_alphon20
 8842 0050 00000000 		.word	sp_alphon21
 8843 0054 00000000 		.word	sp_alphon22
 8844 0058 00000000 		.word	sp_alphon23
 8845 005c 00000000 		.word	sp_alphon24
 8846 0060 00000000 		.word	sp_alphon25
 8847 0064 00000000 		.word	sp_alphon26
 8848 0068 00000000 		.word	sp_alphon27
 8849 006c 00000000 		.word	sp_alphon28
 8850 0070 00000000 		.word	sp_alphon29
 8851 0074 00000000 		.word	sp_alphon30
 8852 0078 00000000 		.word	sp_alphon31
 8853 007c 00000000 		.word	sp_alphon32
 8854 0080 00000000 		.word	sp_alphon33
 8855 0084 00000000 		.word	sp_alphon34
 8856 0088 00000000 		.word	sp_alphon35
 8857 008c 00000000 		.word	sp_alphon36
 8858 0090 00000000 		.word	sp_alphon37
 8859 0094 00000000 		.word	sp_alphon38
 8860 0098 00000000 		.word	sp_alphon39
 8861 009c 00000000 		.word	sp_alphon40
 8862 00a0 00000000 		.word	sp_alphon41
 8863 00a4 00000000 		.word	sp_alphon42
 8864 00a8 00000000 		.word	sp_alphon43
 8865 00ac 00000000 		.word	sp_alphon44
 8866 00b0 00000000 		.word	sp_alphon45
 8867 00b4 00000000 		.word	sp_alphon46
 8868 00b8 00000000 		.word	sp_alphon47
 8869 00bc 00000000 		.word	sp_alphon48
 8870 00c0 00000000 		.word	sp_alphon49
 8871 00c4 00000000 		.word	sp_alphon50
 8872 00c8 00000000 		.word	sp_alphon51
 8873 00cc 00000000 		.word	sp_alphon52
 8874 00d0 00000000 		.word	sp_alphon53
 8875 00d4 00000000 		.word	sp_alphon54
 8876 00d8 00000000 		.word	sp_alphon55
 8877 00dc 00000000 		.word	sp_alphon56
 8878 00e0 00000000 		.word	sp_alphon57
 8879 00e4 00000000 		.word	sp_alphon58
 8880 00e8 00000000 		.word	sp_alphon59
 8881 00ec 00000000 		.word	sp_alphon60
 8882 00f0 00000000 		.word	sp_alphon61
 8883 00f4 00000000 		.word	sp_alphon62
 8884 00f8 00000000 		.word	sp_alphon63
 8885 00fc 00000000 		.word	sp_alphon64
 8886 0100 00000000 		.word	sp_alphon65
 8887 0104 00000000 		.word	sp_alphon66
 8888 0108 00000000 		.word	sp_alphon67
 8889 010c 00000000 		.word	sp_alphon68
 8890 0110 00000000 		.word	sp_alphon69
 8891 0114 00000000 		.word	sp_alphon70
 8892 0118 00000000 		.word	sp_alphon71
 8893 011c 00000000 		.word	sp_alphon72
 8894 0120 00000000 		.word	sp_alphon73
 8895 0124 00000000 		.word	sp_alphon74
 8896 0128 00000000 		.word	sp_alphon75
 8897 012c 00000000 		.word	sp_alphon76
ARM GAS  /tmp/ccONvy4E.s 			page 209


 8898 0130 00000000 		.word	sp_alphon77
 8899 0134 00000000 		.word	sp_alphon78
 8900 0138 00000000 		.word	sp_alphon79
 8901 013c 00000000 		.word	sp_alphon80
 8902 0140 00000000 		.word	sp_alphon81
 8903 0144 00000000 		.word	sp_alphon82
 8904 0148 00000000 		.word	sp_alphon83
 8905 014c 00000000 		.word	sp_alphon84
 8906 0150 00000000 		.word	sp_alphon85
 8907 0154 00000000 		.word	sp_alphon86
 8908 0158 00000000 		.word	sp_alphon87
 8909 015c 00000000 		.word	sp_alphon88
 8910 0160 00000000 		.word	sp_alphon89
 8911 0164 00000000 		.word	sp_alphon90
 8912 0168 00000000 		.word	sp_alphon91
 8913 016c 00000000 		.word	sp_alphon92
 8914 0170 00000000 		.word	sp_alphon93
 8915 0174 00000000 		.word	sp_alphon94
 8916 0178 00000000 		.word	sp_alphon95
 8917 017c 00000000 		.word	sp_alphon96
 8918 0180 00000000 		.word	sp_alphon97
 8919 0184 00000000 		.word	sp_alphon98
 8920 0188 00000000 		.word	sp_alphon99
 8921 018c 00000000 		.word	sp_alphon100
 8922 0190 00000000 		.word	sp_alphon101
 8923 0194 00000000 		.word	sp_alphon102
 8924 0198 00000000 		.word	sp_alphon103
 8925 019c 00000000 		.word	sp_alphon104
 8926 01a0 00000000 		.word	sp_alphon105
 8927 01a4 00000000 		.word	sp_alphon106
 8928 01a8 00000000 		.word	sp_alphon107
 8929 01ac 00000000 		.word	sp_alphon108
 8930 01b0 00000000 		.word	sp_alphon109
 8931 01b4 00000000 		.word	sp_alphon110
 8932 01b8 00000000 		.word	sp_alphon111
 8933 01bc 00000000 		.word	sp_alphon112
 8934 01c0 00000000 		.word	sp_alphon113
 8935 01c4 00000000 		.word	sp_alphon114
 8936 01c8 00000000 		.word	sp_alphon115
 8937 01cc 00000000 		.word	sp_alphon116
 8938 01d0 00000000 		.word	sp_alphon117
 8939 01d4 00000000 		.word	sp_alphon118
 8940 01d8 00000000 		.word	sp_alphon119
 8941 01dc 00000000 		.word	sp_alphon120
 8942 01e0 00000000 		.word	sp_alphon121
 8943 01e4 00000000 		.word	sp_alphon122
 8944 01e8 00000000 		.word	sp_alphon123
 8945 01ec 00000000 		.word	sp_alphon124
 8946 01f0 00000000 		.word	sp_alphon125
 8947 01f4 00000000 		.word	sp_alphon126
 8948 01f8 00000000 		.word	sp_alphon127
 8949              		.global	sp_tron15
 8950              		.section	.rodata.sp_tron15,"a"
 8951              		.align	2
 8952              		.type	sp_tron15, %object
 8953              		.size	sp_tron15, 254
 8954              	sp_tron15:
ARM GAS  /tmp/ccONvy4E.s 			page 210


 8955 0000 0C882583 		.ascii	"\014\210%\203\001\261\2453 \2140\006\204\231\226\334"
 8955      01B1A533 
 8955      208C3006 
 8955      849996DC 
 8956 0010 E04A8C55 		.ascii	"\340J\214Ur\263T\011wIZGsm\244,E\035\325\325\225\326"
 8956      72B35409 
 8956      77495A47 
 8956      736DA42C 
 8956      451DD5D5 
 8957 0026 90BC7457 		.ascii	"\220\274tW\263\3036\3311C\357r\255\270\313\262\275<"
 8957      B3C336D9 
 8957      3143EF72 
 8957      ADB8CBB2 
 8957      BD3C
 8958 0038 22292540 		.ascii	"\")%@\272P\005Xg*\200h\213\234\236\362Hz\244M\272\353"
 8958      BA500558 
 8958      672A8068 
 8958      8B9C9EF2 
 8958      487AA44D 
 8959 004e A9A99D3D 		.ascii	"\251\251\235=\031.-\271\271\242c\270\360bY\012\217\021"
 8959      192E2DB9 
 8959      B9A263B8 
 8959      F062590A 
 8959      8F11
 8960 0060 FC3567B8 		.ascii	"\3745g\270>V\210W\226\3528\001\";)@g\005\006\350\020"
 8960      3E568857 
 8960      96EA3801 
 8960      223B2940 
 8960      670506E8 
 8961 0075 44009B8D 		.ascii	"D\000\233\215\010\340F0\003\\+\023\200\030\"\307\212"
 8961      08E04630 
 8961      035C2B13 
 8961      801822C7 
 8961      8A
 8962 0086 E1CD3C59 		.ascii	"\341\315<Y\035+\372+\263T\275\034\227O<\223e\000\224"
 8962      1D2BFA2B 
 8962      B354BD1C 
 8962      974F3C93 
 8962      650094
 8963 0099 0F228088 		.ascii	"\017\"\200\210\006\004\320\321\311\205\311_\271\246"
 8963      0604D0D1 
 8963      C985C95F 
 8963      B9A6
 8964 00a7 AC15B972 		.ascii	"\254\025\271r\354\351,\217\023\355\265\370\262=nt\333"
 8964      ECE92C8F 
 8964      13EDB5F8 
 8964      B23D6E74 
 8964      DB
 8965 00b8 1AADF6B8 		.ascii	"\032\255\366\270\311\274\253.\343b\247\260\026\342\210"
 8965      C9BCAB2E 
 8965      E362A7B0 
 8965      16E288
 8966 00c7 0820BC03 		.ascii	"\010 \274\003\002l\014@\200\213\011\301\327u\251\323"
 8966      026C0C40 
 8966      808B09C1 
 8966      D775A9D3 
 8967 00d7 148EC0D6 		.ascii	"\024\216\300\3263\251d\264\242\340\2568\233\356\216"
ARM GAS  /tmp/ccONvy4E.s 			page 211


 8967      33A964B4 
 8967      A2E0AE38 
 8967      9BEE8E
 8968 00e6 5A54E486 		.ascii	"ZT\344\206R\301rar\035\306\301\020\001\330\004#@\004"
 8968      52C17261 
 8968      721DC6C1 
 8968      1001D804 
 8968      234004
 8969 00f9 2304485D 		.ascii	"#\004H]\362"
 8969      F2
 8970              		.global	sp_tron14
 8971              		.section	.rodata.sp_tron14,"a"
 8972              		.align	2
 8973              		.type	sp_tron14, %object
 8974              		.size	sp_tron14, 405
 8975              	sp_tron14:
 8976 0000 45742135 		.ascii	"Et!5<\026\015-\332Pu\261\030\000\327D\013\020gx\002"
 8976      3C160D2D 
 8976      DA5075B1 
 8976      1800D744 
 8976      0B106778 
 8977 0015 E20D4B40 		.ascii	"\342\015K@\334\341\011\210'md\361\214\207y\266\021\305"
 8977      DCE10988 
 8977      276D64F1 
 8977      8C8779B6 
 8977      11C5
 8978 0027 B9E16AE9 		.ascii	"\271\341j\351\023\020fx\002\342\010O@\330\341\011\010"
 8978      13106678 
 8978      02E2084F 
 8978      40D8E109 
 8978      08
 8979 0038 C323006E 		.ascii	"\303#\000nX\004\300M\213\01043\3140\313\3666\214\370"
 8979      5804C04D 
 8979      8B083433 
 8979      CC30CBF6 
 8979      368CF8
 8980 004b 2ADCDA75 		.ascii	"*\334\332u\313\302KK_o\253\210/\302\255\335\0157\276"
 8980      CBC24B4B 
 8980      5F6FAB88 
 8980      2FC2ADDD 
 8980      0D37BE
 8981 005e 708FF6D6 		.ascii	"p\217\366\326\214\370\322B\317]\211\302\016K\177g\303"
 8981      8CF8D242 
 8981      CF5D89C2 
 8981      0E4B7F67 
 8981      C3
 8982 006f 703D2A2C 		.ascii	"p=*,$-\325\215\260\2600}\224\230\313\303\334\366QC\017"
 8982      242DD58D 
 8982      B0B0307D 
 8982      9498CBC3 
 8982      DCF65143 
 8983 0084 0F2BCBC9 		.ascii	"\017+\313\311\211#\314\265M\0253<\323\211\237\233\224"
 8983      8923CCB5 
 8983      4D15333C 
 8983      D3899F9B 
 8983      94
 8984 0095 F05C266E 		.ascii	"\360\\&n~Q\3023\235\270eAq\303=\355\327/3\224\260\322"
ARM GAS  /tmp/ccONvy4E.s 			page 212


 8984      7E51C233 
 8984      9DB86541 
 8984      71C33DED 
 8984      D72F3394 
 8985 00ab 8C347457 		.ascii	"\2144tWJ;|p\212b\011/\012\273\245v\315;\344\022\037"
 8985      4A3B7C70 
 8985      8A62092F 
 8985      0ABBA576 
 8985      CD3BE412 
 8986 00c0 DF0D8FF4 		.ascii	"\337\015\217\364\264t\364\260\243\334r\3211\322\264"
 8986      B474F4B0 
 8986      A3DC72D1 
 8986      31D2B4
 8987 00cf 336BC547 		.ascii	"3k\305G\015#\"5L+\300UQ\001\330\250-\000Wu\030`\253"
 8987      0D232235 
 8987      4C2BC055 
 8987      5101D8A8 
 8987      2D005775 
 8988 00e6 4FB3EDF0 		.ascii	"O\263\355\360N/\251K\213;&\264\275\0365\354\210\344"
 8988      4E2FA94B 
 8988      8B3B26B4 
 8988      BD1E35EC 
 8988      88E4
 8989 00f8 535C9412 		.ascii	"S\\\224\022:8U\001\003t\300 @\314\024\004\210\303\032"
 8989      3A385501 
 8989      0374C020 
 8989      40CC1404 
 8989      88C31A
 8990 010b 01717B08 		.ascii	"\001q{\010@O\351\241\207\035\221\322\311\216\036f\224"
 8990      404FE9A1 
 8990      871D91D2 
 8990      C98E1E66 
 8990      94
 8991 011c EBBA2E41 		.ascii	"\353\272.A,\243jjJyq\266\012\220e\344u]\252\2141\000"
 8991      2CA36A6A 
 8991      4A7971B6 
 8991      0A9065E4 
 8991      755DAA8C 
 8992 0132 10A0A67B 		.ascii	"\020\240\246{\321S8k\365e'\0103\265\344\355\2720\305"
 8992      D153386B 
 8992      F5652708 
 8992      33B5E4ED 
 8992      BA30C5
 8993 0145 75159589 		.ascii	"u\025\225\211\302\256K\2251\006\000  \224d\244\316\322"
 8993      C2AE4B95 
 8993      31060020 
 8993      209464A4 
 8993      CED2
 8994 0157 1A9CB297 		.ascii	"\032\234\262\227\036\323z\313\272\035Q\314'\226nQ\205"
 8994      1ED37ACB 
 8994      BA1D51CC 
 8994      27966E51 
 8994      85
 8995 0168 25AC18A8 		.ascii	"%\254\030\250e\024v]\252\2141\000\000\000\004\240w\331"
 8995      6514765D 
 8995      AA8C3100 
 8995      000004A0 
ARM GAS  /tmp/ccONvy4E.s 			page 213


 8995      77D9
 8996 017a 08927FF7 		.ascii	"\010\222\177\367\214\304'N\3414\303l\231(\245S\013\025"
 8996      8CC4274E 
 8996      E134C36C 
 8996      9928A553 
 8996      0B15
 8997 018c 8500E995 		.ascii	"\205\000\351\225\020\240\235\311\377"
 8997      10A09DC9 
 8997      FF
 8998              		.global	sp_tron13
 8999              		.section	.rodata.sp_tron13,"a"
 9000              		.align	2
 9001              		.type	sp_tron13, %object
 9002              		.size	sp_tron13, 418
 9003              	sp_tron13:
 9004 0000 0808DE02 		.ascii	"\010\010\336\002\001\301\225! \0043\002\304\024\306"
 9004      01C19521 
 9004      20043302 
 9004      C414C6
 9005 000f 8010FD08 		.ascii	"\200\020\375\010`{N\322e\016sJ\247E\325AZ\304\264%G"
 9005      607B4ED2 
 9005      650E734A 
 9005      A745D541 
 9005      5AC4B425 
 9006 0024 7B6D2367 		.ascii	"{m#gV\\\235\274\231\235m1T\262J4\271\305\220\331\303"
 9006      565C9DBC 
 9006      999D6D31 
 9006      54B24A34 
 9006      B9C590D9 
 9007 0039 C91597C0 		.ascii	"\311\025\227\300z\217\020\2647\002\347\322, \3660\\"
 9007      7A8F10B4 
 9007      3702E7D2 
 9007      2C20F630 
 9007      5C
 9008 004a 08CDC0A9 		.ascii	"\010\315\300\251Ks\266M\212\022\017-\270R\017\231d\000"
 9008      4B73B64D 
 9008      8A120F2D 
 9008      B8520F99 
 9008      6400
 9009 005c 99C80AC0 		.ascii	"\231\310\012\300K\330\321\203-\263\224\331G\013\266"
 9009      4BD8D183 
 9009      2DB394D9 
 9009      470BB6
 9010 006b CD52620F 		.ascii	"\315Rb\017=\204R\013\235\324\262\020\302R-\362I\243"
 9010      3D84520B 
 9010      9DD4B210 
 9010      C2522DF2 
 9010      49A3
 9011 007d 29D79259 		.ascii	")\327\222YG\215.-R.\035%\2062\015\235e\000\226\335\034"
 9011      478D2E2D 
 9011      522E1D25 
 9011      86320D9D 
 9011      650096DD 
 9012 0092 6093F972 		.ascii	"`\223\371r\235+\267\262YG\0151\"-&\0355\344p\017\237"
 9012      9D2BB7B2 
 9012      59470D31 
 9012      222D261D 
ARM GAS  /tmp/ccONvy4E.s 			page 214


 9012      35E4700F 
 9013 00a7 6C0056AC 		.ascii	"l\000V\254\014\240\275\326\262]\012\217\214YW\035\212"
 9013      0CA0BDD6 
 9013      B25D0A8F 
 9013      8C59571D 
 9013      8A
 9014 00b8 8D151D31 		.ascii	"\215\025\0351z\251\256\271\245\265e\003\330\242\026"
 9014      7AA9AEB9 
 9014      A5B56503 
 9014      D8A216
 9015 00c7 B454DB9B 		.ascii	"\264T\333\233\226\256\321R\215\030*[\303\264%\252=\255"
 9015      96AED152 
 9015      8D182A5B 
 9015      C3B425AA 
 9015      3DAD
 9016 00d9 2EC5D688 		.ascii	".\305\326\210\266\262<4\327\334[\226\264\001\\SU@\250"
 9016      B6B23C34 
 9016      D7DC5B96 
 9016      B4015C53 
 9016      5540A8
 9017 00ec 5E428831 		.ascii	"^B\2101<-\031\025E\217\322\2510\267\024\327\303\312"
 9017      3C2D1915 
 9017      458FD2A9 
 9017      30B714D7 
 9017      C3CA
 9018 00fe D7B69342 		.ascii	"\327\266\223B*I.\242\012\260\305\214\000.\246\272@\267"
 9018      2A492EA2 
 9018      0AB0C58C 
 9018      002EA6BA 
 9018      40B7
 9019 0110 F2F2B23B 		.ascii	"\362\362\262;\"W\323\313:\3520]K\231H\253N\210\271$"
 9019      2257D3CB 
 9019      3AEA305D 
 9019      4B9948AB 
 9019      4E88B924 
 9020 0124 A0443B31 		.ascii	"\240D;1\215,\247\223I\000WB\020\240{F\022\\)-\353hK"
 9020      8D2CA793 
 9020      49005742 
 9020      10A07B46 
 9020      125C292D 
 9021 013b B1B975AC 		.ascii	"\261\271u\254\254:#\332\322\302\020\313\000\035D\021"
 9021      AC3A23DA 
 9021      D2C210CB 
 9021      001D4411 
 9022 014b E07C0051 		.ascii	"\340|\000Q\243\351\352HYNt-\255\355\255-\305\305\266"
 9022      A3E9EA48 
 9022      594E742D 
 9022      ADEDAD2D 
 9022      C5C5B6
 9023 015e D1B66C8C 		.ascii	"\321\266l\214\230\233\222J\022\002\270SC\200u\306\004"
 9023      989B924A 
 9023      1202B853 
 9023      438075C6 
 9023      04
 9024 016f 0822A4E8 		.ascii	"\010\"\244\350\266\247\267\226\324\242\2078\334\\b\221"
 9024      B6A7B796 
 9024      D4A28738 
ARM GAS  /tmp/ccONvy4E.s 			page 215


 9024      DC5C6291 
 9025 017f 1E7B884A 		.ascii	"\036{\210JJb\2005\301\002\320RL\311\266\264\217\265"
 9025      4A628035 
 9025      C102D052 
 9025      4CC9B6B4 
 9025      8FB5
 9026 0191 E3A1B91E 		.ascii	"\343\241\271\036\336\276T\263\306\324P\223\305\202\022"
 9026      DEBE54B3 
 9026      C6D45093 
 9026      C58212
 9027 01a0 57FF     		.ascii	"W\377"
 9028              		.global	sp_tron12
 9029              		.section	.rodata.sp_tron12,"a"
 9030              		.align	2
 9031              		.type	sp_tron12, %object
 9032              		.size	sp_tron12, 406
 9033              	sp_tron12:
 9034 0000 08083215 		.ascii	"\010\0102\025\001\305\207\012\240\324\014\005\244\026"
 9034      01C5870A 
 9034      A0D40C05 
 9034      A416
 9035 000e 2D8038BC 		.ascii	"-\2008\274\213j\255ij\312ml\210\306\351\245j\320\321"
 9035      8B6AAD69 
 9035      6ACA6D6C 
 9035      88C6E9A5 
 9035      6AD0D1
 9036 0021 05A587A3 		.ascii	"\005\245\207\243A\007\347\352\031\252\032o\235Z\251"
 9036      4107E7EA 
 9036      19AA1A6F 
 9036      9D5AA9
 9037 0030 33358072 		.ascii	"35\200r\330\311/\333L\334I7\323&\213\020\225\272d\227"
 9037      D8C92FDB 
 9037      4CDC4937 
 9037      D3268B10 
 9037      95BA6497 
 9038 0044 CB4D29EE 		.ascii	"\313M)\356\022\\\016K\245\245Kt\265\"\024\323:\300&"
 9038      125C0E4B 
 9038      A5A54B74 
 9038      B52214D3 
 9038      3AC026
 9039 0057 AD048466 		.ascii	"\255\004\204fW\000\231\303\217\352B\273\270\256=R0\021"
 9039      570099C3 
 9039      8FEA42BB 
 9039      B8AE3D52 
 9039      3011
 9040 0069 5992F508 		.ascii	"Y\222\365\010.\224\207\352\332\245\204\030\025&i\035"
 9040      2E9487EA 
 9040      DAA58418 
 9040      1526691D 
 9041 0079 108B5E01 		.ascii	"\020\213^\001t\212:Z\014\021\341\230\375\310\301DeI"
 9041      748A3A5A 
 9041      0C11E198 
 9041      FDC8C144 
 9041      6549
 9042 008b F625D89C 		.ascii	"\366%\330\234\341\032\357\226\030\222w(\2555\200N>K"
 9042      E11AEF96 
 9042      18927728 
ARM GAS  /tmp/ccONvy4E.s 			page 216


 9042      AD35804E 
 9042      3E4B
 9043 009d 8B21DA82 		.ascii	"\213!\332\202\334\0365F\253p\314v$g\243\3325\373\021"
 9043      DC1E3546 
 9043      AB70CC76 
 9043      2467A3DA 
 9043      35FB11
 9044 00b0 5CA87095 		.ascii	"\\\250p\225\255G\2141\252\224\262\032@\247\264\243\306"
 9044      AD478C31 
 9044      AA94B21A 
 9044      40A7B4A3 
 9044      C6
 9045 00c1 90152AD9 		.ascii	"\220\025*\331\216\222|x:\346=bT\031]\224\357\360\301"
 9045      8E927C78 
 9045      3AE63D62 
 9045      54195D94 
 9045      EFF0C1
 9046 00d4 5694E9DF 		.ascii	"V\224\351\337#E\237\221J\231\003 K\304\321c\310r\023"
 9046      23459F91 
 9046      4A990320 
 9046      4BC4D163 
 9046      C87213
 9047 00e7 BF472D36 		.ascii	"\277G-6+\234\374\035)\211j\311\310z\204\"\253,4\357"
 9047      2B9CFC1D 
 9047      29896AC9 
 9047      C87A8422 
 9047      AB2C34EF 
 9048 00fb 9163A872 		.ascii	"\221c\250r\243\314C\014.\242]s\037)\206\214P\311|\344"
 9048      A3CC430C 
 9048      2EA25D73 
 9048      1F29868C 
 9048      50C97CE4 
 9049 010f 62AACC29 		.ascii	"b\252\314)\363\021\222.O\327\334\207\217\246=\3152\017"
 9049      F311922E 
 9049      4FD7DC87 
 9049      8FA63DCD 
 9049      320F
 9050 0121 29C6AC30 		.ascii	")\306\2540\311\234\000]\242\022\240S\306\220b\030w\325"
 9050      C99C005D 
 9050      A212A053 
 9050      C6906218 
 9050      77D5
 9051 0133 55874FAE 		.ascii	"U\207O\256<\314V\037\276\330\261VMu\244\342+\3225Sa"
 9051      3CCC561F 
 9051      BED8B156 
 9051      4D75A4E2 
 9051      2BD23553 
 9052 0148 43CE08CD 		.ascii	"C\316\010\315XK\215.#\3022\035%\372\265\261L}\344\036"
 9052      584B8D2E 
 9052      23C2321D 
 9052      25FAB5B1 
 9052      4C7DE41E 
 9053 015c AA325DEB 		.ascii	"\2522]\353Q\212\353\262\010\257G\215\241\3033\322\006"
 9053      518AEBB2 
 9053      08AF478D 
 9053      A1C333D2 
 9053      06
ARM GAS  /tmp/ccONvy4E.s 			page 217


 9054 016d 400FF3A5 		.ascii	"@\017\363\245\2078a\225\351\226V\334Fdz\033Z\312UQ\236"
 9054      87386195 
 9054      E99656DC 
 9054      46647A1B 
 9054      5ACA5551 
 9055 0182 B5A9B145 		.ascii	"\265\251\261E\245\231T\245\306\236Uf$\231\332\315\331"
 9055      A59954A5 
 9055      C69E5566 
 9055      2499DACD 
 9055      D9
 9056 0193 B890FA   		.ascii	"\270\220\372"
 9057              		.global	sp_tron11
 9058              		.section	.rodata.sp_tron11,"a"
 9059              		.align	2
 9060              		.type	sp_tron11, %object
 9061              		.size	sp_tron11, 118
 9062              	sp_tron11:
 9063 0000 5E4A25C0 		.ascii	"^J%\300\261\245+\232y$Li\217h\320r\346\362\276\302B"
 9063      B1A52B9A 
 9063      79244C69 
 9063      8F68D072 
 9063      E6F2BEC2 
 9064 0015 CAD53AF7 		.ascii	"\312\325:\367\011K\217\010\314d'\250\333\335\270\323"
 9064      094B8F08 
 9064      CC6427A8 
 9064      DBDDB8D3 
 9065 0025 1EBFDE32 		.ascii	"\036\277\3362\303L{\274z'\024\302\355q\373)%L\257\307"
 9065      C34C7BBC 
 9065      7A2714C2 
 9065      ED71FB29 
 9065      254CAFC7 
 9066 0039 EDB795A0 		.ascii	"\355\267\225\240\274\036\267\337`\344\316z\234~\202"
 9066      BC1EB7DF 
 9066      60E4CE7A 
 9066      9C7E82
 9067 0048 983BEDB1 		.ascii	"\230;\355\261\372\013!\210d\303\254\325\305I\035\027"
 9067      FA0B2188 
 9067      64C3ACD5 
 9067      C5491D17 
 9068 0058 B338B710 		.ascii	"\2638\267\020d\024\014\247B\203Iq0\0221UW\305\006\220"
 9068      64140CA7 
 9068      42834971 
 9068      30123155 
 9068      57C50690 
 9069 006c 224C00D6 		.ascii	"\"L\000\3269#@y\243\377"
 9069      39234079 
 9069      A3FF
 9070              		.global	sp_tron10
 9071              		.section	.rodata.sp_tron10,"a"
 9072              		.align	2
 9073              		.type	sp_tron10, %object
 9074              		.size	sp_tron10, 159
 9075              	sp_tron10:
 9076 0000 0808D495 		.ascii	"\010\010\324\225\000\211\0333\240\346\362\025\365T\346"
 9076      00891B33 
 9076      A0E6F215 
 9076      F554E6
ARM GAS  /tmp/ccONvy4E.s 			page 218


 9077 000f E6324F90 		.ascii	"\3462O\220|Ex\305:n\262U\231\233\370\330\335\245\273"
 9077      7C4578C5 
 9077      3A6EB255 
 9077      999BF8D8 
 9077      DDA5BB
 9078 0022 55E26B2F 		.ascii	"U\342k/w\330\010\326\210\207\202\240K\2251\306\362\247"
 9078      77D808D6 
 9078      888782A0 
 9078      4B9531C6 
 9078      F2A7
 9079 0034 6F6355AF 		.ascii	"ocU\257\313\033\261\215\315\362\035o\270T\316\364{\275"
 9079      CB1BB18D 
 9079      CDF21D6F 
 9079      B854CEF4 
 9079      7BBD
 9080 0046 E30F93C2 		.ascii	"\343\017\223\302V\352V\224ph\224\251^Q\301n\266\342"
 9080      56EA5694 
 9080      706894A9 
 9080      5E51C16E 
 9080      B6E2
 9081 0058 6A472B8C 		.ascii	"jG+\21484Z5\035\257\272\0215S}\234\352&<\322\351\261"
 9081      38345A35 
 9081      1DAFBA11 
 9081      35537D9C 
 9081      EA263CD2 
 9082 006e 8AAB766F 		.ascii	"\212\253vo\247\327\\F5\325\245mw\351Eo\207\247\323\255"
 9082      A7D75C46 
 9082      35D5A56D 
 9082      77E9456F 
 9082      87A7D3AD 
 9083 0082 15AD9B32 		.ascii	"\025\255\2332W\265\205\200 C\004\020]\230\002\202I\027"
 9083      57B58580 
 9083      20430410 
 9083      5D980282 
 9083      4917
 9084 0094 80536102 		.ascii	"\200Sa\002\010\312\225\0011\206\375"
 9084      08CA9501 
 9084      3186FD
 9085              		.global	sp_tron9
 9086              		.section	.rodata.sp_tron9,"a"
 9087              		.align	2
 9088              		.type	sp_tron9, %object
 9089              		.size	sp_tron9, 421
 9090              	sp_tron9:
 9091 0000 A6720A66 		.ascii	"\246r\012f\314\225\206JK\272\261P\353\213R\004\015S"
 9091      CC95864A 
 9091      4BBAB150 
 9091      EB8B5204 
 9091      0D53
 9092 0012 A5AA5B16 		.ascii	"\245\252[\026\015\\\2278-q\2640\323\242\254\205%@u\273"
 9092      0D5C9738 
 9092      2D71B430 
 9092      D3A2AC85 
 9092      254075BB 
 9093 0026 D2131627 		.ascii	"\322\023\026'\032\222\263\217WR\272H^>NL\021R\033\367"
 9093      1A92B38F 
 9093      5752BA48 
ARM GAS  /tmp/ccONvy4E.s 			page 219


 9093      5E3E4E4C 
 9093      11521BF7 
 9094 003a B8294573 		.ascii	"\270)Es\364\334\343\305\030-\325\323\216\237B\214xM"
 9094      F4DCE3C5 
 9094      182DD5D3 
 9094      8E9F428C 
 9094      784D
 9095 004c 3B7E8CD1 		.ascii	";~\214\321\022\025\365\004\301\307h\324\324\023\306"
 9095      1215F504 
 9095      C1C768D4 
 9095      D413C6
 9096 005b 10AD9EE7 		.ascii	"\020\255\236\347N\024}\264Y\\=Q\360\331\032~\365\304"
 9096      4E147DB4 
 9096      595C3D51 
 9096      F0D91A7E 
 9096      F5C4
 9097 006d C1479BF9 		.ascii	"\301G\233\371\325\223\004\227\255\246\267O\032m\264"
 9097      D5930497 
 9097      ADA6B74F 
 9097      1A6DB4
 9098 007c A8BC5A59 		.ascii	"\250\274ZY\262\321&\370x\345IE\233\342\352Ut\245c\016"
 9098      B2D126F8 
 9098      78E54945 
 9098      9BE2EA55 
 9098      74A5630E 
 9099 0090 594751A5 		.ascii	"YGQ\245u8dmU\341>\256\2609U\221\372\204\301\352T\007"
 9099      7538646D 
 9099      55E13EAE 
 9099      B0395591 
 9099      FA84C1EA 
 9100 00a6 1E130A6B 		.ascii	"\036\023\012kC\255u\215\023\275u\255\322=\302\362\012"
 9100      43AD758D 
 9100      13BD75AD 
 9100      D23DC2F2 
 9100      0A
 9101 00b7 B541972A 		.ascii	"\265A\227*c\014\000\000\000\000\000\000\010\200\223"
 9101      630C0000 
 9101      00000000 
 9101      088093
 9102 00c6 AA231B39 		.ascii	"\252#\0339M\330T\236\244\217Pb_}\223\223\366\021\206"
 9102      4DD8549E 
 9102      A48F5062 
 9102      5F7D9393 
 9102      F61186
 9103 00d9 BA4957D6 		.ascii	"\272IW\326G\030\342\306vU\211\012,\027\025U]\227*c\014"
 9103      4718E2C6 
 9103      7655890A 
 9103      2C171555 
 9103      5D972A63 
 9104 00ee 0007CC52 		.ascii	"\000\007\314R&\200S\312\020\322u\2512\306\000\000P\000"
 9104      268053CA 
 9104      10D275A9 
 9104      32C60000 
 9104      5000
 9105 0100 4BE5AAE5 		.ascii	"K\345\252\345&,\322\324\225\334fS7e\327\222\260\265"
 9105      262CD2D4 
 9105      95DC6653 
ARM GAS  /tmp/ccONvy4E.s 			page 220


 9105      3765D792 
 9105      B0B5
 9106 0112 3421EB88 		.ascii	"4!\353\210\343\365\340\202e'J#\232\022\226\235\2506"
 9106      E3F5E082 
 9106      65274A23 
 9106      9A12969D 
 9106      A836
 9107 0124 1F0CB977 		.ascii	"\037\014\271w\242Z\2748\363\361\211j\361\320\254\305"
 9107      A25ABC38 
 9107      F3F1896A 
 9107      F1D0ACC5 
 9108 0134 27AA2D5C 		.ascii	"'\252-\\4\027\237\260fS\313^z\302>BEk\361\011G\017a"
 9108      34179FB0 
 9108      6653CB5E 
 9108      7AC23E42 
 9108      456BF109 
 9109 014b ADC527EC 		.ascii	"\255\305'\354\335\205\275c\237\260\027e\311\265\272"
 9109      DD85BD63 
 9109      9FB01765 
 9109      C9B5BA
 9110 015a 829A84B5 		.ascii	"\202\232\204\265\327\364\012\212'\215.\251\315\217\032"
 9110      D7F40A8A 
 9110      278D2EA9 
 9110      CD8F1A
 9111 0169 3B3A6927 		.ascii	";:i'_\030\377\342d\225|\241\375\335Mq\010p\354))\246"
 9111      5F18FFE2 
 9111      64957CA1 
 9111      FDDD4D71 
 9111      0870EC29 
 9112 017f 29A436DF 		.ascii	")\2446\337\255\030\227HJ{\217\224\225b+\350\307\313"
 9112      AD189748 
 9112      4A7B8F94 
 9112      95622BE8 
 9112      C7CB
 9113 0191 454A94D4 		.ascii	"EJ\224\324v\177\007!\327RZ\362l\270\302Il\263u\360"
 9113      767F0721 
 9113      D7525AF2 
 9113      6CB8C249 
 9113      6CB375F0 
 9114              		.global	sp_tron8
 9115              		.section	.rodata.sp_tron8,"a"
 9116              		.align	2
 9117              		.type	sp_tron8, %object
 9118              		.size	sp_tron8, 523
 9119              	sp_tron8:
 9120 0000 26A6A345 		.ascii	"&\246\243E\245\034\373\260\00427Kf\212c%\023\252\245"
 9120      A51CFBB0 
 9120      0432374B 
 9120      668A6325 
 9120      13AAA5
 9121 0013 B98F5E7B 		.ascii	"\271\217^{\211\252e:r\035M\246\236\362\310\265\026\245"
 9121      89AA653A 
 9121      721D4DA6 
 9121      9EF2C8B5 
 9121      16A5
 9122 0025 DAA6A3A4 		.ascii	"\332\246\243\244\224\342\032\251\217\032\243\207\250"
 9122      94E21AA9 
ARM GAS  /tmp/ccONvy4E.s 			page 221


 9122      8F1AA387 
 9122      A8
 9123 0032 275E5A8C 		.ascii	"'^Z\214\326&\352n\351\321\253\205\2522\343c\037]\352"
 9123      D626EA6E 
 9123      E9D1AB85 
 9123      AA32E363 
 9123      1F5DEA
 9124 0045 8E91DF75 		.ascii	"\216\221\337u\2512\306\200\341\2171Z\032\216\216Y\275"
 9124      A932C680 
 9124      E18F315A 
 9124      1A8E8E59 
 9124      BD
 9125 0056 B154C53A 		.ascii	"\261T\305:n\231\341b>\367\272\307.-\302\324W\265(Z\323"
 9125      6E99E162 
 9125      3EF7BAC7 
 9125      2E2DC2D4 
 9125      57B5285A 
 9126 006b D08889A2 		.ascii	"\320\210\211\242\256K\2251\006\002\230\231\016V\264"
 9126      AE4B9531 
 9126      06029899 
 9126      0E56B4
 9127 007a 28DD65B8 		.ascii	"(\335e\270[\313O\0119\242\246\2560z\321\324\230\272"
 9127      5BCB4F09 
 9127      39A2A6AE 
 9127      307AD1D4 
 9127      98BA
 9128 008c C260D44B 		.ascii	"\302`\324K\355\366\210\222vK\301\3053*IT\341I\270\266"
 9128      EDF68892 
 9128      764BC1C5 
 9128      332A4954 
 9128      E149B8B6 
 9129 00a0 44416538 		.ascii	"DAe8\343\353\0249\021]\212\253Kb\225Kc\272EI\327\245"
 9129      E3EB1439 
 9129      115D8AAB 
 9129      4B62954B 
 9129      63BA4549 
 9130 00b6 CA180300 		.ascii	"\312\030\003\000\000\020\240\255GKSQ1\257\311+I\305"
 9130      0010A0AD 
 9130      474B5351 
 9130      31AFC92B 
 9130      49C5
 9131 00c8 39641D89 		.ascii	"9d\035\211\270\240$\217\266\211\342\240K\2251\206\001"
 9131      B8A0248F 
 9131      B689E2A0 
 9131      4B953186 
 9131      01
 9132 00d9 0A0A53C0 		.ascii	"\012\012S\300\321\351\3038\3245\3045\034=\370\012\263"
 9132      D1E9C338 
 9132      D435C435 
 9132      1C3DF80A 
 9132      B3
 9133 00ea 5C7454E7 		.ascii	"\\tT\347\253-<\361QB\3520\312TG\211\241\303\311=\037"
 9133      AB2D3CF1 
 9133      5142EA30 
 9133      CA544789 
 9133      A1C3C93D 
 9134 00ff 353A2DA3 		.ascii	"5:-\243\210{\324\342)\212M\335QK\300(5gG->41f\037\245"
ARM GAS  /tmp/ccONvy4E.s 			page 222


 9134      887BD4E2 
 9134      298A4DDD 
 9134      514BC028 
 9134      3567472D 
 9135 0119 C686D09A 		.ascii	"\306\206\320\232u\324\232\013\\j\321\321z\0312\327U"
 9135      75D49A0B 
 9135      5C6AD1D1 
 9135      7A1932D7 
 9135      55
 9136 012a 472F6DC4 		.ascii	"G/m\304\325V\036=\205\3214M\271\214 \202\207\335\331"
 9136      D5561E3D 
 9136      85D1344D 
 9136      B98C2082 
 9136      87DDD9
 9137 013d 3282761A 		.ascii	"2\202v\032\014w\313\2102\250\311\234/#\312\244AMw\214"
 9137      0C77CB88 
 9137      32A8C99C 
 9137      2F23CAA4 
 9137      414D778C 
 9138 0151 14474B6D 		.ascii	"\024GKm\3411\212o\353\264U\303(\256\265\323W #\350R"
 9138      E1318A6F 
 9138      EBB455C3 
 9138      28AEB5D3 
 9138      572023E8 
 9139 0166 658CE180 		.ascii	"e\214\341\200-\\\217\275\255\230j\250>F\214Rf\341z\031"
 9139      2D5C8FBD 
 9139      AD986AA8 
 9139      3E468C52 
 9139      66E17A19 
 9140 017a 21A9AB44 		.ascii	"!\251\253D\262\345\306\244\256\342\366\217\031\242\225"
 9140      B2E5C6A4 
 9140      AEE2F68F 
 9140      19A295
 9141 0189 72A43B96 		.ascii	"r\244;\226\363\341.\341\241\331\332\2059\231\253\024"
 9141      F3E12EE1 
 9141      A1D9DA85 
 9141      3999AB14 
 9142 0199 1564EADA 		.ascii	"\025d\352\332\314P\324u\2512\306\000p\300s\241\001("
 9142      CC50D475 
 9142      A932C600 
 9142      70C073A1 
 9142      0128
 9143 01ab 716459C5 		.ascii	"qdY\305U\245\012\315\245\273\272\356\262r\227a\323M"
 9143      55A50ACD 
 9143      A5BBBAEE 
 9143      B2729761 
 9143      D34D
 9144 01bd D3D95E66 		.ascii	"\323\331^f\260\027!;{\271\301l\247\325\344\025\2048"
 9144      B017213B 
 9144      7BB9C16C 
 9144      A7D5E415 
 9144      8438
 9145 01cf EE59B64F 		.ascii	"\356Y\266O\030rJv&<Q\311CR\345`E%$Xx\302\222h\031\372"
 9145      18724A76 
 9145      263C51C9 
 9145      4352E560 
 9145      45252458 
ARM GAS  /tmp/ccONvy4E.s 			page 223


 9146 01e9 A2C94AAA 		.ascii	"\242\311J\252\245\353s\270k\271\325\344#\251-\025ZK"
 9146      A5EB73B8 
 9146      6BB9D5E4 
 9146      23A92D15 
 9146      5A4B
 9147 01fb 2795BE50 		.ascii	"'\225\276P)\245\225\324ZM\033\250sS\270\375"
 9147      29A595D4 
 9147      5A4D1BA8 
 9147      7353B8FD 
 9148              		.global	sp_tron7
 9149              		.section	.rodata.sp_tron7,"a"
 9150              		.align	2
 9151              		.type	sp_tron7, %object
 9152              		.size	sp_tron7, 148
 9153              	sp_tron7:
 9154 0000 0118BA34 		.ascii	"\001\030\2724\001%\220\004 9\342\245\324\252\022\021"
 9154      01259004 
 9154      2039E2A5 
 9154      D4AA1211 
 9155 0010 96879CA2 		.ascii	"\226\207\234\242Xj\320\036J\315(\345\005wh\325\243\266"
 9155      586AD01E 
 9155      4ACD28E5 
 9155      057768D5 
 9155      A3B6
 9156 0022 B7EC6114 		.ascii	"\267\354a\024\213v\031\264\233W4\311V\322-au\304\246"
 9156      8B7619B4 
 9156      9B5734C9 
 9156      56D22D61 
 9156      75C4A6
 9157 0035 A118855D 		.ascii	"\241\030\205]\227*c\014\010@7j\016\350N\305\001\325"
 9157      972A630C 
 9157      0840376A 
 9157      0EE84EC5 
 9157      01D5
 9158 0047 1219A068 		.ascii	"\022\031\240hd\013X`$#\031xu\324\026\327\2044\265TG"
 9158      640B5860 
 9158      24231978 
 9158      75D416D7 
 9158      8434B554 
 9159 005c 5203DA54 		.ascii	"R\003\332TQ\033iuD\333e\276e\325+\324F\350\226\327@"
 9159      511B6975 
 9159      44DB65BE 
 9159      65D52BD4 
 9159      46E896D7 
 9160 0071 54D1915B 		.ascii	"T\321\221[^\274qh'*E\324\341\005i\265\326\241\356\302"
 9160      5EBC7168 
 9160      272A45D4 
 9160      E10569B5 
 9160      D6A1EEC2 
 9161 0085 60259D85 		.ascii	"`%\235\205\246H\205\245H\032\333\330\372\356\377"
 9161      A64885A5 
 9161      481ADBD8 
 9161      FAEEFF
 9162              		.global	sp_tron6
 9163              		.section	.rodata.sp_tron6,"a"
 9164              		.align	2
 9165              		.type	sp_tron6, %object
ARM GAS  /tmp/ccONvy4E.s 			page 224


 9166              		.size	sp_tron6, 368
 9167              	sp_tron6:
 9168 0000 0460CADC 		.ascii	"\004`\312\334%5\204\251\250\344\341\246\344\242\342"
 9168      253584A9 
 9168      A8E4E1A6 
 9168      E4A2E2
 9169 000f B487AB83 		.ascii	"\264\207\253\203hF8\035\246\362:\272)k\230\302\307T"
 9169      6846381D 
 9169      A6F23ABA 
 9169      296B98C2 
 9169      C754
 9170 0021 07BD663A 		.ascii	"\007\275f:E?\025\260\233\251\244\315\252\262\012\026"
 9170      453F15B0 
 9170      9BA9A4CD 
 9170      AAB20A16 
 9171 0031 4A5D8E2D 		.ascii	"J]\216-+9B\3537$\313\340b\037\223\334\220\242\325\374"
 9171      2B3942EB 
 9171      3724CBE0 
 9171      621F93DC 
 9171      90A2D5FC 
 9172 0045 C8493F82 		.ascii	"\310I?\202\332\210\222E\271\\\362+\212\032\243\273)"
 9172      DA889245 
 9172      B95CF22B 
 9172      8A1AA3BB 
 9172      29
 9173 0056 B7C86A6A 		.ascii	"\267\310jj\357\246\034Bl\343%ZV\012\231\3613oE)b\306"
 9173      EFA61C42 
 9173      6CE3255A 
 9173      560A99F1 
 9173      336F4529 
 9174 006c C76C1597 		.ascii	"\307l\025\227HIy\315v\225b\256\354\315\323uH\250\266"
 9174      484979CD 
 9174      769562AE 
 9174      ECCDD375 
 9174      48A8B6
 9175 007f 774B5731 		.ascii	"wKW1U\025U\021\225m{95\246:\227\334\223D\227M\232\221"
 9175      55155511 
 9175      956D7B39 
 9175      35A63A97 
 9175      DC934497 
 9176 0096 4F968CBD 		.ascii	"O\226\214\275\212.^Y2:J\230\256eAY3i\266\2269ne\242"
 9176      8A2E5E59 
 9176      323A4A98 
 9176      AE654159 
 9176      3369B696 
 9177 00ae EB4A16B0 		.ascii	"\353J\026\260\215\250\317mi\240\326\306\264\276%VE1"
 9177      8DA8CF6D 
 9177      69A0D6C6 
 9177      B4BE2556 
 9177      4531
 9178 00c0 E9B39558 		.ascii	"\351\263\225X\327\307\254\223W\242\333\014f[^\251.3"
 9178      D7C7AC93 
 9178      57A2DB0C 
 9178      665B5EA9 
 9178      2E33
 9179 00d2 641D7665 		.ascii	"d\035ve\301\346Q\344\244TD)f\026nQ\321u\2512\306\000"
 9179      C1E651E4 
ARM GAS  /tmp/ccONvy4E.s 			page 225


 9179      A4544429 
 9179      66166E51 
 9179      D175A932 
 9180 00e8 07F4E89A 		.ascii	"\007\364\350\232\200\231\235GUz0I\247*UI\244\236\031"
 9180      80999D47 
 9180      557A3049 
 9180      A72A5549 
 9180      A49E19
 9181 00fb A9342992 		.ascii	"\2514)\222TFd\324t]\252\2141\000\300\000\372\230\"\244"
 9181      544664D4 
 9181      745DAA8C 
 9181      3100C000 
 9181      FA9822A4 
 9182 010f EB52658C 		.ascii	"\353Re\214\001\000\016p5,\000.\251\264\"\014,1\3674"
 9182      01000E70 
 9182      352C002E 
 9182      A9B4220C 
 9182      2C31F734 
 9183 0123 0A97A4B8 		.ascii	"\012\227\244\270}\366\252b\364\"\267\313\243\2661J\262"
 9183      7DF6AA62 
 9183      F422B7CB 
 9183      A3B6314A 
 9183      B2
 9184 0134 278FCAF9 		.ascii	"'\217\312\371(\327\2324*\347\323\325s\362\030\254\215"
 9184      28D79A34 
 9184      2AE7D3D5 
 9184      73F218AC 
 9184      8D
 9185 0145 308D536D 		.ascii	"0\215Smp6\312(f\245!\270\010\003\273\345\006G\253Bd"
 9185      7036CA28 
 9185      66A521B8 
 9185      0803BBE5 
 9185      0647AB42 
 9186 015a 111ABA2E 		.ascii	"\021\032\272.U\306\030\000\000e\210\266,4d\247!E\037"
 9186      55C61800 
 9186      006588B6 
 9186      2C3464A7 
 9186      21451F
 9187 016d C15AF4   		.ascii	"\301Z\364"
 9188              		.global	sp_tron5
 9189              		.section	.rodata.sp_tron5,"a"
 9190              		.align	2
 9191              		.type	sp_tron5, %object
 9192              		.size	sp_tron5, 257
 9193              	sp_tron5:
 9194 0000 29485E48 		.ascii	")H^H\"S\345`\370\321\030X\226\343\245\247\026@a^\217"
 9194      2253E560 
 9194      F8D11858 
 9194      96E3A5A7 
 9194      1640615E 
 9195 0015 926287B8 		.ascii	"\222b\207\270\352;R\222\355#\356yI\321D\257\011\337"
 9195      EA3B5292 
 9195      ED23EE79 
 9195      49D144AF 
 9195      09DF
 9196 0027 253B131F 		.ascii	"%;\023\037\256n\227\354\222N\270\273\033\212K\326\356"
 9196      AE6E97EC 
ARM GAS  /tmp/ccONvy4E.s 			page 226


 9196      924EB8BB 
 9196      1B8A4BD6 
 9196      EE
 9197 0038 A6BD29A1 		.ascii	"\246\275)\241Y\273\221\376\256\024U\3370\026c_t}U\304"
 9197      59BB91FE 
 9197      AE1455DF 
 9197      3016635F 
 9197      747D55C4 
 9198 004c 93D9305D 		.ascii	"\223\3310]\362PQ\364C\327\323\\\3358/-\014+Q\363w\324"
 9198      F25051F4 
 9198      43D7D35C 
 9198      DD382F2D 
 9198      0C2B51F3 
 9199 0062 D834CC4B 		.ascii	"\3304\314K\333Rk\036V\217\305K\035\371\014\3342\007"
 9199      DB526B1E 
 9199      568FC54B 
 9199      1DF90CDC 
 9199      3207
 9200 0074 CD91A03E 		.ascii	"\315\221\240>\243\204\264\256K\2251\006\0008 \364<\007"
 9200      A384B4AE 
 9200      4B953106 
 9200      003820F4 
 9200      3C07
 9201 0086 A414D1FC 		.ascii	"\244\024\321\374dD\\S\3320\\\324J\021vKu\323BB3\037"
 9201      64445C53 
 9201      DA305CD4 
 9201      4A11764B 
 9201      75D34242 
 9202 009c 35E530D7 		.ascii	"5\3450\327rw\324\232\326\213-\325RK[\013\361\325G+\243"
 9202      7277D49A 
 9202      D68B2DD5 
 9202      524B5B0B 
 9202      F1D5472B 
 9203 00b1 34A85317 		.ascii	"4\250S\027-5W\301\212K\264\256K\2251\006\020@\022\017"
 9203      2D3557C1 
 9203      8A4BB4AE 
 9203      4B953106 
 9203      1040120F 
 9204 00c5 05446E6A 		.ascii	"\005Dnj\001\005$\2372\242\342BUi\356\261\273Oc\243\247"
 9204      0105249F 
 9204      32A2E242 
 9204      5569EEB1 
 9204      BB4F63A3 
 9205 00da C7AE3144 		.ascii	"\307\2561D\\\236\036\273\264\020\345\\\265\334RS\204"
 9205      5C9E1EBB 
 9205      B410E55C 
 9205      B5DC5253 
 9205      84
 9206 00eb 7DD5F052 		.ascii	"}\325\360R\011R\253X\006\350\310E\001\337\251I@\002"
 9206      0952AB58 
 9206      06E8C845 
 9206      01DFA949 
 9206      4002
 9207 00fd 12E0C0FF 		.ascii	"\022\340\300\377"
 9208              		.global	sp_tron4
 9209              		.section	.rodata.sp_tron4,"a"
 9210              		.align	2
ARM GAS  /tmp/ccONvy4E.s 			page 227


 9211              		.type	sp_tron4, %object
 9212              		.size	sp_tron4, 256
 9213              	sp_tron4:
 9214 0000 08D03684 		.ascii	"\010\3206\204\001.\232\012 xc\005\204\020*\000g\303"
 9214      012E9A0A 
 9214      20786305 
 9214      84102A00 
 9214      67C3
 9215 0012 97914288 		.ascii	"\227\221B\210\246\246:zI\301\356\276h\251%\267\250\372"
 9215      A6A63A7A 
 9215      49C1EEBE 
 9215      68A925B7 
 9215      A8FA
 9216 0024 D3A10623 		.ascii	"\323\241\006#\262\251\221\206\032\215\360\270MZr\211"
 9216      B2A99186 
 9216      1A8DF0B8 
 9216      4D5A7289 
 9217 0034 21C93D7B 		.ascii	"!\311={I%\205\244\307\302!\225fZt+\233T\206\252sz4@"
 9217      492585A4 
 9217      C7C22195 
 9217      665A742B 
 9217      9B5486AA 
 9218 004c A0620638 		.ascii	"\240b\0068\301\310\000\247\257+\340\364)\005\234\261"
 9218      C1C800A7 
 9218      AF2BE0F4 
 9218      29059CB1 
 9219 005c 2180A142 		.ascii	"!\200\241B\020\330u\2512\306\000\002\024\0351\214\242"
 9219      10D875A9 
 9219      32C60002 
 9219      141D318C 
 9219      A2
 9220 006d 234C31E9 		.ascii	"#L1\351Q\213\216p\323UG-&\314\335\022-\265\244ar\311"
 9220      518B8E70 
 9220      D355472D 
 9220      26CCDD12 
 9220      2DB5A461 
 9221 0083 88D4AE4B 		.ascii	"\210\324\256K\2251\006\020\277\3660\300Zg\375\025\366"
 9221      95310610 
 9221      BFF630C0 
 9221      5A67FD15 
 9221      F6
 9222 0094 1CACEC96 		.ascii	"\034\254\354\226\217\226jPd\306:ZM\303\251\276\370h"
 9222      8F966A50 
 9222      64C63A5A 
 9222      4DC3A9BE 
 9222      F868
 9223 00a6 251597C7 		.ascii	"%\025\227\307\354\245\247\024<^\223\217^R\310x\317:"
 9223      ECA5A714 
 9223      3C5E938F 
 9223      5E52C878 
 9223      CF3A
 9224 00b8 46A9C1E9 		.ascii	"F\251\301\3515\363\2305\027\204g\302\343\326\022d\231"
 9224      35F39835 
 9224      178467C2 
 9224      E3D61264 
 9224      99
 9225 00c9 318FDF4B 		.ascii	"1\217\337K\021G$<a\317I\330\021sE5\006\321F\302\022"
ARM GAS  /tmp/ccONvy4E.s 			page 228


 9225      1147243C 
 9225      61CF49D8 
 9225      11734535 
 9225      06D146C2 
 9226 00de 696DDEA6 		.ascii	"im\336\246iS\254\265\324\204\251\313qJ\254\221hSo9I"
 9226      6953ACB5 
 9226      D484A9CB 
 9226      714AAC91 
 9226      68536F39 
 9227 00f3 5930641D 		.ascii	"Y0d\035\252-dQ\223\247\223\267\377"
 9227      AA2D6451 
 9227      93A793B7 
 9227      FF
 9228              		.global	sp_tron3
 9229              		.section	.rodata.sp_tron3,"a"
 9230              		.align	2
 9231              		.type	sp_tron3, %object
 9232              		.size	sp_tron3, 942
 9233              	sp_tron3:
 9234 0000 2EB2563B 		.ascii	".\262V;\321\222\373h8\301L\207\241\343c&\265\357\354"
 9234      D192FB68 
 9234      38C14C87 
 9234      A1E36326 
 9234      B5EFEC
 9235 0013 8B8E5E45 		.ascii	"\213\216^E]\211->Z\022s)\021\367\250Q~\207\226\263\243"
 9235      5D892D3E 
 9235      5A127329 
 9235      11F7A851 
 9235      7E8796B3 
 9236 0028 26F11566 		.ascii	"&\361\025f\251\226\032\354\206\211;*\326\267\301\252"
 9236      A9961AEC 
 9236      86893B2A 
 9236      D6B7C1AA 
 9237 0038 2ADB003F 		.ascii	"*\333\000?\211[@\002\010\014\272T\031c\030`\372\226"
 9237      895B4002 
 9237      080CBA54 
 9237      19631860 
 9237      FA96
 9238 004a A1553DAA 		.ascii	"\241U=\252\352\033\216Zb\213\232~mz*M\252\226\030\351"
 9238      EA1B8E5A 
 9238      628B9A7E 
 9238      6D7A2A4D 
 9238      AA9618E9 
 9239 005e 41972A63 		.ascii	"A\227*c\014p@\332aK\217%$\314\022\035=\266\224bKu\264"
 9239      0C7040DA 
 9239      614B8F25 
 9239      24CC121D 
 9239      3DB69462 
 9240 0075 58424B3C 		.ascii	"XBK<q\323\203U\353&\313\303\010\312-\203\\'\303\031"
 9240      71D38355 
 9240      EB26CBC3 
 9240      08CA2D83 
 9240      5C27C319 
 9241 0089 F13253EB 		.ascii	"\3612S\353\200\302E\0030C\320\322\243\013\017Q\327\307"
 9241      80C24503 
 9241      3043D0D2 
 9241      A30B0F51 
ARM GAS  /tmp/ccONvy4E.s 			page 229


 9241      D7C7
 9242 009b 8AD9DBD4 		.ascii	"\212\331\333\324\322-\313\365(\247J\264,W\332\223r\361"
 9242      D22DCBF5 
 9242      28A74AB4 
 9242      2C57DA93 
 9242      72F1
 9243 00ad B26CDE70 		.ascii	"\262l\336p\212\325\313r\251\306\310\027/;x\177\023I"
 9243      8AD5CB72 
 9243      A9C6C817 
 9243      2F3B787F 
 9243      1349
 9244 00bf D75C17EC 		.ascii	"\327\\\027\354\234\324~w\221\333u\2512\306\000\0058"
 9244      9CD47E77 
 9244      91DB75A9 
 9244      32C60005 
 9244      38
 9245 00d0 65D22C5B 		.ascii	"e\322,[\274L\315\3551C\212rs\367\313p\241*\335\323-"
 9245      BC4CCDED 
 9245      31438A72 
 9245      73F7CB70 
 9245      A12ADDD3 
 9246 00e5 D3A5728F 		.ascii	"\323\245r\217\330\272\315c\205\230\356\216\231\232\235"
 9246      D8BACD63 
 9246      8598EE8E 
 9246      999A9D
 9247 00f4 683525F9 		.ascii	"h5%\371s\276\245=X\351\030EA\227*c\214\222\245C\356"
 9247      73BEA53D 
 9247      58E91845 
 9247      41972A63 
 9247      8C92A543 
 9248 0109 62CE961B 		.ascii	"b\316\226\033\232\204J$?V\254\021j\236\366X\241\204"
 9248      9A844A24 
 9248      3F56AC11 
 9248      6A9EF658 
 9248      A184
 9249 011b 85C7DA63 		.ascii	"\205\307\332c\307R\232a\261\217\035SK\245\305:vL\255"
 9249      C7529A61 
 9249      B18F1D53 
 9249      4BA5C53A 
 9249      764CAD
 9250 012e 953AFBD8 		.ascii	"\225:\373\3301\267\226[\212c\3054\352\251\213\226\031"
 9250      31B7965B 
 9250      8A63C534 
 9250      EAA98B96 
 9250      19
 9251 013f 62AB2B25 		.ascii	"b\253+%\036F\360fE&\177\030\321\233\025\253\375a\006"
 9251      1E46F066 
 9251      45267F18 
 9251      D19B15AB 
 9251      FD6106
 9252 0152 6B5A64EA 		.ascii	"kZd\352\222-]Db\251uq\020N\315\342\032\305]\227*c\014"
 9252      922D5D44 
 9252      62A97571 
 9252      104ECDE2 
 9252      1AC55D97 
 9253 0169 0204174E 		.ascii	"\002\004\027N\200\352\323\030P\205\331\210\202\013\317"
 9253      80EAD318 
ARM GAS  /tmp/ccONvy4E.s 			page 230


 9253      5085D988 
 9253      820BCF
 9254 0178 8884CBAB 		.ascii	"\210\204\313\253>MM6.\257\0123+K]\202\301C\321*\245"
 9254      3E4D4D36 
 9254      2EAF0A33 
 9254      2B4B5D82 
 9254      C143D12A 
 9255 018d 01069252 		.ascii	"\001\006\222R\3007\"\002\370\311\030\201A\227*c\014"
 9255      C0372202 
 9255      F8C91881 
 9255      41972A63 
 9255      0C
 9256 019e 05CC16A5 		.ascii	"\005\314\026\245\200=\323\015\360\332\364\322\223\017"
 9256      803DD30D 
 9256      F0DAF4D2 
 9256      930F
 9257 01ac 71B74447 		.ascii	"q\267DGKn\314\302\265\0365\332\015\252\322uT\347F\255"
 9257      4B6ECCC2 
 9257      B51E35DA 
 9257      0DAAD275 
 9257      54E746AD 
 9258 01c0 D2D3519D 		.ascii	"\322\323Q\235mk\213\\GM\326\365*t\0345\205\360\020M"
 9258      6D6B8B5C 
 9258      474DD6F5 
 9258      2A741C35 
 9258      85F0104D 
 9259 01d4 B78CADC2 		.ascii	"\267\214\255\302EHk1\2766\021L\267\006\250\310u\031"
 9259      45486B31 
 9259      BE36114C 
 9259      B706A8C8 
 9259      7519
 9260 01e6 D347A892 		.ascii	"\323G\250\222\326\243\216\350&)\231\217\326S(\273f\035"
 9260      D6A38EE8 
 9260      2629998F 
 9260      D65328BB 
 9260      661D
 9261 01f8 5A32A259 		.ascii	"Z2\242Y\246\270\351\201\246\246\227\270\246G\022\222"
 9261      A6B8E981 
 9261      A6A697B8 
 9261      A6471292 
 9262 0208 D18897BE 		.ascii	"\321\210\227\276\203\260\353:8\306H-\250\351\353\230"
 9262      83B0EB3A 
 9262      38C6482D 
 9262      A8E9EB98 
 9263 0218 25978859 		.ascii	"%\227\210Y\316c&\033f%\271\257u\354\240\313\335\315"
 9263      CE63261B 
 9263      6625B9AF 
 9263      75ECA0CB 
 9263      DDCD
 9264 022a D7758EEB 		.ascii	"\327u\216\353t\205\271\372\332\336\360uj\027\321\\\303"
 9264      7485B9FA 
 9264      DADEF075 
 9264      6A17D15C 
 9264      C3
 9265 023b D7B1DDD8 		.ascii	"\327\261\335\330s\016O\353\015\343\324\325<m\246T\322"
 9265      730E4FEB 
 9265      0DE3D4D5 
ARM GAS  /tmp/ccONvy4E.s 			page 231


 9265      3C6DA654 
 9265      D2
 9266 024c 57716D8E 		.ascii	"Wqm\216P\366\364\312S\025\343\322\024!\257\353Re\214"
 9266      50F6F4CA 
 9266      5315E3D2 
 9266      1421AFEB 
 9266      52658C
 9267 025f 010EE83E 		.ascii	"\001\016\350>l\270[\230\213\244\323c'\027f\246\231\227"
 9267      6CB85B98 
 9267      8BA4D363 
 9267      271766A6 
 9267      9997
 9268 0271 9B8C99BB 		.ascii	"\233\214\231\273fO\321W\244\351\345\326\000\017\251"
 9268      664FD157 
 9268      A4E9E5D6 
 9268      000FA9
 9269 0280 19E07B35 		.ascii	"\031\340{5\015X\300\002\313(6\312E\222\036=\272\011"
 9269      0D58C002 
 9269      CB2836CA 
 9269      45921E3D 
 9269      BA09
 9270 0292 714B7DB4 		.ascii	"qK}\264\3507\304-\365\321B*\325\210\265Ku54\242\027"
 9270      E837C42D 
 9270      F5D1422A 
 9270      D588B54B 
 9270      753534A2 
 9271 02a7 0FD5A6D0 		.ascii	"\017\325\246\320\226O\3254\353\243\2173u2m\010SAO\311"
 9271      964FD534 
 9271      EBA38F33 
 9271      75326D08 
 9271      53414FC9 
 9272 02bb B741258D 		.ascii	"\267A%\215<3 6\037S\270\036M\321\011]\241\3064E'\034"
 9272      3C332036 
 9272      1F53B81E 
 9272      4DD1095D 
 9272      A1C63445 
 9273 02d1 A1EE3B42 		.ascii	"\241\356;B\355\2529\272\2359\237\243e\005=\355\020."
 9273      EDAA39BA 
 9273      9D399FA3 
 9273      65053DED 
 9273      102E
 9274 02e3 871D6CB4 		.ascii	"\207\035l\264C$-vP\324\315\256\264\330NI/\273\322a\005"
 9274      43242D76 
 9274      50D4CDAE 
 9274      B4D84E49 
 9274      2FBBD261 
 9275 02f8 D96E6AB3 		.ascii	"\331nj\263\227\021eZ\272\315\034f2E\226\266({\310\243"
 9275      9711655A 
 9275      BACD1C66 
 9275      324596B6 
 9275      287BC8A3 
 9276 030c 39DD5968 		.ascii	"9\335Yh\203\002\264\024iF\351\301\0266w\351e\266&\333"
 9276      8302B414 
 9276      6946E9C1 
 9276      163677E9 
 9276      65B626DB 
 9277 0320 AAA5955D 		.ascii	"\252\245\225]\026\024\263\216V\246sj\305=zmFiuw\351"
ARM GAS  /tmp/ccONvy4E.s 			page 232


 9277      1614B38E 
 9277      56A6736A 
 9277      C53D7A6D 
 9277      46697577 
 9278 0335 BD1448C5 		.ascii	"\275\024H\305\354\245\367R\300i\253\232\031\215\301"
 9278      ECA5F752 
 9278      C069AB9A 
 9278      198DC1
 9279 0344 A9CB6DB6 		.ascii	"\251\313m\2663\252+.\267yN\205\234\213\263\344k\021"
 9279      33AA2B2E 
 9279      B7794E85 
 9279      9C8BB3E4 
 9279      6B11
 9280 0356 BAADD272 		.ascii	"\272\255\322r\220\"%\322G\315\232\313\244\212.J\253"
 9280      902225D2 
 9280      47CD9ACB 
 9280      A48A2E4A 
 9280      AB
 9281 0367 28A339DD 		.ascii	"(\2439\335Yh\033@'\213\341\273`\026n\311\217\035\262"
 9281      59681B40 
 9281      278BE1BB 
 9281      60166EC9 
 9281      8F1DB2
 9282 037a 996AA43F 		.ascii	"\231j\244?^\365\255l\232\355\3705\217\212\321\246\023"
 9282      5EF5AD6C 
 9282      9AEDF835 
 9282      8F8AD1A6 
 9282      13
 9283 038b 8F308E2E 		.ascii	"\2170\216.\231N\326\303(\251l\272\205\251\204\214\210"
 9283      994ED6C3 
 9283      28A96CBA 
 9283      85A9848C 
 9283      88
 9284 039c 4D49BC61 		.ascii	"MI\274aM\324\246\356\316\2716\246)\3229\324\225\376"
 9284      4DD4A6EE 
 9284      CEB936A6 
 9284      29D239D4 
 9284      95FE
 9285              		.global	sp_tron2
 9286              		.section	.rodata.sp_tron2,"a"
 9287              		.align	2
 9288              		.type	sp_tron2, %object
 9289              		.size	sp_tron2, 140
 9290              	sp_tron2:
 9291 0000 0AD0C962 		.ascii	"\012\320\311b\004.\230\205[\362\345\306\032N.\314\216"
 9291      042E9885 
 9291      5BF2E5C6 
 9291      1A4E2ECC 
 9291      8E
 9292 0011 995A30A7 		.ascii	"\231Z0\247\246[F\032\311\\\276v\351\245\004[\373\346"
 9292      A65B461A 
 9292      C95CBE76 
 9292      E9A5045B 
 9292      FBE6
 9293 0023 AD2FADA7 		.ascii	"\255/\255\247dY[\265\264^\316Heir+v\326(G\315<.C\331"
 9293      64595BB5 
 9293      B45ECE48 
ARM GAS  /tmp/ccONvy4E.s 			page 233


 9293      6569722B 
 9293      76D62847 
 9294 003c 681F3365 		.ascii	"h\0373e\225\224\264z\214\322B\315l\3611KM\026\217D\327"
 9294      9594B47A 
 9294      8CD242CD 
 9294      6CF1314B 
 9294      4D168F44 
 9295 0051 3A76ADCD 		.ascii	":v\255\315\354\266\360\272+,\326A\337B\227TY\2515\263"
 9295      ECB6F0BA 
 9295      2B2CD641 
 9295      DF429754 
 9295      59A935B3 
 9296 0065 9A0AA1CB 		.ascii	"\232\012\241\3137\324^h\250\217\032q\373irF\2512\306"
 9296      37D45E68 
 9296      A88F1A71 
 9296      FB697246 
 9296      A932C6
 9297 0078 96B58622 		.ascii	"\226\265\206\"&w\305\200\217\\\024\360\223\232\004$"
 9297      2677C580 
 9297      8F5C14F0 
 9297      939A0424 
 9298 0088 20010EFC 		.ascii	" \001\016\374"
 9299              		.global	sp_tron1
 9300              		.section	.rodata.sp_tron1,"a"
 9301              		.align	2
 9302              		.type	sp_tron1, %object
 9303              		.size	sp_tron1, 128
 9304              	sp_tron1:
 9305 0000 A6663A6E 		.ascii	"\246f:n\330\035\271\212\332\370b\267\355\253PhI\037"
 9305      D81DB98A 
 9305      DAF862B7 
 9305      EDAB5068 
 9305      491F
 9306 0012 E20A53A1 		.ascii	"\342\012S\241%]s\250-\271R\362-\251xe\251\233S\264\354"
 9306      255D73A8 
 9306      2DB952F2 
 9306      2DA97865 
 9306      A99B53B4 
 9307 0027 95A411AD 		.ascii	"\225\244\021\255V\211O\230RTx\247>a\314\325n\233\370"
 9307      56894F98 
 9307      525478A7 
 9307      3E61CCD5 
 9307      6E9BF8
 9308 003a F831C545 		.ascii	"\3701\305EV\342\343\247\032m\271\211N\230f\264xeZa\354"
 9308      56E2E3A7 
 9308      1A6DB989 
 9308      4E9866B4 
 9308      78655A61 
 9309 004f 5A529975 		.ascii	"ZR\231u\205u\206Q\344\334\025\325\036\202\236QWT\203"
 9309      85758651 
 9309      E4DC15D5 
 9309      1E829E51 
 9309      575483
 9310 0062 B264C71D 		.ascii	"\262d\307\035Q\324\302\331m\256\305%\032\251\2255\003"
 9310      51D4C2D9 
 9310      6DAEC525 
 9310      1AA99535 
ARM GAS  /tmp/ccONvy4E.s 			page 234


 9310      03
 9311 0073 0CE4A280 		.ascii	"\014\344\242\200\357\3244 \001\011p\340\377"
 9311      EFD43420 
 9311      010970E0 
 9311      FF
 9312              		.global	sp_tron0
 9313              		.section	.rodata.sp_tron0,"a"
 9314              		.align	2
 9315              		.type	sp_tron0, %object
 9316              		.size	sp_tron0, 372
 9317              	sp_tron0:
 9318 0000 0C08CA4D 		.ascii	"\014\010\312M\001\311\272\012 \206\360fDk\236\226F\217"
 9318      01C9BA0A 
 9318      2086F066 
 9318      446B9E96 
 9318      468F
 9319 0012 1EA355E4 		.ascii	"\036\243U\344\206\275\372\321Cr\353j\263\303(\3259\254"
 9319      86BDFAD1 
 9319      4372EB6A 
 9319      B3C328D5 
 9319      39AC
 9320 0024 C60E337A 		.ascii	"\306\0163z\221\361\020>\355\346\007\207\323l\350J$\235"
 9320      91F1103E 
 9320      EDE60787 
 9320      D36CE84A 
 9320      249D
 9321 0036 BE713A76 		.ascii	"\276q:v)\011y\215\221\224\244\"\244\273\210l0@Un\016"
 9321      2909798D 
 9321      9194A422 
 9321      A4BB886C 
 9321      3040556E 
 9322 004b 98DE4401 		.ascii	"\230\336D\001U\223\2260Z\224\3562<\302\224\220#j\352"
 9322      55939630 
 9322      5A94EE32 
 9322      3CC29490 
 9322      236AEA
 9323 005e 88A2174D 		.ascii	"\210\242\027M\215\251#\011F\275\324n\217\"i\267\024"
 9323      8DA92309 
 9323      46BDD46E 
 9323      8F2269B7 
 9323      14
 9324 006f 5C5C8AA8 		.ascii	"\\\\\212\250\302\223pm\251\202\312p\306\327\251r\"\272"
 9324      C293706D 
 9324      A982CA70 
 9324      C6D7A972 
 9324      22BA
 9325 0081 145797DA 		.ascii	"\024W\227\332\252\230\024Y]\352\240c\234iu\250\234\216"
 9325      AA981459 
 9325      5DEAA063 
 9325      9C6975A8 
 9325      9C8E
 9326 0093 0E86A4A1 		.ascii	"\016\206\244\241\010\232:\204\334\227$X\035eT;\342h"
 9326      089A3A84 
 9326      DC972458 
 9326      1D65543B 
 9326      E268
 9327 00a5 6D94D1ED 		.ascii	"m\224\321\355I\242\3137\325t')6\336\314\222\235\244"
ARM GAS  /tmp/ccONvy4E.s 			page 235


 9327      49A2CB37 
 9327      D5742729 
 9327      36DECC92 
 9327      9DA4
 9328 00b7 D878B558 		.ascii	"\330x\265X\266\362\340\3729rr\311]\232\241HG\006(\310"
 9328      B6F2E0FA 
 9328      397272C9 
 9328      5D9AA148 
 9328      470628C8 
 9329 00cb 4501DFA9 		.ascii	"E\001\337\251i@\002\034@`\320\245\312\030\003\034P]"
 9329      6940021C 
 9329      4060D0A5 
 9329      CA18031C 
 9329      505D
 9330 00dd 5A8BA70D 		.ascii	"Z\213\247\0155\013\305+\213\301\3025\307\216,\304P\263"
 9330      350BC52B 
 9330      8BC1C235 
 9330      C78E2CC4 
 9330      50B3
 9331 00ef 8A54B294 		.ascii	"\212T\262\224K\012E\022\312\272.U\306\030\340\200P\325"
 9331      4B0A4512 
 9331      CABA2E55 
 9331      C618E080 
 9331      50D5
 9332 0101 5A51834B 		.ascii	"ZQ\203K\270N\032I\214\356\256\031\272e\321\240\267\271"
 9332      B84E1A49 
 9332      8CEEAE19 
 9332      BA65D1A0 
 9332      B7B9
 9333 0113 D2924583 		.ascii	"\322\222E\203\266\346rC\246\025\365\212\3115\205\022"
 9333      B6E67243 
 9333      A615F58A 
 9333      C9358512 
 9334 0123 1E43694B 		.ascii	"\036CiK\001\325\2208`v7\007\244\262\335\262\024\255"
 9334      01D59038 
 9334      60763707 
 9334      A4B2DDB2 
 9334      14AD
 9335 0135 59D5D148 		.ascii	"Y\325\321H\\\214\026\217\331#u\271J4\346\266\302\205"
 9335      5C8C168F 
 9335      D92375B9 
 9335      4A34E6B6 
 9335      C285
 9336 0147 2E76BFD5 		.ascii	".v\277\325j\347\272U\375vil\252f\252Ie\014\336\337D"
 9336      6AE7BA55 
 9336      FD76696C 
 9336      AA66AA49 
 9336      650CDEDF 
 9337 015c D295D105 		.ascii	"\322\225\321\005;'\265\237\3074:[\345h\213\363\030\006"
 9337      3B27B59F 
 9337      C7343A5B 
 9337      E5688BF3 
 9337      1806
 9338 016e 9B2B023C 		.ascii	"\233+\002<\321\377"
 9338      D1FF
 9339              		.global	sp_misc28
 9340              		.section	.rodata.sp_misc28,"a"
ARM GAS  /tmp/ccONvy4E.s 			page 236


 9341              		.align	2
 9342              		.type	sp_misc28, %object
 9343              		.size	sp_misc28, 102
 9344              	sp_misc28:
 9345 0000 C491CA35 		.ascii	"\304\221\3125,\3220\3373\023uw\313\374\210L\\\303M\363"
 9345      2CD230DF 
 9345      33137577 
 9345      CBFC884C 
 9345      5CC34DF3 
 9346 0014 A34B3576 		.ascii	"\243K5v'\313\262\303\255l\314,\313\257\210(\267}\255"
 9346      27CBB2C3 
 9346      AD6CCC2C 
 9346      CBAF8828 
 9346      B77DAD
 9347 0027 63A56A9E 		.ascii	"c\245j\2361v\257u\255e\305\314>vU\207m\253\370\313\324"
 9347      3176AF75 
 9347      AD65C5CC 
 9347      3E765587 
 9347      6DABF8CB 
 9348 003c 1A8E6FAC 		.ascii	"\032\216o\254\313\335\262\371\241Q\264v\245\342\273"
 9348      CBDDB2F9 
 9348      A151B476 
 9348      A5E2BB
 9349 004b C2537E54 		.ascii	"\302S~TS`\263\344\304H\015AP\311YiZ\000?\272K\200\003"
 9349      5360B3E4 
 9349      C4480D41 
 9349      50C95969 
 9349      5A003FBA 
 9350 0062 1CA0C003 		.ascii	"\034\240\300\003"
 9351              		.global	sp_misc27
 9352              		.section	.rodata.sp_misc27,"a"
 9353              		.align	2
 9354              		.type	sp_misc27, %object
 9355              		.size	sp_misc27, 88
 9356              	sp_misc27:
 9357 0000 04F0DD54 		.ascii	"\004\360\335T\000\246\232) \266\216\246\232\312\355"
 9357      00A69A29 
 9357      20B68EA6 
 9357      9ACAED
 9358 000f F2B68796 		.ascii	"\362\266\207\226\272h\322\207]Z\316&%\033v\351)\272"
 9358      BA68D287 
 9358      5D5ACE26 
 9358      251B76E9 
 9358      29BA
 9359 0021 949D9464 		.ascii	"\224\235\224dy\353\034\326\226\207\031\263x\3263*VH"
 9359      79EB1CD6 
 9359      968719B3 
 9359      78D6332A 
 9359      5648
 9360 0033 D81D4F0B 		.ascii	"\330\035O\013\300\000\376\205%OO\213\220\266\023\002"
 9360      C000FE85 
 9360      254F4F8B 
 9360      90B61302 
 9361 0043 F5D4C2A2 		.ascii	"\365\324\302\242\216\011\345S\251p\333\"\024/$\245l"
 9361      8E09E553 
 9361      A970DB22 
 9361      142F24A5 
ARM GAS  /tmp/ccONvy4E.s 			page 237


 9361      6C
 9362 0054 E310070F 		.ascii	"\343\020\007\017"
 9363              		.global	sp_misc26
 9364              		.section	.rodata.sp_misc26,"a"
 9365              		.align	2
 9366              		.type	sp_misc26, %object
 9367              		.size	sp_misc26, 182
 9368              	sp_misc26:
 9369 0000 06C85D42 		.ascii	"\006\310]B\000\301\251\027#EQ\327a\334\314\344U\313"
 9369      00C1A917 
 9369      234551D7 
 9369      61DCCCE4 
 9369      55CB
 9370 0012 4E4A3083 		.ascii	"NJ0\203\302o\025\332\301r\222>U\344xKY\324\305\207\250"
 9370      C26F15DA 
 9370      C172923E 
 9370      55E4784B 
 9370      59D4C587 
 9371 0027 53655397 		.ascii	"SeS\227\037\344\212\223\025\255\213\213(\035f0\034\361"
 9371      1FE48A93 
 9371      15AD8B8B 
 9371      281D6630 
 9371      1CF1
 9372 0039 23671929 		.ascii	"#g\031)\223E\257\352\255\017-X\211\332\246\231\200g"
 9372      9345AFEA 
 9372      AD0F2D58 
 9372      89DAA699 
 9372      8067
 9373 004b 9803F0CB 		.ascii	"\230\003\360\313U\000~\271,\300MkM\363\306\264\272\245"
 9373      55007EB9 
 9373      2CC04D6B 
 9373      4DF3C6B4 
 9373      BAA5
 9374 005d 14C378F1 		.ascii	"\024\303x\361O\227\234L\341\374S\325n\261\255\326)3"
 9374      4F979C4C 
 9374      E1FC53D5 
 9374      6EB1ADD6 
 9374      2933
 9375 006f BB2D2ED6 		.ascii	"\273-.\3268j\254\226\270\032\321\336%\333\374\242\311"
 9375      386AAC96 
 9375      B81AD1DE 
 9375      25DBFCA2 
 9375      C9
 9376 0080 F7024EB1 		.ascii	"\367\002N\261\202\344\235f:\315\362Vz\272hO{\330&x^"
 9376      82E49D66 
 9376      3ACDF256 
 9376      7ABA684F 
 9376      7BD82678 
 9377 0095 0D956977 		.ascii	"\015\225iw\273\330:\232^\007\345d\253`\326\033\264\243"
 9377      BBD83A9A 
 9377      5E07E564 
 9377      AB60D61B 
 9377      B4A3
 9378 00a7 ED6D0144 		.ascii	"\355m\001D\246\312\200\037\332\010\360]*\005\036"
 9378      A6CA801F 
 9378      DA08F05D 
 9378      2A051E
ARM GAS  /tmp/ccONvy4E.s 			page 238


 9379              		.global	sp_misc25
 9380              		.section	.rodata.sp_misc25,"a"
 9381              		.align	2
 9382              		.type	sp_misc25, %object
 9383              		.size	sp_misc25, 112
 9384              	sp_misc25:
 9385 0000 A207006C 		.ascii	"\242\007\000l\010\370\321\035\003\022\260\200\003\006"
 9385      08F8D11D 
 9385      0312B080 
 9385      0306
 9386 000e 0D4660E0 		.ascii	"\015F`\340.\"d\010\030\240Th\322\215\350N\325dN\247"
 9386      2E226408 
 9386      18A05468 
 9386      D28DE84E 
 9386      D5644EA7 
 9387 0022 7B553563 		.ascii	"{U5c;\235\245/\346v<t\223B\"\312\3122BP\355,\321\313"
 9387      3B9DA52F 
 9387      E6763C74 
 9387      934222CA 
 9387      CA324250 
 9388 003a C8467CC6 		.ascii	"\310F|\306D\017\263(\316+\241\332\254\"\271\276\200"
 9388      440FB328 
 9388      CE2BA1DA 
 9388      AC22B9BE 
 9388      80
 9389 004b 5DB11393 		.ascii	"]\261\023\223\275\000v\331In\340\236\333\014'\270J\307"
 9389      BD0076D9 
 9389      496EE09E 
 9389      DB0C27B8 
 9389      4AC7
 9390 005d A7A825EF 		.ascii	"\247\250%\357Y\317\370\326\250j\244e\341\205\310h\236"
 9390      59CFF8D6 
 9390      A86AA465 
 9390      E185C868 
 9390      9E
 9391 006e E61F     		.ascii	"\346\037"
 9392              		.global	sp_misc24
 9393              		.section	.rodata.sp_misc24,"a"
 9394              		.align	2
 9395              		.type	sp_misc24, %object
 9396              		.size	sp_misc24, 83
 9397              	sp_misc24:
 9398 0000 C6E0E139 		.ascii	"\306\340\3419\250\022y\303\233\316d\261\242\311]\017"
 9398      A81279C3 
 9398      9BCE64B1 
 9398      A2C95D0F 
 9399 0010 C3C4E4CA 		.ascii	"\303\304\344\312\222u\214\220\305\252G\3221Bti{*\327"
 9399      92758C90 
 9399      C5AA47D2 
 9399      31427469 
 9399      7B2AD7
 9400 0023 0896899A 		.ascii	"\010\226\211\232je\333;\303\011I,\314\\\017\307U\216"
 9400      6A65DB3B 
 9400      C309492C 
 9400      CC5C0FC7 
 9400      558E
 9401 0035 E58F321C 		.ascii	"\345\2172\034_YO\372\354\360|\025Y\363I\3253\236\257"
ARM GAS  /tmp/ccONvy4E.s 			page 239


 9401      5F594FFA 
 9401      ECF07C15 
 9401      59F349D5 
 9401      339EAF
 9402 0048 18CB5958 		.ascii	"\030\313YXy1\013\270I\242\007"
 9402      79310BB8 
 9402      49A207
 9403              		.global	sp_misc23
 9404              		.section	.rodata.sp_misc23,"a"
 9405              		.align	2
 9406              		.type	sp_misc23, %object
 9407              		.size	sp_misc23, 90
 9408              	sp_misc23:
 9409 0000 0CF0ADDC 		.ascii	"\014\360\255\334\230,\271\261f\"e\352\341\344#\376\213"
 9409      982CB9B1 
 9409      662265EA 
 9409      E1E423FE 
 9409      8B
 9410 0011 19BAE848 		.ascii	"\031\272\350HV\036f\256&e\025eY\245\230\204\237\354"
 9410      561E66AE 
 9410      26651565 
 9410      59A59884 
 9410      9FEC
 9411 0023 65D5221A 		.ascii	"e\325\"\032\265\214\226S\275\361\346\322\036Nwd[\005"
 9411      B58C9653 
 9411      BDF1E6D2 
 9411      1E4E7764 
 9411      5B05
 9412 0035 BB3BC5AD 		.ascii	"\273;\305\255\212\362\323\221$7H\215\017\243c\\\245"
 9412      8AF2D391 
 9412      2437488D 
 9412      0FA3635C 
 9412      A5
 9413 0046 EC5D4C91 		.ascii	"\354]L\221u\265k\274\344\034<\307\222\362RR0-\253\017"
 9413      75B56BBC 
 9413      E41C3CC7 
 9413      92F25252 
 9413      302DAB0F 
 9414              		.global	sp_misc22
 9415              		.section	.rodata.sp_misc22,"a"
 9416              		.align	2
 9417              		.type	sp_misc22, %object
 9418              		.size	sp_misc22, 142
 9419              	sp_misc22:
 9420 0000 CD699E2C 		.ascii	"\315i\236,'%\017+[\216\355\246\264\354\0309k\232\326"
 9420      27250F2B 
 9420      5B8EEDA6 
 9420      B4EC1839 
 9420      6B9AD6
 9421 0013 B0BD95B2 		.ascii	"\260\275\225\262)J\3051R\337]\3448\207\233\374\020\243"
 9421      294AC531 
 9421      52DF5DE4 
 9421      38879BFC 
 9421      10A3
 9422 0025 4202CDCC 		.ascii	"B\002\315\314\313\302V\0002/\015\300pE\016(\301\275"
 9422      CBC25600 
 9422      322F0DC0 
ARM GAS  /tmp/ccONvy4E.s 			page 240


 9422      70450E28 
 9422      C1BD
 9423 0037 69B5186B 		.ascii	"i\265\030k4\225\243\307$Y[\014\217\221\213\272\3272"
 9423      3495A3C7 
 9423      24595B0C 
 9423      8F918BBA 
 9423      D732
 9424 0049 39664CEE 		.ascii	"9fL\356\341+w\2316\272W,c\003\374\350\256\001\015H\000"
 9424      E12B7799 
 9424      36BA572C 
 9424      6303FCE8 
 9424      AE010D48 
 9425 005e 0270786A 		.ascii	"\002pxj\263}t)\177\261\303\213>8\344\314\205\300+\372"
 9425      B37D7429 
 9425      7FB1C38B 
 9425      3E38E4CC 
 9425      85C02BFA 
 9426 0072 08B3E97C 		.ascii	"\010\263\351|i\354-L\266\013\264\322\015\013Y&\224\332"
 9426      69EC2D4C 
 9426      B60BB4D2 
 9426      0D0B5926 
 9426      94DA
 9427 0084 3B2494A8 		.ascii	";$\224\250\320I\266\224H\374"
 9427      D049B694 
 9427      48FC
 9428              		.global	sp_misc21
 9429              		.section	.rodata.sp_misc21,"a"
 9430              		.align	2
 9431              		.type	sp_misc21, %object
 9432              		.size	sp_misc21, 96
 9433              	sp_misc21:
 9434 0000 8828C701 		.ascii	"\210(\307\0011\032-5\031\252\336\224u\364Z\311|[\321"
 9434      311A2D35 
 9434      19AADE94 
 9434      75F45AC9 
 9434      7C5BD1
 9435 0013 D17316F7 		.ascii	"\321s\026\367\033\231\313HI\\oh1\013\247\3146F'l\346"
 9435      1B99CB48 
 9435      495C6F68 
 9435      310BA7CC 
 9435      3646276C 
 9436 0028 3B8A995D 		.ascii	";\212\231]p\215\264\017\025\272\331\036v\262jU#i\270"
 9436      708DB40F 
 9436      15BAD91E 
 9436      76B26A55 
 9436      2369B8
 9437 003b 2509772D 		.ascii	"%\011w-\355\342gG\266\225\210]\340%\327;\3211\201a>"
 9437      EDE26747 
 9437      B695885D 
 9437      E025D73B 
 9437      D1318161 
 9438 0050 2F885445 		.ascii	"/\210TE\236s\2761T\021e\005\332\345\254\036"
 9438      9E73BE31 
 9438      54116505 
 9438      DAE5AC1E 
 9439              		.global	sp_misc20
 9440              		.section	.rodata.sp_misc20,"a"
ARM GAS  /tmp/ccONvy4E.s 			page 241


 9441              		.align	2
 9442              		.type	sp_misc20, %object
 9443              		.size	sp_misc20, 67
 9444              	sp_misc20:
 9445 0000 0C0821C3 		.ascii	"\014\010!\303\0001L\004\240\272\252\241\273Zi\354\226"
 9445      00314C04 
 9445      A0BAAAA1 
 9445      BB5A69EC 
 9445      96
 9446 0011 96E14E84 		.ascii	"\226\341N\204U*\276\3061\335\364\012OW\313\012\235m"
 9446      552ABEC6 
 9446      31DDF40A 
 9446      4F57CB0A 
 9446      9D6D
 9447 0023 AC5C6E7B 		.ascii	"\254\\n{\272\016\260\021\027\001\206\231\201\002\212"
 9447      BA0EB011 
 9447      17018699 
 9447      81028A
 9448 0032 0873C014 		.ascii	"\010s\300\024\241\006\350\262H\000\315\015\"\240\220"
 9448      A106E8B2 
 9448      4800CD0D 
 9448      22A090
 9449 0041 D007     		.ascii	"\320\007"
 9450              		.global	sp_misc19
 9451              		.section	.rodata.sp_misc19,"a"
 9452              		.align	2
 9453              		.type	sp_misc19, %object
 9454              		.size	sp_misc19, 138
 9455              	sp_misc19:
 9456 0000 CD0CF545 		.ascii	"\315\014\365E\324\3554S\345\221\326\2114L3\322\022\253"
 9456      D4ED3453 
 9456      E591D689 
 9456      344C33D2 
 9456      12AB
 9457 0012 F6B0CC6A 		.ascii	"\366\260\314j\366\010W\3032\273\3052]\015\313\354\026"
 9457      F60857C3 
 9457      32BBC532 
 9457      5D0DCBEC 
 9457      16
 9458 0023 8B523DAD 		.ascii	"\213R=\255d\311\266\022\236\261\242\215lT\252\332\\"
 9458      64C9B612 
 9458      9EB1A28D 
 9458      6C54AADA 
 9458      5C
 9459 0034 B6B379CA 		.ascii	"\266\263y\312rt\305\336n\266h#\231i\273;\3035\325\244"
 9459      7274C5DE 
 9459      6EB66823 
 9459      9969BB3B 
 9459      C335D5A4 
 9460 0048 62E834CF 		.ascii	"b\3504\317\307\340O\225\333<\237]'\305j\363l\012\313"
 9460      C7E04F95 
 9460      DB3C9F5D 
 9460      27C56AF3 
 9460      6C0ACB
 9461 005b 0C73C933 		.ascii	"\014s\31136\313\263E'\317\006\357\214\024\226|\227$"
 9461      36CBB345 
 9461      27CF06EF 
ARM GAS  /tmp/ccONvy4E.s 			page 242


 9461      8C14967C 
 9461      9724
 9462 006d B62CA0F3 		.ascii	"\266,\240\363]\301\036\013\013\316\267\231b\322\034"
 9462      5DC11E0B 
 9462      0BCEB799 
 9462      62D21C
 9463 007c 18DF6692 		.ascii	"\030\337f\222ru\244\374\034R\310\301\361\003"
 9463      7275A4FC 
 9463      1C52C8C1 
 9463      F103
 9464              		.global	sp_misc18
 9465              		.section	.rodata.sp_misc18,"a"
 9466              		.align	2
 9467              		.type	sp_misc18, %object
 9468              		.size	sp_misc18, 96
 9469              	sp_misc18:
 9470 0000 2A60E9D9 		.ascii	"*`\351\331\255\314\271\200\213\274\320\220\355<\032"
 9470      ADCCB980 
 9470      8BBCD090 
 9470      ED3C1A
 9471 000f 379DD2B6 		.ascii	"7\235\322\266\263hzsY)\315Te\324\355\244\016\323\366"
 9471      B3687A73 
 9471      5929CD54 
 9471      65D4EDA4 
 9471      0ED3F6
 9472 0022 66D796BA 		.ascii	"f\327\226\272L\333\31244\3421]n1s\227\333\\\266\313"
 9472      4CDBCA34 
 9472      34E2315D 
 9472      6E317397 
 9472      DB5CB6CB 
 9473 0036 65A11673 		.ascii	"e\241\026s8.z\006\264\325\342ZeW\344\252\235\353\224"
 9473      382E7A06 
 9473      B4D5E25A 
 9473      6557E4AA 
 9473      9DEB94
 9474 0049 7C89EA34 		.ascii	"|\211\3524\2764\361J\351\322\370Z[\253\235l\347G\025"
 9474      BE34F14A 
 9474      E9D2F85A 
 9474      5BAB9D6C 
 9474      E74715
 9475 005c 1450561E 		.ascii	"\024PV\036"
 9476              		.global	sp_misc17
 9477              		.section	.rodata.sp_misc17,"a"
 9478              		.align	2
 9479              		.type	sp_misc17, %object
 9480              		.size	sp_misc17, 117
 9481              	sp_misc17:
 9482 0000 C6D43C32 		.ascii	"\306\324<2\335\034;\207\333\013\247\265\234\034\341"
 9482      DD1C3B87 
 9482      DB0BA7B5 
 9482      9C1CE1
 9483 000f 3A554FF1 		.ascii	":UO\361\260Mh\216|9\303V\261=\363X\005G\371\010\211"
 9483      B04D688E 
 9483      7C39C356 
 9483      B13DF358 
 9483      0547F908 
 9484 0024 76E41CA9 		.ascii	"v\344\034\251\303\\\312\211w\233\035-\233\347(Zf\262"
ARM GAS  /tmp/ccONvy4E.s 			page 243


 9484      C35CCA89 
 9484      779B1D2D 
 9484      9BE7285A 
 9484      66B2
 9485 0036 18B32577 		.ascii	"\030\263%w\232\313\254\026\275/\250\014\263*\312\037"
 9485      9ACBAC16 
 9485      BD2FA80C 
 9485      B32ACA1F 
 9486 0046 A2DAAD6E 		.ascii	"\242\332\255n\027'r\236O\244W\335\344I\343\327\246T"
 9486      1727729E 
 9486      4FA457DD 
 9486      E449E3D7 
 9486      A654
 9487 0058 83274C7C 		.ascii	"\203'L|jP\362\276\367\203\257\215EfI2~\010\314\252m"
 9487      6A50F2BE 
 9487      F783AF8D 
 9487      45664932 
 9487      7E08CCAA 
 9488 006d D6F93198 		.ascii	"\326\3711\230\270\012\325\007"
 9488      B80AD507 
 9489              		.global	sp_misc16
 9490              		.section	.rodata.sp_misc16,"a"
 9491              		.align	2
 9492              		.type	sp_misc16, %object
 9493              		.size	sp_misc16, 132
 9494              	sp_misc16:
 9495 0000 08A35D00 		.ascii	"\010\243]\000F\207'\255&\266\254\221u\215k\036\263z"
 9495      468727AD 
 9495      26B6AC91 
 9495      758D6B1E 
 9495      B37A
 9496 0012 D4BEB63D 		.ascii	"\324\276\266=\315`\006\246Z\025R\012plP\003\246r\030"
 9496      CD6006A6 
 9496      5A15520A 
 9496      706C5003 
 9496      A67218
 9497 0025 567624D5 		.ascii	"Vv$\325e\247YI\321\3140\264bK\223WLj\205#\265\277\220"
 9497      65A75949 
 9497      D1CC30B4 
 9497      624B9357 
 9497      4C6A8523 
 9498 003c B8312ED7 		.ascii	"\2701.\327\361\311*\247x\323\227\250\270\262\343\272"
 9498      F1C92AA7 
 9498      78D397A8 
 9498      B8B2E3BA 
 9499 004c A0D9938A 		.ascii	"\240\331\223\212\217\023\242eYY\273\316\265\207\035"
 9499      8F13A265 
 9499      5959BBCE 
 9499      B5871D
 9500 005b 0B757A33 		.ascii	"\013uz3v\000W\341\034\200\000lo^\354\230\224\332\243"
 9500      760057E1 
 9500      1C80006C 
 9500      6F5EEC98 
 9500      94DAA3
 9501 006e 4AB25DC2 		.ascii	"J\262]\302>-\301\321\016\266\215\224\355I1\330\321;"
 9501      3E2DC1D1 
 9501      0EB68D94 
ARM GAS  /tmp/ccONvy4E.s 			page 244


 9501      ED4931D8 
 9501      D13B
 9502 0080 A9AADC07 		.ascii	"\251\252\334\007"
 9503              		.global	sp_misc14
 9504              		.section	.rodata.sp_misc14,"a"
 9505              		.align	2
 9506              		.type	sp_misc14, %object
 9507              		.size	sp_misc14, 398
 9508              	sp_misc14:
 9509 0000 CCA43D2C 		.ascii	"\314\244=,\314\235\030\207\2072\027wll6M\322\302\256"
 9509      CC9D1887 
 9509      87321777 
 9509      6C6C364D 
 9509      D2C2AE
 9510 0013 B3C4643D 		.ascii	"\263\304d=N\327\3114\013spm7\323t\323\305\0113\014U"
 9510      4ED7C934 
 9510      0B73706D 
 9510      37D374D3 
 9510      C509330C 
 9511 0028 B30BDECE 		.ascii	"\263\013\336\3164\206\256j[\302;.\272\350\225\212\257"
 9511      3486AE6A 
 9511      5BC23B2E 
 9511      BAE8958A 
 9511      AF
 9512 0039 D4E92C66 		.ascii	"\324\351,f\221\016\033\246\303\260\031jN\270>tS\"\305"
 9512      910E1BA6 
 9512      C3B0196A 
 9512      4EB83E74 
 9512      5322C5
 9513 004c 9ED1D17D 		.ascii	"\236\321\321}\312\014\033\246W?\272\317\231\351)\357"
 9513      CA0C1BA6 
 9513      573FBACF 
 9513      99E929EF 
 9514 005c EA573FBA 		.ascii	"\352W?\272w9\021\301v\3511\270\331\225\022\020\300\260"
 9514      773911C1 
 9514      76E931B8 
 9514      D9951210 
 9514      C0B0
 9515 006e 9D0658C1 		.ascii	"\235\006X\301Y\001+$#\240\250`\000\007\244\030\256\000"
 9515      59012B24 
 9515      23A0A860 
 9515      0007A418 
 9515      AE00
 9516 0080 3BDD2540 		.ascii	";\335%@\201\242\333\303>0\261\233a\206t\303\333]\246"
 9516      81A2DBC3 
 9516      3E30B19B 
 9516      618674C3 
 9516      DB5DA6
 9517 0093 2D61035B 		.ascii	"-a\003[wX\266x%\274\323a\351<\232\360Q\247U,Q.\022^"
 9517      7758B678 
 9517      25BCD361 
 9517      E93C9AF0 
 9517      51A7552C 
 9518 00ab 4EB592C5 		.ascii	"N\265\222\305\347\211\323+\016\026\361\355*\321V\333"
 9518      E789D32B 
 9518      0E16F1ED 
 9518      2AD156DB 
ARM GAS  /tmp/ccONvy4E.s 			page 245


 9519 00bb CA56D9C5 		.ascii	"\312V\331\305-\024+\333\031\337p\356\352lm\255-K\226"
 9519      2D142BDB 
 9519      19DF70EE 
 9519      EA6C6DAD 
 9519      2D4B96
 9520 00ce 71526191 		.ascii	"qRa\221\015\332\010\014\334E\204\214 `\252R\014\004"
 9520      0DDA080C 
 9520      DC45848C 
 9520      2060AA52 
 9520      0C04
 9521 00e0 7D48F66B 		.ascii	"}H\366k\243\322\214\356Iz\222\3522k\025\266\034\331"
 9521      A3D28CEE 
 9521      497A92EA 
 9521      326B15B6 
 9521      1CD9
 9522 00f2 CBCC55D8 		.ascii	"\313\314U\330rd'\303(Y\217!m\014\252\363\212\23528\340"
 9522      726427C3 
 9522      28598F21 
 9522      6D0CAAF3 
 9522      8A9D3238 
 9523 0107 E814075C 		.ascii	"\350\024\007\\?R4\037\330\313:v\321C\207r9[\325hFj\350"
 9523      3F52341F 
 9523      D8CB3A76 
 9523      D1438772 
 9523      395BD568 
 9524 011e 616B7918 		.ascii	"aky\0309\011g\265\344fd+Z\223\024\233\221\224\370\214"
 9524      390967B5 
 9524      E466642B 
 9524      5A93149B 
 9524      9194F88C 
 9525 0132 534E8617 		.ascii	"SN\206\027\332\027\012\325\031\302\370\033)\243`h)\037"
 9525      DA170AD5 
 9525      19C2F81B 
 9525      29A36068 
 9525      291F
 9526 0144 240A9DA1 		.ascii	"$\012\235\241\244\274iHtF\210BZi\305\330Z\352\252\234"
 9526      A4BC6948 
 9526      74468842 
 9526      5A69C5D8 
 9526      5AEAAA9C 
 9527 0158 48E736E3 		.ascii	"H\3476\343,\254N\223\327\312D\250\310\031\256\315a\035"
 9527      2CAC4E93 
 9527      D7CA44A8 
 9527      C819AECD 
 9527      611D
 9528 016a CBF8BAC7 		.ascii	"\313\370\272\307\361\271\245\264\242^\34786g\244\216"
 9528      F1B9A5B4 
 9528      A25EE738 
 9528      3667A48E 
 9529 017a D9ED6C67 		.ascii	"\331\355lg\332\325\016vt!\006-\337\3305t4\260\325\007"
 9529      DAD50E76 
 9529      7421062D 
 9529      DFD83574 
 9529      34B0D507 
 9530              		.global	sp_misc11
 9531              		.section	.rodata.sp_misc11,"a"
 9532              		.align	2
ARM GAS  /tmp/ccONvy4E.s 			page 246


 9533              		.type	sp_misc11, %object
 9534              		.size	sp_misc11, 398
 9535              	sp_misc11:
 9536 0000 AE0C56B2 		.ascii	"\256\014V\262\235\345\354qZ\301\321^;'d%o\021\365\320"
 9536      9DE5EC71 
 9536      5AC1D15E 
 9536      3B276425 
 9536      6F11F5D0 
 9537 0014 8AE580A3 		.ascii	"\212\345\200\243D\0140r\211\002J\0125\266\267\306\256"
 9537      440C3072 
 9537      89024A0A 
 9537      35B6B7C6 
 9537      AE
 9538 0025 EEC6D9B2 		.ascii	"\356\306\331\262s\207t\254b\333L\037\261T\207\035\013"
 9538      738774AC 
 9538      62DB4C1F 
 9538      B154871D 
 9538      0B
 9539 0036 75F6C95E 		.ascii	"u\366\311^v\312\\\276){Y!r\347\272\354bY\257\323\353"
 9539      76CA5CBE 
 9539      297B5921 
 9539      72E7BAEC 
 9539      6259AFD3 
 9540 004b B48A99BC 		.ascii	"\264\212\231\274huK.\2067tWN9\031QH~+%gx.\365\215p\234"
 9540      68754B2E 
 9540      86377457 
 9540      4E391951 
 9540      487E2B25 
 9541 0066 1104FBB7 		.ascii	"\021\004\373\267BF\200fn@\200\226\"\010\220M\210\000"
 9541      42468066 
 9541      6E408096 
 9541      2208904D 
 9541      8800
 9542 0078 822F7596 		.ascii	"\202/u\226\236\252)\341\3129zR'W\242\340\332AY\324\226"
 9542      9EAA29E1 
 9542      CA397A52 
 9542      2757A2E0 
 9542      DA4159D4 
 9543 008d 9D2B9A7A 		.ascii	"\235+\232zZ84.-\341i\026\3139,e\244\226\343\344H\327"
 9543      5A38342E 
 9543      2DE16916 
 9543      CB392C65 
 9543      A496E3E4 
 9544 00a3 96EC759A 		.ascii	"\226\354u\232\343\246\247\3620\036v\030^\032\301jY\241"
 9544      E3A6A7F2 
 9544      301E7618 
 9544      5E1AC16A 
 9544      59A1
 9545 00b5 58A527AA 		.ascii	"X\245'\252e\305(\225\313r\212\025\014o\227A\026vq&i"
 9545      65C52895 
 9545      CB728A15 
 9545      0C6F9741 
 9545      16767126 
 9546 00ca 655B00BE 		.ascii	"e[\000\276\273\022\300\204V\002\304>\234l\323iR*Rrt"
 9546      BB12C084 
 9546      5602C43E 
 9546      9C6CD369 
ARM GAS  /tmp/ccONvy4E.s 			page 247


 9546      522A5272 
 9547 00df 93719DC8 		.ascii	"\223q\235\310\305S\325R}l'_%O\363\226c\200\000R\004"
 9547      C553D552 
 9547      7D6C275F 
 9547      254FF396 
 9547      63800052 
 9548 00f4 F0B91B03 		.ascii	"\360\271\033\003>w5\300\347\356\012\370\33419:\363d"
 9548      3E7735C0 
 9548      E7EE0AF8 
 9548      DC31393A 
 9548      F364
 9549 0106 96ECE4EA 		.ascii	"\226\354\344\352J\027^v\212g\013U[\331)\236\213\354"
 9549      4A175E76 
 9549      8A670B55 
 9549      5BD9299E 
 9549      8BEC
 9550 0118 59615785 		.ascii	"YaW\205VK\330\024\035\006xe\031\200\231S\034Pcjr]\022"
 9550      564BD814 
 9550      1D067865 
 9550      19809953 
 9550      1C50636A 
 9551 012f 0B4FC7C5 		.ascii	"\013O\307\305\013\201\242\243\255\024?[\262\256\224"
 9551      0B81A2A3 
 9551      AD143F5B 
 9551      B2AE94
 9552 013e 1DFCA844 		.ascii	"\035\374\250D\247\2236q\014wK\017\331\016\350\252\264"
 9552      A7933671 
 9552      0C774B0F 
 9552      D90EE8AA 
 9552      B4
 9553 014f 983E8977 		.ascii	"\230>\211w$\343\346\207.\225\326\214\232\357\207\214"
 9553      24E3E687 
 9553      2E95D68C 
 9553      9AEF878C 
 9554 015f 56282E5E 		.ascii	"V(.^\030\272\232I\247\004~\310X8\235\020\306\206\351"
 9554      18BA9A49 
 9554      A7047EC8 
 9554      58389D10 
 9554      C686E9
 9555 0172 565418E0 		.ascii	"VT\030\340\264\002\002\246*\205\0004\357\352\274\220"
 9555      B40202A6 
 9555      2A850034 
 9555      EFEABC90 
 9556 0182 A1CB42B2 		.ascii	"\241\313B\262\363\\\206\015\033\311\326{"
 9556      F35C860D 
 9556      1BC9D67B 
 9557              		.global	sp_misc10
 9558              		.section	.rodata.sp_misc10,"a"
 9559              		.align	2
 9560              		.type	sp_misc10, %object
 9561              		.size	sp_misc10, 163
 9562              	sp_misc10:
 9563 0000 2150A92C 		.ascii	"!P\251,\325m\025G\265\364TK\334\215\246\331i\036Z\266"
 9563      D56D1547 
 9563      B5F4544B 
 9563      DC8DA6D9 
 9563      691E5AB6 
ARM GAS  /tmp/ccONvy4E.s 			page 248


 9564 0014 93AA8A96 		.ascii	"\223\252\212\226q+\252\352P\3344O\355H[\335\352Qm-\313"
 9564      712BAAEA 
 9564      50DC344F 
 9564      ED485BDD 
 9564      EA516D2D 
 9565 0029 F0245BDD 		.ascii	"\360$[\335Z\323\314\214\"\253\304M\323\307\235c\035"
 9565      5AD3CC8C 
 9565      22ABC44D 
 9565      D3C79D63 
 9565      1D
 9566 003a 375D8DB4 		.ascii	"7]\215\264\360\216<\014\355G22R3\215O\312\315\324\314"
 9566      F08E3C0C 
 9566      ED473232 
 9566      52338D4F 
 9566      CACDD4CC 
 9567 004e C6316A5D 		.ascii	"\3061j]i\022\237\332\310+'\023\274\350\234\234#]\361"
 9567      69129FDA 
 9567      C82B2713 
 9567      BCE89C9C 
 9567      235DF1
 9568 0061 AA770971 		.ascii	"\252w\011q9\305\321\326\255;\3344\313\006\325\312L4"
 9568      39C5D1D6 
 9568      AD3BDC34 
 9568      CB06D5CA 
 9568      4C34
 9569 0073 EDEE74A7 		.ascii	"\355\356t\247\270.rTT\254\346\371\314aR\311\202\257"
 9569      B82E7254 
 9569      54ACE6F9 
 9569      CC6152C9 
 9569      82AF
 9570 0085 B36666B7 		.ascii	"\263ff\267\035\241\313\256n\336zD\266\231\205W\342\021"
 9570      1DA1CBAE 
 9570      6EDE7A44 
 9570      B6998557 
 9570      E211
 9571 0097 FBEEE692 		.ascii	"\373\356\346\222\265J\352\252\253G&z"
 9571      B54AEAAA 
 9571      AB47267A 
 9572              		.global	sp_misc9
 9573              		.section	.rodata.sp_misc9,"a"
 9574              		.align	2
 9575              		.type	sp_misc9, %object
 9576              		.size	sp_misc9, 99
 9577              	sp_misc9:
 9578 0000 C153E5CD 		.ascii	"\301S\345\315\334<e/;\305\222\361\\\314\374T\243jE\223"
 9578      DC3C652F 
 9578      3BC592F1 
 9578      5CCCFC54 
 9578      A36A4593 
 9579 0014 755C45F2 		.ascii	"u\\E\3628\215\3576a\353m5\247\322\030\325\220I\274Z"
 9579      388DEF36 
 9579      61EB6D35 
 9579      A7D218D5 
 9579      9049BC5A 
 9580 0028 14D14253 		.ascii	"\024\321BSSv\223U^\2568\263MVk\310*\235v\271+S\031\252"
 9580      53769355 
 9580      5EAE38B3 
ARM GAS  /tmp/ccONvy4E.s 			page 249


 9580      4D566BC8 
 9580      2A9D76B9 
 9581 0040 AAAF5CA9 		.ascii	"\252\257\\\251j\250\252\274\231\233\247\246\311x.f~"
 9581      6AA8AABC 
 9581      999BA7A6 
 9581      C9782E66 
 9581      7E
 9582 0051 BA5E8D64 		.ascii	"\272^\215d\311:\256\"y\234\313w\233\260\365\266\341"
 9582      C93AAE22 
 9582      799CCB77 
 9582      9BB0F5B6 
 9582      E1
 9583 0062 03       		.ascii	"\003"
 9584              		.global	sp_misc8
 9585              		.section	.rodata.sp_misc8,"a"
 9586              		.align	2
 9587              		.type	sp_misc8, %object
 9588              		.size	sp_misc8, 154
 9589              	sp_misc8:
 9590 0000 0EC8CC23 		.ascii	"\016\310\314#yYR\316\232\242\352\247\240h\262\312U\350"
 9590      795952CE 
 9590      9AA2EAA7 
 9590      A068B2CA 
 9590      55E8
 9591 0012 A2645C1C 		.ascii	"\242d\\\034\315\016\002\260\236\022\200\220\241\306"
 9591      CD0E02B0 
 9591      9E128090 
 9591      A1C6
 9592 0020 1EA13D4C 		.ascii	"\036\241=L\024+\333C\277\251\026\254lE\353'\223\230"
 9592      142BDB43 
 9592      BFA916AC 
 9592      6C45EB27 
 9592      9398
 9593 0032 B184ECDD 		.ascii	"\261\204\354\335\015#\316\344&\372\266\202$3\030\226"
 9593      0D23CEE4 
 9593      26FAB682 
 9593      24331896 
 9594 0042 AE1A532C 		.ascii	"\256\032S,\351\323c\302[\261Y\314\350Q\357\305\241i"
 9594      E9D363C2 
 9594      5BB159CC 
 9594      E851EFC5 
 9594      A169
 9595 0054 22C2D355 		.ascii	"\"\302\323U\267\272\315\023\266,\302\262u\257y*\204"
 9595      B7BACD13 
 9595      B62CC2B2 
 9595      75AF792A 
 9595      84
 9596 0065 987BDEE6 		.ascii	"\230{\336\346[\231\246\031YjX\202\256M\015]\275\000"
 9596      5B99A619 
 9596      596A5882 
 9596      AE4D0D5D 
 9596      BD00
 9597 0077 1A3233DE 		.ascii	"\03223\336\367\335i\246X\005QW\207\246J\024d\351&j\216"
 9597      F7DD69A6 
 9597      58055157 
 9597      87A64A14 
 9597      64E9266A 
ARM GAS  /tmp/ccONvy4E.s 			page 250


 9598 008c 9D5FDD44 		.ascii	"\235_\335D\230&b~\215\023E\342\362\001"
 9598      9826627E 
 9598      8D1345E2 
 9598      F201
 9599              		.global	sp_misc7
 9600              		.section	.rodata.sp_misc7,"a"
 9601              		.align	2
 9602              		.type	sp_misc7, %object
 9603              		.size	sp_misc7, 118
 9604              	sp_misc7:
 9605 0000 291E35CC 		.ascii	")\0365\314\330\334\224\250\037g\350\\2\302v\303)\274"
 9605      D8DC94A8 
 9605      1F67E85C 
 9605      32C276C3 
 9605      29BC
 9606 0012 F5F2EA88 		.ascii	"\365\362\352\210\300\210T\313.EMr3'+&6\345I<\2542J\025"
 9606      C08854CB 
 9606      2E454D72 
 9606      33272B26 
 9606      36E5493C 
 9607 002a AAC9314B 		.ascii	"\252\3111K\0143\3655\333lV\311i.\230\344\030%\224\231"
 9607      0C33F535 
 9607      DB6C56C9 
 9607      692E98E4 
 9607      18259499 
 9608 003e C7DA6394 		.ascii	"\307\332c\224\330-V\361\216\236\374\225\206\271\277"
 9608      D82D56F1 
 9608      8E9EFC95 
 9608      86B9BF
 9609 004d FAD5AF39 		.ascii	"\372\325\2579\234\244\272\315\314}\012\274\356v%o>U"
 9609      9CA4BACD 
 9609      CC7D0ABC 
 9609      EE76256F 
 9609      3E55
 9610 005f 59D41DE6 		.ascii	"Y\324\035\346\220\016\201S\225\252P\015P\300P\346\014"
 9610      900E8153 
 9610      95AA500D 
 9610      50C050E6 
 9610      0C
 9611 0070 58C19502 		.ascii	"X\301\225\002\030x"
 9611      1878
 9612              		.global	sp_misc6
 9613              		.section	.rodata.sp_misc6,"a"
 9614              		.align	2
 9615              		.type	sp_misc6, %object
 9616              		.size	sp_misc6, 45
 9617              	sp_misc6:
 9618 0000 0C502D98 		.ascii	"\014P-\230\000<\0243\200\217\344\240\213ZYhi\206\243"
 9618      003C1433 
 9618      808FE4A0 
 9618      8B5A5968 
 9618      6986A3
 9619 0013 6B447076 		.ascii	"kDpv9f\251&\336\261\365\232\313\2513T\334\333\000\200"
 9619      3966A926 
 9619      DEB1F59A 
 9619      CBA93354 
 9619      DCDB0080 
ARM GAS  /tmp/ccONvy4E.s 			page 251


 9620 0027 017236C6 		.ascii	"\001r6\306\300\003"
 9620      C003
 9621              		.global	sp_misc5
 9622              		.section	.rodata.sp_misc5,"a"
 9623              		.align	2
 9624              		.type	sp_misc5, %object
 9625              		.size	sp_misc5, 69
 9626              	sp_misc5:
 9627 0000 2190C132 		.ascii	"!\220\3012;Y\225\300\372\254 \267S|\225\327\254Bu\362"
 9627      3B5995C0 
 9627      FAAC20B7 
 9627      537C95D7 
 9627      AC4275F2 
 9628 0014 C4688E4A 		.ascii	"\304h\216JU\331\313nu\213\253v\252\351\254\351Nw\206"
 9628      55D9CB6E 
 9628      758BAB76 
 9628      AAE9ACE9 
 9628      4E7786
 9629 0027 634B6A70 		.ascii	"cKjp5\231nrm,\012o;\002\370\321]\003\022\220\200\006"
 9629      35996E72 
 9629      6D2C0A6F 
 9629      3B02F8D1 
 9629      5D031290 
 9630 003d 34200109 		.ascii	"4 \001\011P\000\003\017"
 9630      5000030F 
 9631              		.global	sp_misc4
 9632              		.section	.rodata.sp_misc4,"a"
 9633              		.align	2
 9634              		.type	sp_misc4, %object
 9635              		.size	sp_misc4, 140
 9636              	sp_misc4:
 9637 0000 218CDCC5 		.ascii	"!\214\334\3055\\\247\260\010UWw\224\302\310MM\322u\011"
 9637      355CA7B0 
 9637      08555777 
 9637      94C2C84D 
 9637      4DD27509 
 9638 0014 ABED70B0 		.ascii	"\253\355p\260D-4\276\215\255\352\250\230\304v7OCBb/"
 9638      442D34BE 
 9638      8DADEAA8 
 9638      98C47637 
 9638      4F434262 
 9639 0029 46D50D0A 		.ascii	"F\325\015\012\211\331J\363\304Pb\353\263\202\334N\261"
 9639      89D94AF3 
 9639      C45062EB 
 9639      B382DC4E 
 9639      B1
 9640 003a D51A13F5 		.ascii	"\325\032\023\365\325\3132q\303$Zok[\327:V\260[\246\236"
 9640      D5CB3271 
 9640      C3245A6F 
 9640      6B5BD73A 
 9640      56B05BA6 
 9641 004f F4DAD7BE 		.ascii	"\364\332\327\276\316rl\\W\363$\333\233^\363L+3\325T"
 9641      CE726C5C 
 9641      57F324DB 
 9641      9B5EF34C 
 9641      2B33D554 
 9642 0063 C133515B 		.ascii	"\3013Q[9\374F\317y\262h*g6\025\360h\025\234\371X\310"
ARM GAS  /tmp/ccONvy4E.s 			page 252


 9642      39FC46CF 
 9642      79B2682A 
 9642      673615F0 
 9642      68159CF9 
 9643 0079 A37B2ACB 		.ascii	"\243{*\313\226\241\010\2713\017\"\273,\344\312\325\304"
 9643      96A108B9 
 9643      330F22BB 
 9643      2CE4CAD5 
 9643      C4
 9644 008a 9C3D     		.ascii	"\234="
 9645              		.global	sp_misc3
 9646              		.section	.rodata.sp_misc3,"a"
 9647              		.align	2
 9648              		.type	sp_misc3, %object
 9649              		.size	sp_misc3, 113
 9650              	sp_misc3:
 9651 0000 0C60BC92 		.ascii	"\014`\274\222\000XO)@\310\320\0008\345:B\237\332B\324"
 9651      00584F29 
 9651      40C8D000 
 9651      38E53A42 
 9651      9FDA42D4 
 9652 0014 C9F69BAB 		.ascii	"\311\366\233\253F\321\2705^\216\351\251\345\331h;\333"
 9652      46D1B835 
 9652      5E8EE9A9 
 9652      E5D9683B 
 9652      DB
 9653 0025 D9CE7696 		.ascii	"\331\316v\226c\312X\204t\236\366\264\233\255fy\250\245"
 9653      63CA5884 
 9653      749EF6B4 
 9653      9BAD6679 
 9653      A8A5
 9654 0037 6DB66EDE 		.ascii	"m\266n\336!\236\266\331.Y\205\232\266b\373(\303\212"
 9654      219EB6D9 
 9654      2E59859A 
 9654      B662FB28 
 9654      C38A
 9655 0049 7E8AEDBC 		.ascii	"~\212\355\274\264\262\361K\2665\274!\256\3178\302\330"
 9655      B4B2F14B 
 9655      B635BC21 
 9655      AECF38C2 
 9655      D8
 9656 005a 244632E7 		.ascii	"$F2\347\033\025\026\"IK\320ti\260'tA,E\202\036\373\001"
 9656      1B151622 
 9656      494BD074 
 9656      69B02774 
 9656      412C4582 
 9657              		.global	sp_misc2
 9658              		.section	.rodata.sp_misc2,"a"
 9659              		.align	2
 9660              		.type	sp_misc2, %object
 9661              		.size	sp_misc2, 50
 9662              	sp_misc2:
 9663 0000 01B0DEBD 		.ascii	"\001\260\336\275Y:\271lF\346a\230R\332\345\251\227a"
 9663      593AB96C 
 9663      46E66198 
 9663      52DAE5A9 
 9663      9761
ARM GAS  /tmp/ccONvy4E.s 			page 253


 9664 0012 7A498477 		.ascii	"zI\204w\336\346\264\226\355V\232G$\331\316r\\w\356h"
 9664      DEE6B496 
 9664      ED569A47 
 9664      24D9CE72 
 9664      5C77EE68 
 9665 0026 BBD50600 		.ascii	"\273\325\006\000\007D\222*\000c\235\036"
 9665      0744922A 
 9665      00639D1E 
 9666              		.global	sp_misc1
 9667              		.section	.rodata.sp_misc1,"a"
 9668              		.align	2
 9669              		.type	sp_misc1, %object
 9670              		.size	sp_misc1, 106
 9671              	sp_misc1:
 9672 0000 2115AB38 		.ascii	"!\025\2538\324V\227H\266aW\333\334B\021\317\335\264"
 9672      D4569748 
 9672      B66157DB 
 9672      DC4211CF 
 9672      DDB4
 9673 0012 4FF3F91A 		.ascii	"O\363\371\032\312\360M\315Qe\325\225\273\024K\235\006"
 9673      CAF04DCD 
 9673      5165D595 
 9673      BB144B9D 
 9673      06
 9674 0023 35EB522C 		.ascii	"5\353R,9\023\302=1\261Dp\027\021\031\000\001\310\311"
 9674      3913C23D 
 9674      31B14470 
 9674      17111900 
 9674      01C8C9
 9675 0036 ACD9DDA6 		.ascii	"\254\331\335\246(\207\332e\373\244\034\221\251\226\253"
 9675      2887DA65 
 9675      FBA41C91 
 9675      A996AB
 9676 0045 8AC544D5 		.ascii	"\212\305D\325\336\356v\217\347\222jy\265\332\336\366"
 9676      DEEE768F 
 9676      E7926A79 
 9676      B5DADEF6 
 9677 0055 A6D7FCD4 		.ascii	"\246\327\374\324H\\\263q\011sq\320\3208)J\3169\\\025"
 9677      485CB371 
 9677      097371D0 
 9677      D038294A 
 9677      CE395C15 
 9678 0069 3F       		.ascii	"?"
 9679              		.global	sp_misc0
 9680              		.section	.rodata.sp_misc0,"a"
 9681              		.align	2
 9682              		.type	sp_misc0, %object
 9683              		.size	sp_misc0, 197
 9684              	sp_misc0:
 9685 0000 0250D245 		.ascii	"\002P\322E\001F\230:\300\363\260\020\371Z\235lmf\262"
 9685      0146983A 
 9685      C0F3B010 
 9685      F95A9D6C 
 9685      6D66B2
 9686 0013 A290B7D4 		.ascii	"\242\220\267\324\254\361\016\217\237\355\266\272'\271"
 9686      ACF10E8F 
 9686      9FEDB6BA 
ARM GAS  /tmp/ccONvy4E.s 			page 254


 9686      27B9
 9687 0021 DE71731C 		.ascii	"\336qs\034\267\260\304\313)=9<j7\273f#\227\215\342\234"
 9687      B7B0C4CB 
 9687      293D393C 
 9687      6A37BB66 
 9687      23978DE2 
 9688 0036 60E1334B 		.ascii	"`\3413K\221\360\234\301kM;,\322J\2535\023\266 \330\344"
 9688      91F09CC1 
 9688      6B4D3B2C 
 9688      D24AAB35 
 9688      13B620D8 
 9689 004b 948FD222 		.ascii	"\224\217\322\"k\333\"|1K\204\213p\321-,\3232\"\330\334"
 9689      6BDB227C 
 9689      314B848B 
 9689      70D12D2C 
 9689      D33222D8 
 9690 0060 41F16DC9 		.ascii	"A\361m\311p\3256-\320\245\275L\326,?\352kI\356|\274"
 9690      70D5362D 
 9690      D0A5BD4C 
 9690      D62C3FEA 
 9690      6B49EE7C 
 9691 0075 90BED52C 		.ascii	"\220\276\325,\315u\257{\335\353m\177\207+\312v\317\304"
 9691      CD75AF7B 
 9691      DDEB6D7F 
 9691      872BCA76 
 9691      CFC4
 9692 0087 92EC7467 		.ascii	"\222\354tg\243l:\337\325\234\205\272D\367T\226\035\333"
 9692      A36C3ADF 
 9692      D59C85BA 
 9692      44F75496 
 9692      1DDB
 9693 0099 D046671E 		.ascii	"\320Fg\036Dv]\233\224\253\2119sm\322\256Al\325\265\311"
 9693      44765D9B 
 9693      94AB8939 
 9693      736DD2AE 
 9693      416CD5B5 
 9694 00ae 84398952 		.ascii	"\2049\211R\3276efb\212][\270\212[*\006\000\000\000\000"
 9694      D7366566 
 9694      628A5D5B 
 9694      B88A5B2A 
 9694      06000000 
 9695 00c3 8007     		.ascii	"\200\007"
 9696              		.global	sp_alphon127
 9697              		.section	.rodata.sp_alphon127,"a"
 9698              		.align	2
 9699              		.type	sp_alphon127, %object
 9700              		.size	sp_alphon127, 6
 9701              	sp_alphon127:
 9702 0000 00000000 		.ascii	"\000\000\000\000\377\017"
 9702      FF0F
 9703              		.global	sp_alphon126
 9704              		.section	.rodata.sp_alphon126,"a"
 9705              		.align	2
 9706              		.type	sp_alphon126, %object
 9707              		.size	sp_alphon126, 6
 9708              	sp_alphon126:
 9709 0000 00000000 		.ascii	"\000\000\000\000\377\017"
ARM GAS  /tmp/ccONvy4E.s 			page 255


 9709      FF0F
 9710              		.global	sp_alphon125
 9711              		.section	.rodata.sp_alphon125,"a"
 9712              		.align	2
 9713              		.type	sp_alphon125, %object
 9714              		.size	sp_alphon125, 20
 9715              	sp_alphon125:
 9716 0000 0CF0CCCD 		.ascii	"\014\360\314\315\000\236\2719 K#\001\204\354\206\000"
 9716      009EB939 
 9716      204B2301 
 9716      84EC8600 
 9717 0010 1554E101 		.ascii	"\025T\341\001"
 9718              		.global	sp_alphon124
 9719              		.section	.rodata.sp_alphon124,"a"
 9720              		.align	2
 9721              		.type	sp_alphon124, %object
 9722              		.size	sp_alphon124, 15
 9723              	sp_alphon124:
 9724 0000 0428CE44 		.ascii	"\004(\316D\000\305\231X@\003\002(\316\354\001"
 9724      00C59958 
 9724      40030228 
 9724      CEEC01
 9725              		.global	sp_alphon123
 9726              		.section	.rodata.sp_alphon123,"a"
 9727              		.align	2
 9728              		.type	sp_alphon123, %object
 9729              		.size	sp_alphon123, 26
 9730              	sp_alphon123:
 9731 0000 0A988E28 		.ascii	"\012\230\216(\001\323\021%`\367\224\000\354>\021\200"
 9731      01D31125 
 9731      60F79400 
 9731      EC3E1180 
 9732 0010 3DAA1C30 		.ascii	"=\252\0340W\205\003z\257|"
 9732      5785037A 
 9732      AF7C
 9733              		.global	sp_alphon122
 9734              		.section	.rodata.sp_alphon122,"a"
 9735              		.align	2
 9736              		.type	sp_alphon122, %object
 9737              		.size	sp_alphon122, 16
 9738              	sp_alphon122:
 9739 0000 0CE8BDD2 		.ascii	"\014\350\275\322\000\275Wz \002\021H@\357\225\017"
 9739      00BD577A 
 9739      20021148 
 9739      40EF950F 
 9740              		.global	sp_alphon121
 9741              		.section	.rodata.sp_alphon121,"a"
 9742              		.align	2
 9743              		.type	sp_alphon121, %object
 9744              		.size	sp_alphon121, 30
 9745              	sp_alphon121:
 9746 0000 023882CC 		.ascii	"\0028\202\314\001G\220\031\340;V\003\374\254j\200_M"
 9746      01479019 
 9746      E03B5603 
 9746      FCAC6A80 
 9746      5F4D
 9747 0012 0DF08B85 		.ascii	"\015\360\213\205\000~dA\300\017\"\017"
ARM GAS  /tmp/ccONvy4E.s 			page 256


 9747      007E6441 
 9747      C00F220F 
 9748              		.global	sp_alphon120
 9749              		.section	.rodata.sp_alphon120,"a"
 9750              		.align	2
 9751              		.type	sp_alphon120, %object
 9752              		.size	sp_alphon120, 20
 9753              	sp_alphon120:
 9754 0000 08F82982 		.ascii	"\010\370)\202\000?EH@\003\006\370)\323\003\001\370\311"
 9754      003F4548 
 9754      400306F8 
 9754      29D30301 
 9754      F8C9
 9755 0012 ED01     		.ascii	"\355\001"
 9756              		.global	sp_alphon119
 9757              		.section	.rodata.sp_alphon119,"a"
 9758              		.align	2
 9759              		.type	sp_alphon119, %object
 9760              		.size	sp_alphon119, 19
 9761              	sp_alphon119:
 9762 0000 08F02103 		.ascii	"\010\360!\003\001>d\010 \332L\005x\037e\000\237\262"
 9762      013E6408 
 9762      20DA4C05 
 9762      781F6500 
 9762      9FB2
 9763 0012 1E       		.ascii	"\036"
 9764              		.global	sp_alphon118
 9765              		.section	.rodata.sp_alphon118,"a"
 9766              		.align	2
 9767              		.type	sp_alphon118, %object
 9768              		.size	sp_alphon118, 17
 9769              	sp_alphon118:
 9770 0000 0830B61A 		.ascii	"\0100\266\032\001\306V\023\300\230*\0120\300\230\252"
 9770      01C65613 
 9770      C0982A0A 
 9770      30C098AA 
 9771 0010 07       		.ascii	"\007"
 9772              		.global	sp_alphon117
 9773              		.section	.rodata.sp_alphon117,"a"
 9774              		.align	2
 9775              		.type	sp_alphon117, %object
 9776              		.size	sp_alphon117, 15
 9777              	sp_alphon117:
 9778 0000 08C89604 		.ascii	"\010\310\226\004\001\331\222P@\003\012\310\226\344\001"
 9778      01D99250 
 9778      40030AC8 
 9778      96E401
 9779              		.global	sp_alphon116
 9780              		.section	.rodata.sp_alphon116,"a"
 9781              		.align	2
 9782              		.type	sp_alphon116, %object
 9783              		.size	sp_alphon116, 26
 9784              	sp_alphon116:
 9785 0000 0CF0DA45 		.ascii	"\014\360\332E\001^\2738\24087\003\344X\346\200j3\034"
 9785      015EBB38 
 9785      A0383703 
 9785      E458E680 
ARM GAS  /tmp/ccONvy4E.s 			page 257


 9785      6A331C
 9786 0013 906D8601 		.ascii	"\220m\206\001rL{"
 9786      724C7B
 9787              		.global	sp_alphon115
 9788              		.section	.rodata.sp_alphon115,"a"
 9789              		.align	2
 9790              		.type	sp_alphon115, %object
 9791              		.size	sp_alphon115, 16
 9792              	sp_alphon115:
 9793 0000 0828268C 		.ascii	"\010(&\214\000\305\204q\300\002\036H@1a\017"
 9793      00C58471 
 9793      C0021E48 
 9793      4031610F 
 9794              		.global	sp_alphon114
 9795              		.section	.rodata.sp_alphon114,"a"
 9796              		.align	2
 9797              		.type	sp_alphon114, %object
 9798              		.size	sp_alphon114, 15
 9799              	sp_alphon114:
 9800 0000 00A0807B 		.ascii	"\000\240\200{S<\020\200\331+\025\220\203\352\003"
 9800      533C1080 
 9800      D92B1590 
 9800      83EA03
 9801              		.global	sp_alphon113
 9802              		.section	.rodata.sp_alphon113,"a"
 9803              		.align	2
 9804              		.type	sp_alphon113, %object
 9805              		.size	sp_alphon113, 12
 9806              	sp_alphon113:
 9807 0000 00000E58 		.ascii	"\000\000\016X\302\\\003\004X\302\374\001"
 9807      C25C0304 
 9807      58C2FC01 
 9808              		.global	sp_alphon112
 9809              		.section	.rodata.sp_alphon112,"a"
 9810              		.align	2
 9811              		.type	sp_alphon112, %object
 9812              		.size	sp_alphon112, 13
 9813              	sp_alphon112:
 9814 0000 0010801D 		.ascii	"\000\020\200\035\305\003p\254\207\001R(~"
 9814      C50370AC 
 9814      87015228 
 9814      7E
 9815              		.global	sp_alphon111
 9816              		.section	.rodata.sp_alphon111,"a"
 9817              		.align	2
 9818              		.type	sp_alphon111, %object
 9819              		.size	sp_alphon111, 13
 9820              	sp_alphon111:
 9821 0000 08083092 		.ascii	"\010\0100\222\000\001F\002\030`k\223\007"
 9821      00014602 
 9821      18606B93 
 9821      07
 9822              		.global	sp_alphon110
 9823              		.section	.rodata.sp_alphon110,"a"
 9824              		.align	2
 9825              		.type	sp_alphon110, %object
 9826              		.size	sp_alphon110, 14
ARM GAS  /tmp/ccONvy4E.s 			page 258


 9827              	sp_alphon110:
 9828 0000 00006000 		.ascii	"\000\000`\000\342M\030@\2749\002\2107\177"
 9828      E24D1840 
 9828      BC390288 
 9828      377F
 9829              		.global	sp_alphon109
 9830              		.section	.rodata.sp_alphon109,"a"
 9831              		.align	2
 9832              		.type	sp_alphon109, %object
 9833              		.size	sp_alphon109, 10
 9834              	sp_alphon109:
 9835 0000 001000E2 		.ascii	"\000\020\000\342M\014@\274\311\003"
 9835      4D0C40BC 
 9835      C903
 9836              		.global	sp_alphon108
 9837              		.section	.rodata.sp_alphon108,"a"
 9838              		.align	2
 9839              		.type	sp_alphon108, %object
 9840              		.size	sp_alphon108, 13
 9841              	sp_alphon108:
 9842 0000 0808DE84 		.ascii	"\010\010\336\204\000\301\233\0000\200z\223\007"
 9842      00C19B00 
 9842      30807A93 
 9842      07
 9843              		.global	sp_alphon107
 9844              		.section	.rodata.sp_alphon107,"a"
 9845              		.align	2
 9846              		.type	sp_alphon107, %object
 9847              		.size	sp_alphon107, 11
 9848              	sp_alphon107:
 9849 0000 001080D0 		.ascii	"\000\020\200\320\233= \200\320\233\037"
 9849      9B3D2080 
 9849      D09B1F
 9850              		.global	sp_alphon106
 9851              		.section	.rodata.sp_alphon106,"a"
 9852              		.align	2
 9853              		.type	sp_alphon106, %object
 9854              		.size	sp_alphon106, 13
 9855              	sp_alphon106:
 9856 0000 009080E2 		.ascii	"\000\220\200\342\331\022\220\275\211\003rP~"
 9856      D91290BD 
 9856      89037250 
 9856      7E
 9857              		.global	sp_alphon105
 9858              		.section	.rodata.sp_alphon105,"a"
 9859              		.align	2
 9860              		.type	sp_alphon105, %object
 9861              		.size	sp_alphon105, 14
 9862              	sp_alphon105:
 9863 0000 00000AC8 		.ascii	"\000\000\012\310\313D\0011+\012 \347\300\007"
 9863      CB440131 
 9863      2B0A20E7 
 9863      C007
 9864              		.global	sp_alphon104
 9865              		.section	.rodata.sp_alphon104,"a"
 9866              		.align	2
 9867              		.type	sp_alphon104, %object
ARM GAS  /tmp/ccONvy4E.s 			page 259


 9868              		.size	sp_alphon104, 13
 9869              	sp_alphon104:
 9870 0000 00E080BC 		.ascii	"\000\340\200\274L\034\020\263\242\002r\016|"
 9870      4C1C10B3 
 9870      A202720E 
 9870      7C
 9871              		.global	sp_alphon103
 9872              		.section	.rodata.sp_alphon103,"a"
 9873              		.align	2
 9874              		.type	sp_alphon103, %object
 9875              		.size	sp_alphon103, 6
 9876              	sp_alphon103:
 9877 0000 0060805A 		.ascii	"\000`\200Z\306\036"
 9877      C61E
 9878              		.global	sp_alphon102
 9879              		.section	.rodata.sp_alphon102,"a"
 9880              		.align	2
 9881              		.type	sp_alphon102, %object
 9882              		.size	sp_alphon102, 26
 9883              	sp_alphon102:
 9884 0000 AA1ED64C 		.ascii	"\252\036\326L\304\373\224zX3\021\357\223k\003\364^\251"
 9884      C4FB947A 
 9884      583311EF 
 9884      936B03F4 
 9884      5EA9
 9885 0012 010D4880 		.ascii	"\001\015H\200\001\275W>"
 9885      01BD573E 
 9886              		.global	sp_alphon101
 9887              		.section	.rodata.sp_alphon101,"a"
 9888              		.align	2
 9889              		.type	sp_alphon101, %object
 9890              		.size	sp_alphon101, 39
 9891              	sp_alphon101:
 9892 0000 A60EC1CA 		.ascii	"\246\016\301\312\303\353\214:\004+\017\257S\352a\315"
 9892      C3EB8C3A 
 9892      042B0FAF 
 9892      53EA61CD 
 9893 0010 44BC4FAE 		.ascii	"D\274O\256\005\260\034\201\004R=\254\231\210\367i\365"
 9893      05B01C81 
 9893      04523DAC 
 9893      9988F769 
 9893      F5
 9894 0021 B06622DE 		.ascii	"\260f\"\336\347\001"
 9894      E701
 9895              		.global	sp_alphon100
 9896              		.section	.rodata.sp_alphon100,"a"
 9897              		.align	2
 9898              		.type	sp_alphon100, %object
 9899              		.size	sp_alphon100, 23
 9900              	sp_alphon100:
 9901 0000 A2FE9ED9 		.ascii	"\242\376\236\331\250\325\206\372{f\243V\033k\001|g."
 9901      A8D586FA 
 9901      7B66A356 
 9901      1B6B017C 
 9901      672E
 9902 0012 01027C2D 		.ascii	"\001\002|-\372"
 9902      FA
ARM GAS  /tmp/ccONvy4E.s 			page 260


 9903              		.global	sp_alphon99
 9904              		.section	.rodata.sp_alphon99,"a"
 9905              		.align	2
 9906              		.type	sp_alphon99, %object
 9907              		.size	sp_alphon99, 37
 9908              	sp_alphon99:
 9909 0000 A2AEDC4C 		.ascii	"\242\256\334L\030\363\270\272r3a\314C\000\001\346R\375"
 9909      18F3B8BA 
 9909      723361CC 
 9909      430001E6 
 9909      52FD
 9910 0012 ADAA0AE9 		.ascii	"\255\252\012\351\257u\253\227t\023&\177\255^:\310\030"
 9910      AF75AB97 
 9910      7413267F 
 9910      AD5E3AC8 
 9910      18
 9911 0023 FD3E     		.ascii	"\375>"
 9912              		.global	sp_alphon98
 9913              		.section	.rodata.sp_alphon98,"a"
 9914              		.align	2
 9915              		.type	sp_alphon98, %object
 9916              		.size	sp_alphon98, 28
 9917              	sp_alphon98:
 9918 0000 A21651DC 		.ascii	"\242\026Q\334X\333\204ZDqcm\023j!M\302\314\215\003\212"
 9918      58DB845A 
 9918      4471636D 
 9918      136A214D 
 9918      C2CC8D03 
 9919 0015 31D50001 		.ascii	"1\325\000\001\2121}"
 9919      8A317D
 9920              		.global	sp_alphon97
 9921              		.section	.rodata.sp_alphon97,"a"
 9922              		.align	2
 9923              		.type	sp_alphon97, %object
 9924              		.size	sp_alphon97, 20
 9925              	sp_alphon97:
 9926 0000 AC96CABD 		.ascii	"\254\226\312\275\314]\233Z*\3672w\355j\251\334\313\334"
 9926      CC5D9B5A 
 9926      2AF73277 
 9926      ED6AA9DC 
 9926      CBDC
 9927 0012 F503     		.ascii	"\365\003"
 9928              		.global	sp_alphon96
 9929              		.section	.rodata.sp_alphon96,"a"
 9930              		.align	2
 9931              		.type	sp_alphon96, %object
 9932              		.size	sp_alphon96, 25
 9933              	sp_alphon96:
 9934 0000 ACCEDEDD 		.ascii	"\254\316\336\335\210\234\232:{w#rj\353Z3\200:\017\011"
 9934      889C9A3A 
 9934      7B772372 
 9934      6AEB5A33 
 9934      803A0F09 
 9935 0014 30803A8F 		.ascii	"0\200:\217\007"
 9935      07
 9936              		.global	sp_alphon95
 9937              		.section	.rodata.sp_alphon95,"a"
ARM GAS  /tmp/ccONvy4E.s 			page 261


 9938              		.align	2
 9939              		.type	sp_alphon95, %object
 9940              		.size	sp_alphon95, 38
 9941              	sp_alphon95:
 9942 0000 AA764E52 		.ascii	"\252vNR\3043\247\3329I\021\317\234\352\3404\205yI\252"
 9942      C433A7DA 
 9942      394911CF 
 9942      9CEAE034 
 9942      857949AA 
 9943 0014 93F510C6 		.ascii	"\223\365\020\306\314\251N\316]\010=\227:{w#r\372"
 9943      CCA94ECE 
 9943      5D083D97 
 9943      3A7B7723 
 9943      72FA
 9944              		.global	sp_alphon94
 9945              		.section	.rodata.sp_alphon94,"a"
 9946              		.align	2
 9947              		.type	sp_alphon94, %object
 9948              		.size	sp_alphon94, 43
 9949              	sp_alphon94:
 9950 0000 AA369154 		.ascii	"\2526\221To,\247\332DR\275\261lj\0324z\203\252\252\231"
 9950      6F2CA7DA 
 9950      4452BDB1 
 9950      6C6A1A34 
 9950      7A83AAAA 
 9951 0015 75CF19C9 		.ascii	"u\317\031\311\256\336\275*\001\030;\340\214\316\000"
 9951      AEDEBD2A 
 9951      01183BE0 
 9951      8CCE00
 9952 0024 B434CD80 		.ascii	"\2644\315\200\330\215\036"
 9952      D88D1E
 9953              		.global	sp_alphon93
 9954              		.section	.rodata.sp_alphon93,"a"
 9955              		.align	2
 9956              		.type	sp_alphon93, %object
 9957              		.size	sp_alphon93, 12
 9958              	sp_alphon93:
 9959 0000 000EB88E 		.ascii	"\000\016\270\216`\325\303\232\211x\237\007"
 9959      60D5C39A 
 9959      89789F07 
 9960              		.global	sp_alphon92
 9961              		.section	.rodata.sp_alphon92,"a"
 9962              		.align	2
 9963              		.type	sp_alphon92, %object
 9964              		.size	sp_alphon92, 45
 9965              	sp_alphon92:
 9966 0000 ACCE9D40 		.ascii	"\254\316\235@\263\342\230:w\002\315\212#jn\324\327\315"
 9966      B3E2983A 
 9966      7702CD8A 
 9966      236A6ED4 
 9966      D7CD
 9967 0012 35AB89B5 		.ascii	"5\253\211\265\23407\251.\247\305\311l\231:G\306\360"
 9967      9C3037A9 
 9967      2EA7C5C9 
 9967      6C993A47 
 9967      C6F0
 9968 0024 6CE8EADC 		.ascii	"l\350\352\334\234\2254\366\003"
ARM GAS  /tmp/ccONvy4E.s 			page 262


 9968      9C9534F6 
 9968      03
 9969              		.global	sp_alphon91
 9970              		.section	.rodata.sp_alphon91,"a"
 9971              		.align	2
 9972              		.type	sp_alphon91, %object
 9973              		.size	sp_alphon91, 20
 9974              	sp_alphon91:
 9975 0000 A28E2958 		.ascii	"\242\216)X<3\273:\246`\361\314\274\352@5\243\324\367"
 9975      3C33BB3A 
 9975      A660F1CC 
 9975      BCEA4035 
 9975      A3D4F7
 9976 0013 03       		.ascii	"\003"
 9977              		.global	sp_alphon90
 9978              		.section	.rodata.sp_alphon90,"a"
 9979              		.align	2
 9980              		.type	sp_alphon90, %object
 9981              		.size	sp_alphon90, 13
 9982              	sp_alphon90:
 9983 0000 AE9E3544 		.ascii	"\256\2365D\230\235\254z\0247\240Z\373"
 9983      989DAC7A 
 9983      1437A05A 
 9983      FB
 9984              		.global	sp_alphon89
 9985              		.section	.rodata.sp_alphon89,"a"
 9986              		.align	2
 9987              		.type	sp_alphon89, %object
 9988              		.size	sp_alphon89, 26
 9989              	sp_alphon89:
 9990 0000 ACA6D63B 		.ascii	"\254\246\326;#m\252\272D\025\026\311<\352\030E\224\242"
 9990      236DAABA 
 9990      441516C9 
 9990      3CEA1845 
 9990      94A2
 9991 0012 A6AA4B54 		.ascii	"\246\252KTa\221\314\017"
 9991      6191CC0F 
 9992              		.global	sp_alphon88
 9993              		.section	.rodata.sp_alphon88,"a"
 9994              		.align	2
 9995              		.type	sp_alphon88, %object
 9996              		.size	sp_alphon88, 13
 9997              	sp_alphon88:
 9998 0000 AC36D2D5 		.ascii	"\2546\322\325\303R\257\372\010\267,K\365"
 9998      C352AFFA 
 9998      08B72C4B 
 9998      F5
 9999              		.global	sp_alphon87
 10000              		.section	.rodata.sp_alphon87,"a"
 10001              		.align	2
 10002              		.type	sp_alphon87, %object
 10003              		.size	sp_alphon87, 21
 10004              	sp_alphon87:
 10005 0000 A226BE5D 		.ascii	"\242&\276]%\332\322:\325*\273\270\205bR;\343\033\316"
 10005      25DAD23A 
 10005      D52ABBB8 
 10005      8562523B 
ARM GAS  /tmp/ccONvy4E.s 			page 263


 10005      E31BCE
 10006 0013 5D1F     		.ascii	"]\037"
 10007              		.global	sp_alphon86
 10008              		.section	.rodata.sp_alphon86,"a"
 10009              		.align	2
 10010              		.type	sp_alphon86, %object
 10011              		.size	sp_alphon86, 13
 10012              	sp_alphon86:
 10013 0000 AA962103 		.ascii	"\252\226!\003\325S\263\232$7\326L\364"
 10013      D553B39A 
 10013      2437D64C 
 10013      F4
 10014              		.global	sp_alphon85
 10015              		.section	.rodata.sp_alphon85,"a"
 10016              		.align	2
 10017              		.type	sp_alphon85, %object
 10018              		.size	sp_alphon85, 15
 10019              	sp_alphon85:
 10020 0000 AD1E5E14 		.ascii	"\255\036^\024\255\372\366z\32458C\370\276\007"
 10020      ADFAF67A 
 10020      D4353843 
 10020      F8BE07
 10021              		.global	sp_alphon84
 10022              		.section	.rodata.sp_alphon84,"a"
 10023              		.align	2
 10024              		.type	sp_alphon84, %object
 10025              		.size	sp_alphon84, 25
 10026              	sp_alphon84:
 10027 0000 08502B03 		.ascii	"\010P+\003\003\246\2466\337\211\354\245\232\333\371"
 10027      03A6A636 
 10027      DF89ECA5 
 10027      9ADBF9
 10028 000f 42565A6A 		.ascii	"BVZj\341\373\0138\375\003"
 10028      E1FB0B38 
 10028      FD03
 10029              		.global	sp_alphon83
 10030              		.section	.rodata.sp_alphon83,"a"
 10031              		.align	2
 10032              		.type	sp_alphon83, %object
 10033              		.size	sp_alphon83, 20
 10034              	sp_alphon83:
 10035 0000 A6A636DF 		.ascii	"\246\2466\337\211\354\245\232\333\371BV\332j\341\373"
 10035      89ECA59A 
 10035      DBF94256 
 10035      DA6AE1FB 
 10036 0010 0B38FD03 		.ascii	"\0138\375\003"
 10037              		.global	sp_alphon82
 10038              		.section	.rodata.sp_alphon82,"a"
 10039              		.align	2
 10040              		.type	sp_alphon82, %object
 10041              		.size	sp_alphon82, 20
 10042              	sp_alphon82:
 10043 0000 A6E64DDD 		.ascii	"\246\346M\3353\344\273Zu\014K\323\236j30,M\373\003"
 10043      33E4BB5A 
 10043      750C4BD3 
 10043      9E6A3330 
 10043      2C4DFB03 
ARM GAS  /tmp/ccONvy4E.s 			page 264


 10044              		.global	sp_alphon81
 10045              		.section	.rodata.sp_alphon81,"a"
 10046              		.align	2
 10047              		.type	sp_alphon81, %object
 10048              		.size	sp_alphon81, 38
 10049              	sp_alphon81:
 10050 0000 A3CE41C1 		.ascii	"\243\316A\301/l\265Z9\251\012\267\231j\355hJ\333b\252"
 10050      2F6CB55A 
 10050      39A90AB7 
 10050      996AED68 
 10050      4ADB62AA 
 10051 0014 B5A34D0D 		.ascii	"\265\243M\015\013\241\326\316\270\303\035\233Z;\343"
 10051      0BA1D6CE 
 10051      B8C31D9B 
 10051      5A3BE3
 10052 0023 0E77FC   		.ascii	"\016w\374"
 10053              		.global	sp_alphon80
 10054              		.section	.rodata.sp_alphon80,"a"
 10055              		.align	2
 10056              		.type	sp_alphon80, %object
 10057              		.size	sp_alphon80, 20
 10058              	sp_alphon80:
 10059 0000 A90E1EC6 		.ascii	"\251\016\036\306,U\271\2329\273%U\035j\243\\C\302\351"
 10059      2C55B99A 
 10059      39BB2555 
 10059      1D6AA35C 
 10059      43C2E9
 10060 0013 03       		.ascii	"\003"
 10061              		.global	sp_alphon79
 10062              		.section	.rodata.sp_alphon79,"a"
 10063              		.align	2
 10064              		.type	sp_alphon79, %object
 10065              		.size	sp_alphon79, 27
 10066              	sp_alphon79:
 10067 0000 A9760E53 		.ascii	"\251v\016S\244\335\205Z\006\321\340n\035ji\304\333\333"
 10067      A4DD855A 
 10067      06D1E06E 
 10067      1D6A69C4 
 10067      DBDB
 10068 0012 B2AF435D 		.ascii	"\262\257C]R\250\251\245y"
 10068      52A8A9A5 
 10068      79
 10069              		.global	sp_alphon78
 10070              		.section	.rodata.sp_alphon78,"a"
 10071              		.align	2
 10072              		.type	sp_alphon78, %object
 10073              		.size	sp_alphon78, 20
 10074              	sp_alphon78:
 10075 0000 A5761A3A 		.ascii	"\245v\032:\312j\225:Z(Ok\334\352\3409X\302\313\003"
 10075      CA6A953A 
 10075      5A284F6B 
 10075      DCEAE039 
 10075      58C2CB03 
 10076              		.global	sp_alphon77
 10077              		.section	.rodata.sp_alphon77,"a"
 10078              		.align	2
 10079              		.type	sp_alphon77, %object
ARM GAS  /tmp/ccONvy4E.s 			page 265


 10080              		.size	sp_alphon77, 36
 10081              	sp_alphon77:
 10082 0000 AD765A92 		.ascii	"\255vZ\222\020\235\347:\327\271\016\265\325R\206\226"
 10082      109DE73A 
 10082      D7B90EB5 
 10082      D5528696 
 10083 0010 3CD45673 		.ascii	"<\324Vs+\270\273TkS)\341\216B\035r%F\313}"
 10083      2BB8BB54 
 10083      6B5329E1 
 10083      8E421D72 
 10083      2546CB7D 
 10084              		.global	sp_alphon76
 10085              		.section	.rodata.sp_alphon76,"a"
 10086              		.align	2
 10087              		.type	sp_alphon76, %object
 10088              		.size	sp_alphon76, 15
 10089              	sp_alphon76:
 10090 0000 A9965E52 		.ascii	"\251\226^R\271\235\326\272\325\322K*\267\323\007"
 10090      B99DD6BA 
 10090      D5D24B2A 
 10090      B7D307
 10091              		.global	sp_alphon75
 10092              		.section	.rodata.sp_alphon75,"a"
 10093              		.align	2
 10094              		.type	sp_alphon75, %object
 10095              		.size	sp_alphon75, 38
 10096              	sp_alphon75:
 10097 0000 A376F28F 		.ascii	"\243v\362\217\305\332\264Z\233;ak\233j\336gY<\255\253"
 10097      C5DAB45A 
 10097      9B3B616B 
 10097      9B6ADE67 
 10097      593CADAB 
 10098 0014 D9BD6209 		.ascii	"\331\275b\011\247\256\246w\303\330\034\247\232\345\217"
 10098      A7AEA677 
 10098      C3D81CA7 
 10098      9AE58F
 10099 0023 14B6F3   		.ascii	"\024\266\363"
 10100              		.global	sp_alphon74
 10101              		.section	.rodata.sp_alphon74,"a"
 10102              		.align	2
 10103              		.type	sp_alphon74, %object
 10104              		.size	sp_alphon74, 16
 10105              	sp_alphon74:
 10106 0000 A1A677C3 		.ascii	"\241\246w\303\330\034\307:\326\246f\371#\205\355<"
 10106      D81CC73A 
 10106      D6A666F9 
 10106      2385ED3C 
 10107              		.global	sp_alphon73
 10108              		.section	.rodata.sp_alphon73,"a"
 10109              		.align	2
 10110              		.type	sp_alphon73, %object
 10111              		.size	sp_alphon73, 16
 10112              	sp_alphon73:
 10113 0000 A9562E36 		.ascii	"\251V.6!\223\326\272\327\255V.6!\223>"
 10113      2193D6BA 
 10113      D7AD562E 
 10113      3621933E 
ARM GAS  /tmp/ccONvy4E.s 			page 266


 10114              		.global	sp_alphon72
 10115              		.section	.rodata.sp_alphon72,"a"
 10116              		.align	2
 10117              		.type	sp_alphon72, %object
 10118              		.size	sp_alphon72, 45
 10119              	sp_alphon72:
 10120 0000 A636225B 		.ascii	"\2466\"[\203\267\214\332\210l\015\336\262j#\2635x\313"
 10120      83B78CDA 
 10120      886C0DDE 
 10120      B26A23B3 
 10120      3578CB
 10121 0013 A88DAA12 		.ascii	"\250\215\252\022\307\376\255\026zR\234\327\224\232\224"
 10121      C7FEAD16 
 10121      7A529CD7 
 10121      949A94
 10122 0022 71356F5C 		.ascii	"q5o\\jR\306\325\274\361\003"
 10122      6A52C6D5 
 10122      BCF103
 10123              		.global	sp_alphon71
 10124              		.section	.rodata.sp_alphon71,"a"
 10125              		.align	2
 10126              		.type	sp_alphon71, %object
 10127              		.size	sp_alphon71, 45
 10128              	sp_alphon71:
 10129 0000 AE36BED2 		.ascii	"\2566\276\322\235\263\255\332\370Jw\316\266\353]\357"
 10129      9DB3ADDA 
 10129      F84A77CE 
 10129      B6EB5DEF 
 10130 0010 7AD43A56 		.ascii	"z\324:V\272s\266R\363:abiCM\357\206\2619\216\265\256"
 10130      BA73B652 
 10130      F33A6162 
 10130      69434DEF 
 10130      86B1398E 
 10131 0026 55CDF247 		.ascii	"U\315\362G\012\333y"
 10131      0ADB79
 10132              		.global	sp_alphon70
 10133              		.section	.rodata.sp_alphon70,"a"
 10134              		.align	2
 10135              		.type	sp_alphon70, %object
 10136              		.size	sp_alphon70, 46
 10137              	sp_alphon70:
 10138 0000 AE8EDED6 		.ascii	"\256\216\336\326M\326\254:z[7Ys\353Q\233\034k\252mZ"
 10138      4DD6AC3A 
 10138      7A5B3759 
 10138      73EB519B 
 10138      1C6BAA6D 
 10139 0015 2D7BAD89 		.ascii	"-{\255\211\245M5\237\275&\2366\324\364n\030\233\343"
 10139      A54D359F 
 10139      BD269E36 
 10139      D4F46E18 
 10139      9BE3
 10140 0027 50D3BB61 		.ascii	"P\323\273al\216\037"
 10140      6C8E1F
 10141              		.global	sp_alphon69
 10142              		.section	.rodata.sp_alphon69,"a"
 10143              		.align	2
 10144              		.type	sp_alphon69, %object
ARM GAS  /tmp/ccONvy4E.s 			page 267


 10145              		.size	sp_alphon69, 25
 10146              	sp_alphon69:
 10147 0000 AE8EDED6 		.ascii	"\256\216\336\326M\326\254:z[7Y\263\353[\337z\327\253"
 10147      4DD6AC3A 
 10147      7A5B3759 
 10147      B3EB5BDF 
 10147      7AD7AB
 10148 0013 8EDED64D 		.ascii	"\216\336\326M\326<"
 10148      D63C
 10149              		.global	sp_alphon68
 10150              		.section	.rodata.sp_alphon68,"a"
 10151              		.align	2
 10152              		.type	sp_alphon68, %object
 10153              		.size	sp_alphon68, 35
 10154              	sp_alphon68:
 10155 0000 A64EC695 		.ascii	"\246N\306\225J\366\216:\031W*\331\273\353U\007\356\311"
 10155      4AF68E3A 
 10155      19572AD9 
 10155      BBEB5507 
 10155      EEC9
 10156 0012 A55D773D 		.ascii	"\245]w=j\036\312-tQ\253Yl\017\323\005\017"
 10156      6A1ECA2D 
 10156      7451AB59 
 10156      6C0FD305 
 10156      0F
 10157              		.global	sp_alphon67
 10158              		.section	.rodata.sp_alphon67,"a"
 10159              		.align	2
 10160              		.type	sp_alphon67, %object
 10161              		.size	sp_alphon67, 45
 10162              	sp_alphon67:
 10163 0000 AE4E3CBA 		.ascii	"\256N<\272L\374\236:\361\3502\361{j'\253\322\305\333"
 10163      4CFC9E3A 
 10163      F1E832F1 
 10163      7B6A27AB 
 10163      D2C5DB
 10164 0013 A98DAE2A 		.ascii	"\251\215\256*\307l\243\026\2416\215\262\266\232\325"
 10164      C76CA316 
 10164      A1368DB2 
 10164      B69AD5
 10165 0022 DA10C954 		.ascii	"\332\020\311Tj\272\272\223,\325\003"
 10165      6ABABA93 
 10165      2CD503
 10166              		.global	sp_alphon66
 10167              		.section	.rodata.sp_alphon66,"a"
 10168              		.align	2
 10169              		.type	sp_alphon66, %object
 10170              		.size	sp_alphon66, 45
 10171              	sp_alphon66:
 10172 0000 A6563D5B 		.ascii	"\246V=[\324\272\266Z\365lQ\353\272j==S\244\355\250\315"
 10172      D4BAB65A 
 10172      F56C51EB 
 10172      BA6A3D3D 
 10172      53A4EDA8 
 10173 0015 914AD1CC 		.ascii	"\221J\321\314\2436G\262E\263\264\332n\252tn\321j7]t"
 10173      A33647B2 
 10173      45B3B4DA 
ARM GAS  /tmp/ccONvy4E.s 			page 268


 10173      6EAA746E 
 10173      D16A375D 
 10174 002a D0E703   		.ascii	"\320\347\003"
 10175              		.global	sp_alphon65
 10176              		.section	.rodata.sp_alphon65,"a"
 10177              		.align	2
 10178              		.type	sp_alphon65, %object
 10179              		.size	sp_alphon65, 45
 10180              	sp_alphon65:
 10181 0000 A616A596 		.ascii	"\246\026\245\226\324\273\264Z\224ZR\3572jQ\263L5\333"
 10181      D4BBB45A 
 10181      945A52EF 
 10181      326A51B3 
 10181      4C35DB
 10182 0013 AA65F34C 		.ascii	"\252e\363L\221\266\243\226S\252D3\267Z\015\252tn\321"
 10182      91B6A396 
 10182      53AA4433 
 10182      B75A0DAA 
 10182      746ED1
 10183 0026 6ADD5C74 		.ascii	"j\335\\t\320\347\003"
 10183      D0E703
 10184              		.global	sp_alphon64
 10185              		.section	.rodata.sp_alphon64,"a"
 10186              		.align	2
 10187              		.type	sp_alphon64, %object
 10188              		.size	sp_alphon64, 25
 10189              	sp_alphon64:
 10190 0000 AEF6C633 		.ascii	"\256\366\3063\222\362\256\332\033\317H\312\273\353["
 10190      92F2AEDA 
 10190      1BCF48CA 
 10190      BBEB5B
 10191 000f DFFAD6AB 		.ascii	"\337\372\326\253\366\3063\222\362>"
 10191      F6C63392 
 10191      F23E
 10192              		.global	sp_alphon63
 10193              		.section	.rodata.sp_alphon63,"a"
 10194              		.align	2
 10195              		.type	sp_alphon63, %object
 10196              		.size	sp_alphon63, 45
 10197              	sp_alphon63:
 10198 0000 AEB6A6C6 		.ascii	"\256\266\246\306M\374\256\332\232\0327\361\273jkj\335"
 10198      4DFCAEDA 
 10198      9A1A37F1 
 10198      BB6A6B6A 
 10198      DD
 10199 0011 D8DFA993 		.ascii	"\330\337\251\223I\327\362\306\247\366\305)\275\243\254"
 10199      49D7F2C6 
 10199      A7F6C529 
 10199      BDA3AC
 10200 0020 3A1671F1 		.ascii	":\026q\361Y\262\352X\304\305g\311\003"
 10200      59B2EA58 
 10200      C4C567C9 
 10200      03
 10201              		.global	sp_alphon62
 10202              		.section	.rodata.sp_alphon62,"a"
 10203              		.align	2
 10204              		.type	sp_alphon62, %object
ARM GAS  /tmp/ccONvy4E.s 			page 269


 10205              		.size	sp_alphon62, 36
 10206              	sp_alphon62:
 10207 0000 AECE455C 		.ascii	"\256\316E\\|\226\254:\027q\361Y\262\353]\357\272\324"
 10207      7C96AC3A 
 10207      1771F159 
 10207      B2EB5DEF 
 10207      BAD4
 10208 0012 C1C398A5 		.ascii	"\301\303\230\245*W3g\267\244\252Cm\224kH8}"
 10208      2A573367 
 10208      B7A4AA43 
 10208      6D946B48 
 10208      387D
 10209              		.global	sp_alphon61
 10210              		.section	.rodata.sp_alphon61,"a"
 10211              		.align	2
 10212              		.type	sp_alphon61, %object
 10213              		.size	sp_alphon61, 57
 10214              	sp_alphon61:
 10215 0000 AE8E455C 		.ascii	"\256\216E\\|\226\254:\026q\361Y\262\352X\324\305j\311"
 10215      7C96AC3A 
 10215      1671F159 
 10215      B2EA58D4 
 10215      C56AC9
 10216 0013 AA7DF110 		.ascii	"\252}\361\020\215%\253v5\223\305\332\264Z\267\032\021"
 10216      8D25AB76 
 10216      3593C5DA 
 10216      B45AB71A 
 10216      11
 10217 0024 6B9B6ADE 		.ascii	"k\233j\336gY<\255\253\331\275b\011\247\241\246w\303"
 10217      67593CAD 
 10217      ABD9BD62 
 10217      09A7A1A6 
 10217      77C3
 10218 0036 D81C3F   		.ascii	"\330\034?"
 10219              		.global	sp_alphon60
 10220              		.section	.rodata.sp_alphon60,"a"
 10221              		.align	2
 10222              		.type	sp_alphon60, %object
 10223              		.size	sp_alphon60, 25
 10224              	sp_alphon60:
 10225 0000 AE8E455C 		.ascii	"\256\216E\\|\226\254:\026q\361Y\262\353[\357z\327\253"
 10225      7C96AC3A 
 10225      1671F159 
 10225      B2EB5BEF 
 10225      7AD7AB
 10226 0013 8E455C7C 		.ascii	"\216E\\|\226<"
 10226      963C
 10227              		.global	sp_alphon59
 10228              		.section	.rodata.sp_alphon59,"a"
 10229              		.align	2
 10230              		.type	sp_alphon59, %object
 10231              		.size	sp_alphon59, 25
 10232              	sp_alphon59:
 10233 0000 A676C3C9 		.ascii	"\246v\303\311G\374\267\332\015'\037\361?\353Y\317z\326"
 10233      47FCB7DA 
 10233      0D271FF1 
 10233      3FEB59CF 
ARM GAS  /tmp/ccONvy4E.s 			page 270


 10233      7AD6
 10234 0012 A376C3C9 		.ascii	"\243v\303\311G\374?"
 10234      47FC3F
 10235              		.global	sp_alphon58
 10236              		.section	.rodata.sp_alphon58,"a"
 10237              		.align	2
 10238              		.type	sp_alphon58, %object
 10239              		.size	sp_alphon58, 40
 10240              	sp_alphon58:
 10241 0000 AE6E2999 		.ascii	"\256n)\231+\326\254\272\245d\256Xs\352\232\214\265{"
 10241      2BD6ACBA 
 10241      A564AE58 
 10241      73EA9A8C 
 10241      B57B
 10242 0012 CDAD575D 		.ascii	"\315\255W]\253\220N6\031u-B\334\325z\324\265\010qW\353"
 10242      AB904E36 
 10242      19752D42 
 10242      DCD57AD4 
 10242      B5087157 
 10243 0027 07       		.ascii	"\007"
 10244              		.global	sp_alphon57
 10245              		.section	.rodata.sp_alphon57,"a"
 10246              		.align	2
 10247              		.type	sp_alphon57, %object
 10248              		.size	sp_alphon57, 45
 10249              	sp_alphon57:
 10250 0000 AE2ED55C 		.ascii	"\256.\325\\t\332\254\272Ts\321is\352\334\324\324\272"
 10250      74DAACBA 
 10250      5473D169 
 10250      73EADCD4 
 10250      D4BA
 10251 0012 CDAAD350 		.ascii	"\315\252\323P5\353.\253\216[\335\314\333\214:\\\011"
 10251      35EB2EAB 
 10251      8E5BDDCC 
 10251      DB8C3A5C 
 10251      09
 10252 0023 376BD36A 		.ascii	"7k\323j\177(\323\274\311\003"
 10252      7F28D3BC 
 10252      C903
 10253              		.global	sp_alphon56
 10254              		.section	.rodata.sp_alphon56,"a"
 10255              		.align	2
 10256              		.type	sp_alphon56, %object
 10257              		.size	sp_alphon56, 45
 10258              	sp_alphon56:
 10259 0000 AE4E3D5C 		.ascii	"\256N=\\\245\332\254:\365p\225j\263\352\324\335E\273"
 10259      A5DAAC3A 
 10259      F570956A 
 10259      B3EAD4DD 
 10259      45BB
 10260 0012 CDA953F7 		.ascii	"\315\251S\367\020\251\326\247N\315\202-\233\256:v\013"
 10260      10A9D6A7 
 10260      4ECD822D 
 10260      9BAE3A76 
 10260      0B
 10261 0023 F69CB7EA 		.ascii	"\366\234\267\352\330-\330s\336\003"
 10261      D82DD873 
ARM GAS  /tmp/ccONvy4E.s 			page 271


 10261      DE03
 10262              		.global	sp_alphon55
 10263              		.section	.rodata.sp_alphon55,"a"
 10264              		.align	2
 10265              		.type	sp_alphon55, %object
 10266              		.size	sp_alphon55, 40
 10267              	sp_alphon55:
 10268 0000 AEAE3904 		.ascii	"\256\2569\004\322\273\257\272\346\020H\357\276\353U"
 10268      D2BBAFBA 
 10268      E61048EF 
 10268      BEEB55
 10269 000f A7EA42A5 		.ascii	"\247\352B\245]W\035\2079\226t\037\265\237&2\222\177"
 10269      5D571D87 
 10269      3996741F 
 10269      B59F2632 
 10269      927F
 10270 0021 D4AEA9EA 		.ascii	"\324\256\251\352j\266\007"
 10270      6AB607
 10271              		.global	sp_alphon54
 10272              		.section	.rodata.sp_alphon54,"a"
 10273              		.align	2
 10274              		.type	sp_alphon54, %object
 10275              		.size	sp_alphon54, 59
 10276              	sp_alphon54:
 10277 0000 A6EE4919 		.ascii	"\246\356I\031\252\307\214\272'e\250\0363\353U\227l\202"
 10277      AAC78CBA 
 10277      2765A81E 
 10277      33EB5597 
 10277      6C82
 10278 0012 5153569D 		.ascii	"QSV\235\212\033Y\316Yu\250\021,\276\244\325\272\365"
 10278      8A1B59CE 
 10278      5975A811 
 10278      2CBEA4D5 
 10278      BAF5
 10279 0024 085BDB54 		.ascii	"\010[\333T\363>\313\342i]M\357\206\2619N5\313\037)l"
 10279      F33ECBE2 
 10279      695D4DEF 
 10279      86B1394E 
 10279      35CB1F29 
 10280 0039 E701     		.ascii	"\347\001"
 10281              		.global	sp_alphon53
 10282              		.section	.rodata.sp_alphon53,"a"
 10283              		.align	2
 10284              		.type	sp_alphon53, %object
 10285              		.size	sp_alphon53, 25
 10286              	sp_alphon53:
 10287 0000 A6EE4919 		.ascii	"\246\356I\031\252\347\214\272'e\250\2363\353Y\357z\326"
 10287      AAE78CBA 
 10287      2765A89E 
 10287      33EB59EF 
 10287      7AD6
 10288 0012 A3EE4919 		.ascii	"\243\356I\031\252\347<"
 10288      AAE73C
 10289              		.global	sp_alphon52
 10290              		.section	.rodata.sp_alphon52,"a"
 10291              		.align	2
 10292              		.type	sp_alphon52, %object
ARM GAS  /tmp/ccONvy4E.s 			page 272


 10293              		.size	sp_alphon52, 25
 10294              	sp_alphon52:
 10295 0000 A676E6D7 		.ascii	"\246v\346\327\310\347\215\332\231_#\2377\353Y\357z\327"
 10295      C8E78DDA 
 10295      995F239F 
 10295      37EB59EF 
 10295      7AD7
 10296 0012 A376E6D7 		.ascii	"\243v\346\327\310\347="
 10296      C8E73D
 10297              		.global	sp_alphon51
 10298              		.section	.rodata.sp_alphon51,"a"
 10299              		.align	2
 10300              		.type	sp_alphon51, %object
 10301              		.size	sp_alphon51, 45
 10302              	sp_alphon51:
 10303 0000 AE76ADCA 		.ascii	"\256v\255\312\325j\257\332\265*W\253}jW\252B\255\366"
 10303      D56AAFDA 
 10303      B52A57AB 
 10303      7D6A57AA 
 10303      42ADF6
 10304 0013 A96D9A36 		.ascii	"\251m\2326\323\306\2536i\306L\232\214Z\365)Qm]jq\332"
 10304      D3C6AB36 
 10304      69C64C9A 
 10304      8C5AF529 
 10304      516D5D6A 
 10305 0029 A8CDC903 		.ascii	"\250\315\311\003"
 10306              		.global	sp_alphon50
 10307              		.section	.rodata.sp_alphon50,"a"
 10308              		.align	2
 10309              		.type	sp_alphon50, %object
 10310              		.size	sp_alphon50, 45
 10311              	sp_alphon50:
 10312 0000 AEB6B1D7 		.ascii	"\256\266\261\3271\232\256\332\306^\307h\272j\027\353"
 10312      319AAEDA 
 10312      C65EC768 
 10312      BA6A17EB 
 10313 0010 9C22DDA9 		.ascii	"\234\"\335\251\275\313M\266\346\247\366!;U\232\237\332"
 10313      BDCB4DB6 
 10313      E6A7F621 
 10313      3B559A9F 
 10313      DA
 10314 0021 578F0C4E 		.ascii	"W\217\014N>j\337\3352\270\351\003"
 10314      3E6ADFDD 
 10314      32B8E903 
 10315              		.global	sp_alphon49
 10316              		.section	.rodata.sp_alphon49,"a"
 10317              		.align	2
 10318              		.type	sp_alphon49, %object
 10319              		.size	sp_alphon49, 45
 10320              	sp_alphon49:
 10321 0000 AEB6B9C7 		.ascii	"\256\266\271\307\270\023\257\332\346\036\343N|\352\330"
 10321      B813AFDA 
 10321      E61EE34E 
 10321      7CEAD8
 10322 000f BDC4DBF1 		.ascii	"\275\304\333\361\251S\367\342\210:\247\316\335\2222"
 10322      A953F7E2 
 10322      883AA7CE 
ARM GAS  /tmp/ccONvy4E.s 			page 273


 10322      DD9232
 10323 001e 9BAC3A35 		.ascii	"\233\254:5\011\311\252\263\352\220T|c\362\003"
 10323      09C9AAB3 
 10323      EA90547C 
 10323      63F203
 10324              		.global	sp_alphon48
 10325              		.section	.rodata.sp_alphon48,"a"
 10326              		.align	2
 10327              		.type	sp_alphon48, %object
 10328              		.size	sp_alphon48, 25
 10329              	sp_alphon48:
 10330 0000 AE0E2E5F 		.ascii	"\256\016._B\347\254:\270|\011\235\263\353]\357z\327"
 10330      42E7AC3A 
 10330      B87C099D 
 10330      B3EB5DEF 
 10330      7AD7
 10331 0012 AB0E2E5F 		.ascii	"\253\016._B\347<"
 10331      42E73C
 10332              		.global	sp_alphon47
 10333              		.section	.rodata.sp_alphon47,"a"
 10334              		.align	2
 10335              		.type	sp_alphon47, %object
 10336              		.size	sp_alphon47, 30
 10337              	sp_alphon47:
 10338 0000 AE8E2DCA 		.ascii	"\256\216-\312\270\232\254:\266(\343j\262\353[\337\372"
 10338      B89AAC3A 
 10338      B628E36A 
 10338      B2EB5BDF 
 10338      FA
 10339 0011 D4A145AA 		.ascii	"\324\241E\252V\234U\307\352eZq\036"
 10339      569C55C7 
 10339      EA655A71 
 10339      1E
 10340              		.global	sp_alphon46
 10341              		.section	.rodata.sp_alphon46,"a"
 10342              		.align	2
 10343              		.type	sp_alphon46, %object
 10344              		.size	sp_alphon46, 32
 10345              	sp_alphon46:
 10346 0000 A6362246 		.ascii	"\2466\"F\235\273\214\332\210\030u\356\262j#b\314\311"
 10346      9DBB8CDA 
 10346      881875EE 
 10346      B26A2362 
 10346      CCC9
 10347 0012 DFA80D8F 		.ascii	"\337\250\015\217SS\177\2436<NM\375="
 10347      53537FA3 
 10347      363C4E4D 
 10347      FD3D
 10348              		.global	sp_alphon45
 10349              		.section	.rodata.sp_alphon45,"a"
 10350              		.align	2
 10351              		.type	sp_alphon45, %object
 10352              		.size	sp_alphon45, 22
 10353              	sp_alphon45:
 10354 0000 AE8EC637 		.ascii	"\256\216\3067\234\273\256:\032\337p\356\272\353[\257"
 10354      9CBBAE3A 
 10354      1ADF70EE 
ARM GAS  /tmp/ccONvy4E.s 			page 274


 10354      BAEB5BAF 
 10355 0010 3A1ADF70 		.ascii	":\032\337p\356\372"
 10355      EEFA
 10356              		.global	sp_alphon44
 10357              		.section	.rodata.sp_alphon44,"a"
 10358              		.align	2
 10359              		.type	sp_alphon44, %object
 10360              		.size	sp_alphon44, 32
 10361              	sp_alphon44:
 10362 0000 A60EC695 		.ascii	"\246\016\306\225J\366\216:\030W*\331\273jg=\271\264"
 10362      4AF68E3A 
 10362      18572AD9 
 10362      BB6A673D 
 10362      B9B4
 10363 0012 EBAA8DF3 		.ascii	"\353\252\215\363\344\322\256\255\346\241\334B\027="
 10363      E4D2AEAD 
 10363      E6A1DC42 
 10363      173D
 10364              		.global	sp_alphon43
 10365              		.section	.rodata.sp_alphon43,"a"
 10366              		.align	2
 10367              		.type	sp_alphon43, %object
 10368              		.size	sp_alphon43, 32
 10369              	sp_alphon43:
 10370 0000 AEF6B23A 		.ascii	"\256\366\262:M\275\255\332\313\3524\365\266j\253\272"
 10370      4DBDADDA 
 10370      CBEA34F5 
 10370      B66AABBA 
 10371 0010 CAD9EFAA 		.ascii	"\312\331\357\252e\254jG\357\245f\2656D2="
 10371      65AC6A47 
 10371      EFA566B5 
 10371      3644323D 
 10372              		.global	sp_alphon42
 10373              		.section	.rodata.sp_alphon42,"a"
 10374              		.align	2
 10375              		.type	sp_alphon42, %object
 10376              		.size	sp_alphon42, 32
 10377              	sp_alphon42:
 10378 0000 AA563D5B 		.ascii	"\252V=[\324\272\226Z\365lQ\353:j==S\244m\253\315\221"
 10378      D4BA965A 
 10378      F56C51EB 
 10378      3A6A3D3D 
 10378      53A46DAB 
 10379 0016 4AD1CCA5 		.ascii	"J\321\314\245\266\233*\235[<"
 10379      B69B2A9D 
 10379      5B3C
 10380              		.global	sp_alphon41
 10381              		.section	.rodata.sp_alphon41,"a"
 10382              		.align	2
 10383              		.type	sp_alphon41, %object
 10384              		.size	sp_alphon41, 32
 10385              	sp_alphon41:
 10386 0000 AA16A596 		.ascii	"\252\026\245\226\324\273\224Z\224ZR\357\322jQ\263L5"
 10386      D4BB945A 
 10386      945A52EF 
 10386      D26A51B3 
 10386      4C35
ARM GAS  /tmp/ccONvy4E.s 			page 275


 10387 0012 DBA865F3 		.ascii	"\333\250e\363L\221\266\255\226S\262E\263<"
 10387      4C91B6AD 
 10387      9653B245 
 10387      B33C
 10388              		.global	sp_alphon40
 10389              		.section	.rodata.sp_alphon40,"a"
 10390              		.align	2
 10391              		.type	sp_alphon40, %object
 10392              		.size	sp_alphon40, 22
 10393              	sp_alphon40:
 10394 0000 AEF6C633 		.ascii	"\256\366\3063\222\362\256\332\033\317H\312\273\353["
 10394      92F2AEDA 
 10394      1BCF48CA 
 10394      BBEB5B
 10395 000f AF3A3A4F 		.ascii	"\257::O\013\334\366"
 10395      0BDCF6
 10396              		.global	sp_alphon39
 10397              		.section	.rodata.sp_alphon39,"a"
 10398              		.align	2
 10399              		.type	sp_alphon39, %object
 10400              		.size	sp_alphon39, 32
 10401              	sp_alphon39:
 10402 0000 AE76B632 		.ascii	"\256v\2662\235\263\256\332\331\312t\316zj\237\302Bm"
 10402      9DB3AEDA 
 10402      D9CA74CE 
 10402      7A6A9FC2 
 10402      426D
 10403 0012 F5A96348 		.ascii	"\365\251cH\321\3645\247\016.\304#\253<"
 10403      D1F435A7 
 10403      0E2EC423 
 10403      AB3C
 10404              		.global	sp_alphon38
 10405              		.section	.rodata.sp_alphon38,"a"
 10406              		.align	2
 10407              		.type	sp_alphon38, %object
 10408              		.size	sp_alphon38, 22
 10409              	sp_alphon38:
 10410 0000 AE8E455C 		.ascii	"\256\216E\\|\226\254:\026q\361Y\262\353]\257:\026q\361"
 10410      7C96AC3A 
 10410      1671F159 
 10410      B2EB5DAF 
 10410      3A1671F1 
 10411 0014 59F2     		.ascii	"Y\362"
 10412              		.global	sp_alphon37
 10413              		.section	.rodata.sp_alphon37,"a"
 10414              		.align	2
 10415              		.type	sp_alphon37, %object
 10416              		.size	sp_alphon37, 22
 10417              	sp_alphon37:
 10418 0000 A676C3C9 		.ascii	"\246v\303\311G\374\217\332\015'\037\361?\353Y\217\332"
 10418      47FC8FDA 
 10418      0D271FF1 
 10418      3FEB598F 
 10418      DA
 10419 0011 0D271FF1 		.ascii	"\015'\037\361\377"
 10419      FF
 10420              		.global	sp_alphon36
ARM GAS  /tmp/ccONvy4E.s 			page 276


 10421              		.section	.rodata.sp_alphon36,"a"
 10422              		.align	2
 10423              		.type	sp_alphon36, %object
 10424              		.size	sp_alphon36, 32
 10425              	sp_alphon36:
 10426 0000 AE6E2999 		.ascii	"\256n)\231+\326\254\272\245d\256X\263\352\232\214\265"
 10426      2BD6ACBA 
 10426      A564AE58 
 10426      B3EA9A8C 
 10426      B5
 10427 0011 7BCDAA6B 		.ascii	"{\315\252k\025\322\311&\253\256E\210\273Z?"
 10427      15D2C926 
 10427      ABAE4588 
 10427      BB5A3F
 10428              		.global	sp_alphon35
 10429              		.section	.rodata.sp_alphon35,"a"
 10430              		.align	2
 10431              		.type	sp_alphon35, %object
 10432              		.size	sp_alphon35, 32
 10433              	sp_alphon35:
 10434 0000 AE2ED54D 		.ascii	"\256.\325My\332\254\272T7\345i\263\352\270\325\315\274"
 10434      79DAACBA 
 10434      5437E569 
 10434      B3EAB8D5 
 10434      CDBC
 10435 0012 CDA8C395 		.ascii	"\315\250\303\225p\2636\255\366\2072\315\233<"
 10435      70B336AD 
 10435      F68732CD 
 10435      9B3C
 10436              		.global	sp_alphon34
 10437              		.section	.rodata.sp_alphon34,"a"
 10438              		.align	2
 10439              		.type	sp_alphon34, %object
 10440              		.size	sp_alphon34, 27
 10441              	sp_alphon34:
 10442 0000 AE8ED95D 		.ascii	"\256\216\331]\243&\257:fw\215\232\274\353U\307l)\221"
 10442      A326AF3A 
 10442      66778D9A 
 10442      BCEB55C7 
 10442      6C2991
 10443 0013 A347EDAA 		.ascii	"\243G\355\252\206e\227~"
 10443      8665977E 
 10444              		.global	sp_alphon33
 10445              		.section	.rodata.sp_alphon33,"a"
 10446              		.align	2
 10447              		.type	sp_alphon33, %object
 10448              		.size	sp_alphon33, 32
 10449              	sp_alphon33:
 10450 0000 A6AE3904 		.ascii	"\246\2569\004\322\273\217\272\346\020H\357\276\352\324"
 10450      D2BB8FBA 
 10450      E61048EF 
 10450      BEEAD4
 10451 000f 3A20457D 		.ascii	": E}\253\3754\221\221\374\255vMUW\263="
 10451      ABFD3491 
 10451      91FCAD76 
 10451      4D5557B3 
 10451      3D
ARM GAS  /tmp/ccONvy4E.s 			page 277


 10452              		.global	sp_alphon32
 10453              		.section	.rodata.sp_alphon32,"a"
 10454              		.align	2
 10455              		.type	sp_alphon32, %object
 10456              		.size	sp_alphon32, 22
 10457              	sp_alphon32:
 10458 0000 A61E5909 		.ascii	"\246\036Y\011|W\216zd%\360]9\353Y\217z6e\260^\365"
 10458      7C578E7A 
 10458      6425F05D 
 10458      39EB598F 
 10458      7A3665B0 
 10459              		.global	sp_alphon31
 10460              		.section	.rodata.sp_alphon31,"a"
 10461              		.align	2
 10462              		.type	sp_alphon31, %object
 10463              		.size	sp_alphon31, 22
 10464              	sp_alphon31:
 10465 0000 A676E6D7 		.ascii	"\246v\346\327\310\347\215\332\231_#\2377\353]\217\332"
 10465      C8E78DDA 
 10465      995F239F 
 10465      37EB5D8F 
 10465      DA
 10466 0011 995F239F 		.ascii	"\231_#\237\367"
 10466      F7
 10467              		.global	sp_alphon30
 10468              		.section	.rodata.sp_alphon30,"a"
 10469              		.align	2
 10470              		.type	sp_alphon30, %object
 10471              		.size	sp_alphon30, 32
 10472              	sp_alphon30:
 10473 0000 A60EBEDB 		.ascii	"\246\016\276\333\325\353\216:\370nW\257\273j\027fT\242"
 10473      D5EB8E3A 
 10473      F86E57AF 
 10473      BB6A1766 
 10473      54A2
 10474 0012 DEAA4DD8 		.ascii	"\336\252M\330\021\211\272\243\266f\236\325\346<"
 10474      1189BAA3 
 10474      B6669ED5 
 10474      E63C
 10475              		.global	sp_alphon29
 10476              		.section	.rodata.sp_alphon29,"a"
 10477              		.align	2
 10478              		.type	sp_alphon29, %object
 10479              		.size	sp_alphon29, 34
 10480              	sp_alphon29:
 10481 0000 A6B6BD22 		.ascii	"\246\266\275\"\215\233\216\332\366\2124n:\353Q\273m"
 10481      8D9B8EDA 
 10481      F68A346E 
 10481      3AEB51BB 
 10481      6D
 10482 0011 51CAB55B 		.ascii	"Q\312\265[\355\017\255IGn\265_\330)\231\340\001"
 10482      ED0FAD49 
 10482      476EB55F 
 10482      D82999E0 
 10482      01
 10483              		.global	sp_alphon28
 10484              		.section	.rodata.sp_alphon28,"a"
ARM GAS  /tmp/ccONvy4E.s 			page 278


 10485              		.align	2
 10486              		.type	sp_alphon28, %object
 10487              		.size	sp_alphon28, 32
 10488              	sp_alphon28:
 10489 0000 AEB6B9C7 		.ascii	"\256\266\271\307\270\023\257\332\346\036\343N|\352X"
 10489      B813AFDA 
 10489      E61EE34E 
 10489      7CEA58
 10490 000f 2383ABC9 		.ascii	"#\203\253\311\252sw5\255\272\253.]\324\254\252>"
 10490      AA737735 
 10490      ADBAAB2E 
 10490      5DD4ACAA 
 10490      3E
 10491              		.global	sp_alphon27
 10492              		.section	.rodata.sp_alphon27,"a"
 10493              		.align	2
 10494              		.type	sp_alphon27, %object
 10495              		.size	sp_alphon27, 22
 10496              	sp_alphon27:
 10497 0000 AEF6B947 		.ascii	"\256\366\271G\305\233\254\332\347\036\025o\262\353]"
 10497      C59BACDA 
 10497      E71E156F 
 10497      B2EB5D
 10498 000f AFDAE71E 		.ascii	"\257\332\347\036\025o\362"
 10498      156FF2
 10499              		.global	sp_alphon26
 10500              		.section	.rodata.sp_alphon26,"a"
 10501              		.align	2
 10502              		.type	sp_alphon26, %object
 10503              		.size	sp_alphon26, 22
 10504              	sp_alphon26:
 10505 0000 AE8E2DCA 		.ascii	"\256\216-\312\270\232\254:\266(\343jr\353[\257:\266"
 10505      B89AAC3A 
 10505      B628E36A 
 10505      72EB5BAF 
 10505      3AB6
 10506 0012 28E36AF2 		.ascii	"(\343j\362"
 10507              		.global	sp_alphon25
 10508              		.section	.rodata.sp_alphon25,"a"
 10509              		.align	2
 10510              		.type	sp_alphon25, %object
 10511              		.size	sp_alphon25, 26
 10512              	sp_alphon25:
 10513 0000 AAEE5599 		.ascii	"\252\356U\231\255g\227\272We\266\236]\352^\225\331z"
 10513      AD6797BA 
 10513      5765B69E 
 10513      5DEA5E95 
 10513      D97A
 10514 0012 76AA4756 		.ascii	"v\252GV\002\337\225\017"
 10514      02DF950F 
 10515              		.global	sp_alphon24
 10516              		.section	.rodata.sp_alphon24,"a"
 10517              		.align	2
 10518              		.type	sp_alphon24, %object
 10519              		.size	sp_alphon24, 32
 10520              	sp_alphon24:
 10521 0000 A6F6B23A 		.ascii	"\246\366\262:M\275\265\332\313\3524\365\326j\253\272"
ARM GAS  /tmp/ccONvy4E.s 			page 279


 10521      4DBDB5DA 
 10521      CBEA34F5 
 10521      D66AABBA 
 10522 0010 CAD96FA9 		.ascii	"\312\331o\251\215\251jG\357\251f\2656D2="
 10522      8DA96A47 
 10522      EFA966B5 
 10522      3644323D 
 10523              		.global	sp_alphon23
 10524              		.section	.rodata.sp_alphon23,"a"
 10525              		.align	2
 10526              		.type	sp_alphon23, %object
 10527              		.size	sp_alphon23, 21
 10528              	sp_alphon23:
 10529 0000 A67643B9 		.ascii	"\246vC\271\312\274\267\332\015\345*\363\336\353T\273"
 10529      CABCB7DA 
 10529      0DE52AF3 
 10529      DEEB54BB 
 10530 0010 A15C65DE 		.ascii	"\241\\e\336\037"
 10530      1F
 10531              		.global	sp_alphon22
 10532              		.section	.rodata.sp_alphon22,"a"
 10533              		.align	2
 10534              		.type	sp_alphon22, %object
 10535              		.size	sp_alphon22, 20
 10536              	sp_alphon22:
 10537 0000 A6F6AE82 		.ascii	"\246\366\256\202\303S\216\332\273\012\016O9j\357*8<"
 10537      C3538EDA 
 10537      BB0A0E4F 
 10537      396AEF2A 
 10537      383C
 10538 0012 E503     		.ascii	"\345\003"
 10539              		.global	sp_alphon21
 10540              		.section	.rodata.sp_alphon21,"a"
 10541              		.align	2
 10542              		.type	sp_alphon21, %object
 10543              		.size	sp_alphon21, 20
 10544              	sp_alphon21:
 10545 0000 A6EE2154 		.ascii	"\246\356!T\014\362\265\272\207P1\310\327\352\036B\305"
 10545      0CF2B5BA 
 10545      875031C8 
 10545      D7EA1E42 
 10545      C5
 10546 0011 20DF03   		.ascii	" \337\003"
 10547              		.global	sp_alphon20
 10548              		.section	.rodata.sp_alphon20,"a"
 10549              		.align	2
 10550              		.type	sp_alphon20, %object
 10551              		.size	sp_alphon20, 20
 10552              	sp_alphon20:
 10553 0000 A64E3E4B 		.ascii	"\246N>K\311\347\214:\371,%\2373\352\344\263\224|\316"
 10553      C9E78C3A 
 10553      F92C259F 
 10553      33EAE4B3 
 10553      947CCE
 10554 0013 03       		.ascii	"\003"
 10555              		.global	sp_alphon19
 10556              		.section	.rodata.sp_alphon19,"a"
ARM GAS  /tmp/ccONvy4E.s 			page 280


 10557              		.align	2
 10558              		.type	sp_alphon19, %object
 10559              		.size	sp_alphon19, 20
 10560              	sp_alphon19:
 10561 0000 A64E3E4B 		.ascii	"\246N>K\311\347\264:\371,%\2373\352\340,\2253\351\003"
 10561      C9E7B43A 
 10561      F92C259F 
 10561      33EAE02C 
 10561      9533E903 
 10562              		.global	sp_alphon18
 10563              		.section	.rodata.sp_alphon18,"a"
 10564              		.align	2
 10565              		.type	sp_alphon18, %object
 10566              		.size	sp_alphon18, 20
 10567              	sp_alphon18:
 10568 0000 A68EC637 		.ascii	"\246\216\3067\234\273\216:\032\337p\356\332\352h|\303"
 10568      9CBB8E3A 
 10568      1ADF70EE 
 10568      DAEA687C 
 10568      C3
 10569 0011 B9EB03   		.ascii	"\271\353\003"
 10570              		.global	sp_alphon17
 10571              		.section	.rodata.sp_alphon17,"a"
 10572              		.align	2
 10573              		.type	sp_alphon17, %object
 10574              		.size	sp_alphon17, 20
 10575              	sp_alphon17:
 10576 0000 A6B646AB 		.ascii	"\246\266F\253\014\303\266\332\032\2552\014\333jk\264"
 10576      0CC3B6DA 
 10576      1AAD320C 
 10576      DB6A6BB4 
 10577 0010 CA30EC03 		.ascii	"\3120\354\003"
 10578              		.global	sp_alphon16
 10579              		.section	.rodata.sp_alphon16,"a"
 10580              		.align	2
 10581              		.type	sp_alphon16, %object
 10582              		.size	sp_alphon16, 20
 10583              	sp_alphon16:
 10584 0000 AA96A59C 		.ascii	"\252\226\245\234\3147\246Z\226r2\337\230jY\312\311|"
 10584      CC37A65A 
 10584      967232DF 
 10584      986A59CA 
 10584      C97C
 10585 0012 E303     		.ascii	"\343\003"
 10586              		.global	sp_alphon15
 10587              		.section	.rodata.sp_alphon15,"a"
 10588              		.align	2
 10589              		.type	sp_alphon15, %object
 10590              		.size	sp_alphon15, 20
 10591              	sp_alphon15:
 10592 0000 AAF622BA 		.ascii	"\252\366\"\272\036\340\226\332\213\350z\200[j/\242\353"
 10592      1EE096DA 
 10592      8BE87A80 
 10592      5B6A2FA2 
 10592      EB
 10593 0011 01EE03   		.ascii	"\001\356\003"
 10594              		.global	sp_alphon14
ARM GAS  /tmp/ccONvy4E.s 			page 281


 10595              		.section	.rodata.sp_alphon14,"a"
 10596              		.align	2
 10597              		.type	sp_alphon14, %object
 10598              		.size	sp_alphon14, 20
 10599              	sp_alphon14:
 10600 0000 A6F6C633 		.ascii	"\246\366\3063\222\362\266\332\033\317H\312\333\352`"
 10600      92F2B6DA 
 10600      1BCF48CA 
 10600      DBEA60
 10601 000f 2D3CA9DF 		.ascii	"-<\251\337\003"
 10601      03
 10602              		.global	sp_alphon13
 10603              		.section	.rodata.sp_alphon13,"a"
 10604              		.align	2
 10605              		.type	sp_alphon13, %object
 10606              		.size	sp_alphon13, 20
 10607              	sp_alphon13:
 10608 0000 A69E4115 		.ascii	"\246\236A\025\272Z\217z\006U\350j=\352\031T\241\253"
 10608      BA5A8F7A 
 10608      0655E86A 
 10608      3DEA1954 
 10608      A1AB
 10609 0012 F503     		.ascii	"\365\003"
 10610              		.global	sp_alphon12
 10611              		.section	.rodata.sp_alphon12,"a"
 10612              		.align	2
 10613              		.type	sp_alphon12, %object
 10614              		.size	sp_alphon12, 20
 10615              	sp_alphon12:
 10616 0000 AA8E455C 		.ascii	"\252\216E\\|\226\224:\026q\361YR\352X\304\305g\311\003"
 10616      7C96943A 
 10616      1671F159 
 10616      52EA58C4 
 10616      C567C903 
 10617              		.global	sp_alphon11
 10618              		.section	.rodata.sp_alphon11,"a"
 10619              		.align	2
 10620              		.type	sp_alphon11, %object
 10621              		.size	sp_alphon11, 20
 10622              	sp_alphon11:
 10623 0000 A68E6598 		.ascii	"\246\216e\230[\265\267:\226an\325\336\352X\206\271U"
 10623      5BB5B73A 
 10623      96616ED5 
 10623      DEEA5886 
 10623      B955
 10624 0012 FB03     		.ascii	"\373\003"
 10625              		.global	sp_alphon10
 10626              		.section	.rodata.sp_alphon10,"a"
 10627              		.align	2
 10628              		.type	sp_alphon10, %object
 10629              		.size	sp_alphon10, 20
 10630              	sp_alphon10:
 10631 0000 A64EC543 		.ascii	"\246N\305C4\022\217:\025\017\321H<\352T<D#\361\003"
 10631      34128F3A 
 10631      150FD148 
 10631      3CEA543C 
 10631      4423F103 
ARM GAS  /tmp/ccONvy4E.s 			page 282


 10632              		.global	sp_alphon9
 10633              		.section	.rodata.sp_alphon9,"a"
 10634              		.align	2
 10635              		.type	sp_alphon9, %object
 10636              		.size	sp_alphon9, 20
 10637              	sp_alphon9:
 10638 0000 A64ED54D 		.ascii	"\246N\325M2\253\266:U7\311\254\332\352T\335$\263\352"
 10638      32ABB63A 
 10638      5537C9AC 
 10638      DAEA54DD 
 10638      24B3EA
 10639 0013 03       		.ascii	"\003"
 10640              		.global	sp_alphon8
 10641              		.section	.rodata.sp_alphon8,"a"
 10642              		.align	2
 10643              		.type	sp_alphon8, %object
 10644              		.size	sp_alphon8, 20
 10645              	sp_alphon8:
 10646 0000 A6EE2D98 		.ascii	"\246\356-\230)f\267\272\267`\246\230\335\352\336\202"
 10646      2966B7BA 
 10646      B760A698 
 10646      DDEADE82 
 10647 0010 9962F603 		.ascii	"\231b\366\003"
 10648              		.global	sp_alphon7
 10649              		.section	.rodata.sp_alphon7,"a"
 10650              		.align	2
 10651              		.type	sp_alphon7, %object
 10652              		.size	sp_alphon7, 20
 10653              	sp_alphon7:
 10654 0000 AA1E5909 		.ascii	"\252\036Y\011|W\246zd%\360]\231\352\221\225\300w\345"
 10654      7C57A67A 
 10654      6425F05D 
 10654      99EA9195 
 10654      C077E5
 10655 0013 03       		.ascii	"\003"
 10656              		.global	sp_alphon6
 10657              		.section	.rodata.sp_alphon6,"a"
 10658              		.align	2
 10659              		.type	sp_alphon6, %object
 10660              		.size	sp_alphon6, 20
 10661              	sp_alphon6:
 10662 0000 AA76EA5E 		.ascii	"\252v\352^)S\227\332\251{\245L]j\035\177X;\303\003"
 10662      295397DA 
 10662      A97BA54C 
 10662      5D6A1D7F 
 10662      583BC303 
 10663              		.global	sp_alphon5
 10664              		.section	.rodata.sp_alphon5,"a"
 10665              		.align	2
 10666              		.type	sp_alphon5, %object
 10667              		.size	sp_alphon5, 20
 10668              	sp_alphon5:
 10669 0000 AAF62A3F 		.ascii	"\252\366*?X[\227\332\253\374`m]j\355o\034\263\316\003"
 10669      585B97DA 
 10669      ABFC606D 
 10669      5D6AED6F 
 10669      1CB3CE03 
ARM GAS  /tmp/ccONvy4E.s 			page 283


 10670              		.global	sp_alphon4
 10671              		.section	.rodata.sp_alphon4,"a"
 10672              		.align	2
 10673              		.type	sp_alphon4, %object
 10674              		.size	sp_alphon4, 20
 10675              	sp_alphon4:
 10676 0000 A60E66DB 		.ascii	"\246\016f\333Y\233\264:\230mgm\322\352`\266\235\265"
 10676      599BB43A 
 10676      986D676D 
 10676      D2EA60B6 
 10676      9DB5
 10677 0012 C903     		.ascii	"\311\003"
 10678              		.global	sp_alphon3
 10679              		.section	.rodata.sp_alphon3,"a"
 10680              		.align	2
 10681              		.type	sp_alphon3, %object
 10682              		.size	sp_alphon3, 20
 10683              	sp_alphon3:
 10684 0000 A676BEA6 		.ascii	"\246v\276\246\310\232\266\332\371\232\"k\332j\347k\212"
 10684      C89AB6DA 
 10684      F99A226B 
 10684      DA6AE76B 
 10684      8A
 10685 0011 ACE903   		.ascii	"\254\351\003"
 10686              		.global	sp_alphon2
 10687              		.section	.rodata.sp_alphon2,"a"
 10688              		.align	2
 10689              		.type	sp_alphon2, %object
 10690              		.size	sp_alphon2, 20
 10691              	sp_alphon2:
 10692 0000 A6CEC393 		.ascii	"\246\316\303\223%\343\264:\017O\226\214\323\352<<Y2"
 10692      25E3B43A 
 10692      0F4F968C 
 10692      D3EA3C3C 
 10692      5932
 10693 0012 CE03     		.ascii	"\316\003"
 10694              		.global	sp_alphon1
 10695              		.section	.rodata.sp_alphon1,"a"
 10696              		.align	2
 10697              		.type	sp_alphon1, %object
 10698              		.size	sp_alphon1, 20
 10699              	sp_alphon1:
 10700 0000 A6F635C3 		.ascii	"\246\3665\303\254\252\264\332\327\014\263\252\322j_"
 10700      ACAAB4DA 
 10700      D70CB3AA 
 10700      D26A5F
 10701 000f 33CCAACA 		.ascii	"3\314\252\312\003"
 10701      03
 10702              		.global	sp_012mm
 10703              		.section	.rodata.sp_012mm,"a"
 10704              		.align	2
 10705              		.type	sp_012mm, %object
 10706              		.size	sp_012mm, 214
 10707              	sp_012mm:
 10708 0000 C508ADC6 		.ascii	"\305\010\255\306\255\235\024\303\216,\255`\334\365\245"
 10708      AD9D14C3 
 10708      8E2CAD60 
ARM GAS  /tmp/ccONvy4E.s 			page 284


 10708      DCF5A5
 10709 000f C7D0A1B4 		.ascii	"\307\320\241\264N\246\232\324h\"\3242\256\001V\366p"
 10709      4EA69AD4 
 10709      6822D432 
 10709      AE0156F6 
 10709      70
 10710 0020 C094E641 		.ascii	"\300\224\346A\374&\304\310\0225\305\331H\343\253[\025"
 10710      FC26C4C8 
 10710      1235C5D9 
 10710      48E3AB5B 
 10710      15
 10711 0031 A70A5FAE 		.ascii	"\247\012_\2562q\264\246t#\"\\\334\211\323kp5\022%F\213"
 10711      3271B4A6 
 10711      7423225C 
 10711      DC89D36B 
 10711      70351225 
 10712 0047 5A3CC41D 		.ascii	"Z<\304\0351\235\336u\223\251m\265\242\351\262\241\320"
 10712      319DDE75 
 10712      93A96DB5 
 10712      A2E9B2A1 
 10712      D0
 10713 0058 7597E262 		.ascii	"u\227\342bUX[\331\362\024\2032\234Z\2729\201\000,\231"
 10713      55585BD9 
 10713      F2148332 
 10713      9C5ABA39 
 10713      81002C99 
 10714 006c AE80E994 		.ascii	"\256\200\351\224\223\342\243jz\305\255z\265\262\355"
 10714      93E2A36A 
 10714      7AC5AD7A 
 10714      B5B2ED
 10715 007b 6D00050C 		.ascii	"m\000\005\014M\035\200\254m\034\320\265S\322G\012-+"
 10715      4D1D80AC 
 10715      6D1CD0B5 
 10715      53D2470A 
 10715      2D2B
 10716 008d 31CD4CC5 		.ascii	"1\315L\3053\"\0247;\326H\217V\034,\021\334ED5\000\002"
 10716      33221437 
 10716      3BD6488F 
 10716      561C2C11 
 10716      DC454435 
 10717 00a3 A2730503 		.ascii	"\242s\005\003\014\352\236t\247=\275Wq\321\203\362\264"
 10717      0CEA9E74 
 10717      A73DBD57 
 10717      71D183F2 
 10717      B4
 10718 00b4 7C5549F7 		.ascii	"|UI\367\306\335ce9\315h\357\210bd4#\354\315\305\265"
 10718      C6DD6365 
 10718      39CD68EF 
 10718      88626434 
 10718      23ECCDC5 
 10719 00c9 D234B7B7 		.ascii	"\3224\267\267\024\327B\025\302\337\323\234<"
 10719      14D74215 
 10719      C2DFD39C 
 10719      3C
 10720              		.global	sp_011mm
 10721              		.section	.rodata.sp_011mm,"a"
 10722              		.align	2
ARM GAS  /tmp/ccONvy4E.s 			page 285


 10723              		.type	sp_011mm, %object
 10724              		.size	sp_011mm, 193
 10725              	sp_011mm:
 10726 0000 4CA777DD 		.ascii	"L\247w\335dj[\255h\272l(t\335\245\270X\025\326V\266"
 10726      646A5BAD 
 10726      68BA6C28 
 10726      74DDA5B8 
 10726      5815D656 
 10727 0015 3CC5A00C 		.ascii	"<\305\240\014\247\226nN \000K\246+`:\345\244\370\250"
 10727      A7966E4E 
 10727      20004BA6 
 10727      2B603AE5 
 10727      A4F8A8
 10728 0028 9A5E71AB 		.ascii	"\232^q\253^\255l'K\004w\021\221\015\340\200\251\314"
 10728      5EAD6C27 
 10728      4B047711 
 10728      910DE080 
 10728      A9CC
 10729 003a 15D06D58 		.ascii	"\025\320mXR\2136\363\0108MKA#[\030\017\275FW\257\222"
 10729      528B36F3 
 10729      08384D4B 
 10729      41235B18 
 10729      0FBD4657 
 10730 0050 DD8C1AD5 		.ascii	"\335\214\032\325m\\v3ZT\365*\306M\357I$c\230\004\275"
 10730      6D5C7633 
 10730      5A54F52A 
 10730      C64DEF49 
 10730      24639804 
 10731 0065 04F08B62 		.ascii	"\004\360\213b\2525\243\245\032b\342J\004\020\212\252"
 10731      AA35A3A5 
 10731      1A62E24A 
 10731      04108AAA 
 10732 0075 02AA4B33 		.ascii	"\002\252K3@7\251\010\250\306\035\001\303\204\023m*U"
 10732      4037A908 
 10732      A8C61D01 
 10732      C384136D 
 10732      2A55
 10733 0087 11918135 		.ascii	"\021\221\2015\000\0044[\216\200\246S\021P}\032\001\252"
 10733      0004345B 
 10733      8E80A653 
 10733      11507D1A 
 10733      01AA
 10734 0099 A9307C71 		.ascii	"\2510|q\025\316\246:\011\316\374\030\274\335\312\025"
 10734      15CEA63A 
 10734      09CEFC18 
 10734      BCDDCA15 
 10735 00a9 DEB86F94 		.ascii	"\336\270o\224\263Z\371,F\305\353\312\224\365\035\353"
 10735      B35AF92C 
 10735      46C5EBCA 
 10735      94F51DEB 
 10736 00b9 652B4BF4 		.ascii	"e+K\364S\265L\375"
 10736      53B54CFD 
 10737              		.global	sp_010mm
 10738              		.section	.rodata.sp_010mm,"a"
 10739              		.align	2
 10740              		.type	sp_010mm, %object
 10741              		.size	sp_010mm, 198
ARM GAS  /tmp/ccONvy4E.s 			page 286


 10742              	sp_010mm:
 10743 0000 CA64B754 		.ascii	"\312d\267T\354\343&C\356Q\221\265:4[\247\224\336\361"
 10743      ECE32643 
 10743      EE5191B5 
 10743      3A345BA7 
 10743      94DEF1
 10744 0013 D27CEE32 		.ascii	"\322|\3562>9[k\252kanI\327i\327\231\250\270\0230\300"
 10744      3E395B6B 
 10744      AA6B616E 
 10744      49D769D7 
 10744      99A8B813 
 10745 0029 92E91A48 		.ascii	"\222\351\032Hb\224n\241em\210)\230\245\226\335&\246"
 10745      62946EA1 
 10745      656D8829 
 10745      98A596DD 
 10745      26A6
 10746 003b 6A5A9C53 		.ascii	"jZ\234S\232\020\233siEmB\354j%e\267\010\241q\245\224"
 10746      9A109B73 
 10746      69456D42 
 10746      EC6A2565 
 10746      B708A171 
 10747 0051 9D24F8CA 		.ascii	"\235$\370\312\231Vv\223\340\222E\373\304C\200\034\276"
 10747      99567693 
 10747      E09245FB 
 10747      C443801C 
 10747      BE
 10748 0062 00208090 		.ascii	"\000 \200\220\322\232\026\263\207M9.Zp^>&\247i\321x"
 10748      D29A16B3 
 10748      874D392E 
 10748      5A705E3E 
 10748      26A769D1 
 10749 0077 5B1AEDA4 		.ascii	"[\032\355\244%\243\241\251\262\223\336\222\205\207\311"
 10749      25A3A1A9 
 10749      B293DE92 
 10749      8587C9
 10750 0086 5680571A 		.ascii	"V\200W\032A\355I\335\312$%5\032M/Q\322\264\350-\242"
 10750      41ED49DD 
 10750      CA242535 
 10750      1A4D2F51 
 10750      D2B4E82D 
 10751 009b D576D343 		.ascii	"\325v\323C\324\3141\333\305L\331T\267\344\004\323G\321"
 10751      D4CC31DB 
 10751      C54CD954 
 10751      B7E404D3 
 10751      47D1
 10752 00ad DC52E22C 		.ascii	"\334R\342,\241\322;S\014\262\031\317\252\310D\310\261"
 10752      A1D23B53 
 10752      0CB219CF 
 10752      AAC844C8 
 10752      B1
 10753 00be D2558C9C 		.ascii	"\322U\214\234>\000\000\301"
 10753      3E0000C1 
 10754              		.global	sp_009mm
 10755              		.section	.rodata.sp_009mm,"a"
 10756              		.align	2
 10757              		.type	sp_009mm, %object
 10758              		.size	sp_009mm, 175
ARM GAS  /tmp/ccONvy4E.s 			page 287


 10759              	sp_009mm:
 10760 0000 86CF82DE 		.ascii	"\206\317\202\336J\354\020`*U\005,\021\306\224)JU\250"
 10760      4AEC1060 
 10760      2A55052C 
 10760      11C69429 
 10760      4A55A8
 10761 0013 06568292 		.ascii	"\006V\202\222\225\204\327\253\251Z2\234\262\212=\305"
 10761      9584D7AB 
 10761      A95A329C 
 10761      B28A3DC5 
 10762 0023 CE28C424 		.ascii	"\316(\304$3cZ3XW\213\230E\252dV\243bVi\202\251\275{"
 10762      33635A33 
 10762      58578B98 
 10762      45AA6456 
 10762      A3625669 
 10763 003b A6A52986 		.ascii	"\246\245)\206k\226\036m\267\353S?Z0\036\026)\245kAs"
 10763      6B961E6D 
 10763      B7EB533F 
 10763      5A301E16 
 10763      29A56B41 
 10764 0050 42273558 		.ascii	"B'5X559\347\250T\324\324d$\263\\\261S\225\212W\027\233"
 10764      353539E7 
 10764      A854D4D4 
 10764      6424B35C 
 10764      B153958A 
 10765 0067 5EF5AA51 		.ascii	"^\365\252Q\245\255\303\364\210J#u\206\331\035JM\030"
 10765      A5ADC3F4 
 10765      884A2375 
 10765      86D91D4A 
 10765      4D18
 10766 0079 2C759AB8 		.ascii	",u\232\270[e\210\260Ivv\222\246\322\004M+i\272i\255"
 10766      5B6588B0 
 10766      49767692 
 10766      A6D2044D 
 10766      2B69BA69 
 10767 008e DA27BB19 		.ascii	"\332'\273\031.Up\035\343n4\323\207\012\345sR\255jW'"
 10767      2E55701D 
 10767      E36E34D3 
 10767      870AE573 
 10767      52AD6A57 
 10768 00a3 3BC691AD 		.ascii	";\306\221\255Lmc[\307\332\322~"
 10768      4C6D635B 
 10768      C7DAD27E 
 10769              		.global	sp_008mm
 10770              		.section	.rodata.sp_008mm,"a"
 10771              		.align	2
 10772              		.type	sp_008mm, %object
 10773              		.size	sp_008mm, 159
 10774              	sp_008mm:
 10775 0000 49EB49D4 		.ascii	"I\353I\324T\225\024mF\026\313V\262\224\356D\253\336"
 10775      5495146D 
 10775      4616CB56 
 10775      B294EE44 
 10775      ABDE
 10776 0012 F1529A13 		.ascii	"\361R\232\023\255\036%K\035\305Dk\024/md\025\253\221"
 10776      AD1E254B 
 10776      1DC5446B 
ARM GAS  /tmp/ccONvy4E.s 			page 288


 10776      142F6D64 
 10776      15AB91
 10777 0025 3DF49144 		.ascii	"=\364\221D\274Gv3z\022\361^:\305,^4\262\2548\333\033"
 10777      BC477633 
 10777      7A12F15E 
 10777      3AC52C5E 
 10777      34B2AC38 
 10778 003b EAD47062 		.ascii	"\352\324pb\035\3530[\004w\021\221\015\000\011\310\332"
 10778      1DEB305B 
 10778      04771191 
 10778      0D0009C8 
 10778      DA
 10779 004c C6015D3B 		.ascii	"\306\001];%}\244\320\262\022\323\314T<#Bq\263c\215\364"
 10779      257DA4D0 
 10779      B212D3CC 
 10779      543C2342 
 10779      71B3638D 
 10780 0061 68C5C112 		.ascii	"h\305\301\022\301]DT\003  :W0\300\240\356Iw\332\323"
 10780      C15D4454 
 10780      0320203A 
 10780      5730C0A0 
 10780      EE4977DA 
 10781 0076 7B15173D 		.ascii	"{\025\027=(O\313W\225to\334=V\226\323\214\366\216(F"
 10781      284FCB57 
 10781      95746FDC 
 10781      3D5696D3 
 10781      8CF68E28 
 10782 008b 4633C2DE 		.ascii	"F3\302\336\\\\+Ms{Kq-T!\374=\315\011<"
 10782      5C5C2B4D 
 10782      737B4B71 
 10782      2D5421FC 
 10782      3DCD093C 
 10783              		.global	sp_007mm
 10784              		.section	.rodata.sp_007mm,"a"
 10785              		.align	2
 10786              		.type	sp_007mm, %object
 10787              		.size	sp_007mm, 71
 10788              	sp_007mm:
 10789 0000 06A8514C 		.ascii	"\006\250QL\001YZ\0045\013\347\362\245\235T\253-\253"
 10789      01595A04 
 10789      350BE7F2 
 10789      A59D54AB 
 10789      2DAB
 10790 0012 1AA6D194 		.ascii	"\032\246\321\224\320\017%UR7@u\301\0068\303)I5\210i"
 10790      D00F2555 
 10790      52374075 
 10790      C10638C3 
 10790      29493588 
 10791 0027 8FA22937 		.ascii	"\217\242)7i\2664\246W\322\244\021MD\337v\220\235\260"
 10791      69B634A6 
 10791      57D2A411 
 10791      4D44DF76 
 10791      909DB0
 10792 003a B360355E 		.ascii	"\263`5^JRef\023\301\244O\377"
 10792      4A526566 
 10792      13C1A44F 
 10792      FF
ARM GAS  /tmp/ccONvy4E.s 			page 289


 10793              		.global	sp_006mm
 10794              		.section	.rodata.sp_006mm,"a"
 10795              		.align	2
 10796              		.type	sp_006mm, %object
 10797              		.size	sp_006mm, 218
 10798              	sp_006mm:
 10799 0000 4CFFBE3C 		.ascii	"L\377\276<,\344P]\353I\267\321]\327\3246\315\325L]U"
 10799      2CE4505D 
 10799      EB49B7D1 
 10799      5DD7D436 
 10799      CDD54C5D 
 10800 0015 B234DF33 		.ascii	"\2624\3373m\325\311QR\316\324\012%K\311\331\324\273"
 10800      6DD5C951 
 10800      52CED40A 
 10800      254BC9D9 
 10800      D4BB
 10801 0027 D416B926 		.ascii	"\324\026\271&\214\332V\254\264\354(T-iRZ&\215*\333C"
 10801      8CDA56AC 
 10801      B4EC2854 
 10801      2D69525A 
 10801      268D2ADB 
 10802 003c 894EDD7B 		.ascii	"\211N\335{\225t5hA\310[p\222\2507#*K\327q4\254\320\312"
 10802      95743568 
 10802      41C85B70 
 10802      92A83723 
 10802      2A4BD771 
 10803 0054 3D5AF6B6 		.ascii	"=Z\366\266\246]\035\343LQ\252B5\0004 \001\002Dc\014"
 10803      A65D1DE3 
 10803      4C51AA42 
 10803      35003420 
 10803      01024463 
 10804 0069 C50E3E3C 		.ascii	"\305\016><l\342\032K\004w\021\221\015\300\200\222*\014"
 10804      6CE21A4B 
 10804      04771191 
 10804      0DC08092 
 10804      2A0C
 10805 007b 108A7B30 		.ascii	"\020\212{0m\343t\327I\305tY\323\323\2576\313\005\313"
 10805      6DE374D7 
 10805      49C57459 
 10805      D3D3AF36 
 10805      CB05CB
 10806 008e F49E5B6C 		.ascii	"\364\236[l\033-\243\272\266\261D(U\241\032\200\000\252"
 10806      1B2DA3BA 
 10806      B6B14428 
 10806      55A11A80 
 10806      00AA
 10807 00a0 230570BD 		.ascii	"#\005p\275\271\000\376\336P\300\317\316F\2316Y5k'\253"
 10807      B900FEDE 
 10807      50C0CFCE 
 10807      46993659 
 10807      356B27AB 
 10808 00b4 4471CB93 		.ascii	"Dq\313\223\235\354\034)\242W\212sj&\313(\332\302\211"
 10808      9DEC1C29 
 10808      A2578A73 
 10808      6A26CB28 
 10808      DAC289
 10809 00c7 1637C434 		.ascii	"\0267\3044\013'hZSq\315\334\250\251SM\011w\037"
ARM GAS  /tmp/ccONvy4E.s 			page 290


 10809      0B27685A 
 10809      5371CDDC 
 10809      A8A9534D 
 10809      09771F
 10810              		.global	sp_015mm
 10811              		.section	.rodata.sp_015mm,"a"
 10812              		.align	2
 10813              		.type	sp_015mm, %object
 10814              		.size	sp_015mm, 287
 10815              	sp_015mm:
 10816 0000 06A83AB2 		.ascii	"\006\250:\262\031\221\273y\265\325\242;\351\351\373"
 10816      1991BB79 
 10816      B5D5A23B 
 10816      E9E9FB
 10817 000f 728C2E82 		.ascii	"r\214.\202\273\210\310\000p@\221i\016\350V\275\2511"
 10817      BB88C800 
 10817      70409169 
 10817      0EE856BD 
 10817      A931
 10818 0021 5858A9E2 		.ascii	"XX\251\342\241\324\252\246\335N\247\034e$\213\340.\""
 10818      A1D4AAA6 
 10818      DD4EA71C 
 10818      65248BE0 
 10818      2E22
 10819 0033 3200C000 		.ascii	"2\000\300\000+\2064\276Wc\213\227\323\305.5\251y\265"
 10819      2B8634BE 
 10819      57638B97 
 10819      D3C52E35 
 10819      A979B5
 10820 0046 CA649A65 		.ascii	"\312d\232e'\006#\247\354\031\222X\235\372D\262qJ\324"
 10820      270623A7 
 10820      EC199258 
 10820      9DFA44B2 
 10820      714AD4
 10821 0059 96D50D31 		.ascii	"\226\325\0151\351\321\205W\265\342\244\247\230\356\331"
 10821      E9D18557 
 10821      B5E2A4A7 
 10821      98EED9
 10822 0068 8A879E43 		.ascii	"\212\207\236C\206V1j\232\213\021Q\246(i\306{x\232l\247"
 10822      8656316A 
 10822      9A8B1151 
 10822      A62869C6 
 10822      7B789A6C 
 10823 007d 19A1EFCE 		.ascii	"\031\241\357\316\261\235f\271\274;\307qZ\340\364\036"
 10823      B19D66B9 
 10823      BC3BC771 
 10823      5AE0F41E 
 10824 008d 9CD86991 		.ascii	"\234\330i\221\343{\262\355\246F\353j\271\212\206ZB8"
 10824      E37BB2ED 
 10824      A646EB6A 
 10824      B98A865A 
 10824      4238
 10825 009f E730196A 		.ascii	"\3470\031j\366a\352%g\250\311\205\231\225\223\246&\353"
 10825      F661EA25 
 10825      67A8C985 
 10825      999593A6 
 10825      26EB
ARM GAS  /tmp/ccONvy4E.s 			page 291


 10826 00b1 AE9E7186 		.ascii	"\256\236q\206\232\\\230Y9ij\262\356\352\031'\350Q\362"
 10826      9A5C9859 
 10826      39696AB2 
 10826      EEEA1927 
 10826      E851F2
 10827 00c4 789B25A3 		.ascii	"x\233%\243Y\241\357.\216\234\036d\204gY2\306\266\351"
 10827      59A1EF2E 
 10827      8E9C1E64 
 10827      84675932 
 10827      C6B6E9
 10828 00d7 29D62499 		.ascii	")\326$\231\256v\270\216\234nN\243\033\301\260!Rq\242"
 10828      AE76B88E 
 10828      9C6E4EA3 
 10828      1BC1B021 
 10828      5271A2
 10829 00ea 22938BEA 		.ascii	"\"\223\213\352R\227\202-a{\246\026\036N\300\001\327"
 10829      5297822D 
 10829      617BA616 
 10829      1E4EC001 
 10829      D7
 10830 00fb BA37A719 		.ascii	"\2727\247\0315\267\211\323l\027\314+\333j\264\235-\202"
 10830      35B789D3 
 10830      6C17CC2B 
 10830      DB6AB49D 
 10830      2D82
 10831 010d BB88C806 		.ascii	"\273\210\310\006\002\030'\013\000`\200\241\303\030\320"
 10831      0218270B 
 10831      006080A1 
 10831      C318D0
 10832 011c B42B3C   		.ascii	"\264+<"
 10833              		.global	sp_005mm
 10834              		.section	.rodata.sp_005mm,"a"
 10835              		.align	2
 10836              		.type	sp_005mm, %object
 10837              		.size	sp_005mm, 219
 10838              	sp_005mm:
 10839 0000 4691D2B7 		.ascii	"F\221\322\267$\3358\305KYc\367\225t\323ZMGq\326\233"
 10839      24DD38C5 
 10839      4B5963F7 
 10839      9574D35A 
 10839      4D4771D6 
 10840 0015 665BABE9 		.ascii	"f[\253\351(\036\252k\255\246\243x(.\247\271\225\223"
 10840      281EAA6B 
 10840      ADA6A378 
 10840      282EA7B9 
 10840      9593
 10841 0027 26456D16 		.ascii	"&Em\026jN\242\200\000\022\252\0110\343\004\001\246("
 10841      6A4EA280 
 10841      0012AA09 
 10841      30E30401 
 10841      A628
 10842 0039 050734EA 		.ascii	"\005\0074\352\026\000#\242\007\227\263Kh\306\035\\\256"
 10842      160023A2 
 10842      0797B34B 
 10842      68C61D5C 
 10842      AE
 10843 004a CE295977 		.ascii	"\316)Ywq\271\231\204F\234\301\233d\321>\326\252<\364"
ARM GAS  /tmp/ccONvy4E.s 			page 292


 10843      71B99984 
 10843      469CC19B 
 10843      64D13ED6 
 10843      AA3CF4
 10844 005d 103D3CCF 		.ascii	"\020=<\317\3112Jpg[;\310\230\242T\205j\200\003\252\256"
 10844      C9324A70 
 10844      675B3BC8 
 10844      98A25485 
 10844      6A8003AA 
 10845 0072 30C04CE6 		.ascii	"0\300L\346E\355AC\332\341\014\315e\317lv\274\364\322"
 10845      45ED4143 
 10845      DAE10CCD 
 10845      65CF6C76 
 10845      BCF4D2
 10846 0085 CDDCC7CD 		.ascii	"\315\334\307\315\325\267\026\015\004LQ\212\000-\\\011"
 10846      D5B7160D 
 10846      044C518A 
 10846      002D5C09 
 10847 0095 60B55B00 		.ascii	"`\265[\000\246K\005\004LQ\012\002\360\303\315\000\276"
 10847      A64B0504 
 10847      4C510A02 
 10847      F0C3CD00 
 10847      BE
 10848 00a6 95282095 		.ascii	"\225( \225N\303\3450\026(N\032\037fpQ\304\356\\\347"
 10848      4EC3E530 
 10848      16284E1A 
 10848      1F667051 
 10848      C4EE5CE7 
 10849 00ba 9B60A36B 		.ascii	"\233`\243k{\317\351RQu\262,\333\270\3110\331#d\253F"
 10849      7BCFE952 
 10849      5175B22C 
 10849      DBB8C930 
 10849      D92364AB 
 10850 00cf 3BDACE51 		.ascii	";\332\316Q\315\335\262+[GZ\037"
 10850      CDDDB22B 
 10850      5B475A1F 
 10851              		.global	sp_004mm
 10852              		.section	.rodata.sp_004mm,"a"
 10853              		.align	2
 10854              		.type	sp_004mm, %object
 10855              		.size	sp_004mm, 290
 10856              	sp_004mm:
 10857 0000 C2E42EC3 		.ascii	"\302\344.\303/i\007S\372\214\370R\022tc\303\375\307"
 10857      2F690753 
 10857      FA8CF852 
 10857      127463C3 
 10857      FDC7
 10858 0012 49D34A36 		.ascii	"I\323J6\221K'[;j\361j\272\253e\251\331H\344\275\232"
 10858      914B275B 
 10858      3B6AF16A 
 10858      BAAB65A9 
 10858      D948E4BD 
 10859 0027 A514A356 		.ascii	"\245\024\243V\365\212\232\\\222\252\356\321\012\262"
 10859      F58A9A5C 
 10859      92AAEED1 
 10859      0AB2
 10860 0035 57161983 		.ascii	"W\026\031\203\330\250_\250\270\264=\243|_b\354R\233"
ARM GAS  /tmp/ccONvy4E.s 			page 293


 10860      D8A85FA8 
 10860      B8B43DA3 
 10860      7C5F62EC 
 10860      529B
 10861 0047 D09DAAA9 		.ascii	"\320\235\252\251\327mB\316.\241\031\267\011\271:\247"
 10861      D76D42CE 
 10861      2EA119B7 
 10861      09B93AA7 
 10862 0057 64DD22E4 		.ascii	"d\335\"\344f\022\032q\212X\252*g\304.R\266\032\032\025"
 10862      66121A71 
 10862      8A58AA2A 
 10862      67C42E52 
 10862      B61A1A15 
 10863 006b 25CA46FE 		.ascii	"%\312F\376\271\315\325h+\371\007w\021\221\215\024\021"
 10863      B9CDD568 
 10863      2BF90777 
 10863      11918D14 
 10863      11
 10864 007c DC4544B6 		.ascii	"\334ED\266\322\202/\015\3736\225_Z\014\245\316k\247"
 10864      D2822F0D 
 10864      FB36955F 
 10864      5A0CA5CE 
 10864      6BA7
 10865 008e A9B6BA9B 		.ascii	"\251\266\272\233\217\322\244\232\352f2v\215\356\224"
 10865      8FD2A49A 
 10865      EA663276 
 10865      8DEE94
 10866 009d 9B8BB951 		.ascii	"\233\213\271QZb.a\356,h\256\270\024\233\222\242\372"
 10866      5A622E61 
 10866      EE2C68AE 
 10866      B8149B92 
 10866      A2FA
 10867 00af A1B2944D 		.ascii	"\241\262\224M\212b\263\304k\327I\212\015\022\357I'\251"
 10867      8A62B3C4 
 10867      6BD7498A 
 10867      0D12EF49 
 10867      27A9
 10868 00c1 CD2AA695 		.ascii	"\315*\246\225\224\240\237\336\252\020\226\2356,a\344"
 10868      94A09FDE 
 10868      AA10969D 
 10868      362C61E4 
 10869 00d1 386E4A77 		.ascii	"8nJw,\331M\253\2513)Z\216\342\244\316(h\265\212\205"
 10869      2CD94DAB 
 10869      A933295A 
 10869      8EE2A4CE 
 10869      2868B58A 
 10870 00e6 6E98C664 		.ascii	"n\230\306d)B@\323\351\026\020\300NN\305\315\306,\374"
 10870      294240D3 
 10870      E91610C0 
 10870      4E4EC5CD 
 10870      C62CFC
 10871 00f9 153B57A6 		.ascii	"\025;W\246\350\236bl\275\344y\355\221y\212M\\T\"\223"
 10871      E89E626C 
 10871      BDE479ED 
 10871      91798A4D 
 10871      5C542293 
 10872 010d D61249F2 		.ascii	"\326\022I\362N\312\035\332\030\321\251i\235*a\026%\252"
ARM GAS  /tmp/ccONvy4E.s 			page 294


 10872      4ECA1DDA 
 10872      18D1A969 
 10872      9D2A6116 
 10872      25AA
 10873 011f F28A1F   		.ascii	"\362\212\037"
 10874              		.global	sp_003mm
 10875              		.section	.rodata.sp_003mm,"a"
 10876              		.align	2
 10877              		.type	sp_003mm, %object
 10878              		.size	sp_003mm, 253
 10879              	sp_003mm:
 10880 0000 0AD83E4D 		.ascii	"\012\330>M\000/\226\013\340\3274\004\374\346\246\200"
 10880      002F960B 
 10880      E0D73404 
 10880      FCE6A680 
 10881 0010 BA3C0D30 		.ascii	"\272<\0150\372d1]w\327\344z\335\230\372\324\227\356"
 10881      FA64315D 
 10881      77D7E47A 
 10881      DD98FAD4 
 10881      97EE
 10882 0022 4A99CB45 		.ascii	"J\231\313E\331\3724\2729\254\230RC\307IsRr\011_\245"
 10882      D9FA34BA 
 10882      39AC9852 
 10882      43C74973 
 10882      5272095F 
 10883 0037 C589DE3C 		.ascii	"\305\211\336<\262\231$7x\215\330P\032\\\247\255\253"
 10883      B2992437 
 10883      788DD850 
 10883      1A5CA7AD 
 10883      AB
 10884 0048 968972BD 		.ascii	"\226\211r\275RK[\251\310\265(\"\303\035\033\343\204"
 10884      524B5BA9 
 10884      C8B52822 
 10884      C31D1BE3 
 10884      84
 10885 0059 14D7B0CD 		.ascii	"\024\327\260\315\214\236J\224\336\011\323G\3560\234"
 10885      8C9E4A94 
 10885      DE09D347 
 10885      EE309C
 10886 0068 38441FA5 		.ascii	"8D\037\245\"\240\235<\000\336J\342'\304\274\355\026"
 10886      22A09D3C 
 10886      00DE4AE2 
 10886      27C4BCED 
 10886      16
 10887 0079 4DE75295 		.ascii	"M\347R\225\255\272\264\020\334L\327\356QK43[\247CIV"
 10887      ADBAB410 
 10887      DC4CD7EE 
 10887      514B3433 
 10887      5BA74349 
 10888 008e 23E6E414 		.ascii	"#\346\344\024\265k'\227\262\263\344\032L\"\337\361\220"
 10888      B56B2797 
 10888      B2B3E41A 
 10888      4C22DFF1 
 10888      90
 10889 009f 5A16AE38 		.ascii	"Z\026\2568GJ\365\032\362-\351 \225\363\256\312r\034"
 10889      474AF51A 
 10889      F22DE920 
ARM GAS  /tmp/ccONvy4E.s 			page 295


 10889      95F3AECA 
 10889      721C
 10890 00b1 0067BC96 		.ascii	"\000g\274\226\330\263s\330;]b4\036\025\357\356\210\321"
 10890      D8B373D8 
 10890      3B5D6234 
 10890      1E15EFEE 
 10890      88D1
 10891 00c3 87BB9FD3 		.ascii	"\207\273\237\323#\305\034\256qN\226\034R\270\3319YJ"
 10891      23C51CAE 
 10891      714E961C 
 10891      52B8D939 
 10891      594A
 10892 00d5 0C112A6D 		.ascii	"\014\021*mwh1\244\033m\225fx\037\341rQ\223\351\202Y"
 10892      776831A4 
 10892      1B6D9566 
 10892      781FE172 
 10892      5193E982 
 10893 00ea D84B75A6 		.ascii	"\330Ku\246\263\252#o\033 \001Y\3338\240k\247\244\217"
 10893      B3AA236F 
 10893      1B200159 
 10893      DB38A06B 
 10893      A7A48F
 10894              		.global	sp_002mm
 10895              		.section	.rodata.sp_002mm,"a"
 10896              		.align	2
 10897              		.type	sp_002mm, %object
 10898              		.size	sp_002mm, 217
 10899              	sp_002mm:
 10900 0000 4E1DB1C3 		.ascii	"N\035\261\303,e\0055Z\213\220\213S\225!e\033\0262\261"
 10900      2C650535 
 10900      5A8B908B 
 10900      53952165 
 10900      1B1632B1 
 10901 0014 97985D98 		.ascii	"\227\230]\230\331\306\031B\261\356\346\353\304HZ\204"
 10901      D9C61942 
 10901      B1EEE6EB 
 10901      C4485A84 
 10902 0024 673658A3 		.ascii	"g6X\243D\254\341\231v\024\320!\031\001\376\036s\300"
 10902      44ACE199 
 10902      7614D021 
 10902      1901FE1E 
 10902      73C0
 10903 0036 5F1708F8 		.ascii	"_\027\010\370\363T\001\177\256\032\340\317\265!U\035"
 10903      F354017F 
 10903      AE1AE0CF 
 10903      B521551D 
 10904 0046 6E3A7197 		.ascii	"n:q\227\230R\231\332\331Y|HU\236\245dp\276TF\214\222"
 10904      985299DA 
 10904      D9597C48 
 10904      559EA564 
 10904      70BE5446 
 10905 005c 218496E9 		.ascii	"!\204\226\351\321n\233\342[\206g*IJ(a\272\315\206\000"
 10905      D16E9BE2 
 10905      5B86672A 
 10905      494A2861 
 10905      BACD8600 
 10906 0070 41841260 		.ascii	"A\204\022`*U\003,\021\206\200 B\023\220\265\215\003"
ARM GAS  /tmp/ccONvy4E.s 			page 296


 10906      2A55032C 
 10906      11868020 
 10906      421390B5 
 10906      8D03
 10907 0082 BA764AFA 		.ascii	"\272vJ\372H\241e%\246\231\251xF\204\342f\307\032\351"
 10907      48A16525 
 10907      A699A978 
 10907      4684E266 
 10907      C71AE9
 10908 0095 D18A8325 		.ascii	"\321\212\203%\202\273\210\250\006@@t\256`\200A\335\223"
 10908      82BB88A8 
 10908      06404074 
 10908      AE608041 
 10908      DD93
 10909 00a7 EEB4A7F7 		.ascii	"\356\264\247\367*.zP\236\226\257*\351\336\270{\254,"
 10909      2A2E7A50 
 10909      9E96AF2A 
 10909      E9DEB87B 
 10909      AC2C
 10910 00b9 A719ED1D 		.ascii	"\247\031\355\035Q\214\214f\204\275\271\270V\232\346"
 10910      518C8C66 
 10910      84BDB9B8 
 10910      569AE6
 10911 00c8 F696E25A 		.ascii	"\366\226\342Z\250B\370{\232\023\245\010\035\347\246"
 10911      A842F87B 
 10911      9A13A508 
 10911      1DE7A6
 10912 00d7 4E1F     		.ascii	"N\037"
 10913              		.global	sp_001mm
 10914              		.section	.rodata.sp_001mm,"a"
 10915              		.align	2
 10916              		.type	sp_001mm, %object
 10917              		.size	sp_001mm, 149
 10918              	sp_001mm:
 10919 0000 856C1E1A 		.ascii	"\205l\036\032\265\253\030%0@\030\345\016(\241\303\001"
 10919      B5AB1825 
 10919      304018E5 
 10919      0E28A1C3 
 10919      01
 10920 0011 254F25A6 		.ascii	"%O%\246\246.cR2\330\230S9(\361\340B\0127\215\312\223"
 10920      A62E6352 
 10920      32D89853 
 10920      3928F1E0 
 10920      420A378D 
 10921 0027 EB7C1082 		.ascii	"\353|\020\202\226,\325hA\262F;\331\343\004\331\030\335"
 10921      962CD568 
 10921      41B2463B 
 10921      D9E304D9 
 10921      18DD
 10922 0039 E2903A94 		.ascii	"\342\220:\224\340\3153\312\356\322R4\363H%KO\321\315"
 10922      E0CD33CA 
 10922      EED25234 
 10922      F348254B 
 10922      4FD1CD
 10923 004c B3E40C23 		.ascii	"\263\344\014#$\013\363\264\353L\345t\\+\2113\245\267"
 10923      240BF3B4 
 10923      EB4CE574 
ARM GAS  /tmp/ccONvy4E.s 			page 297


 10923      5C2B8933 
 10923      A5B7
 10924 005e 2D29C7CA 		.ascii	"-)\307\312\024A?\245\0349\313X\323\264H\022l[%C\246"
 10924      14413FA5 
 10924      1C39CB58 
 10924      D3B44812 
 10924      6C5B2543 
 10925 0073 4AB26DE1 		.ascii	"J\262m\341I\335\252\301\261\225\273d\253\005\327u\252"
 10925      49DDAAC1 
 10925      B195BB64 
 10925      AB05D775 
 10925      AA
 10926 0084 908EEB5C 		.ascii	"\220\216\353\\\333\271R+\212q]A\015\216(\322\377"
 10926      DBB9522B 
 10926      8A715D41 
 10926      0D8E28D2 
 10926      FF
 10927              		.global	sp_000mm
 10928              		.section	.rodata.sp_000mm,"a"
 10929              		.align	2
 10930              		.type	sp_000mm, %object
 10931              		.size	sp_000mm, 215
 10932              	sp_000mm:
 10933 0000 D5A50AAE 		.ascii	"\325\245\012\256c\334T\037*\224\317IW\273\322\305\306"
 10933      63DC541F 
 10933      2A94CF49 
 10933      57BBD2C5 
 10933      C6
 10934 0011 6753A1DE 		.ascii	"gS\241\336v\022\227\004\267g$.\\2a\246\2258\361\305"
 10934      76129704 
 10934      B767242E 
 10934      5C3261A6 
 10934      9538F1C5 
 10935 0025 846BB662 		.ascii	"\204k\266b\307g\027N\353L\274h\200\342\312\024Pt(\003"
 10935      C767174E 
 10935      EB4CBC68 
 10935      80E2CA14 
 10935      50742803 
 10936 0039 0A760302 		.ascii	"\012v\003\002\004\023f\000\347\335\010\200\206\213\321"
 10936      04136600 
 10936      E7DD0880 
 10936      868BD1
 10937 0048 F52C136B 		.ascii	"\365,\023k;\305\360\251\302\270\2426#Ew\227\216\322"
 10937      3BC5F0A9 
 10937      C2B8A236 
 10937      23457797 
 10937      8ED2
 10938 005a 8C12D52C 		.ascii	"\214\022\325,[N3\242\027\363z\306FW\326\326\333i3]\323"
 10938      5B4E33A2 
 10938      17F37AC6 
 10938      4657D6D6 
 10938      DB69335D 
 10939 006f F0F2B04B 		.ascii	"\360\362\260Ku\005\034\343\316\200\354M9\200\200)J1"
 10939      75051CE3 
 10939      CE80EC4D 
 10939      39808029 
 10939      4A31
ARM GAS  /tmp/ccONvy4E.s 			page 298


 10940 0081 1094D54A 		.ascii	"\020\224\325J\223\223IQZ\024\365~\307M\316V\2526\335"
 10940      93934951 
 10940      5A14F57E 
 10940      C74DCE56 
 10940      AA36DD
 10941 0094 4CA9492D 		.ascii	"L\251I-\211G\207\222*U\245\252Y\317\246\263\262\226"
 10941      89478792 
 10941      2A55A5AA 
 10941      59CFA6B3 
 10941      B296
 10942 00a6 EC7426C2 		.ascii	"\354t&\302\212\032>\315X3\333H\371\025uB\035d3\236U"
 10942      8A1A3ECD 
 10942      5833DB48 
 10942      F9157542 
 10942      1D64339E 
 10943 00bb 91899063 		.ascii	"\221\211\220c\245\253\0309%V\344\2506\242$\2301:\252"
 10943      A5AB1839 
 10943      2556E4A8 
 10943      36A22498 
 10943      313AAA
 10944 00ce 8D63642A 		.ascii	"\215cd*\037\356j\264\037"
 10944      1FEE6AB4 
 10944      1F
 10945              		.global	sp_015s
 10946              		.section	.rodata.sp_015s,"a"
 10947              		.align	2
 10948              		.type	sp_015s, %object
 10949              		.size	sp_015s, 130
 10950              	sp_015s:
 10951 0000 290A3C7B 		.ascii	")\012<{\200\363\264(\013\377b\314\263\302 j\235\245"
 10951      80F3B428 
 10951      0BFF62CC 
 10951      B3C2206A 
 10951      9DA5
 10952 0012 CF0E86EF 		.ascii	"\317\016\206\357E\3168\372\351~\017J\350TN)\350\257"
 10952      45CE38FA 
 10952      E97E0F4A 
 10952      E8544E29 
 10952      E8AF
 10953 0024 918B64EC 		.ascii	"\221\213d\3542\224>6a\251v\033B\342\013\345N\217\011"
 10953      32943E36 
 10953      61A9761B 
 10953      42E20BE5 
 10953      4E8F09
 10954 0037 0A530040 		.ascii	"\012S\000@@\361A\014\010Z\203\003\246+\301Y%b\226${"
 10954      40F1410C 
 10954      085A8303 
 10954      A62BC159 
 10954      25629624 
 10955 004c 0BCB6C3B 		.ascii	"\013\313l;\313Q%\023e\245]g\325\253P[_!\305}\001 \245"
 10955      CB512513 
 10955      65A55D67 
 10955      D5AB505B 
 10955      5F21C57D 
 10956 0063 C3A5844A 		.ascii	"\303\245\204J\346\222\027\345fj\235b\3162%\245\307\314"
 10956      E69217E5 
 10956      666A9D62 
ARM GAS  /tmp/ccONvy4E.s 			page 299


 10956      CE3225A5 
 10956      C7CC
 10957 0075 36CD5066 		.ascii	"6\315Pf9Ek8\006\004$i\371"
 10957      39456B38 
 10957      06042469 
 10957      F9
 10958              		.global	sp_013s
 10959              		.section	.rodata.sp_013s,"a"
 10960              		.align	2
 10961              		.type	sp_013s, %object
 10962              		.size	sp_013s, 388
 10963              	sp_013s:
 10964 0000 22640401 		.ascii	"\"d\004\001R\270*\240\353\024\005l\233f\001\013$\263"
 10964      52B82AA0 
 10964      EB14056C 
 10964      9B66010B 
 10964      24B3
 10965 0012 D8F4024F 		.ascii	"\330\364\002Or\242\250\253\202e\327\210\234\2345\226"
 10965      72A2A8AB 
 10965      8265D788 
 10965      9C9C3596 
 10966 0022 DE2D2EC4 		.ascii	"\336-.\304\337X\265\216\2701\375`V\273\242 \273U<\361"
 10966      DF58B58E 
 10966      B831FD60 
 10966      56BBA220 
 10966      BB553CF1 
 10967 0036 899B8C76 		.ascii	"\211\233\214v\325\304'\356:R\315\022\235x\350t5u\225"
 10967      D5C427EE 
 10967      3A52CD12 
 10967      9D78E874 
 10967      357595
 10968 0049 A260B14A 		.ascii	"\242`\261J\335\255\211\244\321\017\016\307,\365\324"
 10968      DDAD89A4 
 10968      D10F0EC7 
 10968      2CF5D4
 10969 0058 CCBDDC18 		.ascii	"\314\275\334\030\240\252t\005\314R$\001\012 0p\027\021"
 10969      A0AA7405 
 10969      CC522401 
 10969      0A203070 
 10969      1711
 10970 006a 320400AA 		.ascii	"2\004\000\252\220\332|\324\222\206\334\032\261Vs6\362"
 10970      90DA7CD4 
 10970      9286DC1A 
 10970      B1567336 
 10970      F2
 10971 007b 6C52DD34 		.ascii	"lR\3354U\313\223Us\325\306)\017\006\263L\223\226<\032"
 10971      55CB9355 
 10971      73D5C629 
 10971      0F06B34C 
 10971      93963C1A 
 10972 008f 8C728D97 		.ascii	"\214r\215\227\362h!:$\336I\273\017c\325\324'\2551\225"
 10972      F268213A 
 10972      24DE49BB 
 10972      0F63D5D4 
 10972      27AD3195 
 10973 00a3 5DB39CA4 		.ascii	"]\263\234\244\370\020I\365\267\222dC\305\305\177K\275"
 10973      F81049F5 
ARM GAS  /tmp/ccONvy4E.s 			page 300


 10973      B7926443 
 10973      C5C57F4B 
 10973      BD
 10974 00b4 4B35237F 		.ascii	"K5#\177!76\335\202\364\252\322\2504\027\225\227j\223"
 10974      213736DD 
 10974      82F4AAD2 
 10974      A8341795 
 10974      976A93
 10975 00c7 5DC34C69 		.ascii	"]\303Li\251\354Vj\247\334\245\266\227\271]\272\226\306"
 10975      A9EC566A 
 10975      A7DCA5B6 
 10975      97B95DBA 
 10975      96C6
 10976 00d9 1E9655D9 		.ascii	"\036\226U\3315\032?\225\206}\323hbwJ\265\026\243\315"
 10976      351A3F95 
 10976      867DD368 
 10976      62774AB5 
 10976      16A3CD
 10977 00ec DDD12212 		.ascii	"\335\321\"\022\214\266\246@\365t\020zcTW\305u\350B\200"
 10977      8CB6A640 
 10977      F574107A 
 10977      635457C5 
 10977      75E84280 
 10978 0100 0A5367AE 		.ascii	"\012Sg\256s\016\263U\342\251N\030\315sU\214\300\300"
 10978      730EB355 
 10978      E2A94E18 
 10978      CD73558C 
 10978      C0C0
 10979 0112 5D44C828 		.ascii	"]D\310(\002\0223\303\000\002j1\361\300(\203\011;m)\247"
 10979      021233C3 
 10979      00026A31 
 10979      F1C02883 
 10979      093B6D29 
 10980 0127 29C9CDBD 		.ascii	")\311\315\275Z\235\256d\017\213\\}\272\224<=\272\325"
 10980      5A9DAE64 
 10980      0F8B5C7D 
 10980      BA943C3D 
 10980      BAD5
 10981 0139 69A3CF08 		.ascii	"i\243\317\010\315\236\014\014\334E\204\014\002\000("
 10981      CD9E0C0C 
 10981      DC45840C 
 10981      020028
 10982 0148 60058791 		.ascii	"`\005\207\221Vc\032\026\235F\325]\250\252ujU\263\241"
 10982      56631A16 
 10982      9D46D55D 
 10982      A8AA756A 
 10982      55B3A1
 10983 015b AA963254 		.ascii	"\252\2262T\311Q\252\252[W\005Caf\352L\3514\227\231{"
 10983      C951AAAA 
 10983      5B570543 
 10983      6166EA4C 
 10983      E9349799 
 10984 0170 610557DA 		.ascii	"a\005W\332\345\345\030e\212\231g\206\023\2249\256\254"
 10984      E5E51865 
 10984      8A996786 
 10984      139439AE 
 10984      AC
ARM GAS  /tmp/ccONvy4E.s 			page 301


 10985 0181 1C6E1F   		.ascii	"\034n\037"
 10986              		.global	sp_012s
 10987              		.section	.rodata.sp_012s,"a"
 10988              		.align	2
 10989              		.type	sp_012s, %object
 10990              		.size	sp_012s, 71
 10991              	sp_012s:
 10992 0000 225FC93C 		.ascii	"\"_\311<\243\255H\003w\021!C\000\016\250Q\265%9\270"
 10992      A3AD4803 
 10992      77112143 
 10992      000EA851 
 10992      B52539B8 
 10993 0014 98459391 		.ascii	"\230E\223\221\272l\226U\265O\236|\206\226n\275\305-"
 10993      BA6C9655 
 10993      B54F9E7C 
 10993      86966EBD 
 10993      C52D
 10994 0026 5AE96278 		.ascii	"Z\351bx\024\257\002p\300\214\252%v.\3142\026\226,DW"
 10994      14AF0270 
 10994      C08CAA25 
 10994      762ECC32 
 10994      16962C44 
 10995 003b D59EA952 		.ascii	"\325\236\251R#yGL\216Lx\362"
 10995      2379474C 
 10995      8E4C78F2 
 10996              		.global	sp_010s
 10997              		.section	.rodata.sp_010s,"a"
 10998              		.align	2
 10999              		.type	sp_010s, %object
 11000              		.size	sp_010s, 236
 11001              	sp_010s:
 11002 0000 694DB9B6 		.ascii	"iM\271\266\354\243\232,\345\316\210\265J\374\221;{-"
 11002      ECA39A2C 
 11002      E5CE88B5 
 11002      4AFC913B 
 11002      7B2D
 11003 0012 4EA9571E 		.ascii	"N\251W\036\314\017\27179y07\354\326\344\344\301^\251"
 11003      CC0FB937 
 11003      39793037 
 11003      ECD6E4E4 
 11003      C15EA9
 11004 0025 79EA5324 		.ascii	"y\352S$\263#nMO\221\334\226\232%=U\266S\352Z\347\324"
 11004      B3236E4D 
 11004      4F91DC96 
 11004      9A253D55 
 11004      B653EA5A 
 11005 003b C5756A68 		.ascii	"\305ujh\234\323T\337!\241\265O[}\271\244\305>]\363\251"
 11005      9CD354DF 
 11005      21A1B54F 
 11005      5B7DB9A4 
 11005      C53E5DF3 
 11006 0050 9C1E6974 		.ascii	"\234\036it\335\246aF\304\320{\2036f\366]\357\014\344"
 11006      DDA66146 
 11006      C4D07B83 
 11006      3666F65D 
 11006      EF0CE4
 11007 0063 B85337BD 		.ascii	"\270S7\2755\330k\246\204\000\202f\012\340Gw\015\020"
ARM GAS  /tmp/ccONvy4E.s 			page 302


 11007      35D86BA6 
 11007      84008266 
 11007      0AE04777 
 11007      0D10
 11008 0075 30701711 		.ascii	"0p\027\0212\004\006(\211L\001\311r\005\300\031\267\323"
 11008      32040628 
 11008      894C01C9 
 11008      7205C019 
 11008      B7D3
 11009 0087 E4101256 		.ascii	"\344\020\022V\255N\233Shh7>]\012\356\251\335\350t!\244"
 11009      AD4E9B53 
 11009      6868373E 
 11009      5D0AEEA9 
 11009      DDE87421 
 11010 009c A775A2D3 		.ascii	"\247u\242\323\005\237\236\222\251\020\030\270\213\010"
 11010      059F9E92 
 11010      A91018B8 
 11010      8B08
 11011 00aa 190606F8 		.ascii	"\031\006\006\3701F\300\300]D\310\220\003\0223\033u\321"
 11011      3146C0C0 
 11011      5D44C890 
 11011      0312331B 
 11011      75D1
 11012 00bc 21A1B169 		.ascii	"!\241\261i\324U\207\270f\313\323\224\020a&\253NSC\204"
 11012      D45587B8 
 11012      66CBD394 
 11012      106126AB 
 11012      4E534384 
 11013 00d0 B9AE3A6D 		.ascii	"\271\256:m\017\341j\322h\264\311\221\273j\362\326:\246"
 11013      0FE16AD2 
 11013      68B4C991 
 11013      BB6AF2D6 
 11013      3AA6
 11014 00e2 2612EE4C 		.ascii	"&\022\356Lk\224Zh;{"
 11014      6B945A68 
 11014      3B7B
 11015              		.global	sp_0099s
 11016              		.section	.rodata.sp_0099s,"a"
 11017              		.align	2
 11018              		.type	sp_0099s, %object
 11019              		.size	sp_0099s, 190
 11020              	sp_0099s:
 11021 0000 06F8D15D 		.ascii	"\006\370\321]\003\032\220\300\010\223rs\355E'O\334="
 11021      031A90C0 
 11021      08937273 
 11021      ED45274F 
 11021      DC3D
 11022 0012 A35A9CAA 		.ascii	"\243Z\234\252\010\367\210j\271\232\254\334\"ka\351\275"
 11022      08F7886A 
 11022      B99AACDC 
 11022      226B61E9 
 11022      BD
 11023 0023 4EC9EB15 		.ascii	"N\311\353\025\006\014\334E\204\214\000\000\003\3342"
 11023      060CDC45 
 11023      848C0000 
 11023      03DC32
 11024 0032 15C0F3E5 		.ascii	"\025\300\363\345\022\240\000\006\036\001r\253\311j\323"
ARM GAS  /tmp/ccONvy4E.s 			page 303


 11024      12A00006 
 11024      1E0172AB 
 11024      C96AD3
 11025 0041 5D728DDA 		.ascii	"]r\215\332\305\265d_\325j\233\312\013|Uh\215K/\344\324"
 11025      C5B5645F 
 11025      D56A9BCA 
 11025      0B7C5568 
 11025      8D4B2FE4 
 11026 0056 A60DCEA4 		.ascii	"\246\015\316\244\200R\353\326\266\243P~\333H\362\254"
 11026      8052EBD6 
 11026      B6A3507E 
 11026      DB48F2AC 
 11027 0066 C28AD922 		.ascii	"\302\212\331\"\362\273\012'\372\212P\337\312\215\232"
 11027      F2BB0A27 
 11027      FA8A50DF 
 11027      CA8D9A
 11028 0075 4B243F2B 		.ascii	"K$?+3\272/\210\362\234\324\330^'\316sR\353k\\\250\367"
 11028      33BA2F88 
 11028      F29CD4D8 
 11028      5E27CE73 
 11028      52EB6B5C 
 11029 008b 496CCE54 		.ascii	"Il\316T\221]'\261\331\303\325>\237\304\006\267H\337"
 11029      915D27B1 
 11029      D9C3D53E 
 11029      9FC406B7 
 11029      48DF
 11030 009d B492904C 		.ascii	"\264\222\220L<|\323J\242w\262\314T-\211\326D2\03230"
 11030      3C7CD34A 
 11030      A277B2CC 
 11030      542D89D6 
 11030      44321A33 
 11031 00b2 70171132 		.ascii	"p\027\0212HA\225i\251\231\352\236"
 11031      48419569 
 11031      A999EA9E 
 11032              		.global	sp_009s
 11033              		.section	.rodata.sp_009s,"a"
 11034              		.align	2
 11035              		.type	sp_009s, %object
 11036              		.size	sp_009s, 111
 11037              	sp_009s:
 11038 0000 04A8DE8D 		.ascii	"\004\250\336\215\002\024\240\300\212\234\237L\226\315"
 11038      0214A0C0 
 11038      8A9C9F4C 
 11038      96CD
 11039 000e A7F071D3 		.ascii	"\247\360q\323E7\237\312\305MW{}*\2276M\355\365\251]"
 11039      45379FCA 
 11039      C54D577B 
 11039      7D2A9736 
 11039      4DEDF5A9 
 11040 0023 DE34F3C7 		.ascii	"\3364\363\307\247vi\322\315\037\257\332\245N\367x\264"
 11040      A77669D2 
 11040      CD1FAFDA 
 11040      A54EF778 
 11040      B4
 11041 0034 1A9F2BDD 		.ascii	"\032\237+\335r\321\352\\.\367\250\206\253\013\2562\""
 11041      72D1EA5C 
 11041      2EF7A886 
ARM GAS  /tmp/ccONvy4E.s 			page 304


 11041      AB0BAE32 
 11041      22
 11042 0045 5BAC3EBB 		.ascii	"[\254>\273\260\264\354\330\206\350\314#sf\033\2027+"
 11042      B0B4ECD8 
 11042      86E8CC23 
 11042      73661B82 
 11042      372B
 11043 0057 DF5A69F0 		.ascii	"\337Zi\360\336\244\254\032\231)\012\027us*'>\221\251"
 11043      DEA4AC1A 
 11043      99290A17 
 11043      75732A27 
 11043      3E91A9
 11044 006a D78A1473 		.ascii	"\327\212\024s\377"
 11044      FF
 11045              		.global	sp_0088s
 11046              		.section	.rodata.sp_0088s,"a"
 11047              		.align	2
 11048              		.type	sp_0088s, %object
 11049              		.size	sp_0088s, 86
 11050              	sp_0088s:
 11051 0000 08085A1B 		.ascii	"\010\010Z\033\003\024`@R\251#i%\030\255{\247Rn\2650"
 11051      03146040 
 11051      52A92369 
 11051      2518AD7B 
 11051      A7526EB5 
 11052 0015 F3960A79 		.ascii	"\363\226\012y\311\312\325o+\314eYv\337#w\213,C\373\236"
 11052      C9CAD56F 
 11052      2BCC6559 
 11052      76DF2377 
 11052      8B2C43FB 
 11053 002a 222E650F 		.ascii	"\".e\017\315\263\312\264\2254\275\367\251KN\344\350"
 11053      CDB3CAB4 
 11053      9534BDF7 
 11053      A94B4EE4 
 11053      E8
 11054 003b BCA369D6 		.ascii	"\274\243i\326\210c[\267\266{e\366\357\030\372a\224\304"
 11054      88635BB7 
 11054      B67B65F6 
 11054      EF18FA61 
 11054      94C4
 11055 004d 7FA5182A 		.ascii	"\177\245\030*\025\312\312x\017"
 11055      15CACA78 
 11055      0F
 11056              		.global	sp_008s
 11057              		.section	.rodata.sp_008s,"a"
 11058              		.align	2
 11059              		.type	sp_008s, %object
 11060              		.size	sp_008s, 84
 11061              	sp_008s:
 11062 0000 0488CE9D 		.ascii	"\004\210\316\235\003\022\220\300Je\374P\362\334\247"
 11062      031290C0 
 11062      4A65FC50 
 11062      F2DCA7
 11063 000f D0FAD648 		.ascii	"\320\372\326H\374\236R\331['\316\273*\351~\035%\357"
 11063      FC9E52D9 
 11063      5B27CEBB 
 11063      2AE97E1D 
ARM GAS  /tmp/ccONvy4E.s 			page 305


 11063      25EF
 11064 0021 AA94F933 		.ascii	"\252\224\3713\024\177\253V\376\306\230\363\216F\364"
 11064      147FAB56 
 11064      FEC698F3 
 11064      8E46F4
 11065 0030 0D51CDD3 		.ascii	"\015Q\315\323ZqSB\265W\351\345\034\212\341<e\320\371"
 11065      5A715342 
 11065      B557E9E5 
 11065      1C8AE13C 
 11065      65D0F9
 11066 0043 48CFF4A5 		.ascii	"H\317\364\245\311\346C=\326/&\233C\024\315\311\003"
 11066      C9E6433D 
 11066      D62F269B 
 11066      4314CDC9 
 11066      03
 11067              		.global	sp_007s
 11068              		.section	.rodata.sp_007s,"a"
 11069              		.align	2
 11070              		.type	sp_007s, %object
 11071              		.size	sp_007s, 95
 11072              	sp_007s:
 11073 0000 269226BB 		.ascii	"&\222&\273\025\324\244\312\250\332\026\222\333Jm\177"
 11073      15D4A4CA 
 11073      A8DA1692 
 11073      DB4A6D7F 
 11074 0010 9C49ED28 		.ascii	"\234I\355(\235\372\023v\257\253\362\372\2075\275\234"
 11074      9DFA1376 
 11074      AFABF2FA 
 11074      8735BD9C 
 11075 0020 2AA85BD6 		.ascii	"*\250[\326ts\352`o\310\322\315j\202\273BO\307\243\013"
 11075      7473EA60 
 11075      6FC8D2CD 
 11075      6A82BB42 
 11075      4FC7A30B 
 11076 0034 7E9CD362 		.ascii	"~\234\323b\265>\206VQI\344\372`)\305\314\255\031\254"
 11076      B53E8656 
 11076      5149E4FA 
 11076      6029C5CC 
 11076      AD19AC
 11077 0047 144F4DB7 		.ascii	"\024OM\267l\220\322\"=\323\222A1\217\321p\215\372 T"
 11077      6C90D222 
 11077      3DD39241 
 11077      318FD170 
 11077      8DFA2054 
 11078 005b 8CDDED03 		.ascii	"\214\335\355\003"
 11079              		.global	sp_011s
 11080              		.section	.rodata.sp_011s,"a"
 11081              		.align	2
 11082              		.type	sp_011s, %object
 11083              		.size	sp_011s, 170
 11084              	sp_011s:
 11085 0000 A52EBE2D 		.ascii	"\245.\276-\352\036:{\370\261\260\271W\243\026&\257\252"
 11085      EA1E3A7B 
 11085      F8B1B0B9 
 11085      57A31626 
 11085      AFAA
 11086 0012 5E8D425C 		.ascii	"^\215B\\\261jX9.\361\034\343\212*\247\205\336\007\253"
ARM GAS  /tmp/ccONvy4E.s 			page 306


 11086      B16A5839 
 11086      2EF11CE3 
 11086      8A2AA785 
 11086      DE07AB
 11087 0025 7BE6E2BB 		.ascii	"{\346\342\273!\344\303\255Z\020\272\201\256fv\201\316"
 11087      21E4C3AD 
 11087      5A10BA81 
 11087      AE667681 
 11087      CE
 11088 0036 6269D60A 		.ascii	"bi\326\012\240\330\316\271\250\271\223c\373\034b#}\226"
 11088      A0D8CEB9 
 11088      A8B99363 
 11088      FB1C6223 
 11088      7D96
 11089 0048 638B59AE 		.ascii	"c\213Y\256\256\036\256m\342\335\326\252\271n\302\244"
 11089      AE1EAE6D 
 11089      E2DDD6AA 
 11089      B96EC2A4 
 11090 0058 D5A2E1F9 		.ascii	"\325\242\341\371n\354\313\253\247_\"_\311<\243\255H"
 11090      6EECCBAB 
 11090      A75F225F 
 11090      C93CA3AD 
 11090      48
 11091 0069 03771121 		.ascii	"\003w\021!C\000\016\250Q\265%9\270\230E\223\221\272"
 11091      43000EA8 
 11091      51B52539 
 11091      B8984593 
 11091      91BA
 11092 007b 6C9655B5 		.ascii	"l\226U\265O\236|\206\226n\275\305-Z\351bx\024\257\002"
 11092      4F9E7C86 
 11092      966EBDC5 
 11092      2D5AE962 
 11092      7814AF02 
 11093 008f 70C08CAA 		.ascii	"p\300\214\252%v.\3142\026\226,DW\325\236\251R#yGL\216"
 11093      25762ECC 
 11093      3216962C 
 11093      4457D59E 
 11093      A9522379 
 11094 00a6 4C78F201 		.ascii	"Lx\362\001"
 11095              		.global	sp_006s
 11096              		.section	.rodata.sp_006s,"a"
 11097              		.align	2
 11098              		.type	sp_006s, %object
 11099              		.size	sp_006s, 99
 11100              	sp_006s:
 11101 0000 0E18CACD 		.ascii	"\016\030\312\315\000+9\011 k\343\226g#\2361\226N\336"
 11101      002B3909 
 11101      206BE396 
 11101      67239E31 
 11101      964EDE
 11102 0013 B3AB7A35 		.ascii	"\263\253z5<Eo\351\242\321\360\024\275\246\213E\303\223"
 11102      3C456FE9 
 11102      A2D1F014 
 11102      BDA68B45 
 11102      C393
 11103 0025 B79A2E1A 		.ascii	"\267\232.\0325O^K\272h\326ZYM\351jQ\351d%\246\253d\314"
 11103      354F5E4B 
ARM GAS  /tmp/ccONvy4E.s 			page 307


 11103      BA68D65A 
 11103      594DE96A 
 11103      51E96425 
 11104 003d 911597CE 		.ascii	"\221\025\227\316\346\225C\032-\226\232\246\013i\262"
 11104      E695431A 
 11104      2D969AA6 
 11104      0B69B2
 11105 004c 9066963E 		.ascii	"\220f\226>\244\336P\253[:\223\030Mc\341Ye\"c\036?\000"
 11105      A4DE50AB 
 11105      5B3A9318 
 11105      4D63E159 
 11105      6522631E 
 11106 0062 5F       		.ascii	"_"
 11107              		.global	sp_005s
 11108              		.section	.rodata.sp_005s,"a"
 11109              		.align	2
 11110              		.type	sp_005s, %object
 11111              		.size	sp_005s, 91
 11112              	sp_005s:
 11113 0000 AB6E2ED3 		.ascii	"\253n.\3234k\255\252\270*\263\250\275\252\342\252\315"
 11113      346BADAA 
 11113      B82AB3A8 
 11113      BDAAE2AA 
 11113      CD
 11114 0011 22CE298B 		.ascii	"\"\316)\213\3531\3638\253(\276\333\314\343\234\242\204"
 11114      EB31F338 
 11114      AB28BEDB 
 11114      CCE39CA2 
 11114      84
 11115 0022 2E338F73 		.ascii	".3\217s\362\032*\315\274\311\311Z\256T\365\330+\353"
 11115      F21A2ACD 
 11115      BCC9C95A 
 11115      AE54F5D8 
 11115      2BEB
 11116 0034 A543C46A 		.ascii	"\245C\304j\255t\3242\021\2535\222\331R\330,fKFJ&\263"
 11116      AD74D432 
 11116      11AB3592 
 11116      D952D82C 
 11116      664B464A 
 11117 004a 982EC911 		.ascii	"\230.\311\021B\303\234\273$:(Ks\346\023\035?"
 11117      42C39CBB 
 11117      243A284B 
 11117      73E6131D 
 11117      3F
 11118              		.global	sp_0033s
 11119              		.section	.rodata.sp_0033s,"a"
 11120              		.align	2
 11121              		.type	sp_0033s, %object
 11122              		.size	sp_0033s, 133
 11123              	sp_0033s:
 11124 0000 282E0403 		.ascii	"(.\004\003\030\240\000\005\206\353\302F\212\266Y\205"
 11124      18A00005 
 11124      86EBC246 
 11124      8AB65985 
 11125 0010 4B1B21DE 		.ascii	"K\033!\336e\025.l\205\312\226U\3700\025&\233W\356\303"
 11125      65152E6C 
 11125      85CA9655 
ARM GAS  /tmp/ccONvy4E.s 			page 308


 11125      F8301526 
 11125      9B57EEC3 
 11126 0024 54986E59 		.ascii	"T\230nY\271\017Sa\272y\345>N\205\351\346\223\371\334"
 11126      B90F5361 
 11126      BA79E53E 
 11126      4E85E9E6 
 11126      93F9DC
 11127 0037 196A9B4F 		.ascii	"\031j\233O\026r\247\233\257>Y\214\225\356\276\372\244"
 11127      1672A79B 
 11127      AF3E598C 
 11127      95EEBEFA 
 11127      A4
 11128 0048 296478C4 		.ascii	")dx\304\252\223\346\020n\031\255OZ\202\273E.^I\315a"
 11128      AA93E610 
 11128      6E19AD4F 
 11128      5A82BB45 
 11128      2E5E49CD 
 11129 005d 62B97824 		.ascii	"b\271x$%\273h\324\352\221\344lb\021\253[\032\242\252"
 11129      25BB68D4 
 11129      EA91E46C 
 11129      6211AB5B 
 11129      1AA2AA
 11130 0070 8BB64AA9 		.ascii	"\213\266J\251w&\316\2269\246!\315\316EY\024\307\314"
 11130      7726CE96 
 11130      39A621CD 
 11130      CE455914 
 11130      C7CC
 11131 0082 66000F   		.ascii	"f\000\017"
 11132              		.global	sp_002s
 11133              		.section	.rodata.sp_002s,"a"
 11134              		.align	2
 11135              		.type	sp_002s, %object
 11136              		.size	sp_002s, 117
 11137              	sp_002s:
 11138 0000 08085A9B 		.ascii	"\010\010Z\233\002\024`@2\341\245\264\336#\330=\227R"
 11138      02146040 
 11138      32E1A5B4 
 11138      DE23D83D 
 11138      9752
 11139 0012 353737F3 		.ascii	"577\363\223\012\265U\323U[*\364e+W\275\255\260W\270"
 11139      930AB555 
 11139      D3555B2A 
 11139      F4652B57 
 11139      BDADB057 
 11140 0027 4CF58EC2 		.ascii	"L\365\216\302?\025\017\312\273\362\260\204#\264\367"
 11140      3F150FCA 
 11140      BBF2B084 
 11140      23B4F7
 11141 0036 C9D230B2 		.ascii	"\311\3220\262\214\336'\253\243\030\325s\237\264\325"
 11141      8CDE27AB 
 11141      A318D573 
 11141      9FB4D5
 11142 0045 60B4ECBD 		.ascii	"`\264\354\275\222V\202\321\272\367Jz\016F\233N#\356"
 11142      925682D1 
 11142      BAF74A7A 
 11142      0E469B4E 
 11142      23EE
ARM GAS  /tmp/ccONvy4E.s 			page 309


 11143 0057 C9047C5A 		.ascii	"\311\004|Z\215x\004e\212KX\342\246Yu\246f\212\207c\262"
 11143      8D780465 
 11143      8A4B58E2 
 11143      A65975A6 
 11143      668A8763 
 11144 006c BC86228A 		.ascii	"\274\206\"\212\224\365\"\351="
 11144      94F522E9 
 11144      3D
 11145              		.global	sp_000s
 11146              		.section	.rodata.sp_000s,"a"
 11147              		.align	2
 11148              		.type	sp_000s, %object
 11149              		.size	sp_000s, 234
 11150              	sp_000s:
 11151 0000 9546A985 		.ascii	"\225F\251\205\266\263\007\000\341\255\3521\331\275,"
 11151      B6B30700 
 11151      E1ADEA31 
 11151      D9BD2C
 11152 000f ADAA9754 		.ascii	"\255\252\227T\321jp\362VRU\263\346\311[.\023\215\204"
 11152      D16A70F2 
 11152      565255B3 
 11152      E6C95B2E 
 11152      138D84
 11153 0022 271BC18D 		.ascii	"'\033\301\215\\c\273Lk\272\024\217#\262 \330J\325\211"
 11153      5C63BB4C 
 11153      6BBA148F 
 11153      23B220D8 
 11153      4AD589
 11154 0035 035AD630 		.ascii	"\003Z\3260@/\211\305\361.)\\\233\224\330\026\307\016"
 11154      402F89C5 
 11154      F12E295C 
 11154      9B94D816 
 11154      C70E
 11155 0047 CD546237 		.ascii	"\315Tb7\204+\244\367\210c\013\362\220\\+\312-ICR\235"
 11155      842BA4F7 
 11155      88630BF2 
 11155      905C2BCA 
 11155      2D494352 
 11156 005c A8E46476 		.ascii	"\250\344dvK\271\242ZR\310<\345\210\233w\346tG)\366\036"
 11156      4BB9A25A 
 11156      52C83CE5 
 11156      889B77E6 
 11156      744729F6 
 11157 0071 BDD4DDA6 		.ascii	"\275\324\335\2468D\3100s\356b\353pJ\325\231\212\205"
 11157      3844C830 
 11157      73EE62EB 
 11157      704AD599 
 11157      8A85
 11158 0083 B56A0837 		.ascii	"\265j\0107\010`\261\204\001?\273j\300\002\0268q5\356"
 11158      0860B184 
 11158      013FBB6A 
 11158      C0021638 
 11158      7135EE
 11159 0096 21BEE964 		.ascii	"!\276\351d\311\205\233\305\352\223\305\024\346\232\253"
 11159      C9859BC5 
 11159      EA93C514 
 11159      E69AAB
ARM GAS  /tmp/ccONvy4E.s 			page 310


 11160 00a5 4E965BB0 		.ascii	"N\226[\260\205ujY,\012\021\231\220\200\201\273\210\220"
 11160      85756A59 
 11160      2C0A1199 
 11160      908081BB 
 11160      8890
 11161 00b7 41000007 		.ascii	"A\000\000\007l\351\274\242\354B\325\275\317IC\016\261"
 11161      6CE9BCA2 
 11161      EC42D5BD 
 11161      CF49430E 
 11161      B1
 11162 00c8 D4DE2BF5 		.ascii	"\324\336+\365\325$Rz\257\314/g\017\3563R\177\224\323"
 11162      D524527A 
 11162      AFCC2F67 
 11162      0FEE3352 
 11162      7F94D3
 11163 00db B977C9DC 		.ascii	"\271w\311\334bi\267\316!\363\033\242%b="
 11163      6269B7CE 
 11163      21F31BA2 
 11163      25623D
 11164              		.global	sp_020m
 11165              		.section	.rodata.sp_020m,"a"
 11166              		.align	2
 11167              		.type	sp_020m, %object
 11168              		.size	sp_020m, 271
 11169              	sp_020m:
 11170 0000 AB086E98 		.ascii	"\253\010n\230W\374\2552\353\014IR?\312(2J\241k)\265"
 11170      57FCAD32 
 11170      EB0C4952 
 11170      3FCA2832 
 11170      4AA16B29 
 11171 0015 A90E905E 		.ascii	"\251\016\220^\2534z\322QZ\237\302\270I7m~r\257\273\334"
 11171      AB347AD2 
 11171      515A9FC2 
 11171      B849376D 
 11171      7E72AFBB 
 11172 002a A4E9C95C 		.ascii	"\244\351\311\\jw\3655'\013\241\325\322z\"p\252R\025"
 11172      6A77F535 
 11172      270BA1D5 
 11172      D27A2270 
 11172      AA5215
 11173 003d AA010AC8 		.ascii	"\252\001\012\310+B\0011\013\013 g\253\224z':\230\314"
 11173      2B420131 
 11173      0B0B2067 
 11173      AB947A27 
 11173      3A98CC
 11174 0050 4BE6BC84 		.ascii	"K\346\274\204S\250I\231\2622\316\351:e\306\320\026\245"
 11174      53A84999 
 11174      B232CEE9 
 11174      3A65C6D0 
 11174      16A5
 11175 0062 9A9365EB 		.ascii	"\232\223e\353\342f\265N\322|\231\251/>q\365m\352\276"
 11175      E266B54E 
 11175      D27C99A9 
 11175      2F3E71F5 
 11175      6DEABE
 11176 0075 FA4439A7 		.ascii	"\372D9\247\232\373\222\023\345\346\230\036m\021\220"
 11176      9AFB9213 
ARM GAS  /tmp/ccONvy4E.s 			page 311


 11176      E5E6981E 
 11176      6D1190
 11177 0084 981908C0 		.ascii	"\230\031\010\300\346\026\003\334Ti\200\227*\004\360"
 11177      E61603DC 
 11177      54698097 
 11177      2A04F0
 11178 0093 5A3802A7 		.ascii	"Z8\002\247*U\241\032\000`\200\021]\003P|j\313jhKN\333"
 11178      2A55A11A 
 11178      00608011 
 11178      5D03507C 
 11178      6ACB6A68 
 11179 00aa A33071B4 		.ascii	"\2430q\264\245\254\2342\27237kr\252l\317\335\264\315"
 11179      A5AC9C32 
 11179      BA33376B 
 11179      72AA6CCF 
 11179      DDB4CD
 11180 00bd A9B35D77 		.ascii	"\251\263]w\263$\247Na-T\223\234:\205q7Mr\352\024\307"
 11180      B324A74E 
 11180      612D5493 
 11180      9C3A8571 
 11180      374D72EA 
 11181 00d3 CC2CF6A9 		.ascii	"\314,\366\251\263\0373\227\330\247.\266MBb\255\252\272"
 11181      B31F3397 
 11181      D8A72EB6 
 11181      4D4262AD 
 11181      AABA
 11182 00e5 524E8935 		.ascii	"RN\2115\252\344B5(q)\274\343pu\347\256\220\336\322\271"
 11182      AAE44235 
 11182      287129BC 
 11182      E37075E7 
 11182      AE90DED2 
 11183 00fa BD98CC19 		.ascii	"\275\230\314\031\364\320t&2g\305\015\334-\313\242\017"
 11183      F4D07426 
 11183      3267C50D 
 11183      DC2DCBA2 
 11183      0F
 11184 010b 3132DBF0 		.ascii	"12\333\360"
 11185              		.global	sp_016m
 11186              		.section	.rodata.sp_016m,"a"
 11187              		.align	2
 11188              		.type	sp_016m, %object
 11189              		.size	sp_016m, 549
 11190              	sp_016m:
 11191 0000 0AF06BCC 		.ascii	"\012\360k\314\000!W\024_\367\022\027K\335R9SSt\363\310"
 11191      00215714 
 11191      5FF71217 
 11191      4BDD5239 
 11191      535374F3 
 11192 0015 D44C09A7 		.ascii	"\324L\011\247>-S;8\023\363\264\\\255\240j\360\333r\275"
 11192      3E2D533B 
 11192      3813F3B4 
 11192      5CADA06A 
 11192      F0DB72BD 
 11193 0029 1CBBC8EF 		.ascii	"\034\273\310\357\312\355p\254b\275'\367\303\311\222"
 11193      CAED70AC 
 11193      62BD27F7 
 11193      C3C992
ARM GAS  /tmp/ccONvy4E.s 			page 312


 11194 0038 F39E3CB5 		.ascii	"\363\236<\265 \011\315{\212\032KH\243\317)[L!\215\336"
 11194      2009CD7B 
 11194      8A1A4B48 
 11194      A3CF295B 
 11194      4C218DDE 
 11195 004c A76AD185 		.ascii	"\247j\321\205<w\237\252F\027\366\330|\232\354M<r\343"
 11195      3C779FAA 
 11195      4617F6D8 
 11195      7C9AEC4D 
 11195      3C72E3
 11196 005f E9924AB3 		.ascii	"\351\222J\263\312\216c\010\272]\267:\2249\351VW\353"
 11196      CA8E6308 
 11196      BA5DB73A 
 11196      9439E956 
 11196      57EB
 11197 0071 10A2C0DE 		.ascii	"\020\242\300\336\255\332\201k\263\037M\325\004\246\216"
 11197      ADDA816B 
 11197      B31F4DD5 
 11197      04A68E
 11198 0080 31D55124 		.ascii	"1\325Q$\002\000\000\000\000\000( \361\364\3214\353\254"
 11198      02000000 
 11198      00002820 
 11198      F1F4D134 
 11198      EBAC
 11199 0092 169D5753 		.ascii	"\026\235WS]\220h\364nu\326\216\356\265\303\001\233\220"
 11199      5D9068F4 
 11199      6E75D68E 
 11199      EEB5C301 
 11199      9B90
 11200 00a4 3AE0D72C 		.ascii	":\340\327,\007|/b\200?\234\034\360k\352I\252ss\366\316"
 11200      077C2F62 
 11200      803F9C1C 
 11200      F06BEA49 
 11200      AA7373F6 
 11201 00b9 27693ECC 		.ascii	"'i>\314U{\237\264\273\0125\315}\322\3562%\304\353I\223"
 11201      557B9FB4 
 11201      BB0A35CD 
 11201      7DD2EE32 
 11201      25C4EB49 
 11202 00ce AFB004B5 		.ascii	"\257\260\004\265%\265N\265\\\355C\312DN5\365\270#5K"
 11202      25B54EB5 
 11202      5CED43CA 
 11202      444E35F5 
 11202      B823354B 
 11203 00e2 B4437A8F 		.ascii	"\264Cz\217\324n\221\012\356\335\022{\204\307%WI\334"
 11203      D46E910A 
 11203      EEDD127B 
 11203      84C72557 
 11203      49DC
 11204 00f4 151A975E 		.ascii	"\025\032\227^#\361[E3\334\327D'<!\211\347\241e&\025"
 11204      23F15B45 
 11204      33DCD744 
 11204      273C2189 
 11204      E7A16526 
 11205 0109 8035527A 		.ascii	"\2005Rz\256xl\3238\303\023\320\256F\025\215D\261\244"
 11205      AE786CD3 
 11205      38C313D0 
ARM GAS  /tmp/ccONvy4E.s 			page 313


 11205      AE46158D 
 11205      44B1A4
 11206 011c 3965319D 		.ascii	"9e1\235\252\236\372\224\305v\251Y\352S\324\320)f\231"
 11206      AA9EFA94 
 11206      C576A959 
 11206      EA53D4D0 
 11206      296699
 11207 012f 4FD1533B 		.ascii	"O\321S;\233\247>\371\360%\244\231Q\344$\304\234\260"
 11207      9BA73EF9 
 11207      F025A499 
 11207      51E424C4 
 11207      9CB0
 11208 0141 6C5040D3 		.ascii	"lP@\323i\001\330)Q\000\201\023\205X\263\210\217\024"
 11208      6901D829 
 11208      51008113 
 11208      8558B388 
 11208      8F14
 11209 0153 D3B26A15 		.ascii	"\323\262j\025+Z\322\310{\026\264H[#/\321 \335m\247<"
 11209      2B5AD2C8 
 11209      7B16B448 
 11209      5B232FD1 
 11209      20DD6DA7 
 11210 0168 06A82853 		.ascii	"\006\250(S\352\012\255\245\306C\011\31235tM%\010H\314"
 11210      EA0AADA5 
 11210      C64309CA 
 11210      3335744D 
 11210      250848CC 
 11211 017c 94003DA4 		.ascii	"\224\000=\2441 j\243\023\225\024\"f}O^C\210x\3649E\012"
 11211      31206AA3 
 11211      13951422 
 11211      667D4F5E 
 11211      438878F4 
 11212 0193 CE16D11B 		.ascii	"\316\026\321\033\000 \000C\030\217\250\225 \342\334"
 11212      00200043 
 11212      188FA895 
 11212      20E2DC
 11213 01a2 1C8A1890 		.ascii	"\034\212\030\220*/r(zI7 &\012\250!U\001)\245* Y\027"
 11213      2A2F7228 
 11213      7A493720 
 11213      260AA821 
 11213      550129A5 
 11214 01ba 0298E07A 		.ascii	"\002\230\340zr\037\332\033\255\333)}\234(\262\256\247"
 11214      721FDA1B 
 11214      ADDB297D 
 11214      9C28B2AE 
 11214      A7
 11215 01cb F47EA2D9 		.ascii	"\364~\242\331\266\234\312\207\211b\333rj\3577Bt\317"
 11215      B69CCA87 
 11215      8962DB72 
 11215      6AEF3742 
 11215      74CF
 11216 01dd A983DB74 		.ascii	"\251\203\333t\325\316\247\365q\302\305[\237.\304qWo"
 11216      D5CEA7F5 
 11216      71C2C55B 
 11216      9F2EC471 
 11216      576F
 11217 01ef 757A9FDA 		.ascii	"uz\237\332\314#\321\350}j\361\250\004\253\217\272-\""
ARM GAS  /tmp/ccONvy4E.s 			page 314


 11217      CC23D1E8 
 11217      7D6AF1A8 
 11217      04AB8FBA 
 11217      2D22
 11218 0201 1C8C3EBA 		.ascii	"\034\214>\272\222\364H\320\206\020\212J\243a\030lr\015"
 11218      92F448D0 
 11218      86108A4A 
 11218      A361186C 
 11218      720D
 11219 0213 B596A229 		.ascii	"\265\226\242):\315Pd\013\240\230t\003\024\343\316\201"
 11219      3ACD5064 
 11219      0BA09874 
 11219      0314E3CE 
 11219      81
 11220 0224 07       		.ascii	"\007"
 11221              		.global	sp_014m
 11222              		.section	.rodata.sp_014m,"a"
 11223              		.align	2
 11224              		.type	sp_014m, %object
 11225              		.size	sp_014m, 217
 11226              	sp_014m:
 11227 0000 F43949CD 		.ascii	"\3649I\315\311\244\336\367$%\007JD\237\225\244`di}F"
 11227      C9A4DEF7 
 11227      2425074A 
 11227      449F95A4 
 11227      6064697D 
 11228 0015 E29D89A7 		.ascii	"\342\235\211\247\364\031\211sf\341\334\273%\306\246"
 11228      F4198973 
 11228      66E1DCBB 
 11228      25C6A6
 11229 0024 B972DE96 		.ascii	"\271r\336\226X\223n\304y[\022T\2262\346mI\220Y\312\224"
 11229      58936EC4 
 11229      795B1254 
 11229      9632E66D 
 11229      499059CA 
 11230 0039 77C55167 		.ascii	"w\305Qg(S\336\023e\031)\346yO\224T\204\204\373[\221"
 11230      2853DE13 
 11230      651929E6 
 11230      794F9454 
 11230      8484FB5B 
 11231 004e 73A1EED2 		.ascii	"s\241\356\322gE\301\204\230k\336\0257\355\302a\372Z"
 11231      6745C184 
 11231      986BDE15 
 11231      37EDC261 
 11231      FA5A
 11232 0060 BA6432AB 		.ascii	"\272d2\253\352/\3057bB\356\275\025\337\260\270\206\326"
 11232      EA2FC537 
 11232      6242EEBD 
 11232      15DFB0B8 
 11232      86D6
 11233 0072 51241E9A 		.ascii	"Q$\036\232\026+W\031dX\204\267J\225\326i\351\356\202"
 11233      162B5719 
 11233      645884B7 
 11233      4A95D669 
 11233      E9EE82
 11234 0085 019E0B0B 		.ascii	"\001\236\013\013`\244f\003\214\324\352\200\032\225F"
 11234      60A46603 
ARM GAS  /tmp/ccONvy4E.s 			page 315


 11234      8CD4EA80 
 11234      1A9546
 11235 0094 D993B1B2 		.ascii	"\331\223\261\262oY\325t\306\242\271y\325\315\031\213"
 11235      6F59D574 
 11235      C6A2B979 
 11235      D5CD198B 
 11236 00a4 D5E65397 		.ascii	"\325\346S\227\340\244\236\275O\235\223\221F\366>u\256"
 11236      E0A49EBD 
 11236      4F9D9391 
 11236      46F63E75 
 11236      AE
 11237 00b5 4EEADEE7 		.ascii	"N\352\336\347\324);\251[\336S\005\027\254\351yG\345"
 11237      D4293BA9 
 11237      5BDE5305 
 11237      17ACE979 
 11237      47E5
 11238 00c7 6C7084E5 		.ascii	"lp\204\345M\2251%\245\232\333T\021\2644s\322\007"
 11238      4D953125 
 11238      A59ADB54 
 11238      11B43473 
 11238      D207
 11239              		.global	sp_005m
 11240              		.section	.rodata.sp_005m,"a"
 11241              		.align	2
 11242              		.type	sp_005m, %object
 11243              		.size	sp_005m, 158
 11244              	sp_005m:
 11245 0000 27B3B632 		.ascii	"'\263\2662\224\365\265L\333\252p\322\0332\255*B\205"
 11245      94F5B54C 
 11245      DBAA70D2 
 11245      1B32AD2A 
 11245      4285
 11246 0012 6D48AD68 		.ascii	"mH\255h\017\021\245%\326K\255\204{\215\304n\3472\314"
 11246      0F11A525 
 11246      D64BAD84 
 11246      7B8DC46E 
 11246      E732CC
 11247 0025 33127B1D 		.ascii	"3\022{\035+0OK\335q\310\244\274%u\203yM[\205\324G\305"
 11247      2B304F4B 
 11247      DD71C8A4 
 11247      BC257583 
 11247      794D5B85 
 11248 003c 8D8898B2 		.ascii	"\215\210\230\262\326\215\224<\211\0024\347\026\200`"
 11248      D68D943C 
 11248      890234E7 
 11248      168060
 11249 004b D5292942 		.ascii	"\325))B\270+C\265$\010\365\252\266|\222\346T\324\273"
 11249      B82B43B5 
 11249      2408F5AA 
 11249      B67C92E6 
 11249      54D4BB
 11250 005e F5497A52 		.ascii	"\365IzRa\255-'i\311\204,\267\234\244&g\322\352s\322"
 11250      61AD2D27 
 11250      69C9842C 
 11250      B79CA426 
 11250      67D2EA73 
 11251 0073 5283C9BC 		.ascii	"R\203\311\274\317\311Sq\322\210>\247\216\335\321\303"
ARM GAS  /tmp/ccONvy4E.s 			page 316


 11251      CFC95371 
 11251      D2883EA7 
 11251      8EDDD1C3 
 11252 0083 7A8F2E4C 		.ascii	"z\217.L\341\014\353]z?\231G\275c\031|N\330\220N\256"
 11252      E10CEB5D 
 11252      7A3F9947 
 11252      BD63197C 
 11252      4ED8904E 
 11253 0098 B755E8D5 		.ascii	"\267U\350\325W<"
 11253      573C
 11254              		.global	sp_019m
 11255              		.section	.rodata.sp_019m,"a"
 11256              		.align	2
 11257              		.type	sp_019m, %object
 11258              		.size	sp_019m, 262
 11259              	sp_019m:
 11260 0000 9124EFA4 		.ascii	"\221$\357\244\334\241\001\000\000D\313]T#\247\023=-"
 11260      DCA10100 
 11260      0044CB5D 
 11260      5423A713 
 11260      3D2D
 11261 0012 1D81EA56 		.ascii	"\035\201\352V4d\264\005\232kS\261]a\314\251C\311z\247"
 11261      3464B405 
 11261      9A6B53B1 
 11261      5D61CCA9 
 11261      43C97AA7 
 11262 0026 28E51B85 		.ascii	"(\345\033\205\214\235\352\344\377\344\246\264\206\223"
 11262      8C9DEAE4 
 11262      FFE4A6B4 
 11262      8693
 11263 0034 BF939991 		.ascii	"\277\223\231\221R*\336Va\266I\253fo\225\331\312+\362"
 11263      522ADE56 
 11263      61B649AB 
 11263      666F95D9 
 11263      CA2BF2
 11264 0047 33B4662B 		.ascii	"3\264f+\236\363\017\004NU\252B5\000\024\220W\221\002"
 11264      9EF30F04 
 11264      4E55AA42 
 11264      35001490 
 11264      579102
 11265 005a 62961040 		.ascii	"b\226\020@\316.\004p\236\005\001\326*\"\300\004S\004"
 11265      CE2E0470 
 11265      9E0501D6 
 11265      2A22C004 
 11265      5304
 11266 006c 98644C80 		.ascii	"\230dL\200\020Z\004\020\\\211\002\222oKe2\023%\342\244"
 11266      105A0410 
 11266      5C890292 
 11266      6F4B6532 
 11266      1325E2A4 
 11267 0080 D436BD25 		.ascii	"\3246\275%\331\342\323\330\274\321\350kO\023\364G\253"
 11267      D9E2D3D8 
 11267      BCD1E86B 
 11267      4F13F447 
 11267      AB
 11268 0091 743BAD77 		.ascii	"t;\255w\037\241\226}\325\256\256\246\313&\002\360\312"
 11268      1FA1967D 
ARM GAS  /tmp/ccONvy4E.s 			page 317


 11268      D5AEAEA6 
 11268      CB2602F0 
 11268      CA
 11269 00a2 016000DF 		.ascii	"\001`\000\337\324[\343SQ\233'*\275\351\241\353e\271"
 11269      D45BE353 
 11269      519B272A 
 11269      BDE9A1EB 
 11269      65B9
 11270 00b4 F536661E 		.ascii	"\3656f\036V\354\326\233\231\322:QF\357zY\361\326Y\235"
 11270      56ECD69B 
 11270      99D23A51 
 11270      46EF7A59 
 11270      F1D6599D 
 11271 00c8 EBE94917 		.ascii	"\353\351I\027\367t\276\224\207D\253\323\206\022\021"
 11271      F774BE94 
 11271      8744ABD3 
 11271      861211
 11272 00d7 92AD4E1B 		.ascii	"\222\255N\033sZhd>M,\251\241\331\272\325\301\024g\271"
 11272      735A6864 
 11272      3E4D2CA9 
 11272      A1D9BAD5 
 11272      C11467B9 
 11273 00eb A4545595 		.ascii	"\244TU\225`fvBQB\242\210\3114y\362N\346&ZdM\270R\251"
 11273      60667642 
 11273      5142A288 
 11273      C93479F2 
 11273      4EE6265A 
 11274 0104 E407     		.ascii	"\344\007"
 11275              		.global	sp_018m
 11276              		.section	.rodata.sp_018m,"a"
 11277              		.align	2
 11278              		.type	sp_018m, %object
 11279              		.size	sp_018m, 299
 11280              	sp_018m:
 11281 0000 0E483D6C 		.ascii	"\016H=l\0259\005\211[\226S\304\020\254\341\271O\036"
 11281      15390589 
 11281      5B9653C4 
 11281      10ACE1B9 
 11281      4F1E
 11282 0012 82697874 		.ascii	"\202ixt9y\360\246\036\336\347d\321\207\270[\357\223"
 11282      3979F0A6 
 11282      1EDEE764 
 11282      D187B85B 
 11282      EF93
 11283 0024 241FA26E 		.ascii	"$\037\242n\275O\234\274\213\271\365Yq\212\252\246\321"
 11283      BD4F9CBC 
 11283      8BB9F559 
 11283      718AAAA6 
 11283      D1
 11284 0035 95453866 		.ascii	"\225E8f\265\227I\022\24103\026\262R\324\235\211I\246"
 11284      B5974912 
 11284      A1303316 
 11284      B252D49D 
 11284      8949A6
 11285 0048 49919721 		.ascii	"I\221\227!\031S\311\304E%2i-\221$\357\244\334\241\001"
 11285      1953C9C4 
 11285      45253269 
ARM GAS  /tmp/ccONvy4E.s 			page 318


 11285      2D9124EF 
 11285      A4DCA101 
 11286 005c 000058CA 		.ascii	"\000\000X\312]T#\247\023=-\035\201\352V4d\264\005\232"
 11286      5D5423A7 
 11286      133D2D1D 
 11286      81EA5634 
 11286      64B4059A 
 11287 0070 6B53B15D 		.ascii	"kS\261]a\314\251C\311z\247(\345\033\205\214\235\352"
 11287      61CCA943 
 11287      C97AA728 
 11287      E51B858C 
 11287      9DEA
 11288 0082 E4FFE4A6 		.ascii	"\344\377\344\246\264\206\223\277\223\231\221R*\336V"
 11288      B48693BF 
 11288      93999152 
 11288      2ADE56
 11289 0091 61B649AB 		.ascii	"a\266I\253fo\225\331\312+\3623Mf+\236\363\017\004NU"
 11289      666F95D9 
 11289      CA2BF233 
 11289      4D662B9E 
 11289      F30F044E 
 11290 00a6 AA423500 		.ascii	"\252B5\000\024\220W\221\002b\226\020@\316.\010\234\252"
 11290      14905791 
 11290      02629610 
 11290      40CE2E08 
 11290      9CAA
 11291 00b8 54856A00 		.ascii	"T\205j\000\000\003\232\3270@_\305\012H\321\025\001,"
 11291      00039AD7 
 11291      30405FC5 
 11291      0A48D115 
 11291      012C
 11292 00ca 9197CE6E 		.ascii	"\221\227\316n\221C_\334:\333MN}\341\350]J\336\320\225"
 11292      91435FDC 
 11292      3ADB4D4E 
 11292      7DE1E85D 
 11292      4ADED095 
 11293 00de A3B739A5 		.ascii	"\243\2679\245\313S\216\301\346\224\265lX\006[CVk1\002"
 11293      CB538EC1 
 11293      E694B56C 
 11293      58065B43 
 11293      566B3102 
 11294 00f2 A72A55A1 		.ascii	"\247*U\241\032\340\234\036:\315\314rr\354b\033\264F"
 11294      1AE09C1E 
 11294      3ACDCC72 
 11294      72EC621B 
 11294      B446
 11295 0104 A5774779 		.ascii	"\245wGy\204\373\224\316\035\341Q\356]:w\225F4Kh\335"
 11295      84FB94CE 
 11295      1DE151EE 
 11295      5D3A7795 
 11295      46344B68 
 11296 0119 2159F2D6 		.ascii	"!Y\362\326\2526\256`\\\342\210\312\372\300\340p\364"
 11296      AA36AE60 
 11296      5CE288CA 
 11296      FAC0E070 
 11296      F4
 11297 012a 01       		.ascii	"\001"
ARM GAS  /tmp/ccONvy4E.s 			page 319


 11298              		.global	sp_017m
 11299              		.section	.rodata.sp_017m,"a"
 11300              		.align	2
 11301              		.type	sp_017m, %object
 11302              		.size	sp_017m, 202
 11303              	sp_017m:
 11304 0000 2E1BC988 		.ascii	".\033\311\210\216N\336\371\024=8+\327\246\225\257bB"
 11304      8E4EDEF9 
 11304      143D382B 
 11304      D7A695AF 
 11304      6242
 11305 0012 94BB7771 		.ascii	"\224\273wq\363\225\357jB\030\273o~\262\231S\220\242"
 11305      F395EF6A 
 11305      4218BB6F 
 11305      7EB29953 
 11305      90A2
 11306 0024 CFC94A4D 		.ascii	"\317\311JMd\367\274#u\3264\203\363\264T\273p7\352}\322"
 11306      64F7BC23 
 11306      75D63483 
 11306      F3B454BB 
 11306      7037EA7D 
 11307 0039 60D3CC29 		.ascii	"`\323\314)\317I\213\017\261\324,'->E\314R\2664\030\210"
 11307      CF498B0F 
 11307      B1D42C27 
 11307      2D3E45CC 
 11307      52B63418 
 11308 004e 3675DAD2 		.ascii	"6u\332\322\344\2412\325yK\243\241H\325&'\315:M5\032"
 11308      E4A132D5 
 11308      794BA3A1 
 11308      48D52627 
 11308      CD3A4D35 
 11309 0063 AE34E930 		.ascii	"\2564\3510\343\254\345\200\000\334\003\360tD\000\276"
 11309      E3ACE580 
 11309      00DC03F0 
 11309      744400BE 
 11310 0073 660BC077 		.ascii	"f\013\300w\310\004\030\200\030\002\220T\361\211\252"
 11310      C8041880 
 11310      18029054 
 11310      F189AA
 11311 0082 7373F1CD 		.ascii	"ss\361\315'J\301\315\274\236\2348G\027\363Z}\222\222"
 11311      274AC1CD 
 11311      BC9E9C38 
 11311      4717F35A 
 11311      7D9292
 11312 0095 82356AD5 		.ascii	"\2025j\325\311jIf\213\315\247l%\211=6\255\252\366D\326"
 11312      C96A4966 
 11312      8BCDA76C 
 11312      25893D36 
 11312      ADAAF644 
 11313 00aa D88CC0A9 		.ascii	"\330\214\300\251JU\250\006\200\003\022ww\300Of\016\370"
 11313      4A55A806 
 11313      80031277 
 11313      77C04F66 
 11313      0EF8
 11314 00bc 31C301DF 		.ascii	"1\303\001\337e\032\340\307H\003|\353\361\000"
 11314      651AE0C7 
 11314      48037CEB 
ARM GAS  /tmp/ccONvy4E.s 			page 320


 11314      F100
 11315              		.global	sp_015m
 11316              		.section	.rodata.sp_015m,"a"
 11317              		.align	2
 11318              		.type	sp_015m, %object
 11319              		.size	sp_015m, 88
 11320              	sp_015m:
 11321 0000 274F665D 		.ascii	"'Of]3Z\2372\331M\311\352r\212h7-\262\315\311\243\333"
 11321      335A9F32 
 11321      D94DC9EA 
 11321      728A6837 
 11321      2DB2CDC9 
 11322 0016 34CF2EA7 		.ascii	"4\317.\247\210n#,\332\2352\370\215\022\353\276z\323"
 11322      886E232C 
 11322      DA9D32F8 
 11322      8D12EBBE 
 11322      7AD3
 11323 0028 C6137A49 		.ascii	"\306\023zI\231\265}w\266\237\010\234\252T\205j\000\200"
 11323      99B57D77 
 11323      B69F089C 
 11323      AA54856A 
 11323      0080
 11324 003a 0066F554 		.ascii	"\000f\365T\300\276\345\016\270w#\001\347|%\340\356\251"
 11324      C0BEE50E 
 11324      B8772301 
 11324      E77C25E0 
 11324      EEA9
 11325 004c 02EC3196 		.ascii	"\002\3541\226\200UB\005\340%\313\003"
 11325      80554205 
 11325      E025CB03 
 11326              		.global	sp_012m
 11327              		.section	.rodata.sp_012m,"a"
 11328              		.align	2
 11329              		.type	sp_012m, %object
 11330              		.size	sp_012m, 169
 11331              	sp_012m:
 11332 0000 B5D6A7B4 		.ascii	"\265\326\247\264e\323%[\235\302\307\255\340\354|r\037"
 11332      65D3255B 
 11332      9DC2C7AD 
 11332      E0EC7C72 
 11332      1F
 11333 0011 374DABD5 		.ascii	"7M\253\325\311}\032w\317\206'\363%-\262j\235,\346\320"
 11333      C97D1A77 
 11333      CF8627F3 
 11333      252DB26A 
 11333      9D2CE6D0 
 11334 0025 F0897DD2 		.ascii	"\360\211}\322\222]\314\273\311Ik1\322\350\306.\217\006"
 11334      925DCCBB 
 11334      C9496B31 
 11334      D2E8C62E 
 11334      8F06
 11335 0037 B9662291 		.ascii	"\271f\"\221\024\206\2311aB2d\257\323\214\011*\221\235"
 11335      14869931 
 11335      61423264 
 11335      AFD38C09 
 11335      2A919D
 11336 004a 2E37C9AC 		.ascii	".7\311\2546Dw\"\025\222ZS\353\216v\234\200\351%\002"
ARM GAS  /tmp/ccONvy4E.s 			page 321


 11336      36447722 
 11336      15925A53 
 11336      EB8E769C 
 11336      80E92502 
 11337 005e 302DFAA8 		.ascii	"0-\372\250\232Qe\277\332\247\314\322$rk\2362Y\023\257"
 11337      9A5165BF 
 11337      DAA7CCD2 
 11337      24726B9E 
 11337      325913AF 
 11338 0072 59748A68 		.ascii	"Yt\212hM\"{\321\311\223w\361\310U\247\010\336%\3147"
 11338      4D227BD1 
 11338      C99377F1 
 11338      C855A708 
 11338      DE25CC37 
 11339 0086 8DD20737 		.ascii	"\215\322\0077\027\312\222J\347\302L9M\252\252\016W\021"
 11339      17CA924A 
 11339      E7C24C39 
 11339      4DAAAA0E 
 11339      5711
 11340 0098 26A9E921 		.ascii	"&\251\351!\324I\031\033\300\233\024\005\360\326\377"
 11340      D449191B 
 11340      C09B1405 
 11340      F0D6FF
 11341 00a7 FFFE     		.ascii	"\377\376"
 11342              		.global	sp_078m
 11343              		.section	.rodata.sp_078m,"a"
 11344              		.align	2
 11345              		.type	sp_078m, %object
 11346              		.size	sp_078m, 137
 11347              	sp_078m:
 11348 0000 0AB8F72A 		.ascii	"\012\270\367*\003\031(\300\354\206+\364!\315-\342\234"
 11348      031928C0 
 11348      EC862BF4 
 11348      21CD2DE2 
 11348      9C
 11349 0011 28E8090F 		.ascii	"(\350\011\017\367zb\0377\302,\353\211C\230\014\365t"
 11349      F77A621F 
 11349      37C22CEB 
 11349      8943980C 
 11349      F574
 11350 0023 270E7E32 		.ascii	"'\016~2\325\322\235\304\273\216QIO\000\264\202\000\010"
 11350      D5D29DC4 
 11350      BB8E5149 
 11350      4F00B482 
 11350      0008
 11351 0035 E05DF8A8 		.ascii	"\340]\370\250tO*\3434\25315y\223r\217\326\014\247\015"
 11351      744F2AE3 
 11351      34AB3135 
 11351      7993728F 
 11351      D60CA70D 
 11352 0049 DED47A3B 		.ascii	"\336\324z;\225OeS\353\3554\\\347\336\245w\323a\222{"
 11352      954F6553 
 11352      EBED345C 
 11352      E7DEA577 
 11352      D361927B 
 11353 005d 97DE8D80 		.ascii	"\227\336\215\200*\316]z_\0122%O\032\022\036\325.\327"
 11353      2ACE5D7A 
ARM GAS  /tmp/ccONvy4E.s 			page 322


 11353      5F0A3225 
 11353      4F1A121E 
 11353      D52ED7
 11354 0070 662A38B8 		.ascii	"f*8\270\316<\011`!\024\005\374(\252\200?R\024\360W\252"
 11354      CE3C0960 
 11354      211405FC 
 11354      28AA803F 
 11354      5214F057 
 11355 0085 027E8F78 		.ascii	"\002~\217x"
 11356              		.global	sp_077m
 11357              		.section	.rodata.sp_077m,"a"
 11358              		.align	2
 11359              		.type	sp_077m, %object
 11360              		.size	sp_077m, 142
 11361              	sp_077m:
 11362 0000 AC96C6B2 		.ascii	"\254\226\306\262\260\322\251Fj\251\306\364\352\352`"
 11362      B0D2A946 
 11362      6AA9C6F4 
 11362      EAEA60
 11363 000f A15A425D 		.ascii	"\241ZB]\252L\2102\346\305\253p>\322U{\237,\230Hs\311"
 11363      AA4C8832 
 11363      E6C5AB70 
 11363      3ED2557B 
 11363      9F2C9848 
 11364 0025 7762EF22 		.ascii	"wb\357\"L\331\377\012\255\3114U\377+\360&\"\034\365"
 11364      4CD9FF0A 
 11364      ADC93455 
 11364      FF2BF026 
 11364      221CF5
 11365 0038 8FC0998C 		.ascii	"\217\300\231\2140\326_\222\240\"\315\210[\312\222\011"
 11365      30D65F92 
 11365      A022CD88 
 11365      5BCA9209 
 11366 0048 53276E2B 		.ascii	"S'n++!]L\374\235<;W\213\330|\252d\3142s\325i\212vM\317"
 11366      2B215D4C 
 11366      FC9D3C3B 
 11366      578BD87C 
 11366      AA64CC32 
 11367 0063 4E6B8E32 		.ascii	"Nk\2162\265\354j\246.\203\316\254L@2\313=\313<\026\002"
 11367      B5EC6AA6 
 11367      2E83CEAC 
 11367      4C4032CB 
 11367      3DCB3C16 
 11368 0078 A72A55A1 		.ascii	"\247*U\241\032\000\006\350<C\0007\224\010\240kc\004"
 11368      1A0006E8 
 11368      3C430037 
 11368      9408A06B 
 11368      6304
 11369 008a 24EFF200 		.ascii	"$\357\362\000"
 11370              		.global	sp_007m
 11371              		.section	.rodata.sp_007m,"a"
 11372              		.align	2
 11373              		.type	sp_007m, %object
 11374              		.size	sp_007m, 88
 11375              	sp_007m:
 11376 0000 04703642 		.ascii	"\004p6B\001Nk\030\300*e\007$\35542\233\314\313\333\314"
 11376      014E6B18 
ARM GAS  /tmp/ccONvy4E.s 			page 323


 11376      C02A6507 
 11376      24ED3432 
 11376      9BCCCBDB 
 11377 0015 C962740F 		.ascii	"\311bt\017\317\305'\015><\335W\236\324\373\016\013\335"
 11377      CFC5270D 
 11377      3E3CDD57 
 11377      9ED4FB0E 
 11377      0BDD
 11378 0027 7C329B26 		.ascii	"|2\233&Bt\315)\215\277\012\321M\243\265\346\333Y>\225"
 11378      4274CD29 
 11378      8DBF0AD1 
 11378      4DA3B5E6 
 11378      DB593E95 
 11379 003b 5EB9CF00 		.ascii	"^\271\317\000}\025&a\337Xl\011 p\252R\025\252\001 \000"
 11379      7D152661 
 11379      DF586C09 
 11379      2070AA52 
 11379      15AA0120 
 11380 0050 EA330540 		.ascii	"\3523\005@|&\005\036"
 11380      7C26051E 
 11381              		.global	sp_0055m
 11382              		.section	.rodata.sp_0055m,"a"
 11383              		.align	2
 11384              		.type	sp_0055m, %object
 11385              		.size	sp_0055m, 158
 11386              	sp_0055m:
 11387 0000 27B3B632 		.ascii	"'\263\2662\224\365\265L\333\252p\322\0332\255*B\205"
 11387      94F5B54C 
 11387      DBAA70D2 
 11387      1B32AD2A 
 11387      4285
 11388 0012 6D48AD68 		.ascii	"mH\255h\017\021\245%\326K\255\204{\215\304n\3472\314"
 11388      0F11A525 
 11388      D64BAD84 
 11388      7B8DC46E 
 11388      E732CC
 11389 0025 33127B1D 		.ascii	"3\022{\035+0OK\335q\310\244\274%u\203yM[\205\324G\305"
 11389      2B304F4B 
 11389      DD71C8A4 
 11389      BC257583 
 11389      794D5B85 
 11390 003c 8D8898B2 		.ascii	"\215\210\230\262\326\215\224<\211\0024\347\026\200`"
 11390      D68D943C 
 11390      890234E7 
 11390      168060
 11391 004b D5292942 		.ascii	"\325))B\270+C\265$\010\365\252\266|\222\346T\324\273"
 11391      B82B43B5 
 11391      2408F5AA 
 11391      B67C92E6 
 11391      54D4BB
 11392 005e F5497A52 		.ascii	"\365IzRa\255-'i\311\204,\267\234\244&g\322\352s\322"
 11392      61AD2D27 
 11392      69C9842C 
 11392      B79CA426 
 11392      67D2EA73 
 11393 0073 5283C9BC 		.ascii	"R\203\311\274\317\311Sq\322\210>\247\216\335\321\303"
 11393      CFC95371 
ARM GAS  /tmp/ccONvy4E.s 			page 324


 11393      D2883EA7 
 11393      8EDDD1C3 
 11394 0083 7A8F2E4C 		.ascii	"z\217.L\341\014\353]z?\231G\275c\031|N\330\220N\256"
 11394      E10CEB5D 
 11394      7A3F9947 
 11394      BD63197C 
 11394      4ED8904E 
 11395 0098 B755E8D5 		.ascii	"\267U\350\325W<"
 11395      573C
 11396              		.global	sp_0141a
 11397              		.section	.rodata.sp_0141a,"a"
 11398              		.align	2
 11399              		.type	sp_0141a, %object
 11400              		.size	sp_0141a, 177
 11401              	sp_0141a:
 11402 0000 32394AA8 		.ascii	"29J\2504\332\315x)\276\342\371\024\353\241\270\202\037"
 11402      34DACD78 
 11402      29BEE2F9 
 11402      14EBA1B8 
 11402      821F
 11403 0012 5B8A8712 		.ascii	"[\212\207\022\"ut\225)j\311j\242\225\270\351:Fe\265"
 11403      22757495 
 11403      296AC96A 
 11403      A295B8E9 
 11403      3A4665B5 
 11404 0026 E5619B92 		.ascii	"\345a\233\222\221\366N\206j{\205\361\2719\266\251\235"
 11404      91F64E86 
 11404      6A7B85F1 
 11404      B939B6A9 
 11404      9D
 11405 0037 C6AFA499 		.ascii	"\306\257\244\231\352\272y\027\322b\312\027f\225\364"
 11405      EABA7917 
 11405      D262CA17 
 11405      6695F4
 11406 0046 8A296E84 		.ascii	"\212)n\204F\231I\246X\032\245\3410\231b\250\265{\246"
 11406      469949A6 
 11406      581AA5E1 
 11406      309962A8 
 11406      B57BA6
 11407 0059 62CA2695 		.ascii	"b\312&\225Z\251\232\241\262TdX=\206\213\332\321M\367"
 11407      5AA99AA1 
 11407      B2546458 
 11407      3D868BDA 
 11407      D14DF7
 11408 006c 182ED8E4 		.ascii	"\030.\330\344\244\222c\204\240\225\037J\216\221\234"
 11408      A4926384 
 11408      A0951F4A 
 11408      8E919C
 11409 007b 5A4C2A11 		.ascii	"ZL*\021\246\244Q\231I\245\031\335\220\3316\235\245\216"
 11409      A6A45199 
 11409      49A519DD 
 11409      90D9369D 
 11409      A58E
 11410 008d 20ACDBB2 		.ascii	" \254\333\262\233\322-S|\322*RW\304}E+\210\221s^+]\303"
 11410      9BD22D53 
 11410      7CD22A52 
 11410      57C47D45 
ARM GAS  /tmp/ccONvy4E.s 			page 325


 11410      2B889173 
 11411 00a5 0522F32B 		.ascii	"\005\"\363+l\004?-\263W\250}"
 11411      6C043F2D 
 11411      B357A87D 
 11412              		.global	sp_012a
 11413              		.section	.rodata.sp_012a,"a"
 11414              		.align	2
 11415              		.type	sp_012a, %object
 11416              		.size	sp_012a, 244
 11417              	sp_012a:
 11418 0000 95DD2B40 		.ascii	"\225\335+@\323\352\2154+\326K\315^\244\374m/-'K\365"
 11418      D3EA8D34 
 11418      2BD64BCD 
 11418      5EA4FC6D 
 11418      2F2D274B 
 11419 0015 B5BDD498 		.ascii	"\265\275\324\230\242\264\332\361Qb\214\262,'K\0129\312"
 11419      A2B4DAF1 
 11419      51628CB2 
 11419      2C274B0A 
 11419      39CA
 11420 0027 3B952C29 		.ascii	";\225,)\272(\357\2623mn\003\000\004`{\223\000\254lR"
 11420      BA28EFB2 
 11420      336D6E03 
 11420      0004607B 
 11420      9300AC6C 
 11421 003c 54AD2DD2 		.ascii	"T\255-\322\233v\322\205\261O\015\311I\327Z>\305d']\030"
 11421      9B76D285 
 11421      B14F0DC9 
 11421      49D75A3E 
 11421      C564275D 
 11422 0051 BB1457D4 		.ascii	"\273\024W\3244m\255\335\327\314\320\264\215,\2330C\323"
 11422      346DADDD 
 11422      D7CCD0B4 
 11422      8D2C9B30 
 11422      43D3
 11423 0063 367C74CB 		.ascii	"6|t\313\014\315;\363\344+\2354+\335K2\266\000\262\015"
 11423      0CCD3BF3 
 11423      E42B9D34 
 11423      2BDD4B32 
 11423      B600B20D 
 11424 0077 6640162E 		.ascii	"f@\026.\004(\322\025\001\201\252  0\327\245\270h\345"
 11424      0428D215 
 11424      0181AA20 
 11424      2030D7A5 
 11424      B868E5
 11425 008a 994A9612 		.ascii	"\231J\226\022\223\265o*^J\316Vv\346d\311\251x\331\270"
 11425      93B56F2A 
 11425      5E4ACE56 
 11425      76E664C9 
 11425      A978D9B8 
 11426 009e 9C25FAE2 		.ascii	"\234%\372\342\355\255J\206`S\226\006\311-b\365\326\346"
 11426      EDAD4A86 
 11426      60539606 
 11426      C92D62F5 
 11426      D6E6
 11427 00b0 6ADB0041 		.ascii	"j\333\000A\2322\200\023W\005D\356\242\200\304U\0050"
 11427      9A328013 
ARM GAS  /tmp/ccONvy4E.s 			page 326


 11427      570544EE 
 11427      A280C455 
 11427      0530
 11428 00c2 A431023C 		.ascii	"\2441\002<u\015@\367j\313,\226==\0227\313DY\317\224"
 11428      750D40F7 
 11428      6ACB2C96 
 11428      3D3D1237 
 11428      CB4459CF 
 11429 00d7 D26C5768 		.ascii	"\322lWh2*\362p|e/\255\330\305\365\225\275\244\"\007"
 11429      322AF270 
 11429      7C652FAD 
 11429      D8C5F595 
 11429      BDA42207 
 11430 00eb D757B292 		.ascii	"\327W\262\222\260i]\355="
 11430      B0695DED 
 11430      3D
 11431              		.global	sp_011a
 11432              		.section	.rodata.sp_011a,"a"
 11433              		.align	2
 11434              		.type	sp_011a, %object
 11435              		.size	sp_011a, 208
 11436              	sp_011a:
 11437 0000 885AC4BD 		.ascii	"\210Z\304\275\023\031 [c\003Toj\200\022\324\222\322"
 11437      1319205B 
 11437      6303546F 
 11437      6A8012D4 
 11437      92D2
 11438 0012 6A479828 		.ascii	"jG\230(\031\212\311f\305\225\244\350:K\264|-cq\335Y"
 11438      198AC966 
 11438      C595A4E8 
 11438      3A4BB47C 
 11438      2D6371DD 
 11439 0027 29B49565 		.ascii	")\264\225epdf\312\032f=\345i\256\370h)\250\226n\234"
 11439      706466CA 
 11439      1A663DE5 
 11439      69AEF868 
 11439      29A8966E 
 11440 003c A3871811 		.ascii	"\243\207\030\021\276\212\217\036rFD\331>\232/\231\341"
 11440      BE8A8F1E 
 11440      724644D9 
 11440      3E9A2F99 
 11440      E1
 11441 004d ABE428A1 		.ascii	"\253\344(\241dy\224\222#\273\026\221\231r\222\342|\215"
 11441      64799492 
 11441      23BB1691 
 11441      997292E2 
 11441      7C8D
 11442 005f 57CB324A 		.ascii	"W\3132J\011\231\244\345\024\000 \001E\207\004\340\325"
 11442      0999A4E5 
 11442      14002001 
 11442      458704E0 
 11442      D5
 11443 0070 86A665CD 		.ascii	"\206\246e\315\232\276\221\272\226\014K5*\303\214\262"
 11443      9ABE91BA 
 11443      960C4B35 
 11443      2AC38CB2 
 11444 0080 18AF4D73 		.ascii	"\030\257Ms:\302\3220*c\022\017\273\207\366pWr\314d\315"
ARM GAS  /tmp/ccONvy4E.s 			page 327


 11444      3AC2D230 
 11444      2A63120F 
 11444      BB87F670 
 11444      5772CC64 
 11445 0095 AC4ED151 		.ascii	"\254N\321Q\262\265\324)GGI1\322\246l\037%\246L\253r"
 11445      B2B5D429 
 11445      47474931 
 11445      D2A66C1F 
 11445      25A64CAB 
 11446 00aa 72749FB3 		.ascii	"rt\237\263-\233N3]\216\325L\311\311\366\335\322b\034"
 11446      2D9B4E33 
 11446      5D8ED54C 
 11446      C9C9F6DD 
 11446      D2621C
 11447 00bd 6B1B0002 		.ascii	"k\033\000\002\020\273\272\001l\262T@\212\252\014\010"
 11447      10BBBA01 
 11447      6CB25440 
 11447      8AAA0C08 
 11448 00cd D9EC01   		.ascii	"\331\354\001"
 11449              		.global	sp_010a
 11450              		.section	.rodata.sp_010a,"a"
 11451              		.align	2
 11452              		.type	sp_010a, %object
 11453              		.size	sp_010a, 281
 11454              	sp_010a:
 11455 0000 C2B4C823 		.ascii	"\302\264\310#\253\2358=2U\217t\3224\347,\374Uq\323}"
 11455      AB9D383D 
 11455      32558F74 
 11455      D234E72C 
 11455      FC5571D3 
 11456 0015 34CF6339 		.ascii	"4\317c9\301P*7\322i5=X\265\262\214\265\214\220B}\325"
 11456      C1502A37 
 11456      D269353D 
 11456      58B5B28C 
 11456      B58C9042 
 11457 002b CE31622A 		.ascii	"\3161b*\215\012\333\303\362-\304'\254\206@\345\320\270"
 11457      8D0ADBC3 
 11457      F22DC427 
 11457      AC8640E5 
 11457      D0B8
 11458 003d 50921265 		.ascii	"P\222\022e+xZ\211\263\245\355\220\232T\316\224\256\235"
 11458      2B785A89 
 11458      B3A5ED90 
 11458      9A54CE94 
 11458      AE9D
 11459 004f AB133943 		.ascii	"\253\0239C\205f\251\213\0314\345\3339\333Q\223\215o"
 11459      8566A98B 
 11459      1934E5DB 
 11459      39DB5193 
 11459      8D6F
 11460 0061 935D5943 		.ascii	"\223]YC\260\256C\266e-\311\3062\335M\274\224\340\333"
 11460      B0AE43B6 
 11460      652DC9C6 
 11460      32DD4DBC 
 11460      94E0DB
 11461 0074 54DF76D2 		.ascii	"T\337v\322T\312p\177'\000\012\3601$\000>\233\010\240"
 11461      54CA707F 
ARM GAS  /tmp/ccONvy4E.s 			page 328


 11461      27000AF0 
 11461      3124003E 
 11461      9B08A0
 11462 0087 84300624 		.ascii	"\2040\006$\343N\200h\334\011\220\214\033\003\212\261"
 11462      E34E8068 
 11462      DC09908C 
 11462      1B038AB1 
 11463 0097 60407666 		.ascii	"`@vf\000\000\311LV\334v\3256\323\031\215\274\225\235"
 11463      0000C94C 
 11463      56DC76D5 
 11463      36D3198D 
 11463      BC959D
 11464 00aa 746572F2 		.ascii	"ter\362\012\2123\012W\015K{\004\010\302\234\001\331"
 11464      0A8A330A 
 11464      570D4B7B 
 11464      0408C29C 
 11464      01D9
 11465 00bc A439BE2A 		.ascii	"\2449\276*5\215Q[\244`\315lS\262S\254\364\210JJ\316"
 11465      358D515B 
 11465      A460CD6C 
 11465      53B253AC 
 11465      F4884A4A 
 11466 00d1 B0CCB6CC 		.ascii	"\260\314\266\314T\033C\361\234Vc\354\314\341]U\\\261"
 11466      541B43F1 
 11466      9C5663EC 
 11466      CCE15D55 
 11466      5CB1
 11467 00e3 02320F85 		.ascii	"\0022\017\205`\364h&\276N\222U\234\230\347\312iV\322"
 11467      60F46826 
 11467      BE4E9255 
 11467      9C98E7CA 
 11467      6956D2
 11468 00f6 5231256B 		.ascii	"R1%kXIkf\235\342b[\023\023;\222c\000\000\240\200L=\005"
 11468      58496B66 
 11468      9DE2625B 
 11468      13133B92 
 11468      630000A0 
 11469 010e D0B43A01 		.ascii	"\320\264:\001\274rG\200S\231\017"
 11469      BC724780 
 11469      53990F
 11470              		.global	sp_008a
 11471              		.section	.rodata.sp_008a,"a"
 11472              		.align	2
 11473              		.type	sp_008a, %object
 11474              		.size	sp_008a, 271
 11475              	sp_008a:
 11476 0000 45535563 		.ascii	"ESUch\352.\325T\316\226Iv\324\324\324C\307\351QKQs\037"
 11476      68EA2ED5 
 11476      54CE9649 
 11476      76D4D4D4 
 11476      43C7E951 
 11477 0018 2747AD51 		.ascii	"'G\255Q4z\334\034\2558\321\274wR\264l8\362K%34\365\352"
 11477      347ADC1C 
 11477      AD38D1BC 
 11477      7752B46C 
 11477      38F24B25 
 11478 0030 72C60A88 		.ascii	"r\306\012\210\314\314\001\203\271\012 p\023\243rY\333"
ARM GAS  /tmp/ccONvy4E.s 			page 329


 11478      CCCC0183 
 11478      B90A2070 
 11478      13A37259 
 11478      DB
 11479 0041 6AB4832E 		.ascii	"j\264\203.\254_r\310J\2062\372\305.9\351\312\310\247"
 11479      AC5F72C8 
 11479      4A8632FA 
 11479      C52E39E9 
 11479      CAC8A7
 11480 0054 9AA2A159 		.ascii	"\232\242\241Yg\031~\221\227\342\254U\371\206\036bt\222"
 11480      67197E91 
 11480      97E2AC55 
 11480      F9861E62 
 11480      7492
 11481 0066 A16B66F0 		.ascii	"\241kf\360^\273\246e\324\3019k\226\332\326\206\020\234"
 11481      5EBBA665 
 11481      D4C1396B 
 11481      96DAD686 
 11481      109C
 11482 0078 69C8841D 		.ascii	"i\310\204\035\2125\341e\023\271\031F{\266n\235b)\033"
 11482      8A35E165 
 11482      13B91946 
 11482      7BB66E9D 
 11482      62291B
 11483 008b 99B27392 		.ascii	"\231\262s\222\253Lx\3104\015\256\325\251\301\321\304"
 11483      AB4C78C8 
 11483      340DAED5 
 11483      A9C1D1C4 
 11484 009b D85E9A9A 		.ascii	"\330^\232\232\244ke\366\230&,\212\011\020\2052\003\264"
 11484      A46B65F6 
 11484      98262C8A 
 11484      09108532 
 11484      03B4
 11485 00ad CF544009 		.ascii	"\317T@\011f\004\030,\225\001\203\245\012`\260T\005\014"
 11485      6604182C 
 11485      950183A5 
 11485      0A60B054 
 11485      050C
 11486 00bf 96AE80C1 		.ascii	"\226\256\200\301*\0140\230\032\200\002\202q/\226\030"
 11486      2A0C3098 
 11486      1A800282 
 11486      712F9618 
 11487 00cf E5CA39A5 		.ascii	"\345\3129\245\231\242O(\305\345f\311S\246\332O\206\255"
 11487      99A24F28 
 11487      C5E566C9 
 11487      53A6DA4F 
 11487      86AD
 11488 00e1 8E5B68CF 		.ascii	"\216[h\317Y\266\356\026E5g\230n\322\230}\234\241\205"
 11488      59B6EE16 
 11488      45356798 
 11488      6ED2987D 
 11488      9CA185
 11489 00f4 C95E3C71 		.ascii	"\311^<q\222\246\242\366d:\006\200\000T\031\036\200."
 11489      92A6A2F6 
 11489      643A0680 
 11489      0054191E 
 11489      802E
ARM GAS  /tmp/ccONvy4E.s 			page 330


 11490 0106 CC0DD0AD 		.ascii	"\314\015\320\255\031\001\254\010\177"
 11490      1901AC08 
 11490      7F
 11491              		.global	sp_007a
 11492              		.section	.rodata.sp_007a,"a"
 11493              		.align	2
 11494              		.type	sp_007a, %object
 11495              		.size	sp_007a, 293
 11496              	sp_007a:
 11497 0000 42A3695D 		.ascii	"B\243i]\245b\031\203\355\242\310\262RtuB5\216\362\322"
 11497      A5621983 
 11497      EDA2C8B2 
 11497      52747542 
 11497      358EF2D2 
 11498 0014 F56E35EF 		.ascii	"\365n5\357\324K7\263C\365\2244\335\314\010\351T\034"
 11498      D44B37B3 
 11498      43F59434 
 11498      DDCC08E9 
 11498      541C
 11499 0026 74E3C29D 		.ascii	"t\343\302\235W\2222\233OQR\327\0100\310\003\024\320"
 11499      5792329B 
 11499      4F5152D7 
 11499      0830C803 
 11499      14D0
 11500 0038 A338044D 		.ascii	"\2438\004MW\251\342\256[\265\241\331\256\025\334q\217"
 11500      57A9E2AE 
 11500      5BB5A1D9 
 11500      AE15DC71 
 11500      8F
 11501 0049 E66B7869 		.ascii	"\346kxi6>Z\250V\356\343\364h1[z\215\223\243\225hn\325"
 11501      363E5AA8 
 11501      56EEE3F4 
 11501      68315B7A 
 11501      8D93A395 
 11502 0060 8E879AAC 		.ascii	"\216\207\232\254\271\316\270\036Jp\346\361\243d()\252"
 11502      B9CEB81E 
 11502      4A70E6F1 
 11502      A3642829 
 11502      AA
 11503 0071 C6A692A6 		.ascii	"\306\246\222\246\204\310\336\355r\202\342\270\275\005"
 11503      84C8DEED 
 11503      7282E2B8 
 11503      BD05
 11504 007f DB768A14 		.ascii	"\333v\212\024\361\"\342J\250\202\305m\204*0@\221\256"
 11504      F122E24A 
 11504      A882C56D 
 11504      842A3040 
 11504      91AE
 11505 0091 0698CE35 		.ascii	"\006\230\3165(Z{\3719cg\360\020\035\223r\230\243qtz"
 11505      285A7BF9 
 11505      396367F0 
 11505      101D9372 
 11505      98A37174 
 11506 00a6 52524EA4 		.ascii	"RRN\244jj\355v\030\301Y\352\204\222c\304\020i\353v\216"
 11506      6A6AED76 
 11506      18C159EA 
 11506      849263C4 
ARM GAS  /tmp/ccONvy4E.s 			page 331


 11506      1069EB76 
 11507 00bb 1E73944F 		.ascii	"\036s\224O*>j\250\3216\346\344(\261d\271\217\352f\206"
 11507      2A3E6AA8 
 11507      D136E6E4 
 11507      28B164B9 
 11507      8FEA6686 
 11508 00cf 91A5DE4A 		.ascii	"\221\245\336J\202\347\375D\31042^\027\356i.\307xNL\005"
 11508      82E7FD44 
 11508      C834325E 
 11508      17EE692E 
 11508      C7784E4C 
 11509 00e4 AB3CE72A 		.ascii	"\253<\347*\327\253\340\256\203\255R\027I;L\266\031-"
 11509      D7ABE0AE 
 11509      83AD5217 
 11509      493B4CB6 
 11509      192D
 11510 00f6 AE23A5D8 		.ascii	"\256#\245\330\266\273\2456\235f\207\230\032\036R\202"
 11510      B6BBA536 
 11510      9D668798 
 11510      1A1E5282 
 11511 0106 1D8C1667 		.ascii	"\035\214\026g\332r\226\027rn\246\310\230\232\333\247"
 11511      DA729617 
 11511      726EA6C8 
 11511      989ADBA7 
 11512 0116 9A226118 		.ascii	"\232\"a\030\312\237\031\011\231Y9\271i;y"
 11512      CA9F1909 
 11512      995939B9 
 11512      693B79
 11513              		.global	sp_006a
 11514              		.section	.rodata.sp_006a,"a"
 11515              		.align	2
 11516              		.type	sp_006a, %object
 11517              		.size	sp_006a, 395
 11518              	sp_006a:
 11519 0000 4E683954 		.ascii	"Nh9T$\234&=I\216\236\222T\264\242\310\272\233rSK \351"
 11519      249C263D 
 11519      498E9E92 
 11519      54B4A2C8 
 11519      BA9B7253 
 11520 0017 68D34935 		.ascii	"h\323I5\326=tB;\215\24767\217\255t\256\267\202U\211"
 11520      D63D7442 
 11520      3B8DA736 
 11520      378FAD74 
 11520      AEB78255 
 11521 002c D1B95F77 		.ascii	"\321\271_w1\327A\345\267\330kl\015E\367P\363\213v\024"
 11521      31D741E5 
 11521      B7D86B6C 
 11521      0D45F750 
 11521      F38B7614 
 11522 0040 1FDDCBC6 		.ascii	"\037\335\313\306\352\221cU\317\034\311K\016E+\253$/"
 11522      EA916355 
 11522      CF1CC94B 
 11522      0E452BAB 
 11522      242F
 11523 0052 C55799CC 		.ascii	"\305W\231\314\222<TWu\312\206\361\320|\225)\0379\303"
 11523      923C5457 
 11523      75CA86F1 
ARM GAS  /tmp/ccONvy4E.s 			page 332


 11523      D07C9529 
 11523      1F39C3
 11524 0065 085D2A65 		.ascii	"\010]*e\35543t\365\241\211]l\337\325\206\313v\262}\327"
 11524      ED343374 
 11524      F5A1895D 
 11524      6CDFD586 
 11524      CB76B27D 
 11525 007a 682E4BC9 		.ascii	"h.K\311\361\335\2544l:\333\027\2234\267\251\254\342"
 11525      F1DDAC34 
 11525      6C3ADB17 
 11525      9334B7A9 
 11525      ACE2
 11526 008c 8A99DD31 		.ascii	"\212\231\3351\000\000\000\000\000\000\000\001\212t\243"
 11526      00000000 
 11526      00000001 
 11526      8A74A3
 11527 009b 00058258 		.ascii	"\000\005\202Xl\272\251+i\272\356\2234\243j\351\246]"
 11527      6CBAA92B 
 11527      69BAEE93 
 11527      34A36AE9 
 11527      A65D
 11528 00ad 88BD92A3 		.ascii	"\210\275\222\243\331\374\301~J\226f\323;\325)\036\252"
 11528      D9FCC17E 
 11528      4A9666D3 
 11528      3BD5291E 
 11528      AA
 11529 00be B19F942D 		.ascii	"\261\237\224-\247(\262\274\362\246\222\244\210v.\033"
 11529      A728B2BC 
 11529      F2A692A4 
 11529      88762E1B 
 11530 00ce B69AACD2 		.ascii	"\266\232\254\322\230\237)i\262\361\351\375\306\266\311"
 11530      989F2969 
 11530      B2F1E9FD 
 11530      C6B6C9
 11531 00dd 4EE5D499 		.ascii	"N\345\324\231\242${i\377\301\214\202\254L\276\213(\012"
 11531      A2247B69 
 11531      FFC18C82 
 11531      AC4CBE8B 
 11531      280A
 11532 00ef B232F921 		.ascii	"\2622\371!\306\270)QZM\226\302\246F\023i36\235\032\302"
 11532      C6B82951 
 11532      5A4D96C2 
 11532      A6461369 
 11532      33369D1A 
 11533 0104 68F42422 		.ascii	"h\364$\"\352\311\241\316\346$\251.\277eL\252\242\246"
 11533      EAC9A1CE 
 11533      E624A92E 
 11533      BF654CAA 
 11533      A2A6
 11534 0116 30D5DC49 		.ascii	"0\325\334I\217\352\353V\360*\035\252\035\235\346\315"
 11534      8FEAEB56 
 11534      F02A1DAA 
 11534      1D9DE6CD 
 11535 0126 66A876A7 		.ascii	"f\250v\247E\026\353\242\350\031\232\025\254\224f\230"
 11535      4516EBA2 
 11535      E8199A15 
 11535      AC946698 
ARM GAS  /tmp/ccONvy4E.s 			page 333


 11536 0136 79463A55 		.ascii	"yF:U\232'\032\341\235X\350\211\212F\2643\002df\252\200"
 11536      9A271AE1 
 11536      9D58E889 
 11536      8A46B433 
 11536      026466AA 
 11537 014b 678D927E 		.ascii	"g\215\222~\263Sh\306\036V\320V>%{X\321\271g\256\352"
 11537      B35368C6 
 11537      1E56D056 
 11537      3E257B58 
 11537      D1B967AE 
 11538 0160 E6C46011 		.ascii	"\346\304`\021q\214\222\347\275gE\312\016I\311b\341o"
 11538      718C92E7 
 11538      BD6745CA 
 11538      0E49C962 
 11538      E16F
 11539 0172 1B0014E0 		.ascii	"\033\000\024\340J\210\002\262\013\021@\326!\002H\322"
 11539      4A8802B2 
 11539      0B1140D6 
 11539      210248D2 
 11540 0182 95014987 		.ascii	"\225\001I\207\021 \233\220\007"
 11540      11209B90 
 11540      07
 11541              		.global	sp_005a
 11542              		.section	.rodata.sp_005a,"a"
 11543              		.align	2
 11544              		.type	sp_005a, %object
 11545              		.size	sp_005a, 110
 11546              	sp_005a:
 11547 0000 953ECE52 		.ascii	"\225>\316R]\357&{7Ku-#\374\2345\305\205\320*\223\005"
 11547      5DEF267B 
 11547      374B752D 
 11547      23FC9C35 
 11547      C585D02A 
 11548 0016 0001D8C2 		.ascii	"\000\001\330\302\334\001Fv\012\300\304\312\244\304\034"
 11548      DC014676 
 11548      0AC0C4CA 
 11548      A4C41C
 11549 0025 9E9B898F 		.ascii	"\236\233\211\217\222JFf:9J\254>\326!\357\310\241\305"
 11549      924A4666 
 11549      3A394AAC 
 11549      3ED621EF 
 11549      C8A1C5
 11550 0038 78059323 		.ascii	"x\005\223#\307\032\2531\254\217\022Z\226\372\252>\252"
 11550      C71AAB31 
 11550      AC8F125A 
 11550      96FAAA3E 
 11550      AA
 11551 0049 4F552AEF 		.ascii	"OU*\357d\350.t\030\177\322b\351T\341\372U\\\240M\207"
 11551      64E82E74 
 11551      187FD262 
 11551      E954E1FA 
 11551      555CA04D 
 11552 005e 45A70600 		.ascii	"E\247\006\0000@\243\245\002\330JQ\000\335\230="
 11552      3040A3A5 
 11552      02D84A51 
 11552      00DD983D 
 11553              		.global	sp_0021a
ARM GAS  /tmp/ccONvy4E.s 			page 334


 11554              		.section	.rodata.sp_0021a,"a"
 11555              		.align	2
 11556              		.type	sp_0021a, %object
 11557              		.size	sp_0021a, 382
 11558              	sp_0021a:
 11559 0000 A375FEC3 		.ascii	"\243u\376\303\264\353\256\"\252/\323\254{\262`\257]"
 11559      B4EBAE22 
 11559      AA2FD3AC 
 11559      7BB260AF 
 11559      5D
 11560 0011 B2DE4983 		.ascii	"\262\336I\203\331r\315\344'\016v\3135\223\237\310\247"
 11560      D972CDE4 
 11560      270E76CB 
 11560      35939FC8 
 11560      A7
 11561 0022 4D9548BA 		.ascii	"M\225H\272\302\020\247\204\"I\012\\\210 \314\264)pZ"
 11561      C210A784 
 11561      22490A5C 
 11561      8820CCB4 
 11561      29705A
 11562 0035 2AD8D3A5 		.ascii	"*\330\323\245\300\032\367\024J[\002g<[\310I\011\214"
 11562      C01AF714 
 11562      4A5B0267 
 11562      3C5BC849 
 11562      098C
 11563 0047 9E0E0135 		.ascii	"\236\016\0015\315\367bNE\264\016\317\231IW\3103<\347"
 11563      CDF7624E 
 11563      45B40ECF 
 11563      994957C8 
 11563      333CE7
 11564 005a DADCB1CF 		.ascii	"\332\334\261\317pmII\223\256\315u\303\270T\2664\327"
 11564      706D4949 
 11564      93AECD75 
 11564      C3B854B6 
 11564      34D7
 11565 006c 1DA352EB 		.ascii	"\035\243R\353\332\\\267\225[luq\3342\032\265\316\305"
 11565      DA5CB795 
 11565      5B6C7571 
 11565      DC321AB5 
 11565      CEC5
 11566 007e F15BB8C5 		.ascii	"\361[\270\305[57\264\004O\356\\\2348\214M\315\235s\243"
 11566      5B3537B4 
 11566      044FEE5C 
 11566      9C388C4D 
 11566      CD9D73A3 
 11567 0092 7112F5C4 		.ascii	"q\022\365\304\312K\314\3245\223\2700\033\347\244]\314"
 11567      CA4BCCD4 
 11567      3593B830 
 11567      1BE7A45D 
 11567      CC
 11568 00a3 75006845 		.ascii	"u\000hE\213!\256g{\024\303\027\233t\345\225wW\342\332"
 11568      8B21AE67 
 11568      7B14C317 
 11568      9B74E595 
 11568      7757E2DA 
 11569 00b7 9157515D 		.ascii	"\221WQ]\252[G\036ESanf;\224\321`\204\270\273PF\213\031"
 11569      AA5B471E 
ARM GAS  /tmp/ccONvy4E.s 			page 335


 11569      4553616E 
 11569      663B94D1 
 11569      6084B8BB 
 11570 00cf E2EE5C15 		.ascii	"\342\356\\\0254f\253;M]\262M\356\033Z\001.&# \362\252"
 11570      3466AB3B 
 11570      4D5DB24D 
 11570      EE1B5A01 
 11570      2E262320 
 11571 00e5 523A7F12 		.ascii	"R:\177\022Y\215F\341\302\213G-:\261K9.\325\354D.\346"
 11571      598D46E1 
 11571      C28B472D 
 11571      3AB14B39 
 11571      2ED5EC44 
 11572 00fb 8444DA15 		.ascii	"\204D\332\025ZW\225\241qU\034\261E\252:E\200\245\346"
 11572      5A5795A1 
 11572      71551CB1 
 11572      45AA3A45 
 11572      80A5E6
 11573 010e 08A8D28D 		.ascii	"\010\250\322\215\001\312\233\"\000\364\326T\3108\243"
 11573      01CA9B22 
 11573      00F4D654 
 11573      C838A3
 11574 011d 44794AA1 		.ascii	"DyJ\241bw \372i\225\216\223\246\342gT6\266\246I\356"
 11574      627720FA 
 11574      69958E93 
 11574      A6E26754 
 11574      36B6A649 
 11575 0132 56DB92D2 		.ascii	"V\333\222\322&\275J\343zP\271\354L\255\255AU\3229\265"
 11575      26BD4AE3 
 11575      7A50B9EC 
 11575      4CADAD41 
 11575      55D239B5 
 11576 0146 AE3BB65B 		.ascii	"\256;\266[\326\324\272\234P\245^R\347rBehI}\320\215"
 11576      D6D4BA9C 
 11576      50A55E52 
 11576      E7724265 
 11576      68497DD0 
 11577 015b D6E9D40D 		.ascii	"\326\351\324\015!9j\2457\327W\035*\340N\324\330\225"
 11577      21396AA5 
 11577      37D7571D 
 11577      2AE04ED4 
 11577      D895
 11578 016d B270B813 		.ascii	"\262p\270\023}\343\".\356\316\325\331\252\272U\312\007"
 11578      7DE3222E 
 11578      EECED5D9 
 11578      AABA55CA 
 11578      07
 11579              		.global	sp_001a
 11580              		.section	.rodata.sp_001a,"a"
 11581              		.align	2
 11582              		.type	sp_001a, %object
 11583              		.size	sp_001a, 270
 11584              	sp_001a:
 11585 0000 4539BA4B 		.ascii	"E9\272K\226\321i\365\350.Z\305\246\222\243\273\244Y"
 11585      96D169F5 
 11585      E82E5AC5 
 11585      A692A3BB 
ARM GAS  /tmp/ccONvy4E.s 			page 336


 11585      A459
 11586 0012 E38ABB9E 		.ascii	"\343\212\273\236\015\003,\343\352\001\017x\300\003\022"
 11586      0D032CE3 
 11586      EA010F78 
 11586      C00312
 11587 0021 08AA336A 		.ascii	"\010\2523ji\225\270\350&\212VV\254\241\307\310R\225"
 11587      6995B8E8 
 11587      268A5656 
 11587      ACA1C7C8 
 11587      5295
 11588 0033 658E5693 		.ascii	"e\216V\223PVW9j\213B\221c\371(\335\011{\216\345\242"
 11588      50565739 
 11588      6A8B4291 
 11588      63F928DD 
 11588      097B8EE5 
 11589 0048 05C69ED5 		.ascii	"\005\306\236\325r\204\316YnU\333n\332I\251\306nu\251"
 11589      7284CE59 
 11589      6E55DB6E 
 11589      DA49A9C6 
 11589      6E75A9
 11590 005b D5299BBF 		.ascii	"\325)\233\277\231\243\266l,\376Q\216Z\263\262\305F9"
 11590      99A3B66C 
 11590      2CFE518E 
 11590      5AB3B2C5 
 11590      4639
 11591 006d 6A89A26E 		.ascii	"j\211\242nSe\251\311\253\272M\331\241\370\240\346\276"
 11591      5365A9C9 
 11591      ABBA4DD9 
 11591      A1F8A0E6 
 11591      BE
 11592 007e A18B6242 		.ascii	"\241\213bB\270\333\006N\212N\351\246[\332\250\322m\270"
 11592      B8DB064E 
 11592      8A4EE9A6 
 11592      5BDAA8D2 
 11592      6DB8
 11593 0090 75170067 		.ascii	"u\027\000g\2106k\224s\232!G\207jMi\206\272\021\224g"
 11593      88366B94 
 11593      739A2147 
 11593      876A4D69 
 11593      86BA1194 
 11594 00a5 A598EA4A 		.ascii	"\245\230\352JD\014\331b\250K\331\021R\202)b\261E:\022"
 11594      440CD962 
 11594      A84BD911 
 11594      52822962 
 11594      B1453A12 
 11595 00b9 96419E99 		.ascii	"\226A\236\231\355\310\230-h\244\252b\007D\353\276t\235"
 11595      EDC8982D 
 11595      68A4AA62 
 11595      0744EBBE 
 11595      749D
 11596 00cb BC2393D1 		.ascii	"\274#\223\3211l\212\36506\307\264\315'BT\037+\024\237"
 11596      316C8AF5 
 11596      3036C7B4 
 11596      CD274254 
 11596      1F2B149F 
 11597 00df 6C537CEC 		.ascii	"lS|\354X\275\243]\311\261S\363\212H\306\303M\335Z\333"
 11597      58BDA35D 
ARM GAS  /tmp/ccONvy4E.s 			page 337


 11597      C9B153F3 
 11597      8A48C6C3 
 11597      4DDD5ADB 
 11598 00f3 95242F67 		.ascii	"\225$/gs\327\240\355\2426\313B\"6\200\003b1W\200s\032"
 11598      73D7A0ED 
 11598      A236CB42 
 11598      22368003 
 11598      62315780 
 11599 0109 0C88C9E4 		.ascii	"\014\210\311\344\001"
 11599      01
 11600              		.global	sp_000a
 11601              		.section	.rodata.sp_000a,"a"
 11602              		.align	2
 11603              		.type	sp_000a, %object
 11604              		.size	sp_000a, 138
 11605              	sp_000a:
 11606 0000 CA704A65 		.ascii	"\312pJe\262%\022\243[\027\226P\352\214\322\214]ZN\321"
 11606      B22512A3 
 11606      5B179650 
 11606      EA8CD28C 
 11606      5D5A4ED1 
 11607 0014 B5B52E6F 		.ascii	"\265\265.o9M\267\301#l\244\024\335\3444\267\225\222"
 11607      394DB7C1 
 11607      236CA414 
 11607      DDE434B7 
 11607      9592
 11608 0026 743D82DD 		.ascii	"t=\202\335\327L\320\325(6\033+AW\2470\242e%]\337\242"
 11608      D74CD0D5 
 11608      28361B2B 
 11608      4157A730 
 11608      A265255D 
 11609 003c F0B65574 		.ascii	"\360\266Ut\263\206RKv\321\355)\012/\331\305\260\267"
 11609      B386524B 
 11609      76D1ED29 
 11609      0A2FD9C5 
 11609      B0B7
 11610 004e D82C1425 		.ascii	"\330,\024%\323\356\2240g\225,\273\315\313Lv\262\335"
 11610      D3EE9430 
 11610      67952CBB 
 11610      CDCB4C76 
 11610      B2DD
 11611 0060 D24837D9 		.ascii	"\322H7\331\301q]=R\024;\307f\2634\247\255l\313uR\\\226"
 11611      C1715D3D 
 11611      52143BC7 
 11611      66B334A7 
 11611      AD6CCB75 
 11612 0077 B035B369 		.ascii	"\2605\263iQ\331\302\326T{,e1\273JV\227\264\373"
 11612      51D9C2D6 
 11612      547B2C65 
 11612      31BB4A56 
 11612      97B4FB
 11613              		.global	sp_0022a
 11614              		.section	.rodata.sp_0022a,"a"
 11615              		.align	2
 11616              		.type	sp_0022a, %object
 11617              		.size	sp_0022a, 254
 11618              	sp_0022a:
ARM GAS  /tmp/ccONvy4E.s 			page 338


 11619 0000 49B15E3D 		.ascii	"I\261^=\"\251\024\325\006\213\314BR4c\275\323\002I\320"
 11619      22A914D5 
 11619      068BCC42 
 11619      523463BD 
 11619      D30249D0 
 11620 0014 94F1536A 		.ascii	"\224\361Sj\227N\343>\307)c!\000w\327\244\351\020\026"
 11620      974EE33E 
 11620      C7296321 
 11620      0077D7A4 
 11620      E91016
 11621 0027 96899BE6 		.ascii	"\226\211\233\346\032\227gI\031\252/\332\231#\373\250"
 11621      1A976749 
 11621      19AA2FDA 
 11621      9923FBA8 
 11622 0037 215956AE 		.ascii	"!YV\256\222\243\306h\221y\212\223\222\202\251O)Q\212"
 11622      92A3C668 
 11622      91798A93 
 11622      9282A94F 
 11622      29518A
 11623 004a E3E269E1 		.ascii	"\343\342i\341\324\001\203\263\005\345\216\0046m[\224"
 11623      D40183B3 
 11623      05E58E04 
 11623      366D5B94 
 11624 005a 6C383DDB 		.ascii	"l8=\333hQ\202\261\260\216\310E\215\306]\243c\027\305"
 11624      685182B1 
 11624      B08EC845 
 11624      8DC65DA3 
 11624      6317C5
 11625 006d EB348B93 		.ascii	"\3534\213\223\323\024g\323}G\351R\242\017\263.\305K"
 11625      D31467D3 
 11625      7D47E952 
 11625      A20FB32E 
 11625      C54B
 11626 007f 49DECD37 		.ascii	"I\336\3157\224,9;u\277\224;\344b5\274[JQ\206b\333\010"
 11626      942C393B 
 11626      75BF943B 
 11626      E46235BC 
 11626      5B4A5186 
 11627 0096 D10138BD 		.ascii	"\321\0018\2754\000\177\254\007\340\257\322\000\3745"
 11627      34007FAC 
 11627      07E0AFD2 
 11627      00FC35
 11628 00a5 51F4BF7E 		.ascii	"Q\364\277~3TY\322\2730-\255\312\311\360\326\303\263"
 11628      335459D2 
 11628      BB302DAD 
 11628      CAC9F0D6 
 11628      C3B3
 11629 00b7 1905CB3A 		.ascii	"\031\005\313:O\213\244\343\354 \264\212\\\265\261\203"
 11629      4F8BA4E3 
 11629      EC20B48A 
 11629      5CB5B183 
 11630 00c7 D44D76C5 		.ascii	"\324Mv\305\306\215\302j0T\233\326I\335\342p\354z\317"
 11630      C68DC26A 
 11630      30549BD6 
 11630      49DDE270 
 11630      EC7ACF
 11631 00da 7586CD8D 		.ascii	"u\206\315\215*\"\227hu'B\237\326\304\324e\023\240\212"
ARM GAS  /tmp/ccONvy4E.s 			page 339


 11631      2A229768 
 11631      7527429F 
 11631      D6C4D465 
 11631      13A08A
 11632 00ed 34047C95 		.ascii	"4\004|\225\206\200/C\021\360\205\005\002\276N\207\007"
 11632      86802F43 
 11632      11F08505 
 11632      02BE4E87 
 11632      07
 11633              		.global	sp_024a
 11634              		.section	.rodata.sp_024a,"a"
 11635              		.align	2
 11636              		.type	sp_024a, %object
 11637              		.size	sp_024a, 265
 11638              	sp_024a:
 11639 0000 D45DAE0B 		.ascii	"\324]\256\013c\356\325t\271.\254\271g\333\345\272\270"
 11639      63EED574 
 11639      B92EACB9 
 11639      67DBE5BA 
 11639      B8
 11640 0011 EA566D86 		.ascii	"\352Vm\206\347\334\233y\266\036\236\365o\346\321xx\326"
 11640      E7DC9B79 
 11640      B61E9EF5 
 11640      6FE6D178 
 11640      78D6
 11641 0023 BF9966E3 		.ascii	"\277\231f\343\341\231\370\246\226M\232g\342\207J6)\276"
 11641      E199F8A6 
 11641      964D9A67 
 11641      E2874A36 
 11641      29BE
 11642 0035 4E1FCA39 		.ascii	"N\037\3129\247\370:_*U\223\022\250\262\241\334MR\250"
 11642      A7F83A5F 
 11642      2A559312 
 11642      A8B2A1DC 
 11642      4D52A8
 11643 0048 CA865237 		.ascii	"\312\206R7N\241\354\343\312\3358\204*\275\033t\343\020"
 11643      4EA1ECE3 
 11643      CADD3884 
 11643      2ABD1B74 
 11643      E310
 11644 005a C9BAA194 		.ascii	"\311\272\241\224\215C\244\322\245\2225\011\221\212\037"
 11644      8D43A4D2 
 11644      A5923509 
 11644      918A1F
 11645 0069 86D12644 		.ascii	"\206\321&D\262\\(E\223\020\311\374\241\024MB$\363\207"
 11645      B25C2845 
 11645      9310C9FC 
 11645      A1144D42 
 11645      24F387
 11646 007c B0CF09B1 		.ascii	"\260\317\011\261\254\027J\3218\305\312\177*\331\342"
 11646      AC174AD1 
 11646      38C5CA7F 
 11646      2AD9E2
 11647 008b 14ABF025 		.ascii	"\024\253\360%dsR\254\335\267\260\336)\261\261\337\302"
 11647      647352AC 
 11647      DDB7B0DE 
 11647      29B1B1DF 
ARM GAS  /tmp/ccONvy4E.s 			page 340


 11647      C2
 11648 009c BAA8C4DA 		.ascii	"\272\250\304\332~+\351\242\022\033\363\255\254sJl\314"
 11648      7E2BE9A2 
 11648      121BF3AD 
 11648      AC734A6C 
 11648      CC
 11649 00ad B7B22E2E 		.ascii	"\267\262..\261\321?\312\262\270$F\375(\363\342\224X"
 11649      B1D13FCA 
 11649      B2B82446 
 11649      FD28F3E2 
 11649      9458
 11650 00bf F9ABC28B 		.ascii	"\371\253\302\213Sb\344\2572\257N\251\221\277\"\274:"
 11650      5362E4AF 
 11650      32AF4EA9 
 11650      91BF22BC 
 11650      3A
 11651 00d0 6446FEB2 		.ascii	"dF\376\262p\353\224;\376\307\314]R\356\330\035\013g"
 11651      70EB943B 
 11651      FEC7CC5D 
 11651      52EED81D 
 11651      0B67
 11652 00e2 0EB9A3F7 		.ascii	"\016\271\243\367\304\222%\024\236\336\011\261\033SF"
 11652      C4922514 
 11652      9EDE09B1 
 11652      1B5346
 11653 00f1 52EBC272 		.ascii	"R\353\302r\230\335\271h\2109\005\000\000\000\003\340"
 11653      98DDB968 
 11653      88390500 
 11653      000003E0 
 11654 0101 96AE00D2 		.ascii	"\226\256\000\322\")\360\000"
 11654      2229F000 
 11655              		.global	sp_013a
 11656              		.section	.rodata.sp_013a,"a"
 11657              		.align	2
 11658              		.type	sp_013a, %object
 11659              		.size	sp_013a, 323
 11660              	sp_013a:
 11661 0000 1080022A 		.ascii	"\020\200\002*\232\236\224x\364\323\036Z2\242\276\305"
 11661      9A9E9478 
 11661      F4D31E5A 
 11661      32A2BEC5 
 11662 0010 B8184988 		.ascii	"\270\030I\210D\254le2\321[\354L\226\276C\270\2531\031"
 11662      44AC6C65 
 11662      32D15BEC 
 11662      4C96BE43 
 11662      B8AB3119 
 11663 0024 CACD0662 		.ascii	"\312\315\006bU{\210=\010j\\\275\301U'lu\363\026S\274"
 11663      557B883D 
 11663      086A5CBD 
 11663      C155276C 
 11663      75F31653 
 11664 0039 8AC54619 		.ascii	"\212\305F\031\214\367f\352\023\271\360Z\331\244e\334"
 11664      8CF766EA 
 11664      13B9F05A 
 11664      D9A465DC 
 11665 0049 2238C9BB 		.ascii	"\"8\311\273ja\223\250\224}\211\312-\262Q\362\305*\255"
 11665      6A6193A8 
ARM GAS  /tmp/ccONvy4E.s 			page 341


 11665      947D89CA 
 11665      2DB251F2 
 11665      C52AAD
 11666 005c 2846F137 		.ascii	"(F\3617\231\324#W\317\232=\242\226\334\015[o\302\\r"
 11666      99D42357 
 11666      CF9A3DA2 
 11666      96DC0D5B 
 11666      6FC25C72 
 11667 0070 B3AC7301 		.ascii	"\263\254s\001{\311\315\260\3569\234%W\303\276'H\206"
 11667      7BC9CDB0 
 11667      EE399C25 
 11667      57C3BE27 
 11667      4886
 11668 0082 9CA5E4B6 		.ascii	"\234\245\344\266\"n\262SV\023\314:\311Z\371\233\262"
 11668      226EB253 
 11668      5613CC3A 
 11668      C95AF99B 
 11668      B2
 11669 0093 6BA750D3 		.ascii	"k\247P\323o\"n\214\252it\231\273\011@\323\241\016h!"
 11669      6F226E8C 
 11669      AA697499 
 11669      BB0940D3 
 11669      A10E6821 
 11670 00a7 394986BB 		.ascii	"9I\206\273w,\335\242\006a\2221b\224I\344v\212*\025\226"
 11670      772CDDA2 
 11670      06619231 
 11670      629449E4 
 11670      768A2A15 
 11671 00bc C035AD2E 		.ascii	"\3005\255.\247\031\317\205\206\272\234\241'\253\234"
 11671      A719CF85 
 11671      86BA9CA1 
 11671      27AB9C
 11672 00cb F172869E 		.ascii	"\361r\206\236\014{\344\313ZZ\266\"eoki\331\033\205\275"
 11672      0C7BE4CB 
 11672      5A5AB622 
 11672      656F6B69 
 11672      D91B85BD 
 11673 00df ADA5452B 		.ascii	"\255\245E+\226\376\262\233f\255F\3041\012\206\325f\241"
 11673      96FEB29B 
 11673      66AD46C4 
 11673      310A86D5 
 11673      66A1
 11674 00f1 275B9916 		.ascii	"'[\231\026\273g\226\323\246;c\021\236L\227\356\243\226"
 11674      BB6796D3 
 11674      A63B6311 
 11674      9E4C97EE 
 11674      A396
 11675 0103 9F2A5ABA 		.ascii	"\237*Z\272\3676q\341\370\3509Y\372\206\342\253\037="
 11675      F73671E1 
 11675      F8E83959 
 11675      FA86E2AB 
 11675      1F3D
 11676 0115 252FDFB0 		.ascii	"%/\337\260}\364\224#\275J\365\321c\212\262\015'C\367"
 11676      7DF49423 
 11676      BD4AF5D1 
 11676      638AB20D 
 11676      2743F7
ARM GAS  /tmp/ccONvy4E.s 			page 342


 11677 0128 29D2D615 		.ascii	")\322\326\025\007\323\351\374\210q\014\340\200\312\303"
 11677      07D3E9FC 
 11677      88710CE0 
 11677      80CAC3
 11678 0137 1C30749A 		.ascii	"\0340t\232\002\202\011'\200\321n\017"
 11678      02820927 
 11678      80D16E0F 
 11679              		.global	sp_b019
 11680              		.section	.rodata.sp_b019,"a"
 11681              		.align	2
 11682              		.type	sp_b019, %object
 11683              		.size	sp_b019, 103
 11684              	sp_b019:
 11685 0000 0C70655B 		.ascii	"\014pe[\002\2530\247\207\262c\357\242&5\331\331\316"
 11685      02AB30A7 
 11685      87B263EF 
 11685      A22635D9 
 11685      D9CE
 11686 0012 9617DCDC 		.ascii	"\226\027\334\334\230Eq@\260\275\026\260\300(\364\232"
 11686      98457140 
 11686      B0BD16B0 
 11686      C028F49A 
 11687 0022 22DFC8A3 		.ascii	"\"\337\310\2434k\033c*\357j\327\2739\255M\373&\266\344"
 11687      346B1B63 
 11687      2AEF6AD7 
 11687      BB39AD4D 
 11687      FB26B6E4 
 11688 0036 74D1D4A7 		.ascii	"t\321\324\247Jk\007$\235\355\001\013\214\311\224\031"
 11688      4A6B0724 
 11688      9DED010B 
 11688      8CC99419 
 11689 0046 B2AEBD26 		.ascii	"\262\256\275&\223\346U\262\326nw{\2073z\327o\242k\356"
 11689      93E655B2 
 11689      D66E777B 
 11689      87337AD7 
 11689      6FA26BEE 
 11690 005a 78A6A4EB 		.ascii	"x\246\244\353J\245\213\001\\\274\321\300\003"
 11690      4AA58B01 
 11690      5CBCD1C0 
 11690      03
 11691              		.global	sp_b018
 11692              		.section	.rodata.sp_b018,"a"
 11693              		.align	2
 11694              		.type	sp_b018, %object
 11695              		.size	sp_b018, 87
 11696              	sp_b018:
 11697 0000 53951220 		.ascii	"S\225\022 13\002DW$\201\221\372T\312\257\376oq\213S"
 11697      31330244 
 11697      57248191 
 11697      FA54CAAF 
 11697      FE6F718B 
 11698 0015 785FCEEB 		.ascii	"x_\316\353\376O\021l\272\231\347Ke&\341i\222\212\001"
 11698      FE4F116C 
 11698      BA99E74B 
 11698      6526E169 
 11698      928A01
 11699 0028 0656163F 		.ascii	"\006V\026?\322*aqS2\253\266\231#\361\310\242\234b\327"
ARM GAS  /tmp/ccONvy4E.s 			page 343


 11699      D22A6171 
 11699      5332ABB6 
 11699      9923F1C8 
 11699      A29C62D7 
 11700 003c C627CBAE 		.ascii	"\306'\313\256\214]\033\22548'[\213i\022\032\263\203"
 11700      8C5D1B95 
 11700      3438275B 
 11700      8B69121A 
 11700      B383
 11701 004e CDB68B95 		.ascii	"\315\266\213\225\312\020\021\273\017"
 11701      CA1011BB 
 11701      0F
 11702              		.global	sp_b012
 11703              		.section	.rodata.sp_b012,"a"
 11704              		.align	2
 11705              		.type	sp_b012, %object
 11706              		.size	sp_b012, 386
 11707              	sp_b012:
 11708 0000 43199935 		.ascii	"C\031\2315\247\034/\265\030\332\311P\262\325\255\016"
 11708      A71C2FB5 
 11708      18DAC950 
 11708      B2D5AD0E 
 11709 0010 3568B9EA 		.ascii	"5h\271\352\260\263\224\020\325\253]\366R|J\3633%EQ5"
 11709      B0B39410 
 11709      D5AB5DF6 
 11709      527C4AF3 
 11709      33254551 
 11710 0025 CD4F1C37 		.ascii	"\315O\0347E\2715\337\222\333\344\314\255\247)f\223\222"
 11710      45B935DF 
 11710      92DBE4CC 
 11710      ADA72966 
 11710      9392
 11711 0037 95A8299A 		.ascii	"\225\250)\232Ej\001bFi5\251Z\354]\2054\244\254e\346"
 11711      456A0162 
 11711      466935A9 
 11711      5AEC5D85 
 11711      34A4AC65 
 11712 004c 5DCA929C 		.ascii	"]\312\222\234\265\3551%C\362^j;\330\004I\346\030st\026"
 11712      B5ED3125 
 11712      43F25E6A 
 11712      3BD80449 
 11712      E6187374 
 11713 0061 24517299 		.ascii	"$Qr\231\325\215\223E\312\0077\265A\026\261V!\325:\205"
 11713      D58D9345 
 11713      CA0737B5 
 11713      4116B156 
 11713      21D53A85 
 11714 0075 E55A708F 		.ascii	"\345Zp\217#T\\\273\221+\015Qa\236\012Q\247DU\3143\243"
 11714      23545CBB 
 11714      912B0D51 
 11714      619E0A51 
 11714      A74455CC 
 11715 008b 9C3835CF 		.ascii	"\23485\317\266\016\213\332Tk\303\313W\366R]\366\320"
 11715      B60E8BDA 
 11715      546BC3CB 
 11715      57F6525D 
 11715      F6D0
ARM GAS  /tmp/ccONvy4E.s 			page 344


 11716 009d 3A454775 		.ascii	":EGu\251#\370\035/\325\355\312\240sr\265\253]mkK\013"
 11716      A923F81D 
 11716      2FD5EDCA 
 11716      A07372B5 
 11716      AB5D6D6B 
 11717 00b3 533BF894 		.ascii	"S;\370\224l\255\352C\017]*\354\230\014=U\211\262\263"
 11717      6CADEA43 
 11717      0F5D2AEC 
 11717      980C3D55 
 11717      89B2B3
 11718 00c6 37B4DC4C 		.ascii	"7\264\334L\315WN\323\262s\261\031%\314\340*\243\332"
 11718      CD574ED3 
 11718      B273B119 
 11718      25CCE02A 
 11718      A3DA
 11719 00d8 D0605DE9 		.ascii	"\320`]\351\3138\011\207\335\250)\340Gw\011p\200\003"
 11719      CB380987 
 11719      DDA829E0 
 11719      47770970 
 11719      8003
 11720 00ea D0B41CB3 		.ascii	"\320\264\034\263\334\316m\323t\3514\0114ESm,(1;\335"
 11720      DCCE6DD3 
 11720      74E93409 
 11720      3445536D 
 11720      2C28313B 
 11721 00ff 28F7B0A4 		.ascii	"(\367\260\244\003\000\014\310\302\225\000\250z\006]"
 11721      03000CC8 
 11721      C29500A8 
 11721      7A065D
 11722 010e 368D508B 		.ascii	"6\215P\213\230\024\265y5\322\354P\314\260\226(\273K"
 11722      9814B579 
 11722      35D2EC50 
 11722      CCB09628 
 11722      BB4B
 11723 0120 31B5DC75 		.ascii	"1\265\334u\024\017E\367\024\313\223\326\024=L\374\317"
 11723      140F45F7 
 11723      14CB93D6 
 11723      143D4CFC 
 11723      CF
 11724 0131 72514CD2 		.ascii	"rQL\322\260j\213\304(\3024-\344\200\003V2k\300\031m"
 11724      B06A8BC4 
 11724      28C2342D 
 11724      E4800356 
 11724      326BC019 
 11725 0146 1528CA34 		.ascii	"\025(\3124\306\346c\245\251^Zu*\333e\364\"b\323\214"
 11725      C6E663A5 
 11725      A95E5A75 
 11725      2ADB65F4 
 11725      2262D38C 
 11726 015a 87D91379 		.ascii	"\207\331\023yn\322nf\367\230\223L\257\230Y\323\271\212"
 11726      6ED26E66 
 11726      F798934C 
 11726      AF9859D3 
 11726      B98A
 11727 016c A360064D 		.ascii	"\243`\006Mo\306Q\274iL\245\355\204\33513\261\236N3;"
 11727      6FC651BC 
 11727      694CA5ED 
ARM GAS  /tmp/ccONvy4E.s 			page 345


 11727      84DD3133 
 11727      B19E4E33 
 11728 0181 0F       		.ascii	"\017"
 11729              		.global	sp_b011
 11730              		.section	.rodata.sp_b011,"a"
 11731              		.align	2
 11732              		.type	sp_b011, %object
 11733              		.size	sp_b011, 255
 11734              	sp_b011:
 11735 0000 42964637 		.ascii	"B\226F7ud9\325k\212\224\366\231\265\254-\315\207R\343"
 11735      756439D5 
 11735      6B8A94F6 
 11735      99B5AC2D 
 11735      CD8752E3 
 11736 0014 4A75D418 		.ascii	"Ju\324\030\307\334\212\365U\216\022B\273u9\031\262\015"
 11736      C7DC8AF5 
 11736      558E1242 
 11736      BB753919 
 11736      B20D
 11737 0026 E976A1D8 		.ascii	"\351v\241\330\251&\270h\206\233\240:\355*\225j\226\030"
 11737      A926B868 
 11737      869BA03A 
 11737      ED2A956A 
 11737      9618
 11738 0038 747A5C29 		.ascii	"tz\\)9R\012.\231\037wI)\253\226]\325&\273 \3331\222"
 11738      39520A2E 
 11738      991F7749 
 11738      29AB965D 
 11738      D526BB20 
 11739 004f 9BD21C4B 		.ascii	"\233\322\034KU\331j\300\217\356\025\350@\006\222ro\260"
 11739      55D96AC0 
 11739      8FEE15E8 
 11739      40069272 
 11739      6FB0
 11740 0061 42BA1A8A 		.ascii	"B\272\032\212\325>\275A{i\311\213\307\026\243\245\207"
 11740      D53EBD41 
 11740      7B69C98B 
 11740      C716A3A5 
 11740      87
 11741 0072 285567AC 		.ascii	"(Ug\254\206a\262NW\260J\246(\341c\012\207\000\212\206"
 11741      8661B24E 
 11741      57B04AA6 
 11741      28E1630A 
 11741      87008A86 
 11742 0086 22407917 		.ascii	"\"@y\027\014@RmtoM\314K\017\321#\313YM\275\3506D\205"
 11742      0C40526D 
 11742      746F4DCC 
 11742      4B0FD123 
 11742      CB594DBD 
 11743 009e 119BA217 		.ascii	"\021\233\242\027/fnt\212Q\214e\030\303.fO\352\351B\251"
 11743      2F666E74 
 11743      8A518C65 
 11743      18C32E66 
 11743      4FEAE942 
 11744 00b3 18DD5284 		.ascii	"\030\335R\204\013\355\241x\025\027\206j\226\032\235"
 11744      0BEDA178 
 11744      1517866A 
ARM GAS  /tmp/ccONvy4E.s 			page 346


 11744      961A9D
 11745 00c2 4EB729BA 		.ascii	"N\267)\272\352U\217\232\202v\2359\271\332\321r4\217"
 11745      EA558F9A 
 11745      82769D39 
 11745      B9DAD172 
 11745      348F
 11746 00d4 0DC557BF 		.ascii	"\015\305W\277\3060\275\263\254\023\305\305\216R\323"
 11746      C630BDB3 
 11746      AC13C5C5 
 11746      8E52D3
 11747 00e3 3748139B 		.ascii	"7H\023\233\032\257J\246\027\254m\234T4\226\322<\323"
 11747      1AAF4AA6 
 11747      17AC6D9C 
 11747      543496D2 
 11747      3CD3
 11748 00f5 C84EC4CC 		.ascii	"\310N\304\314hN\314\332\025="
 11748      684ECCDA 
 11748      153D
 11749              		.global	sp_b010
 11750              		.section	.rodata.sp_b010,"a"
 11751              		.align	2
 11752              		.type	sp_b010, %object
 11753              		.size	sp_b010, 239
 11754              	sp_b010:
 11755 0000 4953D632 		.ascii	"IS\3262\314\025'\235\367\360P\267\3554\376\222l\223"
 11755      CC15279D 
 11755      F7F050B7 
 11755      ED34FE92 
 11755      6C93
 11756 0012 75D1F573 		.ascii	"u\321\365s\252u$M37\314&\230.\315\2364\217V\262T\273"
 11756      AA75244D 
 11756      3337CC26 
 11756      982ECD9E 
 11756      348F56B2 
 11757 0028 3DC29B69 		.ascii	"=\302\233iSl\267\261t\316E\266\321\332K\230\002$`\316"
 11757      536CB7B1 
 11757      74CE45B6 
 11757      D1DA4B98 
 11757      022460CE 
 11758 003c D00E5420 		.ascii	"\320\016T \002\002H\316\014\003\004\234\252T\205j  "
 11758      020248CE 
 11758      0C03049C 
 11758      AA54856A 
 11758      2020
 11759 004e 31330050 		.ascii	"13\000P\032W\225\031iGi(L\206\207b\2431]\232Y\256\235"
 11759      1A579519 
 11759      69476928 
 11759      4C868762 
 11759      A3315D9A 
 11760 0065 6E799879 		.ascii	"ny\230y+\033\272\311\031~jgh&Wi\007\223\246\331TM\276"
 11760      2B1BBAC9 
 11760      197E6A67 
 11760      68265769 
 11760      0793A6D9 
 11761 007c 8C8A6E5A 		.ascii	"\214\212nZ\273p()\2327\025\012\241\244\030EW8:\225b"
 11761      BB702829 
 11761      9A37150A 
ARM GAS  /tmp/ccONvy4E.s 			page 347


 11761      A1A41845 
 11761      57383A95 
 11762 0091 54939960 		.ascii	"T\223\231`\242\207\026L\244\301\320)\252\271\305i\016"
 11762      A287164C 
 11762      A4C1D029 
 11762      AAB9C569 
 11762      0E
 11763 00a2 37A9E686 		.ascii	"7\251\346\206f$\262\256N\265kIs2\303\305\024\031\235"
 11763      6624B2AE 
 11763      4EB56B49 
 11763      7332C3C5 
 11763      14199D
 11764 00b5 63B34877 		.ascii	"c\263Hw\355\000-\304\030 \224X\321\324\244N*\311M\263"
 11764      ED002DC4 
 11764      18209458 
 11764      D1D4A44E 
 11764      2AC94DB3 
 11765 00c9 135F7599 		.ascii	"\023_u\231\014\315M\334\220\225\233\215`\230\212\347"
 11765      0CCD4DDC 
 11765      90959B8D 
 11765      60988AE7 
 11766 00d9 3AD29C61 		.ascii	":\322\234a\023|\330Hw\2062\221\225a\315\001?\272[@\002"
 11766      137CD848 
 11766      77863291 
 11766      9561CD01 
 11766      3FBA5B40 
 11767 00ee 0F       		.ascii	"\017"
 11768              		.global	sp_b009
 11769              		.section	.rodata.sp_b009,"a"
 11770              		.align	2
 11771              		.type	sp_b009, %object
 11772              		.size	sp_b009, 152
 11773              	sp_b009:
 11774 0000 5BDBFA32 		.ascii	"[\333\3722\334v\013\015\271\313\010%\324\335\242$\303"
 11774      DC760B0D 
 11774      B9CB0825 
 11774      D4DDA224 
 11774      C3
 11775 0011 382D2B35 		.ascii	"8-+5\352L\341\274=X\2727\205\211\\u\213+F\340T\245*"
 11775      EA4CE1BC 
 11775      3D58BA37 
 11775      85895C75 
 11775      8B2B46E0 
 11776 0028 54034001 		.ascii	"T\003@\001\326F\022\200\265\220\244\253S\354\325L\252"
 11776      D6461280 
 11776      B590A4AB 
 11776      53ECD54C 
 11776      AA
 11777 0039 518D6C24 		.ascii	"Q\215l$C\225\304\210A\026u\243s\323\221\021p\024\360"
 11777      4395C488 
 11777      411675A3 
 11777      73D39111 
 11777      7014F0
 11778 004c A33B0710 		.ascii	"\243;\007\0200e\210\002~t\327\200\004\0208U\251\012"
 11778      30658802 
 11778      7E74D780 
 11778      04103855 
ARM GAS  /tmp/ccONvy4E.s 			page 348


 11778      A90A
 11779 005e D50003F0 		.ascii	"\325\000\003\360e1t=:\302\202\311\322L\253\2212\326"
 11779      6531743D 
 11779      3AC282C9 
 11779      D24CAB91 
 11779      32D6
 11780 0070 4BB3B9C6 		.ascii	"K\263\271\306\265\031om\350\246G{\204\222\246\231a\031"
 11780      B5196F6D 
 11780      E8A6477B 
 11780      8492A699 
 11780      6119
 11781 0082 6DCC8416 		.ascii	"m\314\204\026\273\253z\304F\340T\245*T\003\024\220\202"
 11781      BBAB7AC4 
 11781      46E054A5 
 11781      2A540314 
 11781      9082
 11782 0094 970430F0 		.ascii	"\227\0040\360"
 11783              		.global	sp_017b
 11784              		.section	.rodata.sp_017b,"a"
 11785              		.align	2
 11786              		.type	sp_017b, %object
 11787              		.size	sp_017b, 276
 11788              	sp_017b:
 11789 0000 0CA8D9C3 		.ascii	"\014\250\331\303\0015\206\012 D\227\022\332\231\222"
 11789      0135860A 
 11789      20449712 
 11789      DA9992
 11790 000f 836E5766 		.ascii	"\203nWfv\270\227x;\211\253U\026\232\355D1T\233G\336"
 11790      76B89778 
 11790      3B89AB55 
 11790      169AED44 
 11790      31549B47 
 11791 0024 13645F2D 		.ascii	"\023d_-ay\216\227|\246\226->^\016\231\022\272\346x%"
 11791      61798E97 
 11791      7CA6962D 
 11791      3E5E0E99 
 11791      12BAE678 
 11792 0039 4448DADA 		.ascii	"DH\332\332\343\265\220Aam\226_k3\204\265\036~\255]Y"
 11792      E3B59041 
 11792      616D965F 
 11792      6B3384B5 
 11792      1E7EAD5D 
 11793 004e C2B8F8B3 		.ascii	"\302\270\370\263\031\260U\232eU\343\"]\215\217YC\260"
 11793      19B0559A 
 11793      6555E322 
 11793      5D8D8F59 
 11793      43B0
 11794 0060 A4D73A56 		.ascii	"\244\327:V\215\301Z^\371\330-\204jz\235\343T\037\246"
 11794      8DC15A5E 
 11794      F9D82D84 
 11794      6A7A9DE3 
 11794      541FA6
 11795 0073 69738E97 		.ascii	"is\216\227}\272\206\326\031AP\251\036\222h\006=\000"
 11795      7DBA86D6 
 11795      194150A9 
 11795      1E926806 
 11795      3D00
ARM GAS  /tmp/ccONvy4E.s 			page 349


 11796 0085 06682186 		.ascii	"\006h!\206\000\241\304Z\026|\270\211\326jY\260\351\301"
 11796      00A1C45A 
 11796      167CB889 
 11796      D66A59B0 
 11796      E9C1
 11797 0097 31070114 		.ascii	"1\007\001\024_0\300\222\262\225\024\035\226\"MNR\265"
 11797      5F30C092 
 11797      B295141D 
 11797      96224D4E 
 11797      52B5
 11798 00a9 87A7EEBD 		.ascii	"\207\247\356\275\331\315ZQL\230)\345)\305\212\356\342"
 11798      D9CD5A51 
 11798      4C9829E5 
 11798      29C58AEE 
 11798      E2
 11799 00ba 920F0153 		.ascii	"\222\017\001S\225\022 13\002DW$\201\221\372T\312\257"
 11799      95122031 
 11799      33024457 
 11799      248191FA 
 11799      54CAAF
 11800 00cd FE6F718B 		.ascii	"\376oq\213Sx_\316\353\376O\021l\272\231\347Ke&\341i"
 11800      53785FCE 
 11800      EBFE4F11 
 11800      6CBA99E7 
 11800      4B6526E1 
 11801 00e2 928A0106 		.ascii	"\222\212\001\006V\026?\322*aqS2\253\266\231#\361\310"
 11801      56163FD2 
 11801      2A617153 
 11801      32ABB699 
 11801      23F1C8
 11802 00f5 A29C62D7 		.ascii	"\242\234b\327\306'\313\256\214]\033\22548'[\213i\022"
 11802      C627CBAE 
 11802      8C5D1B95 
 11802      3438275B 
 11802      8B6912
 11803 0108 1AB383CD 		.ascii	"\032\263\203\315\266\213\225\312\020\021\273\017"
 11803      B68B95CA 
 11803      1011BB0F 
 11804              		.global	sp_013b
 11805              		.section	.rodata.sp_013b,"a"
 11806              		.align	2
 11807              		.type	sp_013b, %object
 11808              		.size	sp_013b, 283
 11809              	sp_013b:
 11810 0000 D0743D3A 		.ascii	"\320t=:\302\202\311\322B\211\216\016\315KI\321\263r"
 11810      C282C9D2 
 11810      42898E0E 
 11810      CD4B49D1 
 11810      B372
 11811 0012 E81C25D5 		.ascii	"\350\034%\325\364\216\222{\225#\207\222\225\221\254"
 11811      F48E927B 
 11811      95238792 
 11811      9591AC
 11812 0021 97E48775 		.ascii	"\227\344\207u9\271.R\212\026%n\247I^W\262\247\334\""
 11812      39B92E52 
 11812      8A16256E 
 11812      A7495E57 
ARM GAS  /tmp/ccONvy4E.s 			page 350


 11812      B2A7DC22 
 11813 0035 E8308D5D 		.ascii	"\3500\215]\314\262\030%\242\012\233^a\264\005\220L\212"
 11813      CCB21825 
 11813      A20A9B5E 
 11813      61B40590 
 11813      4C8A
 11814 0047 068AE26D 		.ascii	"\006\212\342mk\270b\035\222m\255f\246d\310\356\224E"
 11814      6BB8621D 
 11814      926DAD66 
 11814      A664C8EE 
 11814      9445
 11815 0059 2997A5F8 		.ascii	")\227\245\370U\356c\214\226\022\206G\205\323\031J,\032"
 11815      55EE638C 
 11815      96128647 
 11815      85D3194A 
 11815      2C1A
 11816 006b 19C62629 		.ascii	"\031\306&).\362x\207j\243\360\350o\234T\225JJ/\263:"
 11816      2EF27887 
 11816      6AA3F0E8 
 11816      6F9C5495 
 11816      4A4A2FB3 
 11817 0080 652AAA95 		.ascii	"e*\252\225j\241F\350\006\304\267\273\234\246O\315\224"
 11817      6AA146E8 
 11817      06C4B7BB 
 11817      9CA64FCD 
 11817      94
 11818 0091 BE7287DE 		.ascii	"\276r\207\336<S\366\322jZ\365H\223-+jT\007\001\024\235"
 11818      3C53F6D2 
 11818      6A5AF548 
 11818      932D2B6A 
 11818      54070114 
 11819 00a6 E08088DC 		.ascii	"\340\200\210\334\213\226\221\251I8)\232e\235\022M\247"
 11819      8B9691A9 
 11819      4938299A 
 11819      659D124D 
 11819      A7
 11820 00b7 29917A8D 		.ascii	")\221z\215\033\223\245D\255\231\333\212\206\322\003"
 11820      1B93A544 
 11820      AD99DB8A 
 11820      86D203
 11821 00c6 789DD11E 		.ascii	"x\235\321\036J\017\020[*\245+N\321\334\256\225\025\203"
 11821      4A0F105B 
 11821      2AA52B4E 
 11821      D1DCAE95 
 11821      1583
 11822 00d8 039A3568 		.ascii	"\003\2325hJ\224\222\335\302x\250V\333\224\263\352\243"
 11822      4A9492DD 
 11822      C278A856 
 11822      DB94B3EA 
 11822      A3
 11823 00e9 97281E6F 		.ascii	"\227(\036o\262\227\221\235xl1Jf\320\3421\2058\330Qj"
 11823      B297919D 
 11823      786C314A 
 11823      66D0E231 
 11823      8538D851 
 11824 00fe FA066964 		.ascii	"\372\006idS\343U\311\364\234\265\215\223\212\306\022"
 11824      53E355C9 
ARM GAS  /tmp/ccONvy4E.s 			page 351


 11824      F49CB58D 
 11824      938AC612 
 11825 010e 96671AD9 		.ascii	"\226g\032\331\211\230X\315\211Y\273\242\007"
 11825      899858CD 
 11825      8959BBA2 
 11825      07
 11826              		.global	sp_parNICE2
 11827              		.section	.rodata.sp_parNICE2,"a"
 11828              		.align	2
 11829              		.type	sp_parNICE2, %object
 11830              		.size	sp_parNICE2, 252
 11831              	sp_parNICE2:
 11832 0000 08C8DC0C 		.ascii	"\010\310\334\014\001\221\251\011uZ\025\223\220\253t"
 11832      0191A909 
 11832      755A1593 
 11832      90AB74
 11833 000f 4563DB4C 		.ascii	"Ec\333L\26224\365o58\306\260LoT\341\024\315E\367lc<"
 11833      B23234F5 
 11833      6F3538C6 
 11833      B04C6F54 
 11833      E114CD45 
 11834 0027 74D7C2A3 		.ascii	"t\327\302\243U\361\322C\017\313rEK\2135,+Y/5\307\360"
 11834      55F1D243 
 11834      0FCB7245 
 11834      4B8B352C 
 11834      2B592F35 
 11835 003d E864B594 		.ascii	"\350d\265\224\352-b]\341\220\212\223\250r9E\210Z\262"
 11835      EA2D625D 
 11835      E1908A93 
 11835      A8723945 
 11835      885AB2
 11836 0050 9AE5043E 		.ascii	"\232\345\004>)\261\230\226\255\200\032\223\031P\245"
 11836      29B19896 
 11836      AD801A93 
 11836      1950A5
 11837 005f 29018A0E 		.ascii	")\001\212\016\245\000\005(\300\001\001de\216\000\036"
 11837      A5000528 
 11837      C0010164 
 11837      658E001E 
 11838 006f 3B010000 		.ascii	";\001\000\000\200\000Q\207\020 \212p\002$\355\202\000"
 11838      80005187 
 11838      10208A70 
 11838      0224ED82 
 11838      00
 11839 0080 27C20910 		.ascii	"'\302\011\020\244\233\000\232I2b\027\252\256\341\324"
 11839      A49B009A 
 11839      49326217 
 11839      AAAEE1D4 
 11840 0090 29BCAC4B 		.ascii	")\274\254K\227\345\244\310\331\352\355J\232jV\253O\250"
 11840      97E5A4C8 
 11840      D9EAED4A 
 11840      9A6A56AB 
 11840      4FA8
 11841 00a2 1EAA1D63 		.ascii	"\036\252\035cV\311v\250\256NX\007\233\245\372\\\036"
 11841      56C976A8 
 11841      AE4E5807 
 11841      9BA5FA5C 
ARM GAS  /tmp/ccONvy4E.s 			page 352


 11841      1E
 11842 00b3 9D6C861A 		.ascii	"\235l\206\032|F\214+iZ\220\331\321*'i\211\353T\006\343"
 11842      7C468C2B 
 11842      695A90D9 
 11842      D12A2769 
 11842      89EB5406 
 11843 00c8 64642E55 		.ascii	"dd.U\343\254\223\231\205d\265\263\016V\022RU\306(XY"
 11843      E3AC9399 
 11843      8564B5B3 
 11843      0E561252 
 11843      55C62858 
 11844 00dd 7175196D 		.ascii	"qu\031mg\027%\272\356t\215\335<Z\273\3125v\246j\345"
 11844      671725BA 
 11844      EE748DDD 
 11844      3C5ABBCA 
 11844      3576A66A 
 11845 00f2 665BD989 		.ascii	"f[\331\211\252\227\206\034m?"
 11845      AA97861C 
 11845      6D3F
 11846              		.global	sp_parCONGRAT
 11847              		.section	.rodata.sp_parCONGRAT,"a"
 11848              		.align	2
 11849              		.type	sp_parCONGRAT, %object
 11850              		.size	sp_parCONGRAT, 254
 11851              	sp_parCONGRAT:
 11852 0000 49B15E3D 		.ascii	"I\261^=\"\251\024\325\006\213\314BR4c\275\323\002I\320"
 11852      22A914D5 
 11852      068BCC42 
 11852      523463BD 
 11852      D30249D0 
 11853 0014 94F1536A 		.ascii	"\224\361Sj\227N\343>\307)c!\000w\327\244\351\020\026"
 11853      974EE33E 
 11853      C7296321 
 11853      0077D7A4 
 11853      E91016
 11854 0027 96899BE6 		.ascii	"\226\211\233\346\032\227gI\031\252/\332\231#\373\250"
 11854      1A976749 
 11854      19AA2FDA 
 11854      9923FBA8 
 11855 0037 215956AE 		.ascii	"!YV\256\222\243\306h\221y\212\223\222\202\251O)Q\212"
 11855      92A3C668 
 11855      91798A93 
 11855      9282A94F 
 11855      29518A
 11856 004a E3E269E1 		.ascii	"\343\342i\341\324\001\203\263\005\345\216\0046m[\224"
 11856      D40183B3 
 11856      05E58E04 
 11856      366D5B94 
 11857 005a 6C383DDB 		.ascii	"l8=\333hQ\202\261\260\216\310E\215\306]\243c\027\305"
 11857      685182B1 
 11857      B08EC845 
 11857      8DC65DA3 
 11857      6317C5
 11858 006d EB348B93 		.ascii	"\3534\213\223\323\024g\323}G\351R\242\017\263.\305K"
 11858      D31467D3 
 11858      7D47E952 
 11858      A20FB32E 
ARM GAS  /tmp/ccONvy4E.s 			page 353


 11858      C54B
 11859 007f 49DECD37 		.ascii	"I\336\3157\224,9;u\277\224;\344b5\274[JQ\206b\333\010"
 11859      942C393B 
 11859      75BF943B 
 11859      E46235BC 
 11859      5B4A5186 
 11860 0096 D10138BD 		.ascii	"\321\0018\2754\000\177\254\007\340\257\322\000\3745"
 11860      34007FAC 
 11860      07E0AFD2 
 11860      00FC35
 11861 00a5 51F4BF7E 		.ascii	"Q\364\277~3TY\322\2730-\255\312\311\360\326\303\263"
 11861      335459D2 
 11861      BB302DAD 
 11861      CAC9F0D6 
 11861      C3B3
 11862 00b7 1905CB3A 		.ascii	"\031\005\313:O\213\244\343\354 \264\212\\\265\261\203"
 11862      4F8BA4E3 
 11862      EC20B48A 
 11862      5CB5B183 
 11863 00c7 D44D76C5 		.ascii	"\324Mv\305\306\215\302j0T\233\326I\335\342p\354z\317"
 11863      C68DC26A 
 11863      30549BD6 
 11863      49DDE270 
 11863      EC7ACF
 11864 00da 7586CD8D 		.ascii	"u\206\315\215*\"\227hu'B\237\326\304\324e\023\240\212"
 11864      2A229768 
 11864      7527429F 
 11864      D6C4D465 
 11864      13A08A
 11865 00ed 34047C95 		.ascii	"4\004|\225\206\200/C\021\360\205\005\002\276N\207\007"
 11865      86802F43 
 11865      11F08505 
 11865      02BE4E87 
 11865      07
 11866              		.global	sp_parALERT2
 11867              		.section	.rodata.sp_parALERT2,"a"
 11868              		.align	2
 11869              		.type	sp_parALERT2, %object
 11870              		.size	sp_parALERT2, 278
 11871              	sp_parALERT2:
 11872 0000 0888C4AD 		.ascii	"\010\210\304\255\351\316oZ\206\235\246[?\241U\362\212"
 11872      E9CE6F5A 
 11872      869DA65B 
 11872      3FA155F2 
 11872      8A
 11873 0011 A66D954C 		.ascii	"\246m\225L+\015\232\010\223\326\2438h\312v\310\214\342"
 11873      2B0D9A08 
 11873      93D6A338 
 11873      68CA76C8 
 11873      8CE2
 11874 0023 A45ADD2E 		.ascii	"\244Z\335.\371r\226\022T\207\3069YJ4i\356\035w\2511"
 11874      F9729612 
 11874      5487C639 
 11874      594A3469 
 11874      EE1D77A9 
 11875 0038 BBA44E9C 		.ascii	"\273\244N\234\2555#6\343\226\256\223\\\237(\333.\026"
 11875      AD352336 
ARM GAS  /tmp/ccONvy4E.s 			page 354


 11875      E396AE93 
 11875      5C9F28DB 
 11875      2E16
 11876 004a C39A5335 		.ascii	"\303\232S5/'\000\012h\324]\000\225\253\003\000\000\000"
 11876      2F27000A 
 11876      68D45D00 
 11876      95AB0300 
 11876      0000
 11877 005c 00000003 		.ascii	"\000\000\000\003\036eu\300\357\301\036\260\200\003\376"
 11877      1E6575C0 
 11877      EFC11EB0 
 11877      8003FE
 11878 006b 1C1E4A33 		.ascii	"\034\036J3\246fog)\305hX\277\223\245D\355\021\371N\212"
 11878      A6666F67 
 11878      29C56858 
 11878      BF93A544 
 11878      ED11F94E 
 11879 0080 1C9C87E5 		.ascii	"\034\234\207\345*\001`@\006n\002\330\302\215\001\337"
 11879      2A016040 
 11879      066E02D8 
 11879      C28D01DF 
 11880 0090 24738000 		.ascii	"$s\200\000\337\230\" 0U(JN\231\222\355:)\336E\331&\023"
 11880      DF982220 
 11880      3055284A 
 11880      4E9992ED 
 11880      3A29DE45 
 11881 00a7 0110BF65 		.ascii	"\001\020\277e\200\310\315\025\020\260\233\001\252pK"
 11881      80C8CD15 
 11881      10B09B01 
 11881      AA704B
 11882 00b6 CA4E6E69 		.ascii	"\312Nniii\250!z\306$\223\245\305\030\236\225\366\226"
 11882      6969A821 
 11882      7AC62493 
 11882      A5C5189E 
 11882      95F696
 11883 00c9 96627865 		.ascii	"\226bxe\332\033ZJ\032Y-\327i-\221\204\245TP@\226\346"
 11883      DA1B5A4A 
 11883      1A592DD7 
 11883      692D9184 
 11883      A5545040 
 11884 00df 0268863D 		.ascii	"\002h\206=\031-\012G\254\234b\265\244R1t\202U\002\307"
 11884      192D0A47 
 11884      AC9C62B5 
 11884      A4523174 
 11884      825502C7 
 11885 00f3 84D33376 		.ascii	"\204\3233vv\024\357\312\324\330^y'\273\033e\005\241"
 11885      7614EFCA 
 11885      D4D85E79 
 11885      27BB1B65 
 11885      05A1
 11886 0105 5DEC4A95 		.ascii	"]\354J\225\2254\267\263\251\025V\246\252\251\352\366"
 11886      9534B7B3 
 11886      A91556A6 
 11886      AAA9EAF6 
 11887 0115 01       		.ascii	"\001"
 11888              		.global	sp_parALERT1
 11889              		.section	.rodata.sp_parALERT1,"a"
ARM GAS  /tmp/ccONvy4E.s 			page 355


 11890              		.align	2
 11891              		.type	sp_parALERT1, %object
 11892              		.size	sp_parALERT1, 460
 11893              	sp_parALERT1:
 11894 0000 43F77E52 		.ascii	"C\367~R\262\3304M\207-\351f\2344^\332lBM\320X\031\267"
 11894      B2D8344D 
 11894      872DE966 
 11894      9C345EDA 
 11894      6C424DD0 
 11895 0017 4D2941E3 		.ascii	"M)A\343y\334:$'\215\2476\353\242\275T\243:%[\321R\275"
 11895      79DC3A24 
 11895      278DA736 
 11895      EBA2BD54 
 11895      A33A255B 
 11896 002e EED03825 		.ascii	"\356\3208%K\365.\335c\344\014\325\007\367\264\261\335"
 11896      4BF52EDD 
 11896      63E40CD5 
 11896      07F7B4B1 
 11896      DD
 11897 003f 349FD5CB 		.ascii	"4\237\325\313Gr1B\021o\035\333\315\214\205#mm\003\000"
 11897      47723142 
 11897      116F1DDB 
 11897      CD8C8523 
 11897      6D6D0300 
 11898 0053 02125377 		.ascii	"\002\022Sw@f\236\002\250L\025\000\000\000\000\000\000"
 11898      40669E02 
 11898      A84C1500 
 11898      00000000 
 11898      00
 11899 0064 1090B919 		.ascii	"\020\220\271\031\000\300\320\213\265\310u9\313(^=\267"
 11899      00C0D08B 
 11899      B5C87539 
 11899      CB285E3D 
 11899      B7
 11900 0075 192F3D69 		.ascii	"\031/=i\315l\227\273\264h\244jL\311R\275\325\314u;K"
 11900      CD6C97BB 
 11900      B468A46A 
 11900      4CC952BD 
 11900      D5CC753B 
 11901 008a 75D6C32F 		.ascii	"u\326\303/\354\014E\273\214\330\222=\024\247\243\254"
 11901      EC0C45BB 
 11901      8CD8923D 
 11901      14A7A3AC 
 11902 009a 5BF650A2 		.ascii	"[\366P\242q\227kZC.F\335\266\030-\271\0321\257\2225"
 11902      71976B5A 
 11902      432E46DD 
 11902      B6182DB9 
 11902      1A31AF92 
 11903 00af E4E6D87C 		.ascii	"\344\346\330|\212\366R\212\021\317)\332K\311F#'\350"
 11903      8AF6528A 
 11903      11CF29DA 
 11903      4BC94623 
 11903      27E8
 11904 00c1 2C256ACB 		.ascii	",%j\313l\243\235\024+\354S\224uR\214\364wa\327IQ\306"
 11904      6CA39D14 
 11904      2BEC5394 
 11904      75528CF4 
ARM GAS  /tmp/ccONvy4E.s 			page 356


 11904      7761D749 
 11905 00d7 5F595D25 		.ascii	"_Y]%E\230\356$\225c\024\311\262\333\3155\004 47\007"
 11905      4598EE24 
 11905      956314C9 
 11905      B2DBCD35 
 11905      04203437 
 11906 00ec F8626E80 		.ascii	"\370bn\200XS\212\222lS\206XZ\232-Ve-\347h.F\247\017"
 11906      58538A92 
 11906      6C538658 
 11906      5A9A2D56 
 11906      652DE768 
 11907 0104 DBA3BB18 		.ascii	"\333\243\273\030\025Yl\217\356CTd1;\272\217\231\351"
 11907      15596C8F 
 11907      EE435464 
 11907      313BBA8F 
 11907      99E9
 11908 0116 CDEC682E 		.ascii	"\315\354h.f\205\017\323\241y\037\353VH\010\300\211\207"
 11908      66850FD3 
 11908      A1791FEB 
 11908      564808C0 
 11908      8987
 11909 0128 02321756 		.ascii	"\0022\027V@6$\340\200,\314\031\300J\025\0008\300i\317"
 11909      403624E0 
 11909      802CCC19 
 11909      C04A1500 
 11909      38C069CF 
 11910 013c A1071B59 		.ascii	"\241\007\033Y\353\214\233\036\264g\2143vf\240\232eK"
 11910      EB8C9B1E 
 11910      B4678C33 
 11910      7666A09A 
 11910      654B
 11911 014e CB995170 		.ascii	"\313\231QpF\246ecz%\2329\222\215\025\244hDEVV\346\242"
 11911      46A66563 
 11911      7A259A39 
 11911      928D15A4 
 11911      68444556 
 11912 0165 E1E65A19 		.ascii	"\341\346Z\031\205\263\206\206\323fD\253\031Y\214\227"
 11912      85B38686 
 11912      D36644AB 
 11912      19598C97 
 11913 0175 E14D4C4E 		.ascii	"\341MLN1>z2QY\301z\351\301GT9\353\241\273\030Q\031h"
 11913      313E7A32 
 11913      5159C17A 
 11913      E9C14754 
 11913      39EBA1BB 
 11914 018d 8A6E7CB5 		.ascii	"\212n|\265\205\261\016\272\221\376&\236\330\350\232"
 11914      85B10EBA 
 11914      91FE269E 
 11914      D8E89A
 11915 019c F98E1A15 		.ascii	"\371\216\032\025\006D]F\200\310\325\004\320\264\233"
 11915      06445D46 
 11915      80C8D504 
 11915      D0B49B
 11916 01ab 00B27257 		.ascii	"\000\262rW@\262\341I\264&*\303\031\0253:\213(GR\352"
 11916      40B2E149 
 11916      B4262AC3 
 11916      1915333A 
ARM GAS  /tmp/ccONvy4E.s 			page 357


 11916      8B284752 
 11917 01c0 E434CA0D 		.ascii	"\3444\312\015I\252\263\221lS\264\017"
 11917      49AAB391 
 11917      6C53B40F 
 11918              		.global	sp_parASTEROID
 11919              		.section	.rodata.sp_parASTEROID,"a"
 11920              		.align	2
 11921              		.type	sp_parASTEROID, %object
 11922              		.size	sp_parASTEROID, 328
 11923              	sp_parASTEROID:
 11924 0000 0E0821C5 		.ascii	"\016\010!\305\003E\212fBUm\015\331\354\324\362\262\275"
 11924      03458A66 
 11924      42556D0D 
 11924      D9ECD4F2 
 11924      B2BD
 11925 0012 14BBD222 		.ascii	"\024\273\322\"\"\361R\354\210H\033\273M1%\255=\245\026"
 11925      22F152EC 
 11925      88481BBB 
 11925      4D3125AD 
 11925      3DA516
 11926 0025 753855D5 		.ascii	"u8U\325\010\025\200\327S\022\360\326y\004\"\020\200"
 11926      081580D7 
 11926      5312F0D6 
 11926      79042210 
 11926      80
 11927 0036 DB834A11 		.ascii	"\333\203J\021\245Gx\233+eP\021\031-5T^F\244\206\324"
 11927      A547789B 
 11927      2B655011 
 11927      192D3554 
 11927      5E46A486 
 11928 004b 58F9DA57 		.ascii	"X\371\332W\252\366\324\252-\030\253*0\216\264tB\200"
 11928      AAF6D4AA 
 11928      2D18AB2A 
 11928      308EB474 
 11928      4280
 11929 005d 28D30000 		.ascii	"(\323\000\000\000\000\000\000\000`h%gx\226\334\243\305"
 11929      00000000 
 11929      00606825 
 11929      677896DC 
 11929      A3C5
 11930 006f 14595D4C 		.ascii	"\024Y]L\227\346Z\344\204\332\031\252m\336\025\242n\250"
 11930      97E65AE4 
 11930      84DA19AA 
 11930      6DDE15A2 
 11930      6EA8
 11931 0081 B66464B9 		.ascii	"\266dd\271\274\242z\025\243\352L\004\360\231;\003>\013"
 11931      BCA27A15 
 11931      A3EA4C04 
 11931      F0993B03 
 11931      3E0B
 11932 0093 63C01761 		.ascii	"c\300\027a\240\200\353B\025\320\263\230\001zo5@\231"
 11932      A080EB42 
 11932      15D0B398 
 11932      017A6F35 
 11932      4099
 11933 00a5 CE4977C5 		.ascii	"\316Iw\305\325,]'\335t5\017\315\234t;$]<S\321m\2634"
 11933      D52C5D27 
ARM GAS  /tmp/ccONvy4E.s 			page 358


 11933      DD74350F 
 11933      CD9C743B 
 11933      245D3C53 
 11934 00bd B3C6CD30 		.ascii	"\263\306\31509\323,\2534\303\344,\263\267\323L\033\323"
 11934      39D32CAB 
 11934      34C3E42C 
 11934      B3B7D34C 
 11934      1BD3
 11935 00cf C34EEE30 		.ascii	"\303N\3560c\260\360x\271\315\214F3s\031\0073kU\257\245"
 11935      63B0F078 
 11935      B9CD8C46 
 11935      33731907 
 11935      336B55AF 
 11936 00e4 23EC42C5 		.ascii	"#\354B\305JK53\013c\015k5\301\234\305\334\302\2240\253"
 11936      4A4B3533 
 11936      0B630D6B 
 11936      35C19CC5 
 11936      DCC29430 
 11937 00f9 7011D772 		.ascii	"p\021\327r\012\014p\316\274\230\306g\224\217\264f\272"
 11937      0A0C70CE 
 11937      BC98C667 
 11937      948FB466 
 11937      BA
 11938 010a 18E55574 		.ascii	"\030\345Ut\233eK\206W\321-\266me^%'\331\246\215i\247"
 11938      9B654B86 
 11938      57D12DB6 
 11938      6D655E25 
 11938      27D9A68D 
 11939 0120 ADE0E836 		.ascii	"\255\340\3506&\235\266\234\243\362\232D\305R\216v\223"
 11939      269DB69C 
 11939      A3F29A44 
 11939      C5528E76 
 11939      93
 11940 0131 C6951840 		.ascii	"\306\225\030@\000_\2473\340\263*\003d_.\000\247+\021"
 11940      005FA733 
 11940      E0B32A03 
 11940      645F2E00 
 11940      A72B11
 11941 0144 1064DA03 		.ascii	"\020d\332\003"
 11942              		.global	sp_parEXTRA
 11943              		.section	.rodata.sp_parEXTRA,"a"
 11944              		.align	2
 11945              		.type	sp_parEXTRA, %object
 11946              		.size	sp_parEXTRA, 137
 11947              	sp_parEXTRA:
 11948 0000 4B8B413A 		.ascii	"K\213A:F\024M\265\253EI\236\252\243\2318\255\014\017"
 11948      46144DB5 
 11948      AB45499E 
 11948      AAA39938 
 11948      AD0C0F
 11949 0013 4F53020A 		.ascii	"OS\002\012\250\251T\000\325\272\010\240\353T\001Lc\312"
 11949      A8A95400 
 11949      D5BA08A0 
 11949      EB54014C 
 11949      63CA
 11950 0025 80414915 		.ascii	"\200AI\025\220\273\205\003zkK\222M\232\021\021\265)"
 11950      90BB8503 
ARM GAS  /tmp/ccONvy4E.s 			page 359


 11950      7A6B4B92 
 11950      4D9A1111 
 11950      B529
 11951 0037 3A7974A6 		.ascii	":yt\246\264\246\330\350\025\321\364\232b\262\371\206"
 11951      B4A6D8E8 
 11951      15D1F49A 
 11951      62B2F986 
 11952 0047 C92B8A93 		.ascii	"\311+\212\223>\031i&\001\313+\006\340\255\365\000\374"
 11952      3E196926 
 11952      01CB2B06 
 11952      E0ADF500 
 11952      FC
 11953 0058 B11E80DF 		.ascii	"\261\036\200\337\306\034\360\307\250\003nou\200#^C\011"
 11953      C61CF0C7 
 11953      A8036E6F 
 11953      7580235E 
 11953      4309
 11954 006a DA2AFA94 		.ascii	"\332*\372\224\034\255x\013\213S\274\314d=\322^I2\255"
 11954      1CAD780B 
 11954      8B53BCCC 
 11954      643DD25E 
 11954      4932AD
 11955 007d 7733563B 		.ascii	"w3V;\000\002\340f\032\003\030x"
 11955      0002E066 
 11955      1A031878 
 11956              		.global	sp_parFUEL
 11957              		.section	.rodata.sp_parFUEL,"a"
 11958              		.align	2
 11959              		.type	sp_parFUEL, %object
 11960              		.size	sp_parFUEL, 359
 11961              	sp_parFUEL:
 11962 0000 06F8DAC3 		.ascii	"\006\370\332\303\002\036h\222\011\031\226\305dHzT\246"
 11962      021E6892 
 11962      091996C5 
 11962      64487A54 
 11962      A6
 11963 0011 35DC259B 		.ascii	"5\334%\233\336\221\266v\227bVF\372\332\035\212\031Q"
 11963      DE91B676 
 11963      97625646 
 11963      FADA1D8A 
 11963      1951
 11964 0023 E1636DA8 		.ascii	"\341cm\250\266z\273\217\225\246\331j\025\031Q\233\356"
 11964      B67ABB8F 
 11964      95A6D96A 
 11964      1519519B 
 11964      EE
 11965 0034 B3466494 		.ascii	"\263Fd\224\031FL\032\236ce\0309\250g\214\225fT\247\226"
 11965      19464C1A 
 11965      9E636518 
 11965      39A8678C 
 11965      956654A7 
 11966 0049 39728A51 		.ascii	"9r\212Q\214xv1)z\222\352S\315$hQJ\367\004m\253\011\255"
 11966      8C787631 
 11966      297A92EA 
 11966      53CD2468 
 11966      514AF704 
 11967 0061 2AE28C52 		.ascii	"*\342\214R\003\000\000\000\000\000\000\000\004\220,"
ARM GAS  /tmp/ccONvy4E.s 			page 360


 11967      03000000 
 11967      00000000 
 11967      04902C
 11968 0070 C6195DB0 		.ascii	"\306\031]\260F\217\354\2447\305\032]V\212\226\275pV"
 11968      468FECA4 
 11968      37C51A5D 
 11968      568A96BD 
 11968      7056
 11969 0082 99299AB3 		.ascii	"\231)\232\263n\345]\265h\326E\272t\275\242\332\222)"
 11969      6EE55DB5 
 11969      68D645BA 
 11969      74BDA2DA 
 11969      9229
 11970 0094 72758B66 		.ascii	"ru\213fj\226\350\273n\272m\025No\247\030\372\204\205"
 11970      6A96E8BB 
 11970      6EBA6D15 
 11970      4E6FA718 
 11970      FA8485
 11971 00a7 8E9462E8 		.ascii	"\216\224b\350\025\021\226r\212a\206eiZ-\246o\026eQ\265"
 11971      15119672 
 11971      8A618665 
 11971      695A2DA6 
 11971      6F166551 
 11972 00bc 98A1BAA7 		.ascii	"\230\241\272\247e\224f\371\342Y\336V\246\331\014\273"
 11972      659466F9 
 11972      E259DE56 
 11972      A6D90CBB 
 11973 00cc 3C2A5CEE 		.ascii	"<*\\\356\320\335\014\217t\271Cw\245,\255\345\015\315"
 11973      D0DD0C8F 
 11973      74B94377 
 11973      A52CADE5 
 11973      0DCD
 11974 00de 87F2F4B3 		.ascii	"\207\362\364\2637\364h\323\325K63\272\024\016M'\012"
 11974      37F468D3 
 11974      D54B3633 
 11974      BA140E4D 
 11974      270A
 11975 00f0 C8A82238 		.ascii	"\310\250\"8\301\205[\217\222dE\023a\376\212\223am\266"
 11975      C1855B8F 
 11975      92644513 
 11975      61FE8A93 
 11975      616DB6
 11976 0103 65D10EBA 		.ascii	"e\321\016\2723\346\356M\331\350\315\251\012\245\022"
 11976      33E6EE4D 
 11976      D9E8CDA9 
 11976      0AA512
 11977 0112 104095A1 		.ascii	"\020@\225\241\006X)\304\00038)\340Xe\247l/\030\332N"
 11977      065829C4 
 11977      00333829 
 11977      E05865A7 
 11977      6C2F18DA 
 11978 0127 9256147B 		.ascii	"\222V\024{v\233NZ0\032\225S&\351\332f\246U\225`\230"
 11978      769B4E5A 
 11978      301A9553 
 11978      26E9DA66 
 11978      A6559560 
 11979 013c 98213C55 		.ascii	"\230!<U\202\251k\231\350Fq\266\352\255\352\033\3339"
ARM GAS  /tmp/ccONvy4E.s 			page 361


 11979      82A96B99 
 11979      E84671B6 
 11979      EAADEA1B 
 11979      DB39
 11980 014e 3A8FB3AE 		.ascii	":\217\263\256c\343\2504!V\251\214\243\374\246r\306V"
 11980      63E3A834 
 11980      2156A98C 
 11980      A3FCA672 
 11980      C656
 11981 0160 B6B653C6 		.ascii	"\266\266S\306\341\346\001"
 11981      E1E601
 11982              		.global	sp_parLASER
 11983              		.section	.rodata.sp_parLASER,"a"
 11984              		.align	2
 11985              		.type	sp_parLASER, %object
 11986              		.size	sp_parLASER, 280
 11987              	sp_parLASER:
 11988 0000 CE90AABA 		.ascii	"\316\220\252\272\246e\007C\253\264\336\224\342u\257"
 11988      A6650743 
 11988      ABB4DE94 
 11988      E275AF
 11989 000f 17DD98CC 		.ascii	"\027\335\230\314\332`\334t\357\274\263U\321\324\207"
 11989      DA60DC74 
 11989      EFBCB355 
 11989      D1D487
 11990 001e 96AD864F 		.ascii	"\226\255\206O\330\031Z\326Rq\341\244\251II\327\226\235"
 11990      D8195AD6 
 11990      5271E1A4 
 11990      A94949D7 
 11990      969D
 11991 0030 A6142319 		.ascii	"\246\024#\031W\262\235\262\363\270`1V\300\327\306\032"
 11991      57B29DB2 
 11991      F3B86031 
 11991      56C0D7C6 
 11991      1A
 11992 0041 908000BE 		.ascii	"\220\200\000\2760O\312J\025a!GI\203t\212\206\235\"\006"
 11992      304FCA4A 
 11992      15612147 
 11992      4983748A 
 11992      869D2206 
 11993 0055 6BE1174A 		.ascii	"k\341\027J\212\030\275\246\355\322+\242\217\232\225"
 11993      8A18BDA6 
 11993      EDD22BA2 
 11993      8F9A95
 11994 0064 2D27892E 		.ascii	"-'\211.IU\224\235$\332\2449^V\202\250\263U{J6\222\367"
 11994      4955949D 
 11994      24DAA439 
 11994      5E5682A8 
 11994      B3557B4A 
 11995 007b CE1E151B 		.ascii	"\316\036\025\033\000\000\000\000\000\000\000 \031\301"
 11995      00000000 
 11995      00000020 
 11995      19C1
 11996 0089 472B6F9C 		.ascii	"G+o\234\244\233\022\256\266\266\223\256r\206\332\332"
 11996      A49B12AE 
 11996      B6B693AE 
 11996      7286DADA 
ARM GAS  /tmp/ccONvy4E.s 			page 362


 11997 0099 76BAF699 		.ascii	"v\272\366\231\312\025\333\030I\271\231\232Sc4\355\242"
 11997      CA15DB18 
 11997      49B9999A 
 11997      536334ED 
 11997      A2
 11998 00aa EC8A8D9E 		.ascii	"\354\212\215\236\224k\270\272\016\232+\306m\351&i\276"
 11998      946BB8BA 
 11998      0E9A2BC6 
 11998      6DE92669 
 11998      BE
 11999 00bb B1B57492 		.ascii	"\261\265t\222\244\331$6\321\216\235\026\014gEK6\372"
 11999      A4D92436 
 11999      D18E9D16 
 11999      0C67454B 
 11999      36FA
 12000 00cd 1C2ACAED 		.ascii	"\034*\312\355H\0013\260i\300\250C\223X\246k\247\026"
 12000      480133B0 
 12000      69C0A843 
 12000      9358A66B 
 12000      A716
 12001 00df C631E58C 		.ascii	"\3061\345\214\234\326$[m04z\225d5%\223Y3\204\252\270"
 12001      9CD6245B 
 12001      6D30347A 
 12001      95643525 
 12001      93593384 
 12002 00f5 5D000514 		.ascii	"]\000\005\024\353\316\200*\315\214\352\265fN3qvT\226"
 12002      EBCE802A 
 12002      CD8CEAB5 
 12002      664E3371 
 12002      765496
 12003 0108 5147DB38 		.ascii	"QG\3338^\271g\017m\345f\241\0266\211\037"
 12003      5EB9670F 
 12003      6DE566A1 
 12003      1636891F 
 12004              		.global	sp_parREFUEL
 12005              		.section	.rodata.sp_parREFUEL,"a"
 12006              		.align	2
 12007              		.type	sp_parREFUEL, %object
 12008              		.size	sp_parREFUEL, 366
 12009              	sp_parREFUEL:
 12010 0000 49E3B343 		.ascii	"I\343\263C\345\342\026U\216v\341\235;T\275:\004;\336"
 12010      E5E21655 
 12010      8E76E19D 
 12010      3B54BD3A 
 12010      043BDE
 12011 0013 50ECF454 		.ascii	"P\354\364TY\273K\361\335\"x\254,%T\361\324\262\323T"
 12011      59BB4BF1 
 12011      DD2278AC 
 12011      2C2554F1 
 12011      D4B2D354 
 12012 0027 6F25BDCC 		.ascii	"o%\275\314\212\323x\310Q\036\233A\327<\247\324\225$"
 12012      8AD378C8 
 12012      511E9B41 
 12012      D73CA7D4 
 12012      9524
 12013 0039 C36BCB2C 		.ascii	"\303k\313,G\222\314\244,+\014I0\243\226,W\264\316\312"
 12013      4792CCA4 
ARM GAS  /tmp/ccONvy4E.s 			page 363


 12013      2C2B0C49 
 12013      30A3962C 
 12013      57B4CECA 
 12014 004d 86AA4CB8 		.ascii	"\206\252L\270\030\3133\317\024U\254mmkK\232\000\000"
 12014      18CB33CF 
 12014      1455AC6D 
 12014      6D6B4B9A 
 12014      0000
 12015 005f 00000000 		.ascii	"\000\000\000\000\000\000\000\000 \200\310\303\003`\244"
 12015      00000000 
 12015      2080C8C3 
 12015      0360A4
 12016 006e 5A00ACEE 		.ascii	"Z\000\254\356,\232\031i\345\246dhn\204U\206\234\245"
 12016      2C9A1969 
 12016      E5A66468 
 12016      6E845586 
 12016      9CA5
 12017 0080 F9915A15 		.ascii	"\371\221Z\025v\216\026JYe\3109Z\314i\225\311\344\250"
 12017      768E164A 
 12017      5965C839 
 12017      5ACC6995 
 12017      C9E4A8
 12018 0093 39844515 		.ascii	"9\204E\025\343\245f\027\026Y\214\207\222\202\231g\321"
 12018      E3A56617 
 12018      16598C87 
 12018      92829967 
 12018      D1
 12019 00a4 49AAB19E 		.ascii	"I\252\261\236ne\333)J\333\224\230%\247\010\235\223*"
 12019      6E65DB29 
 12019      4ADB9498 
 12019      25A7089D 
 12019      932A
 12020 00b6 B68DC26C 		.ascii	"\266\215\302l\257\252:V\012\027um&W\250\215\013\247"
 12020      AFAA3A56 
 12020      0A17756D 
 12020      2657A88D 
 12020      0BA7
 12021 00c8 A5676080 		.ascii	"\245g`\200!\256\016\260\3268H\247^\004I*'\005#Q\321"
 12021      21AE0EB0 
 12021      D63848A7 
 12021      5E04492A 
 12021      27052351 
 12022 00dd 81B39A34 		.ascii	"\201\263\2324\347\324\262\262L\320\2547\013\257\330"
 12022      E7D4B2B2 
 12022      4CD0AC37 
 12022      0BAFD8
 12023 00ec 4E37C1D4 		.ascii	"N7\301\324\275c\007\335z\323\314\250]\264\024Y\263:"
 12023      BD6307DD 
 12023      7AD3CCA8 
 12023      5DB41459 
 12023      B33A
 12024 00fe 4CD78AD6 		.ascii	"L\327\212\326<K\344YNZ1,\235-:\350\275\0063\264\023"
 12024      3C4BE459 
 12024      4E5A312C 
 12024      9D2D3AE8 
 12024      BD0633B4 
 12025 0113 03B492A2 		.ascii	"\003\264\222\242\200V\024\005\320\262\263\002z\0111"
ARM GAS  /tmp/ccONvy4E.s 			page 364


 12025      80561405 
 12025      D0B2B302 
 12025      7A0931
 12026 0122 C0C84E06 		.ascii	"\300\310N\006\230\305)\310\315\223Z\\\354\242\226\310"
 12026      98C529C8 
 12026      CD935A5C 
 12026      ECA296C8 
 12027 0132 EA316192 		.ascii	"\3521a\222\352\254yz\225\015\232\362\321!]\305i\"W\252"
 12027      EAAC797A 
 12027      950D9AF2 
 12027      D1215DC5 
 12027      692257AA 
 12028 0146 6CDD60A8 		.ascii	"l\335`\250P\245T\325\234)\363\270\362\304q\266LS\302"
 12028      50A554D5 
 12028      9C29F3B8 
 12028      F2C471B6 
 12028      4C53C2
 12029 0159 13C739AA 		.ascii	"\023\3079\252\216\263\254c\343\250\262&\222I\224#\343"
 12029      8EB3AC63 
 12029      E3A8B226 
 12029      92499423 
 12029      E3
 12030 016a 8672A47E 		.ascii	"\206r\244~"
 12031              		.global	sp_parTARGET
 12032              		.section	.rodata.sp_parTARGET,"a"
 12033              		.align	2
 12034              		.type	sp_parTARGET, %object
 12035              		.size	sp_parTARGET, 251
 12036              	sp_parTARGET:
 12037 0000 C6703AD2 		.ascii	"\306p:\3223TG#\032C\013\326;[\025-\315;\357lU\264\264"
 12037      33544723 
 12037      1A430BD6 
 12037      3B5B152D 
 12037      CD3BEF6C 
 12038 0017 A8356A5E 		.ascii	"\2505j^\325V\207R\234\232\327\253lJ\216\252R'+(\303"
 12038      D5568752 
 12038      9C9AD7AB 
 12038      6C4A8EAA 
 12038      52272B28 
 12039 002c 0B673663 		.ascii	"\013g6c\241nf\3542N\205\372c\207H\312IR\324\352\232"
 12039      A16E66EC 
 12039      324E85FA 
 12039      638748CA 
 12039      4952D4EA 
 12040 0041 A56488C9 		.ascii	"\245d\210\311\231[\267\234!&o\3469\326\232\350\243\372"
 12040      995BB79C 
 12040      21266FE6 
 12040      39D69AE8 
 12040      A3FA
 12041 0053 44C6E962 		.ascii	"D\306\351b\023]\226,\233\330]*\222\317\232a\023\307"
 12041      135D962C 
 12041      9BD85D2A 
 12041      92CF9A61 
 12041      13C7
 12042 0065 3936F994 		.ascii	"96\371\224~+\000\001\270\036\335t;2C\332v\323\355\214"
 12042      7E2B0001 
 12042      B81EDD74 
ARM GAS  /tmp/ccONvy4E.s 			page 365


 12042      3B3243DA 
 12042      76D3ED8C 
 12043 0079 702D3B43 		.ascii	"p-;C\267-#-\345\016\315\247\214\210b\3224\027#lLu\320"
 12043      B72D232D 
 12043      E50ECDA7 
 12043      8C8862D2 
 12043      3417236C 
 12044 0090 2D8F17F3 		.ascii	"-\217\027\363\224Q\363\232\322\024\217\01355\340\200"
 12044      9451F39A 
 12044      D2148F0B 
 12044      3535E080 
 12045 00a0 2A321D50 		.ascii	"*2\035P\245\247\003\272(/JQ\341\305j\273i\266y\205\214"
 12045      A5A703BA 
 12045      282F4A51 
 12045      E1C56ABB 
 12045      69B67985 
 12046 00b5 DDA6D9E6 		.ascii	"\335\246\331\346\231R\366\232\356\252eK\307mzh\352\245"
 12046      9952F69A 
 12046      EEAA654B 
 12046      C76D7A68 
 12046      EAA5
 12047 00c7 6B25E9B9 		.ascii	"k%\351\271\012\027\237#aun\024\226j\005P<srJb\365:\305"
 12047      0A179F23 
 12047      61756E14 
 12047      966A0550 
 12047      3C73724A 
 12048 00df C14D46D2 		.ascii	"\301MF\322\347\024\205\314\353\250\234fl\352`\203kV"
 12048      E71485CC 
 12048      EBA89C66 
 12048      6CEA6083 
 12048      6B56
 12049 00f1 36021233 		.ascii	"6\002\0223\007`@b\356\017"
 12049      07604062 
 12049      EE0F
 12050              		.global	sp_parENEMY
 12051              		.section	.rodata.sp_parENEMY,"a"
 12052              		.align	2
 12053              		.type	sp_parENEMY, %object
 12054              		.size	sp_parENEMY, 265
 12055              	sp_parENEMY:
 12056 0000 4BCBD623 		.ascii	"K\313\326#*\231,\315\233\254He=4o3\242\225UR\265\366"
 12056      2A992CCD 
 12056      9BAC4865 
 12056      3D346F33 
 12056      A2955552 
 12057 0016 484FBA4D 		.ascii	"HO\272M\011\312\245\254\221,9[\327\310b\275\344\354"
 12057      09CAA5AC 
 12057      912C395B 
 12057      D7C862BD 
 12057      E4EC
 12058 0028 CC3D4A4E 		.ascii	"\314=JN\222\255\226\016\211\350AV\332\326%\343\007Y"
 12058      92AD960E 
 12058      89E84156 
 12058      DAD625E3 
 12058      0759
 12059 003a E8E810AF 		.ascii	"\350\350\020\257\337\244l\305\262Bn\223\252f\317\021"
 12059      DFA46CC5 
ARM GAS  /tmp/ccONvy4E.s 			page 366


 12059      B2426E93 
 12059      AA66CF11 
 12060 004a B94DEA9A 		.ascii	"\271M\352\232-\307i\027\251k\362\032\243]\244\246\311"
 12060      2DC76917 
 12060      A96BF21A 
 12060      A35DA4A6 
 12060      C9
 12061 005b BB8D7192 		.ascii	"\273\215q\222\232\"\2372:Ij\206|Z\221\0049\013\252\011"
 12061      9A229F32 
 12061      3A496A86 
 12061      7C5A9104 
 12061      390BAA09 
 12062 006f 61A6E42A 		.ascii	"a\246\344*\321rJ-\000\000\000(\240\0117\243Y\351\357"
 12062      D1724A2D 
 12062      00000028 
 12062      A00937A3 
 12062      59E9EF
 12063 0082 55B2A3E6 		.ascii	"U\262\243\3464\245\252\313\213\266\002\032\025\227\200"
 12063      34A5AACB 
 12063      8BB6021A 
 12063      159780
 12064 0091 000A0B35 		.ascii	"\000\012\0135\300P\031\006X\322\325\000\313\007\003"
 12064      C0501906 
 12064      58D2D500 
 12064      CB0703
 12065 00a0 18E0F790 		.ascii	"\030\340\367\220\242\332\254\341\351m\232j\272\206\247"
 12065      A2DAACE1 
 12065      E96D9A6A 
 12065      BA86A7
 12066 00af D569AA69 		.ascii	"\325i\252i\021\026^\265i\246d\251v\330\246\231\222-"
 12066      11165EB5 
 12066      69A664A9 
 12066      76D8A699 
 12066      922D
 12067 00c1 7E569AAE 		.ascii	"~V\232\256k\226\372)n\206\315\221\346+\247Y!x\271\255"
 12067      6B96FA29 
 12067      6E86CD91 
 12067      E62BA759 
 12067      2178B9AD 
 12068 00d5 9C62476F 		.ascii	"\234bGo\0211t\212\235\234z\346\322IvTZ\325C;\330I\230"
 12068      1131748A 
 12068      9D9C7AE6 
 12068      D2497654 
 12068      5AD5433B 
 12069 00ec 569C6462 		.ascii	"V\234dbg.\236\026v\220]\204HX81\366\014f\311\241T\331"
 12069      672E9E16 
 12069      76905D84 
 12069      48583831 
 12069      F60C66C9 
 12070 0103 B3B92BA5 		.ascii	"\263\271+\245\335\007"
 12070      DD07
 12071              		.global	sp_parGREAT
 12072              		.section	.rodata.sp_parGREAT,"a"
 12073              		.align	2
 12074              		.type	sp_parGREAT, %object
 12075              		.size	sp_parGREAT, 189
 12076              	sp_parGREAT:
ARM GAS  /tmp/ccONvy4E.s 			page 367


 12077 0000 4D7399C6 		.ascii	"Ms\231\306\263\235--\025N\313\221s\324\232U=\306\316"
 12077      B39D2D2D 
 12077      154ECB91 
 12077      73D49A55 
 12077      3DC6CE
 12078 0013 51AB15CF 		.ascii	"Q\253\025\317i'K\236I\331\253e7i\025\025\255Rl\264\246"
 12078      69274B9E 
 12078      49D9AB65 
 12078      37691515 
 12078      AD526CB4 
 12079 0028 543A8B09 		.ascii	"T:\213\011\000(\240\220H\002x\256\011\300\200nT\024"
 12079      0028A090 
 12079      480278AE 
 12079      09C0806E 
 12079      5414
 12080 003a F0FBA907 		.ascii	"\360\373\251\007<\020\001\007\334\232\274\004\347\263"
 12080      3C100107 
 12080      DC9ABC04 
 12080      E7B3
 12081 0048 2C53C912 		.ascii	",S\311\022}\356r;\266W\336\352\324\014\240W\270\000"
 12081      7DEE723B 
 12081      B657DEEA 
 12081      D40CA057 
 12081      B800
 12082 005a 74CE0430 		.ascii	"t\316\0040@\221\351\014(\322\215\000\221\207\001\000"
 12082      4091E90C 
 12082      28D28D00 
 12082      91870100 
 12083 006a 00000010 		.ascii	"\000\000\000\020\000\230\012\001h\327\224t;\323\335"
 12083      00980A01 
 12083      68D79474 
 12083      3BD3DD
 12084 0079 8269335C 		.ascii	"\202i3\\\315\214(:\303\360)3\252\3506\303\306\354\212"
 12084      CD8C283A 
 12084      C3F02933 
 12084      AAE836C3 
 12084      C6EC8A
 12085 008c 60520CEB 		.ascii	"`R\014\3532\312\223i0\214\316\262,&\311\260&K+\0317"
 12085      32CA9369 
 12085      308CCEB2 
 12085      2C26C9B0 
 12085      264B2B19 
 12086 00a1 DDBA4ADF 		.ascii	"\335\272J\337P\334\364\3402lSq\322\274\013\363\011\325"
 12086      50DCF4E0 
 12086      326C5371 
 12086      D2BC0BF3 
 12086      09D5
 12087 00b3 000002D8 		.ascii	"\000\000\002\330\306\230\001U{>"
 12087      C6980155 
 12087      7B3E
 12088              		.global	sp_parNICE
 12089              		.section	.rodata.sp_parNICE,"a"
 12090              		.align	2
 12091              		.type	sp_parNICE, %object
 12092              		.size	sp_parNICE, 169
 12093              	sp_parNICE:
 12094 0000 46E3B227 		.ascii	"F\343\262'$\0247\315G\017_\225s\264\030;<\332\316\325"
ARM GAS  /tmp/ccONvy4E.s 			page 368


 12094      241437CD 
 12094      470F5F95 
 12094      73B4183B 
 12094      3CDACED5 
 12095 0014 AE76D414 		.ascii	"\256v\324\0243,[\361QJv\327-\331K.\301\334\326\245\016"
 12095      332C5BF1 
 12095      514A76D7 
 12095      2DD94B2E 
 12095      C1DCD6A5 
 12096 0029 A93A097F 		.ascii	"\251:\011\177W\322\204b8\242\202V\342\263e\223O9\216"
 12096      57D28462 
 12096      38A28256 
 12096      E2B36593 
 12096      4F398E
 12097 003c 4FC2386B 		.ascii	"O\3028k\2350\340\353\014\012P\200\002\004\230\314\022"
 12097      9D30E0EB 
 12097      0C0A5080 
 12097      020498CC 
 12097      12
 12098 004d 01865721 		.ascii	"\001\206W! 0i\005\2741\341\001\017D \003\001\270\273"
 12098      20306905 
 12098      BC31E101 
 12098      0F442003 
 12098      01B8BB
 12099 0060 A9F0CDB0 		.ascii	"\251\360\315\260\272M\223!\366d\312\232U\206\330\262"
 12099      BA4D9321 
 12099      F664CA9A 
 12099      5586D8B2 
 12100 0070 0B6B546E 		.ascii	"\013kTnbK&l1;H\323\211\262e#\003\014\031a\200\257\214"
 12100      624B266C 
 12100      313B48D3 
 12100      89B26523 
 12100      030C1961 
 12101 0087 1940534D 		.ascii	"\031@SM1rP\213Z\332\311\316A\242\"\351D\333\333\306"
 12101      3172508B 
 12101      5ADAC9CE 
 12101      41A222E9 
 12101      44DBDBC6 
 12102 009b 8E5A6B54 		.ascii	"\216ZkT\325\030;\010\257\024\265\243\255\007"
 12102      D5183B08 
 12102      AF14B5A3 
 12102      AD07
 12103              		.global	sp_parADVANCE
 12104              		.section	.rodata.sp_parADVANCE,"a"
 12105              		.align	2
 12106              		.type	sp_parADVANCE, %object
 12107              		.size	sp_parADVANCE, 263
 12108              	sp_parADVANCE:
 12109 0000 30B4EADC 		.ascii	"0\264\352\334-\213\3612\274\366\3146FS\017\2465lU)\263"
 12109      2D8BF132 
 12109      BCF6CC36 
 12109      46530FA6 
 12109      356C5529 
 12110 0015 58D51A89 		.ascii	"X\325\032\211\266\355l9\313{!\327q\224\254\354\3343"
 12110      B6ED6C39 
 12110      CB7B21D7 
 12110      7194ACEC 
ARM GAS  /tmp/ccONvy4E.s 			page 369


 12110      DC33
 12111 0027 96C935AE 		.ascii	"\226\3115\256~\214\034\315\275\023\3661J\012\215l\304"
 12111      7E8C1CCD 
 12111      BD13F631 
 12111      4A0A8D6C 
 12111      C4
 12112 0038 C748C9DD 		.ascii	"\307H\311\335FY]}\353M32\3165\034WU\251\214\367\275"
 12112      46595D7D 
 12112      EB4D3332 
 12112      CE351C57 
 12112      55A98CF7 
 12113 004d A662A72C 		.ascii	"\246b\247,\225\026\342R\011\320\241\033\003:v\023\300"
 12113      9516E252 
 12113      09D0A11B 
 12113      033A7613 
 12113      C0
 12114 005e A1A90238 		.ascii	"\241\251\00282U\001[\247\012\240\3530\016`\000\000\200"
 12114      3255015B 
 12114      A70AA0EB 
 12114      300E6000 
 12114      0080
 12115 0070 01538605 		.ascii	"\001S\206\005\340Y\227\000l\035\334\364\304\\3\327L"
 12115      E0599700 
 12115      6C1DDCF4 
 12115      C45C33D7 
 12115      4C
 12116 0081 31B4F42F 		.ascii	"1\264\364/VV\325\034f`\226ca\373\230\331\231{,\355c"
 12116      5656D51C 
 12116      66609663 
 12116      61FB98D9 
 12116      997B2CED 
 12117 0096 166F9A76 		.ascii	"\026o\232v\262\227\231\275\330\33026\272\305\221-\356"
 12117      B29799BD 
 12117      D8D83236 
 12117      BAC5912D 
 12117      EE
 12118 00a7 D400D6A5 		.ascii	"\324\000\326\245$ \206`\007\024\233f\001\015 \300\343"
 12118      24208660 
 12118      07149B66 
 12118      010D20C0 
 12118      E3
 12119 00b8 7030064B 		.ascii	"p0\006K]:#+\032\303\324\256\314\262\224,\323\346\016"
 12119      5D3A232B 
 12119      1AC3D4AE 
 12119      CCB2942C 
 12119      D3E60E
 12120 00cb 1B67BCCD 		.ascii	"\033g\274\315b\231\230!\266\210\231)XzZ\272\021f\322"
 12120      62999821 
 12120      B6889929 
 12120      587A5ABA 
 12120      1166D2
 12121 00de 41C6EE34 		.ascii	"A\306\3564\350:\267\211\216\254\352\006W\214V\365R\342"
 12121      E83AB789 
 12121      8EACEA06 
 12121      578C56F5 
 12121      52E2
 12122 00f0 5CD1DB38 		.ascii	"\\\321\3338J\261qE\356\300L9\302b\241]$\"!@\233\011"
ARM GAS  /tmp/ccONvy4E.s 			page 370


 12122      4AB17145 
 12122      EEC04C39 
 12122      C262A15D 
 12122      24222140 
 12123 0106 78       		.ascii	"x"
 12124              		.global	sp_parONE
 12125              		.section	.rodata.sp_parONE,"a"
 12126              		.align	2
 12127              		.type	sp_parONE, %object
 12128              		.size	sp_parONE, 54
 12129              	sp_parONE:
 12130 0000 4967BBD4 		.ascii	"Ig\273\324|\254w\375\350\246\227\233\236\354\253_\375"
 12130      7CAC77FD 
 12130      E8A6979B 
 12130      9EECAB5F 
 12130      FD
 12131 0011 1AD738A6 		.ascii	"\032\3278\246O\026^\251x[\311\016RN<\224\004\333\011"
 12131      4F165EA9 
 12131      785BC90E 
 12131      524E3C94 
 12131      04DB09
 12132 0024 397357E5 		.ascii	"9sW\345mes\031/\232\212\205e\030}X\250~"
 12132      6D657319 
 12132      2F9A8A85 
 12132      65187D58 
 12132      A87E
 12133              		.global	sp_parTWO
 12134              		.section	.rodata.sp_parTWO,"a"
 12135              		.align	2
 12136              		.type	sp_parTWO, %object
 12137              		.size	sp_parTWO, 46
 12138              	sp_parTWO:
 12139 0000 0D586E25 		.ascii	"\015Xn%\001\325\2736)X\323\2645}\225\253\\\365jM\023"
 12139      01D5BB36 
 12139      2958D3B4 
 12139      357D95AB 
 12139      5CF56A4D 
 12140 0015 3E63ECAA 		.ascii	">c\354\252t#\233\311\342\256rd\252D\313[\326\"&)g\251"
 12140      74239BC9 
 12140      E2AE7264 
 12140      AA44CB5B 
 12140      D6222629 
 12141 002b 2EF801   		.ascii	".\370\001"
 12142              		.global	sp_parTHREE
 12143              		.section	.rodata.sp_parTHREE,"a"
 12144              		.align	2
 12145              		.type	sp_parTHREE, %object
 12146              		.size	sp_parTHREE, 51
 12147              	sp_parTHREE:
 12148 0000 08082684 		.ascii	"\010\010&\204\003\036(JSJ\305Y\247\250.\213\205e\354"
 12148      031E284A 
 12148      534AC559 
 12148      A7A82E8B 
 12148      8565EC
 12149 0013 AE36D567 		.ascii	"\2566\325g\312\326\213\262\325\243z#\261\275q\266\276"
 12149      CAD68BB2 
 12149      D5A37A23 
ARM GAS  /tmp/ccONvy4E.s 			page 371


 12149      B1BD71B6 
 12149      BE
 12150 0024 8C24C4E7 		.ascii	"\214$\304\347Z\361\264\272U\355h[G;\017"
 12150      5AF1B4BA 
 12150      55ED685B 
 12150      473B0F
 12151              		.global	sp_parFOUR
 12152              		.section	.rodata.sp_parFOUR,"a"
 12153              		.align	2
 12154              		.type	sp_parFOUR, %object
 12155              		.size	sp_parFOUR, 52
 12156              	sp_parFOUR:
 12157 0000 0A48A555 		.ascii	"\012H\245U\003\032\260\200\006\012/\327\260s\305\235"
 12157      031AB080 
 12157      060A2FD7 
 12157      B073C59D 
 12158 0010 EAD4A6DE 		.ascii	"\352\324\246\336\215a\252\031Z\222U\272\235\355\344"
 12158      8D61AA19 
 12158      5A9255BA 
 12158      9DEDE4
 12159 001f 98CA93DC 		.ascii	"\230\312\223\334\206s\035kS\232D\331j\266\204\221z\213"
 12159      86731D6B 
 12159      539A44D9 
 12159      6AB68491 
 12159      7A8B
 12160 0031 9B597E   		.ascii	"\233Y~"
 12161              		.global	sp_parFIVE
 12162              		.section	.rodata.sp_parFIVE,"a"
 12163              		.align	2
 12164              		.type	sp_parFIVE, %object
 12165              		.size	sp_parFIVE, 87
 12166              	sp_parFIVE:
 12167 0000 042822D9 		.ascii	"\004(\"\331\000\305\246{`q\246Gi\244\242\243\232\231"
 12167      00C5A67B 
 12167      6071A647 
 12167      69A4A2A3 
 12167      9A99
 12168 0012 6199B28F 		.ascii	"a\231\262\217fg\246EZ>\232\235\031\036)\345\350n\244"
 12168      6667A645 
 12168      5A3E9A9D 
 12168      191E29E5 
 12168      E86EA4
 12169 0025 87B7956B 		.ascii	"\207\267\225k\\\363X\256F\2247\223e\373\344Y^l\266="
 12169      5CF358AE 
 12169      46943793 
 12169      65FBE459 
 12169      5E6CB63D 
 12170 0039 EC103532 		.ascii	"\354\02052\033M\267\223\355\242z\3732\321&\002\202\010"
 12170      1B4DB793 
 12170      EDA27AFB 
 12170      32D12602 
 12170      8208
 12171 004b 2340D2A9 		.ascii	"#@\322\251\014(\266\230\000\311\244<"
 12171      0C28B698 
 12171      00C9A43C 
 12172              		.global	sp_parCOUNT
 12173              		.section	.rodata.sp_parCOUNT,"a"
ARM GAS  /tmp/ccONvy4E.s 			page 372


 12174              		.align	2
 12175              		.type	sp_parCOUNT, %object
 12176              		.size	sp_parCOUNT, 112
 12177              	sp_parCOUNT:
 12178 0000 0908467B 		.ascii	"\011\010F{\311Y\207\226\206\270#\273j\325Q\214\216\342"
 12178      C9598796 
 12178      86B823BB 
 12178      6AD5518C 
 12178      8EE2
 12179 0012 6BD844DA 		.ascii	"k\330D\332\276\352Q}\211po%[5\200j\026\014\220)S\350"
 12179      BEEA517D 
 12179      89706F25 
 12179      5B35806A 
 12179      160C9029 
 12180 0028 46477894 		.ascii	"FGx\224c\355Js\351\205\026g\225\265\241\333h\025\247"
 12180      63ED4A73 
 12180      E9851667 
 12180      95B5A1DB 
 12180      6815A7
 12181 003b AC97E1B2 		.ascii	"\254\227\341\262UT\260\332\3060\375\360\3202F\323\354"
 12181      5554B0DA 
 12181      C630FDF0 
 12181      D03246D3 
 12181      EC
 12182 004c 56B35C0D 		.ascii	"V\263\\\015\267\010\331\325\316\266s\264\362\221P\333"
 12182      B708D9D5 
 12182      CEB673B4 
 12182      F29150DB 
 12183 005c C6D1C24E 		.ascii	"\306\321\302N\324\035\013GR\375\212T\302\234\0215\204"
 12183      D41D0B47 
 12183      52FD8A54 
 12183      C29C1135 
 12183      84
 12184 006d 4AD603   		.ascii	"J\326\003"
 12185              		.global	sp_parSHOT
 12186              		.section	.rodata.sp_parSHOT,"a"
 12187              		.align	2
 12188              		.type	sp_parSHOT, %object
 12189              		.size	sp_parSHOT, 144
 12190              	sp_parSHOT:
 12191 0000 E00025D3 		.ascii	"\340\000%\323\226\331\334H\260+^FjN.\245\364\350\301"
 12191      96D9DC48 
 12191      B02B5E46 
 12191      6A4E2EA5 
 12191      F4E8C1
 12192 0013 9B657CEC 		.ascii	"\233e|\354\243\005k\221yq\216V\264y\370\306u*\227\261"
 12192      A3056B91 
 12192      79718E56 
 12192      B479F8C6 
 12192      752A97B1 
 12193 0027 9923C569 		.ascii	"\231#\305i\307\272\250\230\322\354\005\340g\263\006"
 12193      C7BAA898 
 12193      D2EC05E0 
 12193      67B306
 12194 0036 7C1BD680 		.ascii	"|\033\326\200?\306\033\360G[\003~\037\035\362M\241\216"
 12194      3FC61BF0 
 12194      475B037E 
ARM GAS  /tmp/ccONvy4E.s 			page 373


 12194      1F1DF24D 
 12194      A18E
 12195 0048 11E7C836 		.ascii	"\021\347\3106{\306\030\323\243\330\232\021\223j\216"
 12195      7BC618D3 
 12195      A3D89A11 
 12195      936A8E
 12196 0057 6A5B7964 		.ascii	"j[yd\2619\232\353e\031\245\370\030\256\267\247\217\322"
 12196      B1399AEB 
 12196      6519A5F8 
 12196      18AEB7A7 
 12196      8FD2
 12197 0069 61D9919E 		.ascii	"a\331\221\236QL\206\343zDe2\031\236+\341U\241*x6E\346"
 12197      514C86E3 
 12197      7A446532 
 12197      199E2BE1 
 12197      55A12A78 
 12198 0080 B36B0000 		.ascii	"\263k\000\000\003(\235F\000l{\010\240l\332\003"
 12198      03289D46 
 12198      006C7B08 
 12198      A06CDA03 
 12199              		.global	sp_parFIRE
 12200              		.section	.rodata.sp_parFIRE,"a"
 12201              		.align	2
 12202              		.type	sp_parFIRE, %object
 12203              		.size	sp_parFIRE, 235
 12204              	sp_parFIRE:
 12205 0000 10805843 		.ascii	"\020\200XC\233j\212gF\310\331\352\321L\216\214\023\226"
 12205      9B6A8A67 
 12205      46C8D9EA 
 12205      D14C8E8C 
 12205      1396
 12206 0012 5B6BAA76 		.ascii	"[k\252v\331Z\302$i\323\205:\205\034\003tYf\001\013D"
 12206      D95AC224 
 12206      69D3853A 
 12206      851C0374 
 12206      5966010B 
 12207 0027 C0031460 		.ascii	"\300\003\024`@V\256C\325\323#\264\030-\315\354\210\360"
 12207      4056AE43 
 12207      D5D323B4 
 12207      182DCDEC 
 12207      88F0
 12208 0039 647C74BB 		.ascii	"d|t\273\"\"R\316\321]Ok/\331G\367\315\275\274\350\034"
 12208      222252CE 
 12208      D15D4F6B 
 12208      2FD947F7 
 12208      CDBDBCE8 
 12209 004e DD27F7B6 		.ascii	"\335'\367\266\222st\237\314\327R\356\322}\221\034O9"
 12209      9273749F 
 12209      CCD752EE 
 12209      D27D911C 
 12209      4F39
 12210 0060 43F78573 		.ascii	"C\367\205s\264\344\014\335W\256\226\222\334\364\320"
 12210      B4E40CDD 
 12210      57AE9692 
 12210      DCF4D0
 12211 006f A893576A 		.ascii	"\250\223Wj\323m\222lv\311UO\272\267\016\331\032\333"
 12211      D36D926C 
ARM GAS  /tmp/ccONvy4E.s 			page 374


 12211      76C9554F 
 12211      BAB70ED9 
 12211      1ADB
 12212 0081 1B02883A 		.ascii	"\033\002\210:\204\003\024\000@\200T\341\000\001\370"
 12212      84031400 
 12212      408054E1 
 12212      0001F8
 12213 0090 CC3500DF 		.ascii	"\3145\000\337\217&\331\033\265\216\267<\265\251e\235"
 12213      8F26D91B 
 12213      B58EB73C 
 12213      B5A9659D 
 12214 00a0 98C84E65 		.ascii	"\230\310Ne\270\255`\024k\350TN\233\036\015W\315\333"
 12214      B8AD6014 
 12214      6BE8544E 
 12214      9B1E0D57 
 12214      CDDB
 12215 00b2 9E7AD193 		.ascii	"\236z\321\223\206\336NJ\336 \206!\226c\351\204\001\323"
 12215      86DE4E4A 
 12215      DE208621 
 12215      9663E984 
 12215      01D3
 12216 00c4 B035334A 		.ascii	"\26053J\365\256a\262\315i5+\030\013\367D\235\355\352"
 12216      F5AE61B2 
 12216      CD69352B 
 12216      180BF744 
 12216      9DEDEA
 12217 00d7 18570B7B 		.ascii	"\030W\013{UW\245\\f\362\305\234\265\362\024\323\017"
 12217      5557A55C 
 12217      66F2C59C 
 12217      B5F214D3 
 12217      0F
 12218 00e8 73C50F   		.ascii	"s\305\017"
 12219              		.section	.rodata.tms5220_coeff,"a"
 12220              		.align	2
 12221              		.type	tms5220_coeff, %object
 12222              		.size	tms5220_coeff, 2984
 12223              	tms5220_coeff:
 12224 0000 80000000 		.word	128
 12225 0004 0A000000 		.word	10
 12226 0008 04000000 		.word	4
 12227 000c 06000000 		.word	6
 12228 0010 05000000 		.word	5
 12229 0014 05000000 		.word	5
 12230 0018 04000000 		.word	4
 12231 001c 04000000 		.word	4
 12232 0020 04000000 		.word	4
 12233 0024 04000000 		.word	4
 12234 0028 04000000 		.word	4
 12235 002c 03000000 		.word	3
 12236 0030 03000000 		.word	3
 12237 0034 03000000 		.word	3
 12238 0038 0000     		.short	0
 12239 003a 0100     		.short	1
 12240 003c 0200     		.short	2
 12241 003e 0300     		.short	3
 12242 0040 0400     		.short	4
 12243 0042 0600     		.short	6
ARM GAS  /tmp/ccONvy4E.s 			page 375


 12244 0044 0800     		.short	8
 12245 0046 0B00     		.short	11
 12246 0048 1000     		.short	16
 12247 004a 1700     		.short	23
 12248 004c 2100     		.short	33
 12249 004e 2F00     		.short	47
 12250 0050 3F00     		.short	63
 12251 0052 5500     		.short	85
 12252 0054 7200     		.short	114
 12253 0056 0000     		.short	0
 12254 0058 00000000 		.space	96
 12254      00000000 
 12254      00000000 
 12254      00000000 
 12254      00000000 
 12255 00b8 0000     		.short	0
 12256 00ba 0F00     		.short	15
 12257 00bc 1000     		.short	16
 12258 00be 1100     		.short	17
 12259 00c0 1200     		.short	18
 12260 00c2 1300     		.short	19
 12261 00c4 1400     		.short	20
 12262 00c6 1500     		.short	21
 12263 00c8 1600     		.short	22
 12264 00ca 1700     		.short	23
 12265 00cc 1800     		.short	24
 12266 00ce 1900     		.short	25
 12267 00d0 1A00     		.short	26
 12268 00d2 1B00     		.short	27
 12269 00d4 1C00     		.short	28
 12270 00d6 1D00     		.short	29
 12271 00d8 1E00     		.short	30
 12272 00da 1F00     		.short	31
 12273 00dc 2000     		.short	32
 12274 00de 2100     		.short	33
 12275 00e0 2200     		.short	34
 12276 00e2 2300     		.short	35
 12277 00e4 2400     		.short	36
 12278 00e6 2500     		.short	37
 12279 00e8 2600     		.short	38
 12280 00ea 2700     		.short	39
 12281 00ec 2800     		.short	40
 12282 00ee 2900     		.short	41
 12283 00f0 2A00     		.short	42
 12284 00f2 2C00     		.short	44
 12285 00f4 2E00     		.short	46
 12286 00f6 3000     		.short	48
 12287 00f8 3200     		.short	50
 12288 00fa 3400     		.short	52
 12289 00fc 3500     		.short	53
 12290 00fe 3800     		.short	56
 12291 0100 3A00     		.short	58
 12292 0102 3C00     		.short	60
 12293 0104 3E00     		.short	62
 12294 0106 4100     		.short	65
 12295 0108 4400     		.short	68
 12296 010a 4600     		.short	70
ARM GAS  /tmp/ccONvy4E.s 			page 376


 12297 010c 4800     		.short	72
 12298 010e 4C00     		.short	76
 12299 0110 4E00     		.short	78
 12300 0112 5000     		.short	80
 12301 0114 5400     		.short	84
 12302 0116 5600     		.short	86
 12303 0118 5B00     		.short	91
 12304 011a 5E00     		.short	94
 12305 011c 6200     		.short	98
 12306 011e 6500     		.short	101
 12307 0120 6900     		.short	105
 12308 0122 6D00     		.short	109
 12309 0124 7200     		.short	114
 12310 0126 7600     		.short	118
 12311 0128 7A00     		.short	122
 12312 012a 7F00     		.short	127
 12313 012c 8400     		.short	132
 12314 012e 8900     		.short	137
 12315 0130 8E00     		.short	142
 12316 0132 9400     		.short	148
 12317 0134 9900     		.short	153
 12318 0136 9F00     		.short	159
 12319 0138 0BFEFFFF 		.word	-501
 12320 013c 0EFEFFFF 		.word	-498
 12321 0140 0FFEFFFF 		.word	-497
 12322 0144 11FEFFFF 		.word	-495
 12323 0148 13FEFFFF 		.word	-493
 12324 014c 15FEFFFF 		.word	-491
 12325 0150 18FEFFFF 		.word	-488
 12326 0154 1EFEFFFF 		.word	-482
 12327 0158 22FEFFFF 		.word	-478
 12328 015c 26FEFFFF 		.word	-474
 12329 0160 2BFEFFFF 		.word	-469
 12330 0164 30FEFFFF 		.word	-464
 12331 0168 35FEFFFF 		.word	-459
 12332 016c 3CFEFFFF 		.word	-452
 12333 0170 43FEFFFF 		.word	-445
 12334 0174 4BFEFFFF 		.word	-437
 12335 0178 64FEFFFF 		.word	-412
 12336 017c 84FEFFFF 		.word	-380
 12337 0180 ADFEFFFF 		.word	-339
 12338 0184 E0FEFFFF 		.word	-288
 12339 0188 1DFFFFFF 		.word	-227
 12340 018c 62FFFFFF 		.word	-158
 12341 0190 AFFFFFFF 		.word	-81
 12342 0194 FFFFFFFF 		.word	-1
 12343 0198 50000000 		.word	80
 12344 019c 9D000000 		.word	157
 12345 01a0 E2000000 		.word	226
 12346 01a4 1F010000 		.word	287
 12347 01a8 51010000 		.word	337
 12348 01ac 7B010000 		.word	379
 12349 01b0 9B010000 		.word	411
 12350 01b4 B4010000 		.word	436
 12351 01b8 00000000 		.space	128
 12351      00000000 
 12351      00000000 
ARM GAS  /tmp/ccONvy4E.s 			page 377


 12351      00000000 
 12351      00000000 
 12352 0238 B8FEFFFF 		.word	-328
 12353 023c D1FEFFFF 		.word	-303
 12354 0240 EEFEFFFF 		.word	-274
 12355 0244 0CFFFFFF 		.word	-244
 12356 0248 2DFFFFFF 		.word	-211
 12357 024c 51FFFFFF 		.word	-175
 12358 0250 76FFFFFF 		.word	-138
 12359 0254 9DFFFFFF 		.word	-99
 12360 0258 C5FFFFFF 		.word	-59
 12361 025c EEFFFFFF 		.word	-18
 12362 0260 18000000 		.word	24
 12363 0264 40000000 		.word	64
 12364 0268 69000000 		.word	105
 12365 026c 8F000000 		.word	143
 12366 0270 B4000000 		.word	180
 12367 0274 D7000000 		.word	215
 12368 0278 F8000000 		.word	248
 12369 027c 16010000 		.word	278
 12370 0280 32010000 		.word	306
 12371 0284 4B010000 		.word	331
 12372 0288 62010000 		.word	354
 12373 028c 76010000 		.word	374
 12374 0290 88010000 		.word	392
 12375 0294 98010000 		.word	408
 12376 0298 A6010000 		.word	422
 12377 029c B3010000 		.word	435
 12378 02a0 BD010000 		.word	445
 12379 02a4 C7010000 		.word	455
 12380 02a8 CF010000 		.word	463
 12381 02ac D6010000 		.word	470
 12382 02b0 DC010000 		.word	476
 12383 02b4 FA010000 		.word	506
 12384 02b8 00000000 		.space	128
 12384      00000000 
 12384      00000000 
 12384      00000000 
 12384      00000000 
 12385 0338 47FEFFFF 		.word	-441
 12386 033c 7DFEFFFF 		.word	-387
 12387 0340 B3FEFFFF 		.word	-333
 12388 0344 E9FEFFFF 		.word	-279
 12389 0348 1FFFFFFF 		.word	-225
 12390 034c 55FFFFFF 		.word	-171
 12391 0350 8BFFFFFF 		.word	-117
 12392 0354 C1FFFFFF 		.word	-63
 12393 0358 F7FFFFFF 		.word	-9
 12394 035c 2D000000 		.word	45
 12395 0360 62000000 		.word	98
 12396 0364 98000000 		.word	152
 12397 0368 CE000000 		.word	206
 12398 036c 04010000 		.word	260
 12399 0370 3A010000 		.word	314
 12400 0374 70010000 		.word	368
 12401 0378 00000000 		.space	192
 12401      00000000 
ARM GAS  /tmp/ccONvy4E.s 			page 378


 12401      00000000 
 12401      00000000 
 12401      00000000 
 12402 0438 B8FEFFFF 		.word	-328
 12403 043c EFFEFFFF 		.word	-273
 12404 0440 27FFFFFF 		.word	-217
 12405 0444 5FFFFFFF 		.word	-161
 12406 0448 96FFFFFF 		.word	-106
 12407 044c CEFFFFFF 		.word	-50
 12408 0450 05000000 		.word	5
 12409 0454 3D000000 		.word	61
 12410 0458 74000000 		.word	116
 12411 045c AC000000 		.word	172
 12412 0460 E4000000 		.word	228
 12413 0464 1B010000 		.word	283
 12414 0468 53010000 		.word	339
 12415 046c 8A010000 		.word	394
 12416 0470 C2010000 		.word	450
 12417 0474 FA010000 		.word	506
 12418 0478 00000000 		.space	192
 12418      00000000 
 12418      00000000 
 12418      00000000 
 12418      00000000 
 12419 0538 B8FEFFFF 		.word	-328
 12420 053c E6FEFFFF 		.word	-282
 12421 0540 15FFFFFF 		.word	-235
 12422 0544 43FFFFFF 		.word	-189
 12423 0548 72FFFFFF 		.word	-142
 12424 054c A0FFFFFF 		.word	-96
 12425 0550 CEFFFFFF 		.word	-50
 12426 0554 FDFFFFFF 		.word	-3
 12427 0558 2B000000 		.word	43
 12428 055c 5A000000 		.word	90
 12429 0560 88000000 		.word	136
 12430 0564 B6000000 		.word	182
 12431 0568 E5000000 		.word	229
 12432 056c 13010000 		.word	275
 12433 0570 42010000 		.word	322
 12434 0574 70010000 		.word	368
 12435 0578 00000000 		.space	192
 12435      00000000 
 12435      00000000 
 12435      00000000 
 12435      00000000 
 12436 0638 00FFFFFF 		.word	-256
 12437 063c 2CFFFFFF 		.word	-212
 12438 0640 58FFFFFF 		.word	-168
 12439 0644 85FFFFFF 		.word	-123
 12440 0648 B1FFFFFF 		.word	-79
 12441 064c DDFFFFFF 		.word	-35
 12442 0650 0A000000 		.word	10
 12443 0654 36000000 		.word	54
 12444 0658 62000000 		.word	98
 12445 065c 8F000000 		.word	143
 12446 0660 BB000000 		.word	187
 12447 0664 E8000000 		.word	232
ARM GAS  /tmp/ccONvy4E.s 			page 379


 12448 0668 14010000 		.word	276
 12449 066c 40010000 		.word	320
 12450 0670 6D010000 		.word	365
 12451 0674 99010000 		.word	409
 12452 0678 00000000 		.space	192
 12452      00000000 
 12452      00000000 
 12452      00000000 
 12452      00000000 
 12453 0738 CCFEFFFF 		.word	-308
 12454 073c FCFEFFFF 		.word	-260
 12455 0740 2CFFFFFF 		.word	-212
 12456 0744 5CFFFFFF 		.word	-164
 12457 0748 8BFFFFFF 		.word	-117
 12458 074c BBFFFFFF 		.word	-69
 12459 0750 EBFFFFFF 		.word	-21
 12460 0754 1B000000 		.word	27
 12461 0758 4B000000 		.word	75
 12462 075c 7A000000 		.word	122
 12463 0760 AA000000 		.word	170
 12464 0764 DA000000 		.word	218
 12465 0768 0A010000 		.word	266
 12466 076c 3A010000 		.word	314
 12467 0770 69010000 		.word	361
 12468 0774 99010000 		.word	409
 12469 0778 00000000 		.space	192
 12469      00000000 
 12469      00000000 
 12469      00000000 
 12469      00000000 
 12470 0838 00FFFFFF 		.word	-256
 12471 083c 5FFFFFFF 		.word	-161
 12472 0840 BEFFFFFF 		.word	-66
 12473 0844 1D000000 		.word	29
 12474 0848 7C000000 		.word	124
 12475 084c DB000000 		.word	219
 12476 0850 3A010000 		.word	314
 12477 0854 99010000 		.word	409
 12478 0858 00000000 		.space	224
 12478      00000000 
 12478      00000000 
 12478      00000000 
 12478      00000000 
 12479 0938 00FFFFFF 		.word	-256
 12480 093c 50FFFFFF 		.word	-176
 12481 0940 A0FFFFFF 		.word	-96
 12482 0944 F1FFFFFF 		.word	-15
 12483 0948 41000000 		.word	65
 12484 094c 92000000 		.word	146
 12485 0950 E2000000 		.word	226
 12486 0954 33010000 		.word	307
 12487 0958 00000000 		.space	224
 12487      00000000 
 12487      00000000 
 12487      00000000 
 12487      00000000 
 12488 0a38 33FFFFFF 		.word	-205
ARM GAS  /tmp/ccONvy4E.s 			page 380


 12489 0a3c 7CFFFFFF 		.word	-132
 12490 0a40 C5FFFFFF 		.word	-59
 12491 0a44 0E000000 		.word	14
 12492 0a48 57000000 		.word	87
 12493 0a4c A0000000 		.word	160
 12494 0a50 EA000000 		.word	234
 12495 0a54 33010000 		.word	307
 12496 0a58 00000000 		.space	224
 12496      00000000 
 12496      00000000 
 12496      00000000 
 12496      00000000 
 12497 0b38 0000     		.short	0
 12498 0b3a 0300     		.short	3
 12499 0b3c 0F00     		.short	15
 12500 0b3e 2800     		.short	40
 12501 0b40 4C00     		.short	76
 12502 0b42 6C00     		.short	108
 12503 0b44 7100     		.short	113
 12504 0b46 5000     		.short	80
 12505 0b48 2500     		.short	37
 12506 0b4a 2600     		.short	38
 12507 0b4c 4C00     		.short	76
 12508 0b4e 4400     		.short	68
 12509 0b50 1A00     		.short	26
 12510 0b52 3200     		.short	50
 12511 0b54 3B00     		.short	59
 12512 0b56 1300     		.short	19
 12513 0b58 3700     		.short	55
 12514 0b5a 1A00     		.short	26
 12515 0b5c 2500     		.short	37
 12516 0b5e 1F00     		.short	31
 12517 0b60 1D00     		.short	29
 12518 0b62 0000     		.short	0
 12519 0b64 0000     		.short	0
 12520 0b66 0000     		.short	0
 12521 0b68 0000     		.short	0
 12522 0b6a 0000     		.short	0
 12523 0b6c 0000     		.short	0
 12524 0b6e 0000     		.short	0
 12525 0b70 0000     		.short	0
 12526 0b72 0000     		.short	0
 12527 0b74 0000     		.short	0
 12528 0b76 0000     		.short	0
 12529 0b78 0000     		.short	0
 12530 0b7a 0000     		.short	0
 12531 0b7c 0000     		.short	0
 12532 0b7e 0000     		.short	0
 12533 0b80 0000     		.short	0
 12534 0b82 0000     		.short	0
 12535 0b84 0000     		.short	0
 12536 0b86 0000     		.short	0
 12537 0b88 0000     		.short	0
 12538 0b8a 0000     		.short	0
 12539 0b8c 0000     		.short	0
 12540 0b8e 0000     		.short	0
 12541 0b90 0000     		.short	0
ARM GAS  /tmp/ccONvy4E.s 			page 381


 12542 0b92 0000     		.short	0
 12543 0b94 0000     		.short	0
 12544 0b96 0000     		.short	0
 12545 0b98 0000     		.short	0
 12546 0b9a 0000     		.short	0
 12547 0b9c 0000     		.short	0
 12548 0b9e 0000     		.short	0
 12549 0ba0 00030303 		.ascii	"\000\003\003\003\002\002\001\001"
 12549      02020101 
 12550              		.section	.rodata.T0285_2501E_coeff,"a"
 12551              		.align	2
 12552              		.type	T0285_2501E_coeff, %object
 12553              		.size	T0285_2501E_coeff, 2984
 12554              	T0285_2501E_coeff:
 12555 0000 40000000 		.word	64
 12556 0004 0A000000 		.word	10
 12557 0008 04000000 		.word	4
 12558 000c 06000000 		.word	6
 12559 0010 05000000 		.word	5
 12560 0014 05000000 		.word	5
 12561 0018 04000000 		.word	4
 12562 001c 04000000 		.word	4
 12563 0020 04000000 		.word	4
 12564 0024 04000000 		.word	4
 12565 0028 04000000 		.word	4
 12566 002c 03000000 		.word	3
 12567 0030 03000000 		.word	3
 12568 0034 03000000 		.word	3
 12569 0038 0000     		.short	0
 12570 003a 0100     		.short	1
 12571 003c 0200     		.short	2
 12572 003e 0300     		.short	3
 12573 0040 0400     		.short	4
 12574 0042 0600     		.short	6
 12575 0044 0800     		.short	8
 12576 0046 0B00     		.short	11
 12577 0048 1000     		.short	16
 12578 004a 1700     		.short	23
 12579 004c 2100     		.short	33
 12580 004e 2F00     		.short	47
 12581 0050 3F00     		.short	63
 12582 0052 5500     		.short	85
 12583 0054 7200     		.short	114
 12584 0056 0000     		.short	0
 12585 0058 00000000 		.space	96
 12585      00000000 
 12585      00000000 
 12585      00000000 
 12585      00000000 
 12586 00b8 0000     		.short	0
 12587 00ba 0E00     		.short	14
 12588 00bc 0F00     		.short	15
 12589 00be 1000     		.short	16
 12590 00c0 1100     		.short	17
 12591 00c2 1200     		.short	18
 12592 00c4 1300     		.short	19
 12593 00c6 1400     		.short	20
ARM GAS  /tmp/ccONvy4E.s 			page 382


 12594 00c8 1500     		.short	21
 12595 00ca 1600     		.short	22
 12596 00cc 1700     		.short	23
 12597 00ce 1800     		.short	24
 12598 00d0 1900     		.short	25
 12599 00d2 1A00     		.short	26
 12600 00d4 1B00     		.short	27
 12601 00d6 1C00     		.short	28
 12602 00d8 1D00     		.short	29
 12603 00da 1E00     		.short	30
 12604 00dc 1F00     		.short	31
 12605 00de 2000     		.short	32
 12606 00e0 2200     		.short	34
 12607 00e2 2400     		.short	36
 12608 00e4 2600     		.short	38
 12609 00e6 2800     		.short	40
 12610 00e8 2900     		.short	41
 12611 00ea 2B00     		.short	43
 12612 00ec 2D00     		.short	45
 12613 00ee 3000     		.short	48
 12614 00f0 3100     		.short	49
 12615 00f2 3300     		.short	51
 12616 00f4 3600     		.short	54
 12617 00f6 3700     		.short	55
 12618 00f8 3900     		.short	57
 12619 00fa 3C00     		.short	60
 12620 00fc 3E00     		.short	62
 12621 00fe 4000     		.short	64
 12622 0100 4400     		.short	68
 12623 0102 4800     		.short	72
 12624 0104 4A00     		.short	74
 12625 0106 4C00     		.short	76
 12626 0108 5100     		.short	81
 12627 010a 5500     		.short	85
 12628 010c 5700     		.short	87
 12629 010e 5A00     		.short	90
 12630 0110 6000     		.short	96
 12631 0112 6300     		.short	99
 12632 0114 6700     		.short	103
 12633 0116 6B00     		.short	107
 12634 0118 7000     		.short	112
 12635 011a 7500     		.short	117
 12636 011c 7A00     		.short	122
 12637 011e 7F00     		.short	127
 12638 0120 8500     		.short	133
 12639 0122 8B00     		.short	139
 12640 0124 9100     		.short	145
 12641 0126 9700     		.short	151
 12642 0128 9D00     		.short	157
 12643 012a A400     		.short	164
 12644 012c AB00     		.short	171
 12645 012e B200     		.short	178
 12646 0130 BA00     		.short	186
 12647 0132 C200     		.short	194
 12648 0134 CA00     		.short	202
 12649 0136 D300     		.short	211
 12650 0138 0BFEFFFF 		.word	-501
ARM GAS  /tmp/ccONvy4E.s 			page 383


 12651 013c 0EFEFFFF 		.word	-498
 12652 0140 11FEFFFF 		.word	-495
 12653 0144 16FEFFFF 		.word	-490
 12654 0148 1BFEFFFF 		.word	-485
 12655 014c 22FEFFFF 		.word	-478
 12656 0150 2BFEFFFF 		.word	-469
 12657 0154 35FEFFFF 		.word	-459
 12658 0158 42FEFFFF 		.word	-446
 12659 015c 51FEFFFF 		.word	-431
 12660 0160 64FEFFFF 		.word	-412
 12661 0164 7BFEFFFF 		.word	-389
 12662 0168 96FEFFFF 		.word	-362
 12663 016c B5FEFFFF 		.word	-331
 12664 0170 D9FEFFFF 		.word	-295
 12665 0174 03FFFFFF 		.word	-253
 12666 0178 31FFFFFF 		.word	-207
 12667 017c 64FFFFFF 		.word	-156
 12668 0180 9AFFFFFF 		.word	-102
 12669 0184 D3FFFFFF 		.word	-45
 12670 0188 0D000000 		.word	13
 12671 018c 46000000 		.word	70
 12672 0190 7E000000 		.word	126
 12673 0194 B3000000 		.word	179
 12674 0198 E4000000 		.word	228
 12675 019c 10010000 		.word	272
 12676 01a0 37010000 		.word	311
 12677 01a4 59010000 		.word	345
 12678 01a8 76010000 		.word	374
 12679 01ac 8F010000 		.word	399
 12680 01b0 A4010000 		.word	420
 12681 01b4 B5010000 		.word	437
 12682 01b8 00000000 		.space	128
 12682      00000000 
 12682      00000000 
 12682      00000000 
 12682      00000000 
 12683 0238 88FEFFFF 		.word	-376
 12684 023c 9BFEFFFF 		.word	-357
 12685 0240 B1FEFFFF 		.word	-335
 12686 0244 C8FEFFFF 		.word	-312
 12687 0248 E2FEFFFF 		.word	-286
 12688 024c FEFEFFFF 		.word	-258
 12689 0250 1DFFFFFF 		.word	-227
 12690 0254 3DFFFFFF 		.word	-195
 12691 0258 5FFFFFFF 		.word	-161
 12692 025c 84FFFFFF 		.word	-124
 12693 0260 A9FFFFFF 		.word	-87
 12694 0264 CFFFFFFF 		.word	-49
 12695 0268 F6FFFFFF 		.word	-10
 12696 026c 1D000000 		.word	29
 12697 0270 44000000 		.word	68
 12698 0274 6A000000 		.word	106
 12699 0278 8F000000 		.word	143
 12700 027c B2000000 		.word	178
 12701 0280 D4000000 		.word	212
 12702 0284 F3000000 		.word	243
 12703 0288 10010000 		.word	272
ARM GAS  /tmp/ccONvy4E.s 			page 384


 12704 028c 2B010000 		.word	299
 12705 0290 44010000 		.word	324
 12706 0294 5A010000 		.word	346
 12707 0298 6E010000 		.word	366
 12708 029c 80010000 		.word	384
 12709 02a0 90010000 		.word	400
 12710 02a4 9E010000 		.word	414
 12711 02a8 AB010000 		.word	427
 12712 02ac B6010000 		.word	438
 12713 02b0 C0010000 		.word	448
 12714 02b4 FA010000 		.word	506
 12715 02b8 00000000 		.space	128
 12715      00000000 
 12715      00000000 
 12715      00000000 
 12715      00000000 
 12716 0338 69FEFFFF 		.word	-407
 12717 033c 83FEFFFF 		.word	-381
 12718 0340 A3FEFFFF 		.word	-349
 12719 0344 C9FEFFFF 		.word	-311
 12720 0348 F4FEFFFF 		.word	-268
 12721 034c 26FFFFFF 		.word	-218
 12722 0350 5EFFFFFF 		.word	-162
 12723 0354 9AFFFFFF 		.word	-102
 12724 0358 D9FFFFFF 		.word	-39
 12725 035c 19000000 		.word	25
 12726 0360 59000000 		.word	89
 12727 0364 95000000 		.word	149
 12728 0368 CE000000 		.word	206
 12729 036c 01010000 		.word	257
 12730 0370 2E010000 		.word	302
 12731 0374 55010000 		.word	341
 12732 0378 00000000 		.space	192
 12732      00000000 
 12732      00000000 
 12732      00000000 
 12732      00000000 
 12733 0438 DEFEFFFF 		.word	-290
 12734 043c 04FFFFFF 		.word	-252
 12735 0440 2FFFFFFF 		.word	-209
 12736 0444 5DFFFFFF 		.word	-163
 12737 0448 8EFFFFFF 		.word	-114
 12738 044c C2FFFFFF 		.word	-62
 12739 0450 F7FFFFFF 		.word	-9
 12740 0454 2C000000 		.word	44
 12741 0458 61000000 		.word	97
 12742 045c 93000000 		.word	147
 12743 0460 C2000000 		.word	194
 12744 0464 EE000000 		.word	238
 12745 0468 16010000 		.word	278
 12746 046c 39010000 		.word	313
 12747 0470 58010000 		.word	344
 12748 0474 73010000 		.word	371
 12749 0478 00000000 		.space	192
 12749      00000000 
 12749      00000000 
 12749      00000000 
ARM GAS  /tmp/ccONvy4E.s 			page 385


 12749      00000000 
 12750 0538 C2FEFFFF 		.word	-318
 12751 053c E5FEFFFF 		.word	-283
 12752 0540 0BFFFFFF 		.word	-245
 12753 0544 36FFFFFF 		.word	-202
 12754 0548 64FFFFFF 		.word	-156
 12755 054c 95FFFFFF 		.word	-107
 12756 0550 C8FFFFFF 		.word	-56
 12757 0554 FDFFFFFF 		.word	-3
 12758 0558 31000000 		.word	49
 12759 055c 65000000 		.word	101
 12760 0560 96000000 		.word	150
 12761 0564 C4000000 		.word	196
 12762 0568 EF000000 		.word	239
 12763 056c 16010000 		.word	278
 12764 0570 39010000 		.word	313
 12765 0574 58010000 		.word	344
 12766 0578 00000000 		.space	192
 12766      00000000 
 12766      00000000 
 12766      00000000 
 12766      00000000 
 12767 0638 3FFFFFFF 		.word	-193
 12768 063c 68FFFFFF 		.word	-152
 12769 0640 93FFFFFF 		.word	-109
 12770 0644 BFFFFFFF 		.word	-65
 12771 0648 ECFFFFFF 		.word	-20
 12772 064c 1A000000 		.word	26
 12773 0650 47000000 		.word	71
 12774 0654 73000000 		.word	115
 12775 0658 9E000000 		.word	158
 12776 065c C6000000 		.word	198
 12777 0660 EB000000 		.word	235
 12778 0664 0E010000 		.word	270
 12779 0668 2D010000 		.word	301
 12780 066c 4A010000 		.word	330
 12781 0670 63010000 		.word	355
 12782 0674 79010000 		.word	377
 12783 0678 00000000 		.space	192
 12783      00000000 
 12783      00000000 
 12783      00000000 
 12783      00000000 
 12784 0738 02FFFFFF 		.word	-254
 12785 073c 26FFFFFF 		.word	-218
 12786 0740 4CFFFFFF 		.word	-180
 12787 0744 74FFFFFF 		.word	-140
 12788 0748 9FFFFFFF 		.word	-97
 12789 074c CBFFFFFF 		.word	-53
 12790 0750 F8FFFFFF 		.word	-8
 12791 0754 24000000 		.word	36
 12792 0758 51000000 		.word	81
 12793 075c 7C000000 		.word	124
 12794 0760 A5000000 		.word	165
 12795 0764 CC000000 		.word	204
 12796 0768 F0000000 		.word	240
 12797 076c 12010000 		.word	274
ARM GAS  /tmp/ccONvy4E.s 			page 386


 12798 0770 30010000 		.word	304
 12799 0774 4C010000 		.word	332
 12800 0778 00000000 		.space	192
 12800      00000000 
 12800      00000000 
 12800      00000000 
 12800      00000000 
 12801 0838 33FFFFFF 		.word	-205
 12802 083c 90FFFFFF 		.word	-112
 12803 0840 F6FFFFFF 		.word	-10
 12804 0844 5C000000 		.word	92
 12805 0848 BB000000 		.word	187
 12806 084c 0D010000 		.word	269
 12807 0850 50010000 		.word	336
 12808 0854 83010000 		.word	387
 12809 0858 00000000 		.space	224
 12809      00000000 
 12809      00000000 
 12809      00000000 
 12809      00000000 
 12810 0938 07FFFFFF 		.word	-249
 12811 093c 49FFFFFF 		.word	-183
 12812 0940 92FFFFFF 		.word	-110
 12813 0944 E0FFFFFF 		.word	-32
 12814 0948 30000000 		.word	48
 12815 094c 7E000000 		.word	126
 12816 0950 C6000000 		.word	198
 12817 0954 05010000 		.word	261
 12818 0958 00000000 		.space	224
 12818      00000000 
 12818      00000000 
 12818      00000000 
 12818      00000000 
 12819 0a38 42FFFFFF 		.word	-190
 12820 0a3c 7BFFFFFF 		.word	-133
 12821 0a40 B7FFFFFF 		.word	-73
 12822 0a44 F6FFFFFF 		.word	-10
 12823 0a48 35000000 		.word	53
 12824 0a4c 73000000 		.word	115
 12825 0a50 AD000000 		.word	173
 12826 0a54 E3000000 		.word	227
 12827 0a58 00000000 		.space	224
 12827      00000000 
 12827      00000000 
 12827      00000000 
 12827      00000000 
 12828 0b38 0000     		.short	0
 12829 0b3a 0300     		.short	3
 12830 0b3c 0F00     		.short	15
 12831 0b3e 2800     		.short	40
 12832 0b40 4C00     		.short	76
 12833 0b42 6C00     		.short	108
 12834 0b44 7100     		.short	113
 12835 0b46 5000     		.short	80
 12836 0b48 2500     		.short	37
 12837 0b4a 2600     		.short	38
 12838 0b4c 4C00     		.short	76
ARM GAS  /tmp/ccONvy4E.s 			page 387


 12839 0b4e 4400     		.short	68
 12840 0b50 1A00     		.short	26
 12841 0b52 3200     		.short	50
 12842 0b54 3B00     		.short	59
 12843 0b56 1300     		.short	19
 12844 0b58 3700     		.short	55
 12845 0b5a 1A00     		.short	26
 12846 0b5c 2500     		.short	37
 12847 0b5e 1F00     		.short	31
 12848 0b60 1D00     		.short	29
 12849 0b62 0000     		.short	0
 12850 0b64 0000     		.short	0
 12851 0b66 0000     		.short	0
 12852 0b68 0000     		.short	0
 12853 0b6a 0000     		.short	0
 12854 0b6c 0000     		.short	0
 12855 0b6e 0000     		.short	0
 12856 0b70 0000     		.short	0
 12857 0b72 0000     		.short	0
 12858 0b74 0000     		.short	0
 12859 0b76 0000     		.short	0
 12860 0b78 0000     		.short	0
 12861 0b7a 0000     		.short	0
 12862 0b7c 0000     		.short	0
 12863 0b7e 0000     		.short	0
 12864 0b80 0000     		.short	0
 12865 0b82 0000     		.short	0
 12866 0b84 0000     		.short	0
 12867 0b86 0000     		.short	0
 12868 0b88 0000     		.short	0
 12869 0b8a 0000     		.short	0
 12870 0b8c 0000     		.short	0
 12871 0b8e 0000     		.short	0
 12872 0b90 0000     		.short	0
 12873 0b92 0000     		.short	0
 12874 0b94 0000     		.short	0
 12875 0b96 0000     		.short	0
 12876 0b98 0000     		.short	0
 12877 0b9a 0000     		.short	0
 12878 0b9c 0000     		.short	0
 12879 0b9e 0000     		.short	0
 12880 0ba0 00030303 		.ascii	"\000\003\003\003\002\002\001\001"
 12880      02020101 
 12881              		.section	.rodata.T0280F_2801A_coeff,"a"
 12882              		.align	2
 12883              		.type	T0280F_2801A_coeff, %object
 12884              		.size	T0280F_2801A_coeff, 2984
 12885              	T0280F_2801A_coeff:
 12886 0000 04000000 		.word	4
 12887 0004 0A000000 		.word	10
 12888 0008 04000000 		.word	4
 12889 000c 05000000 		.word	5
 12890 0010 05000000 		.word	5
 12891 0014 05000000 		.word	5
 12892 0018 04000000 		.word	4
 12893 001c 04000000 		.word	4
 12894 0020 04000000 		.word	4
ARM GAS  /tmp/ccONvy4E.s 			page 388


 12895 0024 04000000 		.word	4
 12896 0028 04000000 		.word	4
 12897 002c 03000000 		.word	3
 12898 0030 03000000 		.word	3
 12899 0034 03000000 		.word	3
 12900 0038 0000     		.short	0
 12901 003a 0100     		.short	1
 12902 003c 0200     		.short	2
 12903 003e 0300     		.short	3
 12904 0040 0400     		.short	4
 12905 0042 0600     		.short	6
 12906 0044 0800     		.short	8
 12907 0046 0B00     		.short	11
 12908 0048 1000     		.short	16
 12909 004a 1700     		.short	23
 12910 004c 2100     		.short	33
 12911 004e 2F00     		.short	47
 12912 0050 3F00     		.short	63
 12913 0052 5500     		.short	85
 12914 0054 7200     		.short	114
 12915 0056 FF01     		.short	511
 12916 0058 00000000 		.space	96
 12916      00000000 
 12916      00000000 
 12916      00000000 
 12916      00000000 
 12917 00b8 0000     		.short	0
 12918 00ba 2900     		.short	41
 12919 00bc 2B00     		.short	43
 12920 00be 2D00     		.short	45
 12921 00c0 2F00     		.short	47
 12922 00c2 3100     		.short	49
 12923 00c4 3300     		.short	51
 12924 00c6 3500     		.short	53
 12925 00c8 3700     		.short	55
 12926 00ca 3A00     		.short	58
 12927 00cc 3C00     		.short	60
 12928 00ce 3F00     		.short	63
 12929 00d0 4200     		.short	66
 12930 00d2 4600     		.short	70
 12931 00d4 4900     		.short	73
 12932 00d6 4C00     		.short	76
 12933 00d8 4F00     		.short	79
 12934 00da 5300     		.short	83
 12935 00dc 5700     		.short	87
 12936 00de 5A00     		.short	90
 12937 00e0 5E00     		.short	94
 12938 00e2 6300     		.short	99
 12939 00e4 6700     		.short	103
 12940 00e6 6B00     		.short	107
 12941 00e8 7000     		.short	112
 12942 00ea 7600     		.short	118
 12943 00ec 7B00     		.short	123
 12944 00ee 8100     		.short	129
 12945 00f0 8600     		.short	134
 12946 00f2 8C00     		.short	140
 12947 00f4 9300     		.short	147
ARM GAS  /tmp/ccONvy4E.s 			page 389


 12948 00f6 9900     		.short	153
 12949 00f8 00000000 		.space	64
 12949      00000000 
 12949      00000000 
 12949      00000000 
 12949      00000000 
 12950 0138 0BFEFFFF 		.word	-501
 12951 013c 0EFEFFFF 		.word	-498
 12952 0140 11FEFFFF 		.word	-495
 12953 0144 16FEFFFF 		.word	-490
 12954 0148 1BFEFFFF 		.word	-485
 12955 014c 22FEFFFF 		.word	-478
 12956 0150 2BFEFFFF 		.word	-469
 12957 0154 35FEFFFF 		.word	-459
 12958 0158 42FEFFFF 		.word	-446
 12959 015c 51FEFFFF 		.word	-431
 12960 0160 64FEFFFF 		.word	-412
 12961 0164 7BFEFFFF 		.word	-389
 12962 0168 96FEFFFF 		.word	-362
 12963 016c B5FEFFFF 		.word	-331
 12964 0170 D9FEFFFF 		.word	-295
 12965 0174 03FFFFFF 		.word	-253
 12966 0178 31FFFFFF 		.word	-207
 12967 017c 64FFFFFF 		.word	-156
 12968 0180 9AFFFFFF 		.word	-102
 12969 0184 D3FFFFFF 		.word	-45
 12970 0188 0D000000 		.word	13
 12971 018c 46000000 		.word	70
 12972 0190 7E000000 		.word	126
 12973 0194 B3000000 		.word	179
 12974 0198 E4000000 		.word	228
 12975 019c 10010000 		.word	272
 12976 01a0 37010000 		.word	311
 12977 01a4 59010000 		.word	345
 12978 01a8 76010000 		.word	374
 12979 01ac 8F010000 		.word	399
 12980 01b0 A4010000 		.word	420
 12981 01b4 B5010000 		.word	437
 12982 01b8 00000000 		.space	128
 12982      00000000 
 12982      00000000 
 12982      00000000 
 12982      00000000 
 12983 0238 88FEFFFF 		.word	-376
 12984 023c 9BFEFFFF 		.word	-357
 12985 0240 B1FEFFFF 		.word	-335
 12986 0244 C8FEFFFF 		.word	-312
 12987 0248 E2FEFFFF 		.word	-286
 12988 024c FEFEFFFF 		.word	-258
 12989 0250 1DFFFFFF 		.word	-227
 12990 0254 3DFFFFFF 		.word	-195
 12991 0258 5FFFFFFF 		.word	-161
 12992 025c 84FFFFFF 		.word	-124
 12993 0260 A9FFFFFF 		.word	-87
 12994 0264 CFFFFFFF 		.word	-49
 12995 0268 F6FFFFFF 		.word	-10
 12996 026c 1D000000 		.word	29
ARM GAS  /tmp/ccONvy4E.s 			page 390


 12997 0270 44000000 		.word	68
 12998 0274 6A000000 		.word	106
 12999 0278 8F000000 		.word	143
 13000 027c B2000000 		.word	178
 13001 0280 D4000000 		.word	212
 13002 0284 F3000000 		.word	243
 13003 0288 10010000 		.word	272
 13004 028c 2B010000 		.word	299
 13005 0290 44010000 		.word	324
 13006 0294 5A010000 		.word	346
 13007 0298 6E010000 		.word	366
 13008 029c 80010000 		.word	384
 13009 02a0 90010000 		.word	400
 13010 02a4 9E010000 		.word	414
 13011 02a8 AB010000 		.word	427
 13012 02ac B6010000 		.word	438
 13013 02b0 C0010000 		.word	448
 13014 02b4 FA010000 		.word	506
 13015 02b8 00000000 		.space	128
 13015      00000000 
 13015      00000000 
 13015      00000000 
 13015      00000000 
 13016 0338 69FEFFFF 		.word	-407
 13017 033c 83FEFFFF 		.word	-381
 13018 0340 A3FEFFFF 		.word	-349
 13019 0344 C9FEFFFF 		.word	-311
 13020 0348 F4FEFFFF 		.word	-268
 13021 034c 26FFFFFF 		.word	-218
 13022 0350 5EFFFFFF 		.word	-162
 13023 0354 9AFFFFFF 		.word	-102
 13024 0358 D9FFFFFF 		.word	-39
 13025 035c 19000000 		.word	25
 13026 0360 59000000 		.word	89
 13027 0364 95000000 		.word	149
 13028 0368 CE000000 		.word	206
 13029 036c 01010000 		.word	257
 13030 0370 2E010000 		.word	302
 13031 0374 55010000 		.word	341
 13032 0378 00000000 		.space	192
 13032      00000000 
 13032      00000000 
 13032      00000000 
 13032      00000000 
 13033 0438 DEFEFFFF 		.word	-290
 13034 043c 04FFFFFF 		.word	-252
 13035 0440 2FFFFFFF 		.word	-209
 13036 0444 5DFFFFFF 		.word	-163
 13037 0448 8EFFFFFF 		.word	-114
 13038 044c C2FFFFFF 		.word	-62
 13039 0450 F7FFFFFF 		.word	-9
 13040 0454 2C000000 		.word	44
 13041 0458 61000000 		.word	97
 13042 045c 93000000 		.word	147
 13043 0460 C2000000 		.word	194
 13044 0464 EE000000 		.word	238
 13045 0468 16010000 		.word	278
ARM GAS  /tmp/ccONvy4E.s 			page 391


 13046 046c 39010000 		.word	313
 13047 0470 58010000 		.word	344
 13048 0474 73010000 		.word	371
 13049 0478 00000000 		.space	192
 13049      00000000 
 13049      00000000 
 13049      00000000 
 13049      00000000 
 13050 0538 C2FEFFFF 		.word	-318
 13051 053c E5FEFFFF 		.word	-283
 13052 0540 0BFFFFFF 		.word	-245
 13053 0544 36FFFFFF 		.word	-202
 13054 0548 64FFFFFF 		.word	-156
 13055 054c 95FFFFFF 		.word	-107
 13056 0550 C8FFFFFF 		.word	-56
 13057 0554 FDFFFFFF 		.word	-3
 13058 0558 31000000 		.word	49
 13059 055c 65000000 		.word	101
 13060 0560 96000000 		.word	150
 13061 0564 C4000000 		.word	196
 13062 0568 EF000000 		.word	239
 13063 056c 16010000 		.word	278
 13064 0570 39010000 		.word	313
 13065 0574 58010000 		.word	344
 13066 0578 00000000 		.space	192
 13066      00000000 
 13066      00000000 
 13066      00000000 
 13066      00000000 
 13067 0638 3FFFFFFF 		.word	-193
 13068 063c 68FFFFFF 		.word	-152
 13069 0640 93FFFFFF 		.word	-109
 13070 0644 BFFFFFFF 		.word	-65
 13071 0648 ECFFFFFF 		.word	-20
 13072 064c 1A000000 		.word	26
 13073 0650 47000000 		.word	71
 13074 0654 73000000 		.word	115
 13075 0658 9E000000 		.word	158
 13076 065c C6000000 		.word	198
 13077 0660 EB000000 		.word	235
 13078 0664 0E010000 		.word	270
 13079 0668 2D010000 		.word	301
 13080 066c 4A010000 		.word	330
 13081 0670 63010000 		.word	355
 13082 0674 79010000 		.word	377
 13083 0678 00000000 		.space	192
 13083      00000000 
 13083      00000000 
 13083      00000000 
 13083      00000000 
 13084 0738 02FFFFFF 		.word	-254
 13085 073c 26FFFFFF 		.word	-218
 13086 0740 4CFFFFFF 		.word	-180
 13087 0744 74FFFFFF 		.word	-140
 13088 0748 9FFFFFFF 		.word	-97
 13089 074c CBFFFFFF 		.word	-53
 13090 0750 F8FFFFFF 		.word	-8
ARM GAS  /tmp/ccONvy4E.s 			page 392


 13091 0754 24000000 		.word	36
 13092 0758 51000000 		.word	81
 13093 075c 7C000000 		.word	124
 13094 0760 A5000000 		.word	165
 13095 0764 CC000000 		.word	204
 13096 0768 F0000000 		.word	240
 13097 076c 12010000 		.word	274
 13098 0770 30010000 		.word	304
 13099 0774 4C010000 		.word	332
 13100 0778 00000000 		.space	192
 13100      00000000 
 13100      00000000 
 13100      00000000 
 13100      00000000 
 13101 0838 33FFFFFF 		.word	-205
 13102 083c 90FFFFFF 		.word	-112
 13103 0840 F6FFFFFF 		.word	-10
 13104 0844 5C000000 		.word	92
 13105 0848 BB000000 		.word	187
 13106 084c 0D010000 		.word	269
 13107 0850 50010000 		.word	336
 13108 0854 83010000 		.word	387
 13109 0858 00000000 		.space	224
 13109      00000000 
 13109      00000000 
 13109      00000000 
 13109      00000000 
 13110 0938 07FFFFFF 		.word	-249
 13111 093c 49FFFFFF 		.word	-183
 13112 0940 92FFFFFF 		.word	-110
 13113 0944 E0FFFFFF 		.word	-32
 13114 0948 30000000 		.word	48
 13115 094c 7E000000 		.word	126
 13116 0950 C6000000 		.word	198
 13117 0954 05010000 		.word	261
 13118 0958 00000000 		.space	224
 13118      00000000 
 13118      00000000 
 13118      00000000 
 13118      00000000 
 13119 0a38 42FFFFFF 		.word	-190
 13120 0a3c 7BFFFFFF 		.word	-133
 13121 0a40 B7FFFFFF 		.word	-73
 13122 0a44 F6FFFFFF 		.word	-10
 13123 0a48 35000000 		.word	53
 13124 0a4c 73000000 		.word	115
 13125 0a50 AD000000 		.word	173
 13126 0a54 E3000000 		.word	227
 13127 0a58 00000000 		.space	224
 13127      00000000 
 13127      00000000 
 13127      00000000 
 13127      00000000 
 13128 0b38 0000     		.short	0
 13129 0b3a 2B00     		.short	43
 13130 0b3c D400     		.short	212
 13131 0b3e 3300     		.short	51
ARM GAS  /tmp/ccONvy4E.s 			page 393


 13132 0b40 B300     		.short	179
 13133 0b42 1200     		.short	18
 13134 0b44 2500     		.short	37
 13135 0b46 1400     		.short	20
 13136 0b48 0200     		.short	2
 13137 0b4a E200     		.short	226
 13138 0b4c C600     		.short	198
 13139 0b4e 0300     		.short	3
 13140 0b50 6000     		.short	96
 13141 0b52 5B00     		.short	91
 13142 0b54 0500     		.short	5
 13143 0b56 0F00     		.short	15
 13144 0b58 2600     		.short	38
 13145 0b5a FC00     		.short	252
 13146 0b5c A600     		.short	166
 13147 0b5e A500     		.short	165
 13148 0b60 D600     		.short	214
 13149 0b62 DD00     		.short	221
 13150 0b64 DD00     		.short	221
 13151 0b66 FD00     		.short	253
 13152 0b68 2500     		.short	37
 13153 0b6a 2B00     		.short	43
 13154 0b6c 2300     		.short	35
 13155 0b6e 2200     		.short	34
 13156 0b70 0F00     		.short	15
 13157 0b72 FF00     		.short	255
 13158 0b74 F800     		.short	248
 13159 0b76 EF00     		.short	239
 13160 0b78 ED00     		.short	237
 13161 0b7a EF00     		.short	239
 13162 0b7c F700     		.short	247
 13163 0b7e F700     		.short	247
 13164 0b80 FA00     		.short	250
 13165 0b82 0100     		.short	1
 13166 0b84 0400     		.short	4
 13167 0b86 0300     		.short	3
 13168 0b88 0100     		.short	1
 13169 0b8a 0000     		.short	0
 13170 0b8c 0000     		.short	0
 13171 0b8e 0000     		.short	0
 13172 0b90 0000     		.short	0
 13173 0b92 0000     		.short	0
 13174 0b94 0000     		.short	0
 13175 0b96 0000     		.short	0
 13176 0b98 0000     		.short	0
 13177 0b9a 0000     		.short	0
 13178 0b9c 0000     		.short	0
 13179 0b9e 0000     		.short	0
 13180 0ba0 03030302 		.ascii	"\003\003\003\002\002\001\001\000"
 13180      02010100 
 13181              		.section	.rodata.T0280B_0281A_coeff,"a"
 13182              		.align	2
 13183              		.type	T0280B_0281A_coeff, %object
 13184              		.size	T0280B_0281A_coeff, 2984
 13185              	T0280B_0281A_coeff:
 13186 0000 01000000 		.word	1
 13187 0004 0A000000 		.word	10
ARM GAS  /tmp/ccONvy4E.s 			page 394


 13188 0008 04000000 		.word	4
 13189 000c 05000000 		.word	5
 13190 0010 05000000 		.word	5
 13191 0014 05000000 		.word	5
 13192 0018 04000000 		.word	4
 13193 001c 04000000 		.word	4
 13194 0020 04000000 		.word	4
 13195 0024 04000000 		.word	4
 13196 0028 04000000 		.word	4
 13197 002c 03000000 		.word	3
 13198 0030 03000000 		.word	3
 13199 0034 03000000 		.word	3
 13200 0038 0000     		.short	0
 13201 003a 0000     		.short	0
 13202 003c 0100     		.short	1
 13203 003e 0100     		.short	1
 13204 0040 0200     		.short	2
 13205 0042 0300     		.short	3
 13206 0044 0500     		.short	5
 13207 0046 0700     		.short	7
 13208 0048 0A00     		.short	10
 13209 004a 0F00     		.short	15
 13210 004c 1500     		.short	21
 13211 004e 1E00     		.short	30
 13212 0050 2B00     		.short	43
 13213 0052 3D00     		.short	61
 13214 0054 5600     		.short	86
 13215 0056 FF01     		.short	511
 13216 0058 00000000 		.space	96
 13216      00000000 
 13216      00000000 
 13216      00000000 
 13216      00000000 
 13217 00b8 0000     		.short	0
 13218 00ba 2900     		.short	41
 13219 00bc 2B00     		.short	43
 13220 00be 2D00     		.short	45
 13221 00c0 2F00     		.short	47
 13222 00c2 3100     		.short	49
 13223 00c4 3300     		.short	51
 13224 00c6 3500     		.short	53
 13225 00c8 3700     		.short	55
 13226 00ca 3A00     		.short	58
 13227 00cc 3C00     		.short	60
 13228 00ce 3F00     		.short	63
 13229 00d0 4200     		.short	66
 13230 00d2 4600     		.short	70
 13231 00d4 4900     		.short	73
 13232 00d6 4C00     		.short	76
 13233 00d8 4F00     		.short	79
 13234 00da 5300     		.short	83
 13235 00dc 5700     		.short	87
 13236 00de 5A00     		.short	90
 13237 00e0 5E00     		.short	94
 13238 00e2 6300     		.short	99
 13239 00e4 6700     		.short	103
 13240 00e6 6B00     		.short	107
ARM GAS  /tmp/ccONvy4E.s 			page 395


 13241 00e8 7000     		.short	112
 13242 00ea 7600     		.short	118
 13243 00ec 7B00     		.short	123
 13244 00ee 8100     		.short	129
 13245 00f0 8600     		.short	134
 13246 00f2 8C00     		.short	140
 13247 00f4 9300     		.short	147
 13248 00f6 9900     		.short	153
 13249 00f8 00000000 		.space	64
 13249      00000000 
 13249      00000000 
 13249      00000000 
 13249      00000000 
 13250 0138 0BFEFFFF 		.word	-501
 13251 013c 0FFEFFFF 		.word	-497
 13252 0140 13FEFFFF 		.word	-493
 13253 0144 18FEFFFF 		.word	-488
 13254 0148 20FEFFFF 		.word	-480
 13255 014c 29FEFFFF 		.word	-471
 13256 0150 34FEFFFF 		.word	-460
 13257 0154 42FEFFFF 		.word	-446
 13258 0158 55FEFFFF 		.word	-427
 13259 015c 6BFEFFFF 		.word	-405
 13260 0160 86FEFFFF 		.word	-378
 13261 0164 A8FEFFFF 		.word	-344
 13262 0168 CFFEFFFF 		.word	-305
 13263 016c FDFEFFFF 		.word	-259
 13264 0170 32FFFFFF 		.word	-206
 13265 0174 6CFFFFFF 		.word	-148
 13266 0178 AAFFFFFF 		.word	-86
 13267 017c EBFFFFFF 		.word	-21
 13268 0180 2D000000 		.word	45
 13269 0184 6E000000 		.word	110
 13270 0188 AB000000 		.word	171
 13271 018c E3000000 		.word	227
 13272 0190 15010000 		.word	277
 13273 0194 40010000 		.word	320
 13274 0198 65010000 		.word	357
 13275 019c 84010000 		.word	388
 13276 01a0 9D010000 		.word	413
 13277 01a4 B2010000 		.word	434
 13278 01a8 C3010000 		.word	451
 13279 01ac D0010000 		.word	464
 13280 01b0 DA010000 		.word	474
 13281 01b4 F2010000 		.word	498
 13282 01b8 00000000 		.space	128
 13282      00000000 
 13282      00000000 
 13282      00000000 
 13282      00000000 
 13283 0238 A3FEFFFF 		.word	-349
 13284 023c B8FEFFFF 		.word	-328
 13285 0240 CFFEFFFF 		.word	-305
 13286 0244 E8FEFFFF 		.word	-280
 13287 0248 04FFFFFF 		.word	-252
 13288 024c 21FFFFFF 		.word	-223
 13289 0250 40FFFFFF 		.word	-192
ARM GAS  /tmp/ccONvy4E.s 			page 396


 13290 0254 62FFFFFF 		.word	-158
 13291 0258 84FFFFFF 		.word	-124
 13292 025c A8FFFFFF 		.word	-88
 13293 0260 CDFFFFFF 		.word	-51
 13294 0264 F2FFFFFF 		.word	-14
 13295 0268 17000000 		.word	23
 13296 026c 3C000000 		.word	60
 13297 0270 61000000 		.word	97
 13298 0274 85000000 		.word	133
 13299 0278 A7000000 		.word	167
 13300 027c C7000000 		.word	199
 13301 0280 E6000000 		.word	230
 13302 0284 03010000 		.word	259
 13303 0288 1E010000 		.word	286
 13304 028c 36010000 		.word	310
 13305 0290 4D010000 		.word	333
 13306 0294 62010000 		.word	354
 13307 0298 74010000 		.word	372
 13308 029c 85010000 		.word	389
 13309 02a0 94010000 		.word	404
 13310 02a4 A1010000 		.word	417
 13311 02a8 AD010000 		.word	429
 13312 02ac B7010000 		.word	439
 13313 02b0 C1010000 		.word	449
 13314 02b4 FA010000 		.word	506
 13315 02b8 00000000 		.space	128
 13315      00000000 
 13315      00000000 
 13315      00000000 
 13315      00000000 
 13316 0338 73FEFFFF 		.word	-397
 13317 033c 93FEFFFF 		.word	-365
 13318 0340 B9FEFFFF 		.word	-327
 13319 0344 E6FEFFFF 		.word	-282
 13320 0348 1BFFFFFF 		.word	-229
 13321 034c 56FFFFFF 		.word	-170
 13322 0350 98FFFFFF 		.word	-104
 13323 0354 DCFFFFFF 		.word	-36
 13324 0358 23000000 		.word	35
 13325 035c 68000000 		.word	104
 13326 0360 A9000000 		.word	169
 13327 0364 E4000000 		.word	228
 13328 0368 19010000 		.word	281
 13329 036c 46010000 		.word	326
 13330 0370 6C010000 		.word	364
 13331 0374 8C010000 		.word	396
 13332 0378 00000000 		.space	192
 13332      00000000 
 13332      00000000 
 13332      00000000 
 13332      00000000 
 13333 0438 8FFEFFFF 		.word	-369
 13334 043c B2FEFFFF 		.word	-334
 13335 0440 DBFEFFFF 		.word	-293
 13336 0444 0BFFFFFF 		.word	-245
 13337 0448 41FFFFFF 		.word	-191
 13338 044c 7DFFFFFF 		.word	-131
ARM GAS  /tmp/ccONvy4E.s 			page 397


 13339 0450 BDFFFFFF 		.word	-67
 13340 0454 FFFFFFFF 		.word	-1
 13341 0458 40000000 		.word	64
 13342 045c 80000000 		.word	128
 13343 0460 BC000000 		.word	188
 13344 0464 F3000000 		.word	243
 13345 0468 23010000 		.word	291
 13346 046c 4C010000 		.word	332
 13347 0470 6F010000 		.word	367
 13348 0474 8D010000 		.word	397
 13349 0478 00000000 		.space	192
 13349      00000000 
 13349      00000000 
 13349      00000000 
 13349      00000000 
 13350 0538 C1FEFFFF 		.word	-319
 13351 053c E2FEFFFF 		.word	-286
 13352 0540 06FFFFFF 		.word	-250
 13353 0544 2DFFFFFF 		.word	-211
 13354 0548 58FFFFFF 		.word	-168
 13355 054c 86FFFFFF 		.word	-122
 13356 0550 B6FFFFFF 		.word	-74
 13357 0554 E7FFFFFF 		.word	-25
 13358 0558 18000000 		.word	24
 13359 055c 49000000 		.word	73
 13360 0560 79000000 		.word	121
 13361 0564 A7000000 		.word	167
 13362 0568 D2000000 		.word	210
 13363 056c F9000000 		.word	249
 13364 0570 1D010000 		.word	285
 13365 0574 3E010000 		.word	318
 13366 0578 00000000 		.space	192
 13366      00000000 
 13366      00000000 
 13366      00000000 
 13366      00000000 
 13367 0638 DEFEFFFF 		.word	-290
 13368 063c 04FFFFFF 		.word	-252
 13369 0640 2FFFFFFF 		.word	-209
 13370 0644 5DFFFFFF 		.word	-163
 13371 0648 8EFFFFFF 		.word	-114
 13372 064c C2FFFFFF 		.word	-62
 13373 0650 F7FFFFFF 		.word	-9
 13374 0654 2C000000 		.word	44
 13375 0658 61000000 		.word	97
 13376 065c 93000000 		.word	147
 13377 0660 C2000000 		.word	194
 13378 0664 EE000000 		.word	238
 13379 0668 16010000 		.word	278
 13380 066c 39010000 		.word	313
 13381 0670 58010000 		.word	344
 13382 0674 73010000 		.word	371
 13383 0678 00000000 		.space	192
 13383      00000000 
 13383      00000000 
 13383      00000000 
 13383      00000000 
ARM GAS  /tmp/ccONvy4E.s 			page 398


 13384 0738 DDFEFFFF 		.word	-291
 13385 073c 00FFFFFF 		.word	-256
 13386 0740 28FFFFFF 		.word	-216
 13387 0744 52FFFFFF 		.word	-174
 13388 0748 80FFFFFF 		.word	-128
 13389 074c B0FFFFFF 		.word	-80
 13390 0750 E1FFFFFF 		.word	-31
 13391 0754 13000000 		.word	19
 13392 0758 45000000 		.word	69
 13393 075c 75000000 		.word	117
 13394 0760 A3000000 		.word	163
 13395 0764 CE000000 		.word	206
 13396 0768 F6000000 		.word	246
 13397 076c 1B010000 		.word	283
 13398 0770 3C010000 		.word	316
 13399 0774 59010000 		.word	345
 13400 0778 00000000 		.space	192
 13400      00000000 
 13400      00000000 
 13400      00000000 
 13400      00000000 
 13401 0838 26FFFFFF 		.word	-218
 13402 083c 7BFFFFFF 		.word	-133
 13403 0840 DAFFFFFF 		.word	-38
 13404 0844 3B000000 		.word	59
 13405 0848 98000000 		.word	152
 13406 084c EB000000 		.word	235
 13407 0850 31010000 		.word	305
 13408 0854 69010000 		.word	361
 13409 0858 00000000 		.space	224
 13409      00000000 
 13409      00000000 
 13409      00000000 
 13409      00000000 
 13410 0938 1EFFFFFF 		.word	-226
 13411 093c 63FFFFFF 		.word	-157
 13412 0940 AEFFFFFF 		.word	-82
 13413 0944 FDFFFFFF 		.word	-3
 13414 0948 4C000000 		.word	76
 13415 094c 97000000 		.word	151
 13416 0950 DC000000 		.word	220
 13417 0954 18010000 		.word	280
 13418 0958 00000000 		.space	224
 13418      00000000 
 13418      00000000 
 13418      00000000 
 13418      00000000 
 13419 0a38 4DFFFFFF 		.word	-179
 13420 0a3c 86FFFFFF 		.word	-122
 13421 0a40 C3FFFFFF 		.word	-61
 13422 0a44 01000000 		.word	1
 13423 0a48 3E000000 		.word	62
 13424 0a4c 7B000000 		.word	123
 13425 0a50 B3000000 		.word	179
 13426 0a54 E7000000 		.word	231
 13427 0a58 00000000 		.space	224
 13427      00000000 
ARM GAS  /tmp/ccONvy4E.s 			page 399


 13427      00000000 
 13427      00000000 
 13427      00000000 
 13428 0b38 0000     		.short	0
 13429 0b3a 2A00     		.short	42
 13430 0b3c D400     		.short	212
 13431 0b3e 3200     		.short	50
 13432 0b40 B200     		.short	178
 13433 0b42 1200     		.short	18
 13434 0b44 2500     		.short	37
 13435 0b46 1400     		.short	20
 13436 0b48 0200     		.short	2
 13437 0b4a E100     		.short	225
 13438 0b4c C500     		.short	197
 13439 0b4e 0200     		.short	2
 13440 0b50 5F00     		.short	95
 13441 0b52 5A00     		.short	90
 13442 0b54 0500     		.short	5
 13443 0b56 0F00     		.short	15
 13444 0b58 2600     		.short	38
 13445 0b5a FC00     		.short	252
 13446 0b5c A500     		.short	165
 13447 0b5e A500     		.short	165
 13448 0b60 D600     		.short	214
 13449 0b62 DD00     		.short	221
 13450 0b64 DC00     		.short	220
 13451 0b66 FC00     		.short	252
 13452 0b68 2500     		.short	37
 13453 0b6a 2B00     		.short	43
 13454 0b6c 2200     		.short	34
 13455 0b6e 2100     		.short	33
 13456 0b70 0F00     		.short	15
 13457 0b72 FF00     		.short	255
 13458 0b74 F800     		.short	248
 13459 0b76 EE00     		.short	238
 13460 0b78 ED00     		.short	237
 13461 0b7a EF00     		.short	239
 13462 0b7c F700     		.short	247
 13463 0b7e F600     		.short	246
 13464 0b80 FA00     		.short	250
 13465 0b82 0000     		.short	0
 13466 0b84 0300     		.short	3
 13467 0b86 0200     		.short	2
 13468 0b88 0100     		.short	1
 13469 0b8a 0000     		.short	0
 13470 0b8c 0000     		.short	0
 13471 0b8e 0000     		.short	0
 13472 0b90 0000     		.short	0
 13473 0b92 0000     		.short	0
 13474 0b94 0000     		.short	0
 13475 0b96 0000     		.short	0
 13476 0b98 0000     		.short	0
 13477 0b9a 0000     		.short	0
 13478 0b9c 0000     		.short	0
 13479 0b9e 0000     		.short	0
 13480 0ba0 03030302 		.ascii	"\003\003\003\002\002\001\001\000"
 13480      02010100 
ARM GAS  /tmp/ccONvy4E.s 			page 400


 13481              		.global	koffset
 13482              		.section	.rodata.koffset,"a"
 13483              		.align	2
 13484              		.type	koffset, %object
 13485              		.size	koffset, 10
 13486              	koffset:
 13487 0000 00204050 		.ascii	"\000 @P`p\200\220\230\240"
 13487      60708090 
 13487      98A0
 13488              		.section	.bss.modus,"aw",%nobits
 13489              		.type	modus, %object
 13490              		.size	modus, 1
 13491              	modus:
 13492 0000 00       		.space	1
 13493              		.ident	"GCC: (Arm GNU Toolchain 13.2.rel1 (Build arm-13.7)) 13.2.1 20231009"
ARM GAS  /tmp/ccONvy4E.s 			page 401


DEFINED SYMBOLS
                            *ABS*:00000000 tms5200x.c
     /tmp/ccONvy4E.s:17     .text.extract_bits:00000000 $t
     /tmp/ccONvy4E.s:24     .text.extract_bits:00000000 extract_bits
     /tmp/ccONvy4E.s:68     .text.extract_bits:00000054 $d
     /tmp/ccONvy4E.s:6945   .bss.ptrAddr:00000000 ptrAddr
     /tmp/ccONvy4E.s:6939   .bss.ptrBit:00000000 ptrBit
     /tmp/ccONvy4E.s:6934   .bss.byte_rev:00000000 byte_rev
     /tmp/ccONvy4E.s:73     .text.lattice_filter:00000000 $t
     /tmp/ccONvy4E.s:80     .text.lattice_filter:00000000 lattice_filter
     /tmp/ccONvy4E.s:372    .text.lattice_filter:00000324 $d
     /tmp/ccONvy4E.s:6715   .bss.m_previous_energy:00000000 m_previous_energy
     /tmp/ccONvy4E.s:6626   .bss.m_excitation_data:00000000 m_excitation_data
     /tmp/ccONvy4E.s:6722   .bss.m_current_k:00000000 m_current_k
     /tmp/ccONvy4E.s:6640   .bss.m_x:00000000 m_x
     /tmp/ccONvy4E.s:6647   .bss.m_u:00000000 m_u
     /tmp/ccONvy4E.s:379    .text.lattice_filter:00000338 $t
     /tmp/ccONvy4E.s:797    .text.lattice_filter:000007b8 $d
     /tmp/ccONvy4E.s:6736   .bss.m_current_energy:00000000 m_current_energy
     /tmp/ccONvy4E.s:801    .text.parse_frame:00000000 $t
     /tmp/ccONvy4E.s:808    .text.parse_frame:00000000 parse_frame
     /tmp/ccONvy4E.s:886    .text.parse_frame:0000009c $d
     /tmp/ccONvy4E.s:6905   .bss.m_variant:00000000 m_variant
     /tmp/ccONvy4E.s:6660   .bss.m_c_variant_rate:00000000 m_c_variant_rate
     /tmp/ccONvy4E.s:6911   .rodata.reload_table:00000000 reload_table
     /tmp/ccONvy4E.s:6898   .bss.m_coeff:00000000 m_coeff
     /tmp/ccONvy4E.s:6690   .bss.m_IP:00000000 m_IP
     /tmp/ccONvy4E.s:6807   .bss.m_new_frame_energy_idx:00000000 m_new_frame_energy_idx
     /tmp/ccONvy4E.s:6801   .bss.m_new_frame_pitch_idx:00000000 m_new_frame_pitch_idx
     /tmp/ccONvy4E.s:6795   .bss.m_new_frame_k_idx:00000000 m_new_frame_k_idx
     /tmp/ccONvy4E.s:897    .text.parse_frame_bend_5200:00000000 $t
     /tmp/ccONvy4E.s:904    .text.parse_frame_bend_5200:00000000 parse_frame_bend_5200
     /tmp/ccONvy4E.s:1187   .text.parse_frame_bend_5200:00000350 $d
     /tmp/ccONvy4E.s:1199   .text.parse_frame_bend_5200:00000378 $t
     /tmp/ccONvy4E.s:1217   .text.parse_frame_bend_5200:00000398 $d
     /tmp/ccONvy4E.s:1220   .text.parse_frame_raw_5100:00000000 $t
     /tmp/ccONvy4E.s:1227   .text.parse_frame_raw_5100:00000000 parse_frame_raw_5100
     /tmp/ccONvy4E.s:1325   .text.parse_frame_raw_5100:0000013c $d
     /tmp/ccONvy4E.s:1333   .text.parse_frame_raw_5200:00000000 $t
     /tmp/ccONvy4E.s:1340   .text.parse_frame_raw_5200:00000000 parse_frame_raw_5200
     /tmp/ccONvy4E.s:1438   .text.parse_frame_raw_5200:0000013c $d
     /tmp/ccONvy4E.s:1447   .text.process:00000000 $t
     /tmp/ccONvy4E.s:1454   .text.process:00000000 process
     /tmp/ccONvy4E.s:1730   .text.process:000002a4 $d
     /tmp/ccONvy4E.s:6696   .bss.m_PC:00000000 m_PC
     /tmp/ccONvy4E.s:6684   .bss.m_inhibit:00000000 m_inhibit
     /tmp/ccONvy4E.s:6813   .bss.m_OLDP:00000000 m_OLDP
     /tmp/ccONvy4E.s:6702   .data.m_subc_reload:00000000 m_subc_reload
     /tmp/ccONvy4E.s:6767   .bss.m_old_frame_energy_idx:00000000 m_old_frame_energy_idx
     /tmp/ccONvy4E.s:6755   .bss.m_old_frame_k_idx:00000000 m_old_frame_k_idx
     /tmp/ccONvy4E.s:6761   .bss.m_old_frame_pitch_idx:00000000 m_old_frame_pitch_idx
     /tmp/ccONvy4E.s:6729   .bss.m_current_pitch:00000000 m_current_pitch
     /tmp/ccONvy4E.s:6788   .bss.m_target_energy:00000000 m_target_energy
     /tmp/ccONvy4E.s:6781   .bss.m_target_pitch:00000000 m_target_pitch
     /tmp/ccONvy4E.s:6774   .bss.m_target_k:00000000 m_target_k
     /tmp/ccONvy4E.s:6633   .bss.m_RNG:00000000 m_RNG
     /tmp/ccONvy4E.s:6654   .bss.m_pitch_count:00000000 m_pitch_count
ARM GAS  /tmp/ccONvy4E.s 			page 402


     /tmp/ccONvy4E.s:6619   .data.m_digital_select:00000000 m_digital_select
     /tmp/ccONvy4E.s:13491  .bss.modus:00000000 modus
     /tmp/ccONvy4E.s:6879   .bss.m_talk_status:00000000 m_talk_status
     /tmp/ccONvy4E.s:6708   .bss.m_subcycle:00000000 m_subcycle
     /tmp/ccONvy4E.s:1764   .text.process:00000328 $t
     /tmp/ccONvy4E.s:2049   .text.process:000005f0 $d
     /tmp/ccONvy4E.s:6601   .bss.counter.0:00000000 counter.0
     /tmp/ccONvy4E.s:6819   .bss.m_OLDE:00000000 m_OLDE
     /tmp/ccONvy4E.s:6885   .bss.m_speak_external:00000000 m_speak_external
     /tmp/ccONvy4E.s:2075   .text.process_k_tabled5100:00000000 $t
     /tmp/ccONvy4E.s:2082   .text.process_k_tabled5100:00000000 process_k_tabled5100
     /tmp/ccONvy4E.s:2356   .text.process_k_tabled5100:00000258 $d
     /tmp/ccONvy4E.s:2380   .text.process_k_tabled5100:000002b4 $t
     /tmp/ccONvy4E.s:2518   .text.process_k_tabled5100:00000430 $d
     /tmp/ccONvy4E.s:13486  .rodata.koffset:00000000 koffset
     /tmp/ccONvy4E.s:2539   .text.process_pitchk_tabled5100:00000000 $t
     /tmp/ccONvy4E.s:2546   .text.process_pitchk_tabled5100:00000000 process_pitchk_tabled5100
     /tmp/ccONvy4E.s:2820   .text.process_pitchk_tabled5100:00000258 $d
     /tmp/ccONvy4E.s:2844   .text.process_pitchk_tabled5100:000002b4 $t
     /tmp/ccONvy4E.s:3005   .text.process_pitchk_tabled5100:00000480 $d
     /tmp/ccONvy4E.s:3028   .text.process_pitch_tabled5100:00000000 $t
     /tmp/ccONvy4E.s:3035   .text.process_pitch_tabled5100:00000000 process_pitch_tabled5100
     /tmp/ccONvy4E.s:3309   .text.process_pitch_tabled5100:00000258 $d
     /tmp/ccONvy4E.s:3333   .text.process_pitch_tabled5100:000002b4 $t
     /tmp/ccONvy4E.s:3453   .text.process_pitch_tabled5100:000003f4 $d
     /tmp/ccONvy4E.s:3473   .text.processbend5100:00000000 $t
     /tmp/ccONvy4E.s:3480   .text.processbend5100:00000000 processbend5100
     /tmp/ccONvy4E.s:3785   .text.processbend5100:000002f4 $d
     /tmp/ccONvy4E.s:3814   .text.processbend5100:00000364 $t
     /tmp/ccONvy4E.s:3970   .text.processbend5100:000004c8 $d
     /tmp/ccONvy4E.s:3989   .text.process5100raw:00000000 $t
     /tmp/ccONvy4E.s:3996   .text.process5100raw:00000000 process5100raw
     /tmp/ccONvy4E.s:4303   .text.process5100raw:000002f4 $d
     /tmp/ccONvy4E.s:4331   .text.process5100raw:00000360 $t
     /tmp/ccONvy4E.s:4364   .text.process5100raw:0000039c $d
     /tmp/ccONvy4E.s:4369   .text.process5100raw_no_inter:00000000 $t
     /tmp/ccONvy4E.s:4376   .text.process5100raw_no_inter:00000000 process5100raw_no_inter
     /tmp/ccONvy4E.s:4495   .text.process5100raw_no_inter:00000110 $d
     /tmp/ccONvy4E.s:4510   .text.tms_newsay:00000000 $t
     /tmp/ccONvy4E.s:4517   .text.tms_newsay:00000000 tms_newsay
     /tmp/ccONvy4E.s:4571   .text.tms_newsay:00000068 $d
     /tmp/ccONvy4E.s:6952   .data.allTMSvocabs:00000000 allTMSvocabs
     /tmp/ccONvy4E.s:4585   .text.tms_newsay_lowbit:00000000 $t
     /tmp/ccONvy4E.s:4592   .text.tms_newsay_lowbit:00000000 tms_newsay_lowbit
     /tmp/ccONvy4E.s:4673   .text.tms_newsay_lowbit:000000a8 $d
     /tmp/ccONvy4E.s:6959   .data.last5200:00000000 last5200
     /tmp/ccONvy4E.s:6964   .data.last5100:00000000 last5100
     /tmp/ccONvy4E.s:4691   .text.tms_newsay_allphon:00000000 $t
     /tmp/ccONvy4E.s:4698   .text.tms_newsay_allphon:00000000 tms_newsay_allphon
     /tmp/ccONvy4E.s:4751   .text.tms_newsay_allphon:0000006c $d
     /tmp/ccONvy4E.s:4766   .text.tms_init:00000000 $t
     /tmp/ccONvy4E.s:4773   .text.tms_init:00000000 tms_init
     /tmp/ccONvy4E.s:4819   .text.tms_init:00000070 $d
     /tmp/ccONvy4E.s:12554  .rodata.T0285_2501E_coeff:00000000 T0285_2501E_coeff
     /tmp/ccONvy4E.s:4829   .text.tms_newsay_TTS:00000000 $t
     /tmp/ccONvy4E.s:4836   .text.tms_newsay_TTS:00000000 tms_newsay_TTS
     /tmp/ccONvy4E.s:4893   .text.tms_newsay_TTS:0000006c $d
ARM GAS  /tmp/ccONvy4E.s 			page 403


     /tmp/ccONvy4E.s:6921   .bss.TTSindex:00000000 TTSindex
     /tmp/ccONvy4E.s:6927   .bss.TTSoutarray:00000000 TTSoutarray
     /tmp/ccONvy4E.s:6916   .bss.TTSlength:00000000 TTSlength
     /tmp/ccONvy4E.s:4910   .text.tms_retriggerTTS:00000000 $t
     /tmp/ccONvy4E.s:4917   .text.tms_retriggerTTS:00000000 tms_retriggerTTS
     /tmp/ccONvy4E.s:4964   .text.tms_retriggerTTS:00000058 $d
     /tmp/ccONvy4E.s:4981   .text.tms_newsay_raw5100:00000000 $t
     /tmp/ccONvy4E.s:4988   .text.tms_newsay_raw5100:00000000 tms_newsay_raw5100
     /tmp/ccONvy4E.s:5020   .text.tms_newsay_raw5100:00000034 $d
     /tmp/ccONvy4E.s:5031   .text.tms_newsay_raw5200:00000000 $t
     /tmp/ccONvy4E.s:5038   .text.tms_newsay_raw5200:00000000 tms_newsay_raw5200
     /tmp/ccONvy4E.s:5068   .text.tms_newsay_raw5200:00000030 $d
     /tmp/ccONvy4E.s:5079   .text.tms_newsay_raw5220:00000000 $t
     /tmp/ccONvy4E.s:5086   .text.tms_newsay_raw5220:00000000 tms_newsay_raw5220
     /tmp/ccONvy4E.s:5109   .text.tms_newsay_raw5220:00000024 $d
     /tmp/ccONvy4E.s:12223  .rodata.tms5220_coeff:00000000 tms5220_coeff
     /tmp/ccONvy4E.s:5117   .text.tms_newsay_specific:00000000 $t
     /tmp/ccONvy4E.s:5124   .text.tms_newsay_specific:00000000 tms_newsay_specific
     /tmp/ccONvy4E.s:5178   .text.tms_newsay_specific:00000070 $d
     /tmp/ccONvy4E.s:5192   .text.tms_newsay_specifica:00000000 $t
     /tmp/ccONvy4E.s:5199   .text.tms_newsay_specifica:00000000 tms_newsay_specifica
     /tmp/ccONvy4E.s:5253   .text.tms_newsay_specifica:00000068 $d
     /tmp/ccONvy4E.s:5267   .text.tms_newsay_specificx:00000000 $t
     /tmp/ccONvy4E.s:5274   .text.tms_newsay_specificx:00000000 tms_newsay_specificx
     /tmp/ccONvy4E.s:5330   .text.tms_newsay_specificx:0000006c $d
     /tmp/ccONvy4E.s:5345   .text.tms_newsay_specific5100:00000000 $t
     /tmp/ccONvy4E.s:5352   .text.tms_newsay_specific5100:00000000 tms_newsay_specific5100
     /tmp/ccONvy4E.s:5408   .text.tms_newsay_specific5100:0000006c $d
     /tmp/ccONvy4E.s:5423   .text.tms_get_sample_allphon:00000000 $t
     /tmp/ccONvy4E.s:5430   .text.tms_get_sample_allphon:00000000 tms_get_sample_allphon
     /tmp/ccONvy4E.s:5458   .text.tms_get_sample_allphon:00000034 $d
     /tmp/ccONvy4E.s:5461   .text.tms_get_sample_allphon_sing:00000000 $t
     /tmp/ccONvy4E.s:5468   .text.tms_get_sample_allphon_sing:00000000 tms_get_sample_allphon_sing
     /tmp/ccONvy4E.s:5496   .text.tms_get_sample_allphon_sing:00000034 $d
     /tmp/ccONvy4E.s:5499   .text.tms_get_sample:00000000 $t
     /tmp/ccONvy4E.s:5506   .text.tms_get_sample:00000000 tms_get_sample
     /tmp/ccONvy4E.s:5534   .text.tms_get_sample:00000034 $d
     /tmp/ccONvy4E.s:5537   .text.tms_get_sample_sing:00000000 $t
     /tmp/ccONvy4E.s:5544   .text.tms_get_sample_sing:00000000 tms_get_sample_sing
     /tmp/ccONvy4E.s:5572   .text.tms_get_sample_sing:00000034 $d
     /tmp/ccONvy4E.s:5575   .text.tms_get_sample_lowbit:00000000 $t
     /tmp/ccONvy4E.s:5582   .text.tms_get_sample_lowbit:00000000 tms_get_sample_lowbit
     /tmp/ccONvy4E.s:5610   .text.tms_get_sample_lowbit:00000034 $d
     /tmp/ccONvy4E.s:5613   .text.tms_get_sample_TTS:00000000 $t
     /tmp/ccONvy4E.s:5620   .text.tms_get_sample_TTS:00000000 tms_get_sample_TTS
     /tmp/ccONvy4E.s:5648   .text.tms_get_sample_TTS:00000034 $d
     /tmp/ccONvy4E.s:5651   .text.tms_get_sample_bendlength:00000000 $t
     /tmp/ccONvy4E.s:5658   .text.tms_get_sample_bendlength:00000000 tms_get_sample_bendlength
     /tmp/ccONvy4E.s:5686   .text.tms_get_sample_bendlength:00000034 $d
     /tmp/ccONvy4E.s:5689   .text.tms_get_sample_raw5100:00000000 $t
     /tmp/ccONvy4E.s:5696   .text.tms_get_sample_raw5100:00000000 tms_get_sample_raw5100
     /tmp/ccONvy4E.s:5710   .text.tms_get_sample_raw5100:00000010 $d
     /tmp/ccONvy4E.s:13185  .rodata.T0280B_0281A_coeff:00000000 T0280B_0281A_coeff
     /tmp/ccONvy4E.s:5715   .text.tms_get_sample_raw5200:00000000 $t
     /tmp/ccONvy4E.s:5722   .text.tms_get_sample_raw5200:00000000 tms_get_sample_raw5200
     /tmp/ccONvy4E.s:5736   .text.tms_get_sample_raw5200:00000010 $d
     /tmp/ccONvy4E.s:5741   .text.tms_get_sample_raw5220:00000000 $t
ARM GAS  /tmp/ccONvy4E.s 			page 404


     /tmp/ccONvy4E.s:5748   .text.tms_get_sample_raw5220:00000000 tms_get_sample_raw5220
     /tmp/ccONvy4E.s:5762   .text.tms_get_sample_raw5220:00000010 $d
     /tmp/ccONvy4E.s:5767   .text.tms_get_sample_bend5100:00000000 $t
     /tmp/ccONvy4E.s:5774   .text.tms_get_sample_bend5100:00000000 tms_get_sample_bend5100
     /tmp/ccONvy4E.s:5807   .text.tms_get_sample_bend5100:0000003c $d
     /tmp/ccONvy4E.s:5812   .text.tms_get_sample_bend5100w:00000000 $t
     /tmp/ccONvy4E.s:5819   .text.tms_get_sample_bend5100w:00000000 tms_get_sample_bend5100w
     /tmp/ccONvy4E.s:5850   .text.tms_get_sample_bend5100w:00000038 $d
     /tmp/ccONvy4E.s:5856   .text.tms_get_sample_bend5200:00000000 $t
     /tmp/ccONvy4E.s:5863   .text.tms_get_sample_bend5200:00000000 tms_get_sample_bend5200
     /tmp/ccONvy4E.s:5896   .text.tms_get_sample_bend5200:0000003c $d
     /tmp/ccONvy4E.s:5901   .text.tms_get_sample_bend5200a:00000000 $t
     /tmp/ccONvy4E.s:5908   .text.tms_get_sample_bend5200a:00000000 tms_get_sample_bend5200a
     /tmp/ccONvy4E.s:5937   .text.tms_get_sample_bend5200a:00000034 $d
     /tmp/ccONvy4E.s:5942   .text.tms_get_sample_bend5200x:00000000 $t
     /tmp/ccONvy4E.s:5949   .text.tms_get_sample_bend5200x:00000000 tms_get_sample_bend5200x
     /tmp/ccONvy4E.s:5980   .text.tms_get_sample_bend5200x:00000038 $d
     /tmp/ccONvy4E.s:5986   .text.tms_get_sample_5100pitchtable:00000000 $t
     /tmp/ccONvy4E.s:5993   .text.tms_get_sample_5100pitchtable:00000000 tms_get_sample_5100pitchtable
     /tmp/ccONvy4E.s:6026   .text.tms_get_sample_5100pitchtable:0000003c $d
     /tmp/ccONvy4E.s:6031   .text.tms_get_sample_5100pitchtablew:00000000 $t
     /tmp/ccONvy4E.s:6038   .text.tms_get_sample_5100pitchtablew:00000000 tms_get_sample_5100pitchtablew
     /tmp/ccONvy4E.s:6069   .text.tms_get_sample_5100pitchtablew:00000038 $d
     /tmp/ccONvy4E.s:6075   .text.tms_get_sample_5200pitchtable:00000000 $t
     /tmp/ccONvy4E.s:6082   .text.tms_get_sample_5200pitchtable:00000000 tms_get_sample_5200pitchtable
     /tmp/ccONvy4E.s:6115   .text.tms_get_sample_5200pitchtable:0000003c $d
     /tmp/ccONvy4E.s:6120   .text.tms_get_sample_5200pitchtablea:00000000 $t
     /tmp/ccONvy4E.s:6127   .text.tms_get_sample_5200pitchtablea:00000000 tms_get_sample_5200pitchtablea
     /tmp/ccONvy4E.s:6156   .text.tms_get_sample_5200pitchtablea:00000034 $d
     /tmp/ccONvy4E.s:6161   .text.tms_get_sample_5200pitchtablex:00000000 $t
     /tmp/ccONvy4E.s:6168   .text.tms_get_sample_5200pitchtablex:00000000 tms_get_sample_5200pitchtablex
     /tmp/ccONvy4E.s:6199   .text.tms_get_sample_5200pitchtablex:00000038 $d
     /tmp/ccONvy4E.s:6205   .text.tms_get_sample_5100ktable:00000000 $t
     /tmp/ccONvy4E.s:6212   .text.tms_get_sample_5100ktable:00000000 tms_get_sample_5100ktable
     /tmp/ccONvy4E.s:6245   .text.tms_get_sample_5100ktable:0000003c $d
     /tmp/ccONvy4E.s:6250   .text.tms_get_sample_5100ktablew:00000000 $t
     /tmp/ccONvy4E.s:6257   .text.tms_get_sample_5100ktablew:00000000 tms_get_sample_5100ktablew
     /tmp/ccONvy4E.s:6288   .text.tms_get_sample_5100ktablew:00000038 $d
     /tmp/ccONvy4E.s:6294   .text.tms_get_sample_5200ktable:00000000 $t
     /tmp/ccONvy4E.s:6301   .text.tms_get_sample_5200ktable:00000000 tms_get_sample_5200ktable
     /tmp/ccONvy4E.s:6334   .text.tms_get_sample_5200ktable:0000003c $d
     /tmp/ccONvy4E.s:6339   .text.tms_get_sample_5200ktablea:00000000 $t
     /tmp/ccONvy4E.s:6346   .text.tms_get_sample_5200ktablea:00000000 tms_get_sample_5200ktablea
     /tmp/ccONvy4E.s:6375   .text.tms_get_sample_5200ktablea:00000034 $d
     /tmp/ccONvy4E.s:6380   .text.tms_get_sample_5100kandpitchtable:00000000 $t
     /tmp/ccONvy4E.s:6387   .text.tms_get_sample_5100kandpitchtable:00000000 tms_get_sample_5100kandpitchtable
     /tmp/ccONvy4E.s:6420   .text.tms_get_sample_5100kandpitchtable:0000003c $d
     /tmp/ccONvy4E.s:6425   .text.tms_get_sample_5100kandpitchtablew:00000000 $t
     /tmp/ccONvy4E.s:6432   .text.tms_get_sample_5100kandpitchtablew:00000000 tms_get_sample_5100kandpitchtablew
     /tmp/ccONvy4E.s:6463   .text.tms_get_sample_5100kandpitchtablew:00000038 $d
     /tmp/ccONvy4E.s:6469   .text.tms_get_sample_5200kandpitchtable:00000000 $t
     /tmp/ccONvy4E.s:6476   .text.tms_get_sample_5200kandpitchtable:00000000 tms_get_sample_5200kandpitchtable
     /tmp/ccONvy4E.s:6509   .text.tms_get_sample_5200kandpitchtable:0000003c $d
     /tmp/ccONvy4E.s:6514   .text.tms_get_sample_5200kandpitchtablea:00000000 $t
     /tmp/ccONvy4E.s:6521   .text.tms_get_sample_5200kandpitchtablea:00000000 tms_get_sample_5200kandpitchtablea
     /tmp/ccONvy4E.s:6550   .text.tms_get_sample_5200kandpitchtablea:00000034 $d
     /tmp/ccONvy4E.s:6555   .text.tms_get_sample_5200kandpitchtablex:00000000 $t
ARM GAS  /tmp/ccONvy4E.s 			page 405


     /tmp/ccONvy4E.s:6562   .text.tms_get_sample_5200kandpitchtablex:00000000 tms_get_sample_5200kandpitchtablex
     /tmp/ccONvy4E.s:6593   .text.tms_get_sample_5200kandpitchtablex:00000038 $d
     /tmp/ccONvy4E.s:6602   .bss.counter.0:00000000 $d
     /tmp/ccONvy4E.s:6607   .bss.m_true_timing:00000000 m_true_timing
     /tmp/ccONvy4E.s:6608   .bss.m_true_timing:00000000 $d
     /tmp/ccONvy4E.s:6613   .bss.m_io_ready:00000000 m_io_ready
     /tmp/ccONvy4E.s:6614   .bss.m_io_ready:00000000 $d
     /tmp/ccONvy4E.s:6623   .bss.m_excitation_data:00000000 $d
     /tmp/ccONvy4E.s:6630   .bss.m_RNG:00000000 $d
     /tmp/ccONvy4E.s:6637   .bss.m_x:00000000 $d
     /tmp/ccONvy4E.s:6644   .bss.m_u:00000000 $d
     /tmp/ccONvy4E.s:6651   .bss.m_pitch_count:00000000 $d
     /tmp/ccONvy4E.s:6661   .bss.m_c_variant_rate:00000000 $d
     /tmp/ccONvy4E.s:6666   .bss.m_pitch_zero:00000000 m_pitch_zero
     /tmp/ccONvy4E.s:6667   .bss.m_pitch_zero:00000000 $d
     /tmp/ccONvy4E.s:6672   .bss.m_zpar:00000000 m_zpar
     /tmp/ccONvy4E.s:6673   .bss.m_zpar:00000000 $d
     /tmp/ccONvy4E.s:6678   .bss.m_uv_zpar:00000000 m_uv_zpar
     /tmp/ccONvy4E.s:6679   .bss.m_uv_zpar:00000000 $d
     /tmp/ccONvy4E.s:6685   .bss.m_inhibit:00000000 $d
     /tmp/ccONvy4E.s:6691   .bss.m_IP:00000000 $d
     /tmp/ccONvy4E.s:6697   .bss.m_PC:00000000 $d
     /tmp/ccONvy4E.s:6709   .bss.m_subcycle:00000000 $d
     /tmp/ccONvy4E.s:6712   .bss.m_previous_energy:00000000 $d
     /tmp/ccONvy4E.s:6719   .bss.m_current_k:00000000 $d
     /tmp/ccONvy4E.s:6726   .bss.m_current_pitch:00000000 $d
     /tmp/ccONvy4E.s:6733   .bss.m_current_energy:00000000 $d
     /tmp/ccONvy4E.s:6742   .bss.m_old_uv_zpar:00000000 m_old_uv_zpar
     /tmp/ccONvy4E.s:6743   .bss.m_old_uv_zpar:00000000 $d
     /tmp/ccONvy4E.s:6748   .bss.m_old_zpar:00000000 m_old_zpar
     /tmp/ccONvy4E.s:6749   .bss.m_old_zpar:00000000 $d
     /tmp/ccONvy4E.s:6752   .bss.m_old_frame_k_idx:00000000 $d
     /tmp/ccONvy4E.s:6762   .bss.m_old_frame_pitch_idx:00000000 $d
     /tmp/ccONvy4E.s:6768   .bss.m_old_frame_energy_idx:00000000 $d
     /tmp/ccONvy4E.s:6771   .bss.m_target_k:00000000 $d
     /tmp/ccONvy4E.s:6778   .bss.m_target_pitch:00000000 $d
     /tmp/ccONvy4E.s:6785   .bss.m_target_energy:00000000 $d
     /tmp/ccONvy4E.s:6792   .bss.m_new_frame_k_idx:00000000 $d
     /tmp/ccONvy4E.s:6802   .bss.m_new_frame_pitch_idx:00000000 $d
     /tmp/ccONvy4E.s:6808   .bss.m_new_frame_energy_idx:00000000 $d
     /tmp/ccONvy4E.s:6814   .bss.m_OLDP:00000000 $d
     /tmp/ccONvy4E.s:6820   .bss.m_OLDE:00000000 $d
     /tmp/ccONvy4E.s:6825   .bss.m_ready_pin:00000000 m_ready_pin
     /tmp/ccONvy4E.s:6826   .bss.m_ready_pin:00000000 $d
     /tmp/ccONvy4E.s:6831   .bss.m_irq_pin:00000000 m_irq_pin
     /tmp/ccONvy4E.s:6832   .bss.m_irq_pin:00000000 $d
     /tmp/ccONvy4E.s:6837   .bss.m_buffer_empty:00000000 m_buffer_empty
     /tmp/ccONvy4E.s:6838   .bss.m_buffer_empty:00000000 $d
     /tmp/ccONvy4E.s:6843   .bss.m_buffer_low:00000000 m_buffer_low
     /tmp/ccONvy4E.s:6844   .bss.m_buffer_low:00000000 $d
     /tmp/ccONvy4E.s:6849   .bss.m_TALKD:00000000 m_TALKD
     /tmp/ccONvy4E.s:6850   .bss.m_TALKD:00000000 $d
     /tmp/ccONvy4E.s:6855   .bss.m_TALK:00000000 m_TALK
     /tmp/ccONvy4E.s:6856   .bss.m_TALK:00000000 $d
     /tmp/ccONvy4E.s:6861   .bss.m_DDIS:00000000 m_DDIS
     /tmp/ccONvy4E.s:6862   .bss.m_DDIS:00000000 $d
     /tmp/ccONvy4E.s:6867   .bss.m_SPEN:00000000 m_SPEN
ARM GAS  /tmp/ccONvy4E.s 			page 406


     /tmp/ccONvy4E.s:6868   .bss.m_SPEN:00000000 $d
     /tmp/ccONvy4E.s:6873   .bss.m_previous_TALK_STATUS:00000000 m_previous_TALK_STATUS
     /tmp/ccONvy4E.s:6874   .bss.m_previous_TALK_STATUS:00000000 $d
     /tmp/ccONvy4E.s:6880   .bss.m_talk_status:00000000 $d
     /tmp/ccONvy4E.s:6886   .bss.m_speak_external:00000000 $d
     /tmp/ccONvy4E.s:6891   .bss.m_speaking_now:00000000 m_speaking_now
     /tmp/ccONvy4E.s:6892   .bss.m_speaking_now:00000000 $d
     /tmp/ccONvy4E.s:6895   .bss.m_coeff:00000000 $d
     /tmp/ccONvy4E.s:6902   .bss.m_variant:00000000 $d
     /tmp/ccONvy4E.s:6908   .rodata.reload_table:00000000 $d
     /tmp/ccONvy4E.s:6917   .bss.TTSlength:00000000 $d
     /tmp/ccONvy4E.s:6922   .bss.TTSindex:00000000 $d
     /tmp/ccONvy4E.s:6924   .bss.TTSoutarray:00000000 $d
     /tmp/ccONvy4E.s:6931   .bss.byte_rev:00000000 $d
     /tmp/ccONvy4E.s:6940   .bss.ptrBit:00000000 $d
     /tmp/ccONvy4E.s:6942   .bss.ptrAddr:00000000 $d
     /tmp/ccONvy4E.s:6949   .data.allTMSvocabs:00000000 $d
     /tmp/ccONvy4E.s:6982   .rodata.vocab_alphons:00000000 vocab_alphons
     /tmp/ccONvy4E.s:6971   .rodata.vocab_vocaid:00000000 vocab_vocaid
     /tmp/ccONvy4E.s:6968   .rodata.vocab_vocaid:00000000 $d
     /tmp/ccONvy4E.s:6993   .data.wordlist_spellvocaid:00000000 wordlist_spellvocaid
     /tmp/ccONvy4E.s:12885  .rodata.T0280F_2801A_coeff:00000000 T0280F_2801A_coeff
     /tmp/ccONvy4E.s:6979   .rodata.vocab_alphons:00000000 $d
     /tmp/ccONvy4E.s:8821   .data.wordlist_alphons:00000000 wordlist_alphons
     /tmp/ccONvy4E.s:6990   .data.wordlist_spellvocaid:00000000 $d
     /tmp/ccONvy4E.s:8668   .rodata.sp_spkvocaid0:00000000 sp_spkvocaid0
     /tmp/ccONvy4E.s:8656   .rodata.sp_spkvocaid1:00000000 sp_spkvocaid1
     /tmp/ccONvy4E.s:8642   .rodata.sp_spkvocaid2:00000000 sp_spkvocaid2
     /tmp/ccONvy4E.s:8628   .rodata.sp_spkvocaid3:00000000 sp_spkvocaid3
     /tmp/ccONvy4E.s:8615   .rodata.sp_spkvocaid4:00000000 sp_spkvocaid4
     /tmp/ccONvy4E.s:8605   .rodata.sp_spkvocaid5:00000000 sp_spkvocaid5
     /tmp/ccONvy4E.s:8589   .rodata.sp_spkvocaid6:00000000 sp_spkvocaid6
     /tmp/ccONvy4E.s:8576   .rodata.sp_spkvocaid7:00000000 sp_spkvocaid7
     /tmp/ccONvy4E.s:8566   .rodata.sp_spkvocaid8:00000000 sp_spkvocaid8
     /tmp/ccONvy4E.s:8554   .rodata.sp_spkvocaid9:00000000 sp_spkvocaid9
     /tmp/ccONvy4E.s:8542   .rodata.sp_spkvocaid10:00000000 sp_spkvocaid10
     /tmp/ccONvy4E.s:8530   .rodata.sp_spkvocaid11:00000000 sp_spkvocaid11
     /tmp/ccONvy4E.s:8516   .rodata.sp_spkvocaid12:00000000 sp_spkvocaid12
     /tmp/ccONvy4E.s:8503   .rodata.sp_spkvocaid13:00000000 sp_spkvocaid13
     /tmp/ccONvy4E.s:8492   .rodata.sp_spkvocaid14:00000000 sp_spkvocaid14
     /tmp/ccONvy4E.s:8480   .rodata.sp_spkvocaid15:00000000 sp_spkvocaid15
     /tmp/ccONvy4E.s:8468   .rodata.sp_spkvocaid16:00000000 sp_spkvocaid16
     /tmp/ccONvy4E.s:8457   .rodata.sp_spkvocaid17:00000000 sp_spkvocaid17
     /tmp/ccONvy4E.s:8446   .rodata.sp_spkvocaid18:00000000 sp_spkvocaid18
     /tmp/ccONvy4E.s:8430   .rodata.sp_spkvocaid19:00000000 sp_spkvocaid19
     /tmp/ccONvy4E.s:8420   .rodata.sp_spkvocaid20:00000000 sp_spkvocaid20
     /tmp/ccONvy4E.s:8408   .rodata.sp_spkvocaid21:00000000 sp_spkvocaid21
     /tmp/ccONvy4E.s:8395   .rodata.sp_spkvocaid22:00000000 sp_spkvocaid22
     /tmp/ccONvy4E.s:8381   .rodata.sp_spkvocaid23:00000000 sp_spkvocaid23
     /tmp/ccONvy4E.s:8369   .rodata.sp_spkvocaid24:00000000 sp_spkvocaid24
     /tmp/ccONvy4E.s:8358   .rodata.sp_spkvocaid25:00000000 sp_spkvocaid25
     /tmp/ccONvy4E.s:8344   .rodata.sp_spkvocaid26:00000000 sp_spkvocaid26
     /tmp/ccONvy4E.s:8331   .rodata.sp_spkvocaid27:00000000 sp_spkvocaid27
     /tmp/ccONvy4E.s:8320   .rodata.sp_spkvocaid28:00000000 sp_spkvocaid28
     /tmp/ccONvy4E.s:8308   .rodata.sp_spkvocaid29:00000000 sp_spkvocaid29
     /tmp/ccONvy4E.s:8292   .rodata.sp_spkvocaid30:00000000 sp_spkvocaid30
     /tmp/ccONvy4E.s:8280   .rodata.sp_spkvocaid31:00000000 sp_spkvocaid31
ARM GAS  /tmp/ccONvy4E.s 			page 407


     /tmp/ccONvy4E.s:8269   .rodata.sp_spkvocaid32:00000000 sp_spkvocaid32
     /tmp/ccONvy4E.s:8257   .rodata.sp_spkvocaid33:00000000 sp_spkvocaid33
     /tmp/ccONvy4E.s:8235   .rodata.sp_spkvocaid34:00000000 sp_spkvocaid34
     /tmp/ccONvy4E.s:8211   .rodata.sp_spkvocaid35:00000000 sp_spkvocaid35
     /tmp/ccONvy4E.s:8199   .rodata.sp_spkvocaid36:00000000 sp_spkvocaid36
     /tmp/ccONvy4E.s:8181   .rodata.sp_spkvocaid37:00000000 sp_spkvocaid37
     /tmp/ccONvy4E.s:8168   .rodata.sp_spkvocaid38:00000000 sp_spkvocaid38
     /tmp/ccONvy4E.s:8156   .rodata.sp_spkvocaid39:00000000 sp_spkvocaid39
     /tmp/ccONvy4E.s:8145   .rodata.sp_spkvocaid40:00000000 sp_spkvocaid40
     /tmp/ccONvy4E.s:8130   .rodata.sp_spkvocaid41:00000000 sp_spkvocaid41
     /tmp/ccONvy4E.s:8120   .rodata.sp_spkvocaid42:00000000 sp_spkvocaid42
     /tmp/ccONvy4E.s:8110   .rodata.sp_spkvocaid43:00000000 sp_spkvocaid43
     /tmp/ccONvy4E.s:8097   .rodata.sp_spkvocaid44:00000000 sp_spkvocaid44
     /tmp/ccONvy4E.s:8083   .rodata.sp_spkvocaid45:00000000 sp_spkvocaid45
     /tmp/ccONvy4E.s:8070   .rodata.sp_spkvocaid46:00000000 sp_spkvocaid46
     /tmp/ccONvy4E.s:8058   .rodata.sp_spkvocaid47:00000000 sp_spkvocaid47
     /tmp/ccONvy4E.s:8047   .rodata.sp_spkvocaid48:00000000 sp_spkvocaid48
     /tmp/ccONvy4E.s:8038   .rodata.sp_spkvocaid49:00000000 sp_spkvocaid49
     /tmp/ccONvy4E.s:8026   .rodata.sp_spkvocaid50:00000000 sp_spkvocaid50
     /tmp/ccONvy4E.s:8016   .rodata.sp_spkvocaid51:00000000 sp_spkvocaid51
     /tmp/ccONvy4E.s:8006   .rodata.sp_spkvocaid52:00000000 sp_spkvocaid52
     /tmp/ccONvy4E.s:7995   .rodata.sp_spkvocaid53:00000000 sp_spkvocaid53
     /tmp/ccONvy4E.s:7985   .rodata.sp_spkvocaid54:00000000 sp_spkvocaid54
     /tmp/ccONvy4E.s:7972   .rodata.sp_spkvocaid55:00000000 sp_spkvocaid55
     /tmp/ccONvy4E.s:7957   .rodata.sp_spkvocaid56:00000000 sp_spkvocaid56
     /tmp/ccONvy4E.s:7945   .rodata.sp_spkvocaid57:00000000 sp_spkvocaid57
     /tmp/ccONvy4E.s:7933   .rodata.sp_spkvocaid58:00000000 sp_spkvocaid58
     /tmp/ccONvy4E.s:7923   .rodata.sp_spkvocaid59:00000000 sp_spkvocaid59
     /tmp/ccONvy4E.s:7910   .rodata.sp_spkvocaid60:00000000 sp_spkvocaid60
     /tmp/ccONvy4E.s:7899   .rodata.sp_spkvocaid61:00000000 sp_spkvocaid61
     /tmp/ccONvy4E.s:7889   .rodata.sp_spkvocaid62:00000000 sp_spkvocaid62
     /tmp/ccONvy4E.s:7878   .rodata.sp_spkvocaid63:00000000 sp_spkvocaid63
     /tmp/ccONvy4E.s:7868   .rodata.sp_spkvocaid64:00000000 sp_spkvocaid64
     /tmp/ccONvy4E.s:7857   .rodata.sp_spkvocaid65:00000000 sp_spkvocaid65
     /tmp/ccONvy4E.s:7845   .rodata.sp_spkvocaid66:00000000 sp_spkvocaid66
     /tmp/ccONvy4E.s:7832   .rodata.sp_spkvocaid67:00000000 sp_spkvocaid67
     /tmp/ccONvy4E.s:7820   .rodata.sp_spkvocaid68:00000000 sp_spkvocaid68
     /tmp/ccONvy4E.s:7809   .rodata.sp_spkvocaid69:00000000 sp_spkvocaid69
     /tmp/ccONvy4E.s:7798   .rodata.sp_spkvocaid70:00000000 sp_spkvocaid70
     /tmp/ccONvy4E.s:7787   .rodata.sp_spkvocaid71:00000000 sp_spkvocaid71
     /tmp/ccONvy4E.s:7777   .rodata.sp_spkvocaid72:00000000 sp_spkvocaid72
     /tmp/ccONvy4E.s:7766   .rodata.sp_spkvocaid73:00000000 sp_spkvocaid73
     /tmp/ccONvy4E.s:7756   .rodata.sp_spkvocaid74:00000000 sp_spkvocaid74
     /tmp/ccONvy4E.s:7746   .rodata.sp_spkvocaid75:00000000 sp_spkvocaid75
     /tmp/ccONvy4E.s:7736   .rodata.sp_spkvocaid76:00000000 sp_spkvocaid76
     /tmp/ccONvy4E.s:7725   .rodata.sp_spkvocaid77:00000000 sp_spkvocaid77
     /tmp/ccONvy4E.s:7714   .rodata.sp_spkvocaid78:00000000 sp_spkvocaid78
     /tmp/ccONvy4E.s:7704   .rodata.sp_spkvocaid79:00000000 sp_spkvocaid79
     /tmp/ccONvy4E.s:7693   .rodata.sp_spkvocaid80:00000000 sp_spkvocaid80
     /tmp/ccONvy4E.s:7683   .rodata.sp_spkvocaid81:00000000 sp_spkvocaid81
     /tmp/ccONvy4E.s:7672   .rodata.sp_spkvocaid82:00000000 sp_spkvocaid82
     /tmp/ccONvy4E.s:7661   .rodata.sp_spkvocaid83:00000000 sp_spkvocaid83
     /tmp/ccONvy4E.s:7650   .rodata.sp_spkvocaid84:00000000 sp_spkvocaid84
     /tmp/ccONvy4E.s:7639   .rodata.sp_spkvocaid85:00000000 sp_spkvocaid85
     /tmp/ccONvy4E.s:7629   .rodata.sp_spkvocaid86:00000000 sp_spkvocaid86
     /tmp/ccONvy4E.s:7618   .rodata.sp_spkvocaid87:00000000 sp_spkvocaid87
     /tmp/ccONvy4E.s:7608   .rodata.sp_spkvocaid88:00000000 sp_spkvocaid88
ARM GAS  /tmp/ccONvy4E.s 			page 408


     /tmp/ccONvy4E.s:7596   .rodata.sp_spkvocaid89:00000000 sp_spkvocaid89
     /tmp/ccONvy4E.s:7584   .rodata.sp_spkvocaid90:00000000 sp_spkvocaid90
     /tmp/ccONvy4E.s:7570   .rodata.sp_spkvocaid91:00000000 sp_spkvocaid91
     /tmp/ccONvy4E.s:7560   .rodata.sp_spkvocaid92:00000000 sp_spkvocaid92
     /tmp/ccONvy4E.s:7548   .rodata.sp_spkvocaid93:00000000 sp_spkvocaid93
     /tmp/ccONvy4E.s:7536   .rodata.sp_spkvocaid94:00000000 sp_spkvocaid94
     /tmp/ccONvy4E.s:7525   .rodata.sp_spkvocaid95:00000000 sp_spkvocaid95
     /tmp/ccONvy4E.s:7511   .rodata.sp_spkvocaid96:00000000 sp_spkvocaid96
     /tmp/ccONvy4E.s:7485   .rodata.sp_spkvocaid97:00000000 sp_spkvocaid97
     /tmp/ccONvy4E.s:7463   .rodata.sp_spkvocaid98:00000000 sp_spkvocaid98
     /tmp/ccONvy4E.s:7443   .rodata.sp_spkvocaid99:00000000 sp_spkvocaid99
     /tmp/ccONvy4E.s:7432   .rodata.sp_spkvocaid100:00000000 sp_spkvocaid100
     /tmp/ccONvy4E.s:7419   .rodata.sp_spkvocaid101:00000000 sp_spkvocaid101
     /tmp/ccONvy4E.s:7403   .rodata.sp_spkvocaid102:00000000 sp_spkvocaid102
     /tmp/ccONvy4E.s:7389   .rodata.sp_spkvocaid103:00000000 sp_spkvocaid103
     /tmp/ccONvy4E.s:7377   .rodata.sp_spkvocaid104:00000000 sp_spkvocaid104
     /tmp/ccONvy4E.s:7365   .rodata.sp_spkvocaid105:00000000 sp_spkvocaid105
     /tmp/ccONvy4E.s:7354   .rodata.sp_spkvocaid106:00000000 sp_spkvocaid106
     /tmp/ccONvy4E.s:7340   .rodata.sp_spkvocaid107:00000000 sp_spkvocaid107
     /tmp/ccONvy4E.s:7327   .rodata.sp_spkvocaid108:00000000 sp_spkvocaid108
     /tmp/ccONvy4E.s:7307   .rodata.sp_spkvocaid109:00000000 sp_spkvocaid109
     /tmp/ccONvy4E.s:7292   .rodata.sp_spkvocaid110:00000000 sp_spkvocaid110
     /tmp/ccONvy4E.s:7277   .rodata.sp_spkvocaid111:00000000 sp_spkvocaid111
     /tmp/ccONvy4E.s:7264   .rodata.sp_spkvocaid112:00000000 sp_spkvocaid112
     /tmp/ccONvy4E.s:7252   .rodata.sp_spkvocaid113:00000000 sp_spkvocaid113
     /tmp/ccONvy4E.s:7240   .rodata.sp_spkvocaid114:00000000 sp_spkvocaid114
     /tmp/ccONvy4E.s:7227   .rodata.sp_spkvocaid115:00000000 sp_spkvocaid115
     /tmp/ccONvy4E.s:7214   .rodata.sp_spkvocaid116:00000000 sp_spkvocaid116
     /tmp/ccONvy4E.s:7203   .rodata.sp_spkvocaid117:00000000 sp_spkvocaid117
     /tmp/ccONvy4E.s:7184   .rodata.sp_spkvocaid118:00000000 sp_spkvocaid118
     /tmp/ccONvy4E.s:7170   .rodata.sp_spkvocaid119:00000000 sp_spkvocaid119
     /tmp/ccONvy4E.s:7158   .rodata.sp_spkvocaid120:00000000 sp_spkvocaid120
     /tmp/ccONvy4E.s:7146   .rodata.sp_spkvocaid121:00000000 sp_spkvocaid121
     /tmp/ccONvy4E.s:7134   .rodata.sp_spkvocaid122:00000000 sp_spkvocaid122
     /tmp/ccONvy4E.s:7123   .rodata.sp_spkvocaid123:00000000 sp_spkvocaid123
     /tmp/ccONvy4E.s:7120   .rodata.sp_spkvocaid123:00000000 $d
     /tmp/ccONvy4E.s:7131   .rodata.sp_spkvocaid122:00000000 $d
     /tmp/ccONvy4E.s:7143   .rodata.sp_spkvocaid121:00000000 $d
     /tmp/ccONvy4E.s:7155   .rodata.sp_spkvocaid120:00000000 $d
     /tmp/ccONvy4E.s:7167   .rodata.sp_spkvocaid119:00000000 $d
     /tmp/ccONvy4E.s:7181   .rodata.sp_spkvocaid118:00000000 $d
     /tmp/ccONvy4E.s:7200   .rodata.sp_spkvocaid117:00000000 $d
     /tmp/ccONvy4E.s:7211   .rodata.sp_spkvocaid116:00000000 $d
     /tmp/ccONvy4E.s:7224   .rodata.sp_spkvocaid115:00000000 $d
     /tmp/ccONvy4E.s:7237   .rodata.sp_spkvocaid114:00000000 $d
     /tmp/ccONvy4E.s:7249   .rodata.sp_spkvocaid113:00000000 $d
     /tmp/ccONvy4E.s:7261   .rodata.sp_spkvocaid112:00000000 $d
     /tmp/ccONvy4E.s:7274   .rodata.sp_spkvocaid111:00000000 $d
     /tmp/ccONvy4E.s:7289   .rodata.sp_spkvocaid110:00000000 $d
     /tmp/ccONvy4E.s:7304   .rodata.sp_spkvocaid109:00000000 $d
     /tmp/ccONvy4E.s:7324   .rodata.sp_spkvocaid108:00000000 $d
     /tmp/ccONvy4E.s:7337   .rodata.sp_spkvocaid107:00000000 $d
     /tmp/ccONvy4E.s:7351   .rodata.sp_spkvocaid106:00000000 $d
     /tmp/ccONvy4E.s:7362   .rodata.sp_spkvocaid105:00000000 $d
     /tmp/ccONvy4E.s:7374   .rodata.sp_spkvocaid104:00000000 $d
     /tmp/ccONvy4E.s:7386   .rodata.sp_spkvocaid103:00000000 $d
     /tmp/ccONvy4E.s:7400   .rodata.sp_spkvocaid102:00000000 $d
ARM GAS  /tmp/ccONvy4E.s 			page 409


     /tmp/ccONvy4E.s:7416   .rodata.sp_spkvocaid101:00000000 $d
     /tmp/ccONvy4E.s:7429   .rodata.sp_spkvocaid100:00000000 $d
     /tmp/ccONvy4E.s:7440   .rodata.sp_spkvocaid99:00000000 $d
     /tmp/ccONvy4E.s:7460   .rodata.sp_spkvocaid98:00000000 $d
     /tmp/ccONvy4E.s:7482   .rodata.sp_spkvocaid97:00000000 $d
     /tmp/ccONvy4E.s:7508   .rodata.sp_spkvocaid96:00000000 $d
     /tmp/ccONvy4E.s:7522   .rodata.sp_spkvocaid95:00000000 $d
     /tmp/ccONvy4E.s:7533   .rodata.sp_spkvocaid94:00000000 $d
     /tmp/ccONvy4E.s:7545   .rodata.sp_spkvocaid93:00000000 $d
     /tmp/ccONvy4E.s:7557   .rodata.sp_spkvocaid92:00000000 $d
     /tmp/ccONvy4E.s:7567   .rodata.sp_spkvocaid91:00000000 $d
     /tmp/ccONvy4E.s:7581   .rodata.sp_spkvocaid90:00000000 $d
     /tmp/ccONvy4E.s:7593   .rodata.sp_spkvocaid89:00000000 $d
     /tmp/ccONvy4E.s:7605   .rodata.sp_spkvocaid88:00000000 $d
     /tmp/ccONvy4E.s:7615   .rodata.sp_spkvocaid87:00000000 $d
     /tmp/ccONvy4E.s:7626   .rodata.sp_spkvocaid86:00000000 $d
     /tmp/ccONvy4E.s:7636   .rodata.sp_spkvocaid85:00000000 $d
     /tmp/ccONvy4E.s:7647   .rodata.sp_spkvocaid84:00000000 $d
     /tmp/ccONvy4E.s:7658   .rodata.sp_spkvocaid83:00000000 $d
     /tmp/ccONvy4E.s:7669   .rodata.sp_spkvocaid82:00000000 $d
     /tmp/ccONvy4E.s:7680   .rodata.sp_spkvocaid81:00000000 $d
     /tmp/ccONvy4E.s:7690   .rodata.sp_spkvocaid80:00000000 $d
     /tmp/ccONvy4E.s:7701   .rodata.sp_spkvocaid79:00000000 $d
     /tmp/ccONvy4E.s:7711   .rodata.sp_spkvocaid78:00000000 $d
     /tmp/ccONvy4E.s:7722   .rodata.sp_spkvocaid77:00000000 $d
     /tmp/ccONvy4E.s:7733   .rodata.sp_spkvocaid76:00000000 $d
     /tmp/ccONvy4E.s:7743   .rodata.sp_spkvocaid75:00000000 $d
     /tmp/ccONvy4E.s:7753   .rodata.sp_spkvocaid74:00000000 $d
     /tmp/ccONvy4E.s:7763   .rodata.sp_spkvocaid73:00000000 $d
     /tmp/ccONvy4E.s:7774   .rodata.sp_spkvocaid72:00000000 $d
     /tmp/ccONvy4E.s:7784   .rodata.sp_spkvocaid71:00000000 $d
     /tmp/ccONvy4E.s:7795   .rodata.sp_spkvocaid70:00000000 $d
     /tmp/ccONvy4E.s:7806   .rodata.sp_spkvocaid69:00000000 $d
     /tmp/ccONvy4E.s:7817   .rodata.sp_spkvocaid68:00000000 $d
     /tmp/ccONvy4E.s:7829   .rodata.sp_spkvocaid67:00000000 $d
     /tmp/ccONvy4E.s:7842   .rodata.sp_spkvocaid66:00000000 $d
     /tmp/ccONvy4E.s:7854   .rodata.sp_spkvocaid65:00000000 $d
     /tmp/ccONvy4E.s:7865   .rodata.sp_spkvocaid64:00000000 $d
     /tmp/ccONvy4E.s:7875   .rodata.sp_spkvocaid63:00000000 $d
     /tmp/ccONvy4E.s:7886   .rodata.sp_spkvocaid62:00000000 $d
     /tmp/ccONvy4E.s:7896   .rodata.sp_spkvocaid61:00000000 $d
     /tmp/ccONvy4E.s:7907   .rodata.sp_spkvocaid60:00000000 $d
     /tmp/ccONvy4E.s:7920   .rodata.sp_spkvocaid59:00000000 $d
     /tmp/ccONvy4E.s:7930   .rodata.sp_spkvocaid58:00000000 $d
     /tmp/ccONvy4E.s:7942   .rodata.sp_spkvocaid57:00000000 $d
     /tmp/ccONvy4E.s:7954   .rodata.sp_spkvocaid56:00000000 $d
     /tmp/ccONvy4E.s:7969   .rodata.sp_spkvocaid55:00000000 $d
     /tmp/ccONvy4E.s:7982   .rodata.sp_spkvocaid54:00000000 $d
     /tmp/ccONvy4E.s:7992   .rodata.sp_spkvocaid53:00000000 $d
     /tmp/ccONvy4E.s:8003   .rodata.sp_spkvocaid52:00000000 $d
     /tmp/ccONvy4E.s:8013   .rodata.sp_spkvocaid51:00000000 $d
     /tmp/ccONvy4E.s:8023   .rodata.sp_spkvocaid50:00000000 $d
     /tmp/ccONvy4E.s:8035   .rodata.sp_spkvocaid49:00000000 $d
     /tmp/ccONvy4E.s:8044   .rodata.sp_spkvocaid48:00000000 $d
     /tmp/ccONvy4E.s:8055   .rodata.sp_spkvocaid47:00000000 $d
     /tmp/ccONvy4E.s:8067   .rodata.sp_spkvocaid46:00000000 $d
     /tmp/ccONvy4E.s:8080   .rodata.sp_spkvocaid45:00000000 $d
ARM GAS  /tmp/ccONvy4E.s 			page 410


     /tmp/ccONvy4E.s:8094   .rodata.sp_spkvocaid44:00000000 $d
     /tmp/ccONvy4E.s:8107   .rodata.sp_spkvocaid43:00000000 $d
     /tmp/ccONvy4E.s:8117   .rodata.sp_spkvocaid42:00000000 $d
     /tmp/ccONvy4E.s:8127   .rodata.sp_spkvocaid41:00000000 $d
     /tmp/ccONvy4E.s:8142   .rodata.sp_spkvocaid40:00000000 $d
     /tmp/ccONvy4E.s:8153   .rodata.sp_spkvocaid39:00000000 $d
     /tmp/ccONvy4E.s:8165   .rodata.sp_spkvocaid38:00000000 $d
     /tmp/ccONvy4E.s:8178   .rodata.sp_spkvocaid37:00000000 $d
     /tmp/ccONvy4E.s:8196   .rodata.sp_spkvocaid36:00000000 $d
     /tmp/ccONvy4E.s:8208   .rodata.sp_spkvocaid35:00000000 $d
     /tmp/ccONvy4E.s:8232   .rodata.sp_spkvocaid34:00000000 $d
     /tmp/ccONvy4E.s:8254   .rodata.sp_spkvocaid33:00000000 $d
     /tmp/ccONvy4E.s:8266   .rodata.sp_spkvocaid32:00000000 $d
     /tmp/ccONvy4E.s:8277   .rodata.sp_spkvocaid31:00000000 $d
     /tmp/ccONvy4E.s:8289   .rodata.sp_spkvocaid30:00000000 $d
     /tmp/ccONvy4E.s:8305   .rodata.sp_spkvocaid29:00000000 $d
     /tmp/ccONvy4E.s:8317   .rodata.sp_spkvocaid28:00000000 $d
     /tmp/ccONvy4E.s:8328   .rodata.sp_spkvocaid27:00000000 $d
     /tmp/ccONvy4E.s:8341   .rodata.sp_spkvocaid26:00000000 $d
     /tmp/ccONvy4E.s:8355   .rodata.sp_spkvocaid25:00000000 $d
     /tmp/ccONvy4E.s:8366   .rodata.sp_spkvocaid24:00000000 $d
     /tmp/ccONvy4E.s:8378   .rodata.sp_spkvocaid23:00000000 $d
     /tmp/ccONvy4E.s:8392   .rodata.sp_spkvocaid22:00000000 $d
     /tmp/ccONvy4E.s:8405   .rodata.sp_spkvocaid21:00000000 $d
     /tmp/ccONvy4E.s:8417   .rodata.sp_spkvocaid20:00000000 $d
     /tmp/ccONvy4E.s:8427   .rodata.sp_spkvocaid19:00000000 $d
     /tmp/ccONvy4E.s:8443   .rodata.sp_spkvocaid18:00000000 $d
     /tmp/ccONvy4E.s:8454   .rodata.sp_spkvocaid17:00000000 $d
     /tmp/ccONvy4E.s:8465   .rodata.sp_spkvocaid16:00000000 $d
     /tmp/ccONvy4E.s:8477   .rodata.sp_spkvocaid15:00000000 $d
     /tmp/ccONvy4E.s:8489   .rodata.sp_spkvocaid14:00000000 $d
     /tmp/ccONvy4E.s:8500   .rodata.sp_spkvocaid13:00000000 $d
     /tmp/ccONvy4E.s:8513   .rodata.sp_spkvocaid12:00000000 $d
     /tmp/ccONvy4E.s:8527   .rodata.sp_spkvocaid11:00000000 $d
     /tmp/ccONvy4E.s:8539   .rodata.sp_spkvocaid10:00000000 $d
     /tmp/ccONvy4E.s:8551   .rodata.sp_spkvocaid9:00000000 $d
     /tmp/ccONvy4E.s:8563   .rodata.sp_spkvocaid8:00000000 $d
     /tmp/ccONvy4E.s:8573   .rodata.sp_spkvocaid7:00000000 $d
     /tmp/ccONvy4E.s:8586   .rodata.sp_spkvocaid6:00000000 $d
     /tmp/ccONvy4E.s:8602   .rodata.sp_spkvocaid5:00000000 $d
     /tmp/ccONvy4E.s:8612   .rodata.sp_spkvocaid4:00000000 $d
     /tmp/ccONvy4E.s:8625   .rodata.sp_spkvocaid3:00000000 $d
     /tmp/ccONvy4E.s:8639   .rodata.sp_spkvocaid2:00000000 $d
     /tmp/ccONvy4E.s:8653   .rodata.sp_spkvocaid1:00000000 $d
     /tmp/ccONvy4E.s:8665   .rodata.sp_spkvocaid0:00000000 $d
     /tmp/ccONvy4E.s:8683   .data.wordlist_arcade_one:00000000 wordlist_arcade_one
     /tmp/ccONvy4E.s:8680   .data.wordlist_arcade_one:00000000 $d
     /tmp/ccONvy4E.s:10932  .rodata.sp_000mm:00000000 sp_000mm
     /tmp/ccONvy4E.s:10918  .rodata.sp_001mm:00000000 sp_001mm
     /tmp/ccONvy4E.s:10899  .rodata.sp_002mm:00000000 sp_002mm
     /tmp/ccONvy4E.s:10879  .rodata.sp_003mm:00000000 sp_003mm
     /tmp/ccONvy4E.s:10856  .rodata.sp_004mm:00000000 sp_004mm
     /tmp/ccONvy4E.s:10838  .rodata.sp_005mm:00000000 sp_005mm
     /tmp/ccONvy4E.s:10798  .rodata.sp_006mm:00000000 sp_006mm
     /tmp/ccONvy4E.s:10788  .rodata.sp_007mm:00000000 sp_007mm
     /tmp/ccONvy4E.s:10774  .rodata.sp_008mm:00000000 sp_008mm
     /tmp/ccONvy4E.s:10759  .rodata.sp_009mm:00000000 sp_009mm
ARM GAS  /tmp/ccONvy4E.s 			page 411


     /tmp/ccONvy4E.s:10742  .rodata.sp_010mm:00000000 sp_010mm
     /tmp/ccONvy4E.s:10725  .rodata.sp_011mm:00000000 sp_011mm
     /tmp/ccONvy4E.s:10707  .rodata.sp_012mm:00000000 sp_012mm
     /tmp/ccONvy4E.s:10815  .rodata.sp_015mm:00000000 sp_015mm
     /tmp/ccONvy4E.s:11660  .rodata.sp_013a:00000000 sp_013a
     /tmp/ccONvy4E.s:11638  .rodata.sp_024a:00000000 sp_024a
     /tmp/ccONvy4E.s:11618  .rodata.sp_0022a:00000000 sp_0022a
     /tmp/ccONvy4E.s:11605  .rodata.sp_000a:00000000 sp_000a
     /tmp/ccONvy4E.s:11584  .rodata.sp_001a:00000000 sp_001a
     /tmp/ccONvy4E.s:11546  .rodata.sp_005a:00000000 sp_005a
     /tmp/ccONvy4E.s:11518  .rodata.sp_006a:00000000 sp_006a
     /tmp/ccONvy4E.s:11496  .rodata.sp_007a:00000000 sp_007a
     /tmp/ccONvy4E.s:11475  .rodata.sp_008a:00000000 sp_008a
     /tmp/ccONvy4E.s:11454  .rodata.sp_010a:00000000 sp_010a
     /tmp/ccONvy4E.s:11436  .rodata.sp_011a:00000000 sp_011a
     /tmp/ccONvy4E.s:11417  .rodata.sp_012a:00000000 sp_012a
     /tmp/ccONvy4E.s:11401  .rodata.sp_0141a:00000000 sp_0141a
     /tmp/ccONvy4E.s:11226  .rodata.sp_014m:00000000 sp_014m
     /tmp/ccONvy4E.s:11190  .rodata.sp_016m:00000000 sp_016m
     /tmp/ccONvy4E.s:11169  .rodata.sp_020m:00000000 sp_020m
     /tmp/ccONvy4E.s:11244  .rodata.sp_005m:00000000 sp_005m
     /tmp/ccONvy4E.s:11375  .rodata.sp_007m:00000000 sp_007m
     /tmp/ccONvy4E.s:11361  .rodata.sp_077m:00000000 sp_077m
     /tmp/ccONvy4E.s:11347  .rodata.sp_078m:00000000 sp_078m
     /tmp/ccONvy4E.s:11331  .rodata.sp_012m:00000000 sp_012m
     /tmp/ccONvy4E.s:11320  .rodata.sp_015m:00000000 sp_015m
     /tmp/ccONvy4E.s:11303  .rodata.sp_017m:00000000 sp_017m
     /tmp/ccONvy4E.s:11280  .rodata.sp_018m:00000000 sp_018m
     /tmp/ccONvy4E.s:11259  .rodata.sp_019m:00000000 sp_019m
     /tmp/ccONvy4E.s:11386  .rodata.sp_0055m:00000000 sp_0055m
     /tmp/ccONvy4E.s:11123  .rodata.sp_0033s:00000000 sp_0033s
     /tmp/ccONvy4E.s:11150  .rodata.sp_000s:00000000 sp_000s
     /tmp/ccONvy4E.s:11137  .rodata.sp_002s:00000000 sp_002s
     /tmp/ccONvy4E.s:11112  .rodata.sp_005s:00000000 sp_005s
     /tmp/ccONvy4E.s:11100  .rodata.sp_006s:00000000 sp_006s
     /tmp/ccONvy4E.s:11084  .rodata.sp_011s:00000000 sp_011s
     /tmp/ccONvy4E.s:11072  .rodata.sp_007s:00000000 sp_007s
     /tmp/ccONvy4E.s:11061  .rodata.sp_008s:00000000 sp_008s
     /tmp/ccONvy4E.s:11037  .rodata.sp_009s:00000000 sp_009s
     /tmp/ccONvy4E.s:11020  .rodata.sp_0099s:00000000 sp_0099s
     /tmp/ccONvy4E.s:11001  .rodata.sp_010s:00000000 sp_010s
     /tmp/ccONvy4E.s:10991  .rodata.sp_012s:00000000 sp_012s
     /tmp/ccONvy4E.s:10963  .rodata.sp_013s:00000000 sp_013s
     /tmp/ccONvy4E.s:10950  .rodata.sp_015s:00000000 sp_015s
     /tmp/ccONvy4E.s:11684  .rodata.sp_b019:00000000 sp_b019
     /tmp/ccONvy4E.s:11696  .rodata.sp_b018:00000000 sp_b018
     /tmp/ccONvy4E.s:11707  .rodata.sp_b012:00000000 sp_b012
     /tmp/ccONvy4E.s:11734  .rodata.sp_b011:00000000 sp_b011
     /tmp/ccONvy4E.s:11754  .rodata.sp_b010:00000000 sp_b010
     /tmp/ccONvy4E.s:11773  .rodata.sp_b009:00000000 sp_b009
     /tmp/ccONvy4E.s:11809  .rodata.sp_013b:00000000 sp_013b
     /tmp/ccONvy4E.s:11788  .rodata.sp_017b:00000000 sp_017b
     /tmp/ccONvy4E.s:8751   .data.wordlist_arcade_two:00000000 wordlist_arcade_two
     /tmp/ccONvy4E.s:8748   .data.wordlist_arcade_two:00000000 $d
     /tmp/ccONvy4E.s:11831  .rodata.sp_parNICE2:00000000 sp_parNICE2
     /tmp/ccONvy4E.s:11851  .rodata.sp_parCONGRAT:00000000 sp_parCONGRAT
     /tmp/ccONvy4E.s:11871  .rodata.sp_parALERT2:00000000 sp_parALERT2
ARM GAS  /tmp/ccONvy4E.s 			page 412


     /tmp/ccONvy4E.s:11893  .rodata.sp_parALERT1:00000000 sp_parALERT1
     /tmp/ccONvy4E.s:12204  .rodata.sp_parFIRE:00000000 sp_parFIRE
     /tmp/ccONvy4E.s:12190  .rodata.sp_parSHOT:00000000 sp_parSHOT
     /tmp/ccONvy4E.s:12177  .rodata.sp_parCOUNT:00000000 sp_parCOUNT
     /tmp/ccONvy4E.s:12166  .rodata.sp_parFIVE:00000000 sp_parFIVE
     /tmp/ccONvy4E.s:12156  .rodata.sp_parFOUR:00000000 sp_parFOUR
     /tmp/ccONvy4E.s:12147  .rodata.sp_parTHREE:00000000 sp_parTHREE
     /tmp/ccONvy4E.s:12138  .rodata.sp_parTWO:00000000 sp_parTWO
     /tmp/ccONvy4E.s:12129  .rodata.sp_parONE:00000000 sp_parONE
     /tmp/ccONvy4E.s:12108  .rodata.sp_parADVANCE:00000000 sp_parADVANCE
     /tmp/ccONvy4E.s:12093  .rodata.sp_parNICE:00000000 sp_parNICE
     /tmp/ccONvy4E.s:12076  .rodata.sp_parGREAT:00000000 sp_parGREAT
     /tmp/ccONvy4E.s:12055  .rodata.sp_parENEMY:00000000 sp_parENEMY
     /tmp/ccONvy4E.s:12036  .rodata.sp_parTARGET:00000000 sp_parTARGET
     /tmp/ccONvy4E.s:12009  .rodata.sp_parREFUEL:00000000 sp_parREFUEL
     /tmp/ccONvy4E.s:11987  .rodata.sp_parLASER:00000000 sp_parLASER
     /tmp/ccONvy4E.s:11961  .rodata.sp_parFUEL:00000000 sp_parFUEL
     /tmp/ccONvy4E.s:11947  .rodata.sp_parEXTRA:00000000 sp_parEXTRA
     /tmp/ccONvy4E.s:11923  .rodata.sp_parASTEROID:00000000 sp_parASTEROID
     /tmp/ccONvy4E.s:9684   .rodata.sp_misc0:00000000 sp_misc0
     /tmp/ccONvy4E.s:9671   .rodata.sp_misc1:00000000 sp_misc1
     /tmp/ccONvy4E.s:9662   .rodata.sp_misc2:00000000 sp_misc2
     /tmp/ccONvy4E.s:9650   .rodata.sp_misc3:00000000 sp_misc3
     /tmp/ccONvy4E.s:9636   .rodata.sp_misc4:00000000 sp_misc4
     /tmp/ccONvy4E.s:9626   .rodata.sp_misc5:00000000 sp_misc5
     /tmp/ccONvy4E.s:9617   .rodata.sp_misc6:00000000 sp_misc6
     /tmp/ccONvy4E.s:9604   .rodata.sp_misc7:00000000 sp_misc7
     /tmp/ccONvy4E.s:9589   .rodata.sp_misc8:00000000 sp_misc8
     /tmp/ccONvy4E.s:9577   .rodata.sp_misc9:00000000 sp_misc9
     /tmp/ccONvy4E.s:9562   .rodata.sp_misc10:00000000 sp_misc10
     /tmp/ccONvy4E.s:9535   .rodata.sp_misc11:00000000 sp_misc11
     /tmp/ccONvy4E.s:9508   .rodata.sp_misc14:00000000 sp_misc14
     /tmp/ccONvy4E.s:9494   .rodata.sp_misc16:00000000 sp_misc16
     /tmp/ccONvy4E.s:9481   .rodata.sp_misc17:00000000 sp_misc17
     /tmp/ccONvy4E.s:9469   .rodata.sp_misc18:00000000 sp_misc18
     /tmp/ccONvy4E.s:9455   .rodata.sp_misc19:00000000 sp_misc19
     /tmp/ccONvy4E.s:9444   .rodata.sp_misc20:00000000 sp_misc20
     /tmp/ccONvy4E.s:9433   .rodata.sp_misc21:00000000 sp_misc21
     /tmp/ccONvy4E.s:9419   .rodata.sp_misc22:00000000 sp_misc22
     /tmp/ccONvy4E.s:9408   .rodata.sp_misc23:00000000 sp_misc23
     /tmp/ccONvy4E.s:9397   .rodata.sp_misc24:00000000 sp_misc24
     /tmp/ccONvy4E.s:9384   .rodata.sp_misc25:00000000 sp_misc25
     /tmp/ccONvy4E.s:9368   .rodata.sp_misc26:00000000 sp_misc26
     /tmp/ccONvy4E.s:9356   .rodata.sp_misc27:00000000 sp_misc27
     /tmp/ccONvy4E.s:9344   .rodata.sp_misc28:00000000 sp_misc28
     /tmp/ccONvy4E.s:9317   .rodata.sp_tron0:00000000 sp_tron0
     /tmp/ccONvy4E.s:9304   .rodata.sp_tron1:00000000 sp_tron1
     /tmp/ccONvy4E.s:9290   .rodata.sp_tron2:00000000 sp_tron2
     /tmp/ccONvy4E.s:9233   .rodata.sp_tron3:00000000 sp_tron3
     /tmp/ccONvy4E.s:9213   .rodata.sp_tron4:00000000 sp_tron4
     /tmp/ccONvy4E.s:9193   .rodata.sp_tron5:00000000 sp_tron5
     /tmp/ccONvy4E.s:9167   .rodata.sp_tron6:00000000 sp_tron6
     /tmp/ccONvy4E.s:9153   .rodata.sp_tron7:00000000 sp_tron7
     /tmp/ccONvy4E.s:9119   .rodata.sp_tron8:00000000 sp_tron8
     /tmp/ccONvy4E.s:9090   .rodata.sp_tron9:00000000 sp_tron9
     /tmp/ccONvy4E.s:9075   .rodata.sp_tron10:00000000 sp_tron10
     /tmp/ccONvy4E.s:9062   .rodata.sp_tron11:00000000 sp_tron11
ARM GAS  /tmp/ccONvy4E.s 			page 413


     /tmp/ccONvy4E.s:9033   .rodata.sp_tron12:00000000 sp_tron12
     /tmp/ccONvy4E.s:9003   .rodata.sp_tron13:00000000 sp_tron13
     /tmp/ccONvy4E.s:8975   .rodata.sp_tron14:00000000 sp_tron14
     /tmp/ccONvy4E.s:8954   .rodata.sp_tron15:00000000 sp_tron15
     /tmp/ccONvy4E.s:8818   .data.wordlist_alphons:00000000 $d
     /tmp/ccONvy4E.s:10699  .rodata.sp_alphon1:00000000 sp_alphon1
     /tmp/ccONvy4E.s:10691  .rodata.sp_alphon2:00000000 sp_alphon2
     /tmp/ccONvy4E.s:10683  .rodata.sp_alphon3:00000000 sp_alphon3
     /tmp/ccONvy4E.s:10675  .rodata.sp_alphon4:00000000 sp_alphon4
     /tmp/ccONvy4E.s:10668  .rodata.sp_alphon5:00000000 sp_alphon5
     /tmp/ccONvy4E.s:10661  .rodata.sp_alphon6:00000000 sp_alphon6
     /tmp/ccONvy4E.s:10653  .rodata.sp_alphon7:00000000 sp_alphon7
     /tmp/ccONvy4E.s:10645  .rodata.sp_alphon8:00000000 sp_alphon8
     /tmp/ccONvy4E.s:10637  .rodata.sp_alphon9:00000000 sp_alphon9
     /tmp/ccONvy4E.s:10630  .rodata.sp_alphon10:00000000 sp_alphon10
     /tmp/ccONvy4E.s:10622  .rodata.sp_alphon11:00000000 sp_alphon11
     /tmp/ccONvy4E.s:10615  .rodata.sp_alphon12:00000000 sp_alphon12
     /tmp/ccONvy4E.s:10607  .rodata.sp_alphon13:00000000 sp_alphon13
     /tmp/ccONvy4E.s:10599  .rodata.sp_alphon14:00000000 sp_alphon14
     /tmp/ccONvy4E.s:10591  .rodata.sp_alphon15:00000000 sp_alphon15
     /tmp/ccONvy4E.s:10583  .rodata.sp_alphon16:00000000 sp_alphon16
     /tmp/ccONvy4E.s:10575  .rodata.sp_alphon17:00000000 sp_alphon17
     /tmp/ccONvy4E.s:10567  .rodata.sp_alphon18:00000000 sp_alphon18
     /tmp/ccONvy4E.s:10560  .rodata.sp_alphon19:00000000 sp_alphon19
     /tmp/ccONvy4E.s:10552  .rodata.sp_alphon20:00000000 sp_alphon20
     /tmp/ccONvy4E.s:10544  .rodata.sp_alphon21:00000000 sp_alphon21
     /tmp/ccONvy4E.s:10536  .rodata.sp_alphon22:00000000 sp_alphon22
     /tmp/ccONvy4E.s:10528  .rodata.sp_alphon23:00000000 sp_alphon23
     /tmp/ccONvy4E.s:10520  .rodata.sp_alphon24:00000000 sp_alphon24
     /tmp/ccONvy4E.s:10512  .rodata.sp_alphon25:00000000 sp_alphon25
     /tmp/ccONvy4E.s:10504  .rodata.sp_alphon26:00000000 sp_alphon26
     /tmp/ccONvy4E.s:10496  .rodata.sp_alphon27:00000000 sp_alphon27
     /tmp/ccONvy4E.s:10488  .rodata.sp_alphon28:00000000 sp_alphon28
     /tmp/ccONvy4E.s:10480  .rodata.sp_alphon29:00000000 sp_alphon29
     /tmp/ccONvy4E.s:10472  .rodata.sp_alphon30:00000000 sp_alphon30
     /tmp/ccONvy4E.s:10464  .rodata.sp_alphon31:00000000 sp_alphon31
     /tmp/ccONvy4E.s:10457  .rodata.sp_alphon32:00000000 sp_alphon32
     /tmp/ccONvy4E.s:10449  .rodata.sp_alphon33:00000000 sp_alphon33
     /tmp/ccONvy4E.s:10441  .rodata.sp_alphon34:00000000 sp_alphon34
     /tmp/ccONvy4E.s:10433  .rodata.sp_alphon35:00000000 sp_alphon35
     /tmp/ccONvy4E.s:10425  .rodata.sp_alphon36:00000000 sp_alphon36
     /tmp/ccONvy4E.s:10417  .rodata.sp_alphon37:00000000 sp_alphon37
     /tmp/ccONvy4E.s:10409  .rodata.sp_alphon38:00000000 sp_alphon38
     /tmp/ccONvy4E.s:10401  .rodata.sp_alphon39:00000000 sp_alphon39
     /tmp/ccONvy4E.s:10393  .rodata.sp_alphon40:00000000 sp_alphon40
     /tmp/ccONvy4E.s:10385  .rodata.sp_alphon41:00000000 sp_alphon41
     /tmp/ccONvy4E.s:10377  .rodata.sp_alphon42:00000000 sp_alphon42
     /tmp/ccONvy4E.s:10369  .rodata.sp_alphon43:00000000 sp_alphon43
     /tmp/ccONvy4E.s:10361  .rodata.sp_alphon44:00000000 sp_alphon44
     /tmp/ccONvy4E.s:10353  .rodata.sp_alphon45:00000000 sp_alphon45
     /tmp/ccONvy4E.s:10345  .rodata.sp_alphon46:00000000 sp_alphon46
     /tmp/ccONvy4E.s:10337  .rodata.sp_alphon47:00000000 sp_alphon47
     /tmp/ccONvy4E.s:10329  .rodata.sp_alphon48:00000000 sp_alphon48
     /tmp/ccONvy4E.s:10320  .rodata.sp_alphon49:00000000 sp_alphon49
     /tmp/ccONvy4E.s:10311  .rodata.sp_alphon50:00000000 sp_alphon50
     /tmp/ccONvy4E.s:10302  .rodata.sp_alphon51:00000000 sp_alphon51
     /tmp/ccONvy4E.s:10294  .rodata.sp_alphon52:00000000 sp_alphon52
ARM GAS  /tmp/ccONvy4E.s 			page 414


     /tmp/ccONvy4E.s:10286  .rodata.sp_alphon53:00000000 sp_alphon53
     /tmp/ccONvy4E.s:10276  .rodata.sp_alphon54:00000000 sp_alphon54
     /tmp/ccONvy4E.s:10267  .rodata.sp_alphon55:00000000 sp_alphon55
     /tmp/ccONvy4E.s:10258  .rodata.sp_alphon56:00000000 sp_alphon56
     /tmp/ccONvy4E.s:10249  .rodata.sp_alphon57:00000000 sp_alphon57
     /tmp/ccONvy4E.s:10240  .rodata.sp_alphon58:00000000 sp_alphon58
     /tmp/ccONvy4E.s:10232  .rodata.sp_alphon59:00000000 sp_alphon59
     /tmp/ccONvy4E.s:10224  .rodata.sp_alphon60:00000000 sp_alphon60
     /tmp/ccONvy4E.s:10214  .rodata.sp_alphon61:00000000 sp_alphon61
     /tmp/ccONvy4E.s:10206  .rodata.sp_alphon62:00000000 sp_alphon62
     /tmp/ccONvy4E.s:10197  .rodata.sp_alphon63:00000000 sp_alphon63
     /tmp/ccONvy4E.s:10189  .rodata.sp_alphon64:00000000 sp_alphon64
     /tmp/ccONvy4E.s:10180  .rodata.sp_alphon65:00000000 sp_alphon65
     /tmp/ccONvy4E.s:10171  .rodata.sp_alphon66:00000000 sp_alphon66
     /tmp/ccONvy4E.s:10162  .rodata.sp_alphon67:00000000 sp_alphon67
     /tmp/ccONvy4E.s:10154  .rodata.sp_alphon68:00000000 sp_alphon68
     /tmp/ccONvy4E.s:10146  .rodata.sp_alphon69:00000000 sp_alphon69
     /tmp/ccONvy4E.s:10137  .rodata.sp_alphon70:00000000 sp_alphon70
     /tmp/ccONvy4E.s:10128  .rodata.sp_alphon71:00000000 sp_alphon71
     /tmp/ccONvy4E.s:10119  .rodata.sp_alphon72:00000000 sp_alphon72
     /tmp/ccONvy4E.s:10112  .rodata.sp_alphon73:00000000 sp_alphon73
     /tmp/ccONvy4E.s:10105  .rodata.sp_alphon74:00000000 sp_alphon74
     /tmp/ccONvy4E.s:10096  .rodata.sp_alphon75:00000000 sp_alphon75
     /tmp/ccONvy4E.s:10089  .rodata.sp_alphon76:00000000 sp_alphon76
     /tmp/ccONvy4E.s:10081  .rodata.sp_alphon77:00000000 sp_alphon77
     /tmp/ccONvy4E.s:10074  .rodata.sp_alphon78:00000000 sp_alphon78
     /tmp/ccONvy4E.s:10066  .rodata.sp_alphon79:00000000 sp_alphon79
     /tmp/ccONvy4E.s:10058  .rodata.sp_alphon80:00000000 sp_alphon80
     /tmp/ccONvy4E.s:10049  .rodata.sp_alphon81:00000000 sp_alphon81
     /tmp/ccONvy4E.s:10042  .rodata.sp_alphon82:00000000 sp_alphon82
     /tmp/ccONvy4E.s:10034  .rodata.sp_alphon83:00000000 sp_alphon83
     /tmp/ccONvy4E.s:10026  .rodata.sp_alphon84:00000000 sp_alphon84
     /tmp/ccONvy4E.s:10019  .rodata.sp_alphon85:00000000 sp_alphon85
     /tmp/ccONvy4E.s:10012  .rodata.sp_alphon86:00000000 sp_alphon86
     /tmp/ccONvy4E.s:10004  .rodata.sp_alphon87:00000000 sp_alphon87
     /tmp/ccONvy4E.s:9997   .rodata.sp_alphon88:00000000 sp_alphon88
     /tmp/ccONvy4E.s:9989   .rodata.sp_alphon89:00000000 sp_alphon89
     /tmp/ccONvy4E.s:9982   .rodata.sp_alphon90:00000000 sp_alphon90
     /tmp/ccONvy4E.s:9974   .rodata.sp_alphon91:00000000 sp_alphon91
     /tmp/ccONvy4E.s:9965   .rodata.sp_alphon92:00000000 sp_alphon92
     /tmp/ccONvy4E.s:9958   .rodata.sp_alphon93:00000000 sp_alphon93
     /tmp/ccONvy4E.s:9949   .rodata.sp_alphon94:00000000 sp_alphon94
     /tmp/ccONvy4E.s:9941   .rodata.sp_alphon95:00000000 sp_alphon95
     /tmp/ccONvy4E.s:9933   .rodata.sp_alphon96:00000000 sp_alphon96
     /tmp/ccONvy4E.s:9925   .rodata.sp_alphon97:00000000 sp_alphon97
     /tmp/ccONvy4E.s:9917   .rodata.sp_alphon98:00000000 sp_alphon98
     /tmp/ccONvy4E.s:9908   .rodata.sp_alphon99:00000000 sp_alphon99
     /tmp/ccONvy4E.s:9900   .rodata.sp_alphon100:00000000 sp_alphon100
     /tmp/ccONvy4E.s:9891   .rodata.sp_alphon101:00000000 sp_alphon101
     /tmp/ccONvy4E.s:9883   .rodata.sp_alphon102:00000000 sp_alphon102
     /tmp/ccONvy4E.s:9876   .rodata.sp_alphon103:00000000 sp_alphon103
     /tmp/ccONvy4E.s:9869   .rodata.sp_alphon104:00000000 sp_alphon104
     /tmp/ccONvy4E.s:9862   .rodata.sp_alphon105:00000000 sp_alphon105
     /tmp/ccONvy4E.s:9855   .rodata.sp_alphon106:00000000 sp_alphon106
     /tmp/ccONvy4E.s:9848   .rodata.sp_alphon107:00000000 sp_alphon107
     /tmp/ccONvy4E.s:9841   .rodata.sp_alphon108:00000000 sp_alphon108
     /tmp/ccONvy4E.s:9834   .rodata.sp_alphon109:00000000 sp_alphon109
ARM GAS  /tmp/ccONvy4E.s 			page 415


     /tmp/ccONvy4E.s:9827   .rodata.sp_alphon110:00000000 sp_alphon110
     /tmp/ccONvy4E.s:9820   .rodata.sp_alphon111:00000000 sp_alphon111
     /tmp/ccONvy4E.s:9813   .rodata.sp_alphon112:00000000 sp_alphon112
     /tmp/ccONvy4E.s:9806   .rodata.sp_alphon113:00000000 sp_alphon113
     /tmp/ccONvy4E.s:9799   .rodata.sp_alphon114:00000000 sp_alphon114
     /tmp/ccONvy4E.s:9792   .rodata.sp_alphon115:00000000 sp_alphon115
     /tmp/ccONvy4E.s:9784   .rodata.sp_alphon116:00000000 sp_alphon116
     /tmp/ccONvy4E.s:9777   .rodata.sp_alphon117:00000000 sp_alphon117
     /tmp/ccONvy4E.s:9769   .rodata.sp_alphon118:00000000 sp_alphon118
     /tmp/ccONvy4E.s:9761   .rodata.sp_alphon119:00000000 sp_alphon119
     /tmp/ccONvy4E.s:9753   .rodata.sp_alphon120:00000000 sp_alphon120
     /tmp/ccONvy4E.s:9745   .rodata.sp_alphon121:00000000 sp_alphon121
     /tmp/ccONvy4E.s:9738   .rodata.sp_alphon122:00000000 sp_alphon122
     /tmp/ccONvy4E.s:9730   .rodata.sp_alphon123:00000000 sp_alphon123
     /tmp/ccONvy4E.s:9723   .rodata.sp_alphon124:00000000 sp_alphon124
     /tmp/ccONvy4E.s:9715   .rodata.sp_alphon125:00000000 sp_alphon125
     /tmp/ccONvy4E.s:9708   .rodata.sp_alphon126:00000000 sp_alphon126
     /tmp/ccONvy4E.s:9701   .rodata.sp_alphon127:00000000 sp_alphon127
     /tmp/ccONvy4E.s:8951   .rodata.sp_tron15:00000000 $d
     /tmp/ccONvy4E.s:8972   .rodata.sp_tron14:00000000 $d
     /tmp/ccONvy4E.s:9000   .rodata.sp_tron13:00000000 $d
     /tmp/ccONvy4E.s:9030   .rodata.sp_tron12:00000000 $d
     /tmp/ccONvy4E.s:9059   .rodata.sp_tron11:00000000 $d
     /tmp/ccONvy4E.s:9072   .rodata.sp_tron10:00000000 $d
     /tmp/ccONvy4E.s:9087   .rodata.sp_tron9:00000000 $d
     /tmp/ccONvy4E.s:9116   .rodata.sp_tron8:00000000 $d
     /tmp/ccONvy4E.s:9150   .rodata.sp_tron7:00000000 $d
     /tmp/ccONvy4E.s:9164   .rodata.sp_tron6:00000000 $d
     /tmp/ccONvy4E.s:9190   .rodata.sp_tron5:00000000 $d
     /tmp/ccONvy4E.s:9210   .rodata.sp_tron4:00000000 $d
     /tmp/ccONvy4E.s:9230   .rodata.sp_tron3:00000000 $d
     /tmp/ccONvy4E.s:9287   .rodata.sp_tron2:00000000 $d
     /tmp/ccONvy4E.s:9301   .rodata.sp_tron1:00000000 $d
     /tmp/ccONvy4E.s:9314   .rodata.sp_tron0:00000000 $d
     /tmp/ccONvy4E.s:9341   .rodata.sp_misc28:00000000 $d
     /tmp/ccONvy4E.s:9353   .rodata.sp_misc27:00000000 $d
     /tmp/ccONvy4E.s:9365   .rodata.sp_misc26:00000000 $d
     /tmp/ccONvy4E.s:9381   .rodata.sp_misc25:00000000 $d
     /tmp/ccONvy4E.s:9394   .rodata.sp_misc24:00000000 $d
     /tmp/ccONvy4E.s:9405   .rodata.sp_misc23:00000000 $d
     /tmp/ccONvy4E.s:9416   .rodata.sp_misc22:00000000 $d
     /tmp/ccONvy4E.s:9430   .rodata.sp_misc21:00000000 $d
     /tmp/ccONvy4E.s:9441   .rodata.sp_misc20:00000000 $d
     /tmp/ccONvy4E.s:9452   .rodata.sp_misc19:00000000 $d
     /tmp/ccONvy4E.s:9466   .rodata.sp_misc18:00000000 $d
     /tmp/ccONvy4E.s:9478   .rodata.sp_misc17:00000000 $d
     /tmp/ccONvy4E.s:9491   .rodata.sp_misc16:00000000 $d
     /tmp/ccONvy4E.s:9505   .rodata.sp_misc14:00000000 $d
     /tmp/ccONvy4E.s:9532   .rodata.sp_misc11:00000000 $d
     /tmp/ccONvy4E.s:9559   .rodata.sp_misc10:00000000 $d
     /tmp/ccONvy4E.s:9574   .rodata.sp_misc9:00000000 $d
     /tmp/ccONvy4E.s:9586   .rodata.sp_misc8:00000000 $d
     /tmp/ccONvy4E.s:9601   .rodata.sp_misc7:00000000 $d
     /tmp/ccONvy4E.s:9614   .rodata.sp_misc6:00000000 $d
     /tmp/ccONvy4E.s:9623   .rodata.sp_misc5:00000000 $d
     /tmp/ccONvy4E.s:9633   .rodata.sp_misc4:00000000 $d
     /tmp/ccONvy4E.s:9647   .rodata.sp_misc3:00000000 $d
ARM GAS  /tmp/ccONvy4E.s 			page 416


     /tmp/ccONvy4E.s:9659   .rodata.sp_misc2:00000000 $d
     /tmp/ccONvy4E.s:9668   .rodata.sp_misc1:00000000 $d
     /tmp/ccONvy4E.s:9681   .rodata.sp_misc0:00000000 $d
     /tmp/ccONvy4E.s:9698   .rodata.sp_alphon127:00000000 $d
     /tmp/ccONvy4E.s:9705   .rodata.sp_alphon126:00000000 $d
     /tmp/ccONvy4E.s:9712   .rodata.sp_alphon125:00000000 $d
     /tmp/ccONvy4E.s:9720   .rodata.sp_alphon124:00000000 $d
     /tmp/ccONvy4E.s:9727   .rodata.sp_alphon123:00000000 $d
     /tmp/ccONvy4E.s:9735   .rodata.sp_alphon122:00000000 $d
     /tmp/ccONvy4E.s:9742   .rodata.sp_alphon121:00000000 $d
     /tmp/ccONvy4E.s:9750   .rodata.sp_alphon120:00000000 $d
     /tmp/ccONvy4E.s:9758   .rodata.sp_alphon119:00000000 $d
     /tmp/ccONvy4E.s:9766   .rodata.sp_alphon118:00000000 $d
     /tmp/ccONvy4E.s:9774   .rodata.sp_alphon117:00000000 $d
     /tmp/ccONvy4E.s:9781   .rodata.sp_alphon116:00000000 $d
     /tmp/ccONvy4E.s:9789   .rodata.sp_alphon115:00000000 $d
     /tmp/ccONvy4E.s:9796   .rodata.sp_alphon114:00000000 $d
     /tmp/ccONvy4E.s:9803   .rodata.sp_alphon113:00000000 $d
     /tmp/ccONvy4E.s:9810   .rodata.sp_alphon112:00000000 $d
     /tmp/ccONvy4E.s:9817   .rodata.sp_alphon111:00000000 $d
     /tmp/ccONvy4E.s:9824   .rodata.sp_alphon110:00000000 $d
     /tmp/ccONvy4E.s:9831   .rodata.sp_alphon109:00000000 $d
     /tmp/ccONvy4E.s:9838   .rodata.sp_alphon108:00000000 $d
     /tmp/ccONvy4E.s:9845   .rodata.sp_alphon107:00000000 $d
     /tmp/ccONvy4E.s:9852   .rodata.sp_alphon106:00000000 $d
     /tmp/ccONvy4E.s:9859   .rodata.sp_alphon105:00000000 $d
     /tmp/ccONvy4E.s:9866   .rodata.sp_alphon104:00000000 $d
     /tmp/ccONvy4E.s:9873   .rodata.sp_alphon103:00000000 $d
     /tmp/ccONvy4E.s:9880   .rodata.sp_alphon102:00000000 $d
     /tmp/ccONvy4E.s:9888   .rodata.sp_alphon101:00000000 $d
     /tmp/ccONvy4E.s:9897   .rodata.sp_alphon100:00000000 $d
     /tmp/ccONvy4E.s:9905   .rodata.sp_alphon99:00000000 $d
     /tmp/ccONvy4E.s:9914   .rodata.sp_alphon98:00000000 $d
     /tmp/ccONvy4E.s:9922   .rodata.sp_alphon97:00000000 $d
     /tmp/ccONvy4E.s:9930   .rodata.sp_alphon96:00000000 $d
     /tmp/ccONvy4E.s:9938   .rodata.sp_alphon95:00000000 $d
     /tmp/ccONvy4E.s:9946   .rodata.sp_alphon94:00000000 $d
     /tmp/ccONvy4E.s:9955   .rodata.sp_alphon93:00000000 $d
     /tmp/ccONvy4E.s:9962   .rodata.sp_alphon92:00000000 $d
     /tmp/ccONvy4E.s:9971   .rodata.sp_alphon91:00000000 $d
     /tmp/ccONvy4E.s:9979   .rodata.sp_alphon90:00000000 $d
     /tmp/ccONvy4E.s:9986   .rodata.sp_alphon89:00000000 $d
     /tmp/ccONvy4E.s:9994   .rodata.sp_alphon88:00000000 $d
     /tmp/ccONvy4E.s:10001  .rodata.sp_alphon87:00000000 $d
     /tmp/ccONvy4E.s:10009  .rodata.sp_alphon86:00000000 $d
     /tmp/ccONvy4E.s:10016  .rodata.sp_alphon85:00000000 $d
     /tmp/ccONvy4E.s:10023  .rodata.sp_alphon84:00000000 $d
     /tmp/ccONvy4E.s:10031  .rodata.sp_alphon83:00000000 $d
     /tmp/ccONvy4E.s:10039  .rodata.sp_alphon82:00000000 $d
     /tmp/ccONvy4E.s:10046  .rodata.sp_alphon81:00000000 $d
     /tmp/ccONvy4E.s:10055  .rodata.sp_alphon80:00000000 $d
     /tmp/ccONvy4E.s:10063  .rodata.sp_alphon79:00000000 $d
     /tmp/ccONvy4E.s:10071  .rodata.sp_alphon78:00000000 $d
     /tmp/ccONvy4E.s:10078  .rodata.sp_alphon77:00000000 $d
     /tmp/ccONvy4E.s:10086  .rodata.sp_alphon76:00000000 $d
     /tmp/ccONvy4E.s:10093  .rodata.sp_alphon75:00000000 $d
     /tmp/ccONvy4E.s:10102  .rodata.sp_alphon74:00000000 $d
ARM GAS  /tmp/ccONvy4E.s 			page 417


     /tmp/ccONvy4E.s:10109  .rodata.sp_alphon73:00000000 $d
     /tmp/ccONvy4E.s:10116  .rodata.sp_alphon72:00000000 $d
     /tmp/ccONvy4E.s:10125  .rodata.sp_alphon71:00000000 $d
     /tmp/ccONvy4E.s:10134  .rodata.sp_alphon70:00000000 $d
     /tmp/ccONvy4E.s:10143  .rodata.sp_alphon69:00000000 $d
     /tmp/ccONvy4E.s:10151  .rodata.sp_alphon68:00000000 $d
     /tmp/ccONvy4E.s:10159  .rodata.sp_alphon67:00000000 $d
     /tmp/ccONvy4E.s:10168  .rodata.sp_alphon66:00000000 $d
     /tmp/ccONvy4E.s:10177  .rodata.sp_alphon65:00000000 $d
     /tmp/ccONvy4E.s:10186  .rodata.sp_alphon64:00000000 $d
     /tmp/ccONvy4E.s:10194  .rodata.sp_alphon63:00000000 $d
     /tmp/ccONvy4E.s:10203  .rodata.sp_alphon62:00000000 $d
     /tmp/ccONvy4E.s:10211  .rodata.sp_alphon61:00000000 $d
     /tmp/ccONvy4E.s:10221  .rodata.sp_alphon60:00000000 $d
     /tmp/ccONvy4E.s:10229  .rodata.sp_alphon59:00000000 $d
     /tmp/ccONvy4E.s:10237  .rodata.sp_alphon58:00000000 $d
     /tmp/ccONvy4E.s:10246  .rodata.sp_alphon57:00000000 $d
     /tmp/ccONvy4E.s:10255  .rodata.sp_alphon56:00000000 $d
     /tmp/ccONvy4E.s:10264  .rodata.sp_alphon55:00000000 $d
     /tmp/ccONvy4E.s:10273  .rodata.sp_alphon54:00000000 $d
     /tmp/ccONvy4E.s:10283  .rodata.sp_alphon53:00000000 $d
     /tmp/ccONvy4E.s:10291  .rodata.sp_alphon52:00000000 $d
     /tmp/ccONvy4E.s:10299  .rodata.sp_alphon51:00000000 $d
     /tmp/ccONvy4E.s:10308  .rodata.sp_alphon50:00000000 $d
     /tmp/ccONvy4E.s:10317  .rodata.sp_alphon49:00000000 $d
     /tmp/ccONvy4E.s:10326  .rodata.sp_alphon48:00000000 $d
     /tmp/ccONvy4E.s:10334  .rodata.sp_alphon47:00000000 $d
     /tmp/ccONvy4E.s:10342  .rodata.sp_alphon46:00000000 $d
     /tmp/ccONvy4E.s:10350  .rodata.sp_alphon45:00000000 $d
     /tmp/ccONvy4E.s:10358  .rodata.sp_alphon44:00000000 $d
     /tmp/ccONvy4E.s:10366  .rodata.sp_alphon43:00000000 $d
     /tmp/ccONvy4E.s:10374  .rodata.sp_alphon42:00000000 $d
     /tmp/ccONvy4E.s:10382  .rodata.sp_alphon41:00000000 $d
     /tmp/ccONvy4E.s:10390  .rodata.sp_alphon40:00000000 $d
     /tmp/ccONvy4E.s:10398  .rodata.sp_alphon39:00000000 $d
     /tmp/ccONvy4E.s:10406  .rodata.sp_alphon38:00000000 $d
     /tmp/ccONvy4E.s:10414  .rodata.sp_alphon37:00000000 $d
     /tmp/ccONvy4E.s:10422  .rodata.sp_alphon36:00000000 $d
     /tmp/ccONvy4E.s:10430  .rodata.sp_alphon35:00000000 $d
     /tmp/ccONvy4E.s:10438  .rodata.sp_alphon34:00000000 $d
     /tmp/ccONvy4E.s:10446  .rodata.sp_alphon33:00000000 $d
     /tmp/ccONvy4E.s:10454  .rodata.sp_alphon32:00000000 $d
     /tmp/ccONvy4E.s:10461  .rodata.sp_alphon31:00000000 $d
     /tmp/ccONvy4E.s:10469  .rodata.sp_alphon30:00000000 $d
     /tmp/ccONvy4E.s:10477  .rodata.sp_alphon29:00000000 $d
     /tmp/ccONvy4E.s:10485  .rodata.sp_alphon28:00000000 $d
     /tmp/ccONvy4E.s:10493  .rodata.sp_alphon27:00000000 $d
     /tmp/ccONvy4E.s:10501  .rodata.sp_alphon26:00000000 $d
     /tmp/ccONvy4E.s:10509  .rodata.sp_alphon25:00000000 $d
     /tmp/ccONvy4E.s:10517  .rodata.sp_alphon24:00000000 $d
     /tmp/ccONvy4E.s:10525  .rodata.sp_alphon23:00000000 $d
     /tmp/ccONvy4E.s:10533  .rodata.sp_alphon22:00000000 $d
     /tmp/ccONvy4E.s:10541  .rodata.sp_alphon21:00000000 $d
     /tmp/ccONvy4E.s:10549  .rodata.sp_alphon20:00000000 $d
     /tmp/ccONvy4E.s:10557  .rodata.sp_alphon19:00000000 $d
     /tmp/ccONvy4E.s:10564  .rodata.sp_alphon18:00000000 $d
     /tmp/ccONvy4E.s:10572  .rodata.sp_alphon17:00000000 $d
ARM GAS  /tmp/ccONvy4E.s 			page 418


     /tmp/ccONvy4E.s:10580  .rodata.sp_alphon16:00000000 $d
     /tmp/ccONvy4E.s:10588  .rodata.sp_alphon15:00000000 $d
     /tmp/ccONvy4E.s:10596  .rodata.sp_alphon14:00000000 $d
     /tmp/ccONvy4E.s:10604  .rodata.sp_alphon13:00000000 $d
     /tmp/ccONvy4E.s:10612  .rodata.sp_alphon12:00000000 $d
     /tmp/ccONvy4E.s:10619  .rodata.sp_alphon11:00000000 $d
     /tmp/ccONvy4E.s:10627  .rodata.sp_alphon10:00000000 $d
     /tmp/ccONvy4E.s:10634  .rodata.sp_alphon9:00000000 $d
     /tmp/ccONvy4E.s:10642  .rodata.sp_alphon8:00000000 $d
     /tmp/ccONvy4E.s:10650  .rodata.sp_alphon7:00000000 $d
     /tmp/ccONvy4E.s:10658  .rodata.sp_alphon6:00000000 $d
     /tmp/ccONvy4E.s:10665  .rodata.sp_alphon5:00000000 $d
     /tmp/ccONvy4E.s:10672  .rodata.sp_alphon4:00000000 $d
     /tmp/ccONvy4E.s:10680  .rodata.sp_alphon3:00000000 $d
     /tmp/ccONvy4E.s:10688  .rodata.sp_alphon2:00000000 $d
     /tmp/ccONvy4E.s:10696  .rodata.sp_alphon1:00000000 $d
     /tmp/ccONvy4E.s:10704  .rodata.sp_012mm:00000000 $d
     /tmp/ccONvy4E.s:10722  .rodata.sp_011mm:00000000 $d
     /tmp/ccONvy4E.s:10739  .rodata.sp_010mm:00000000 $d
     /tmp/ccONvy4E.s:10756  .rodata.sp_009mm:00000000 $d
     /tmp/ccONvy4E.s:10771  .rodata.sp_008mm:00000000 $d
     /tmp/ccONvy4E.s:10785  .rodata.sp_007mm:00000000 $d
     /tmp/ccONvy4E.s:10795  .rodata.sp_006mm:00000000 $d
     /tmp/ccONvy4E.s:10812  .rodata.sp_015mm:00000000 $d
     /tmp/ccONvy4E.s:10835  .rodata.sp_005mm:00000000 $d
     /tmp/ccONvy4E.s:10853  .rodata.sp_004mm:00000000 $d
     /tmp/ccONvy4E.s:10876  .rodata.sp_003mm:00000000 $d
     /tmp/ccONvy4E.s:10896  .rodata.sp_002mm:00000000 $d
     /tmp/ccONvy4E.s:10915  .rodata.sp_001mm:00000000 $d
     /tmp/ccONvy4E.s:10929  .rodata.sp_000mm:00000000 $d
     /tmp/ccONvy4E.s:10947  .rodata.sp_015s:00000000 $d
     /tmp/ccONvy4E.s:10960  .rodata.sp_013s:00000000 $d
     /tmp/ccONvy4E.s:10988  .rodata.sp_012s:00000000 $d
     /tmp/ccONvy4E.s:10998  .rodata.sp_010s:00000000 $d
     /tmp/ccONvy4E.s:11017  .rodata.sp_0099s:00000000 $d
     /tmp/ccONvy4E.s:11034  .rodata.sp_009s:00000000 $d
     /tmp/ccONvy4E.s:11050  .rodata.sp_0088s:00000000 sp_0088s
     /tmp/ccONvy4E.s:11047  .rodata.sp_0088s:00000000 $d
     /tmp/ccONvy4E.s:11058  .rodata.sp_008s:00000000 $d
     /tmp/ccONvy4E.s:11069  .rodata.sp_007s:00000000 $d
     /tmp/ccONvy4E.s:11081  .rodata.sp_011s:00000000 $d
     /tmp/ccONvy4E.s:11097  .rodata.sp_006s:00000000 $d
     /tmp/ccONvy4E.s:11109  .rodata.sp_005s:00000000 $d
     /tmp/ccONvy4E.s:11120  .rodata.sp_0033s:00000000 $d
     /tmp/ccONvy4E.s:11134  .rodata.sp_002s:00000000 $d
     /tmp/ccONvy4E.s:11147  .rodata.sp_000s:00000000 $d
     /tmp/ccONvy4E.s:11166  .rodata.sp_020m:00000000 $d
     /tmp/ccONvy4E.s:11187  .rodata.sp_016m:00000000 $d
     /tmp/ccONvy4E.s:11223  .rodata.sp_014m:00000000 $d
     /tmp/ccONvy4E.s:11241  .rodata.sp_005m:00000000 $d
     /tmp/ccONvy4E.s:11256  .rodata.sp_019m:00000000 $d
     /tmp/ccONvy4E.s:11277  .rodata.sp_018m:00000000 $d
     /tmp/ccONvy4E.s:11300  .rodata.sp_017m:00000000 $d
     /tmp/ccONvy4E.s:11317  .rodata.sp_015m:00000000 $d
     /tmp/ccONvy4E.s:11328  .rodata.sp_012m:00000000 $d
     /tmp/ccONvy4E.s:11344  .rodata.sp_078m:00000000 $d
     /tmp/ccONvy4E.s:11358  .rodata.sp_077m:00000000 $d
ARM GAS  /tmp/ccONvy4E.s 			page 419


     /tmp/ccONvy4E.s:11372  .rodata.sp_007m:00000000 $d
     /tmp/ccONvy4E.s:11383  .rodata.sp_0055m:00000000 $d
     /tmp/ccONvy4E.s:11398  .rodata.sp_0141a:00000000 $d
     /tmp/ccONvy4E.s:11414  .rodata.sp_012a:00000000 $d
     /tmp/ccONvy4E.s:11433  .rodata.sp_011a:00000000 $d
     /tmp/ccONvy4E.s:11451  .rodata.sp_010a:00000000 $d
     /tmp/ccONvy4E.s:11472  .rodata.sp_008a:00000000 $d
     /tmp/ccONvy4E.s:11493  .rodata.sp_007a:00000000 $d
     /tmp/ccONvy4E.s:11515  .rodata.sp_006a:00000000 $d
     /tmp/ccONvy4E.s:11543  .rodata.sp_005a:00000000 $d
     /tmp/ccONvy4E.s:11558  .rodata.sp_0021a:00000000 sp_0021a
     /tmp/ccONvy4E.s:11555  .rodata.sp_0021a:00000000 $d
     /tmp/ccONvy4E.s:11581  .rodata.sp_001a:00000000 $d
     /tmp/ccONvy4E.s:11602  .rodata.sp_000a:00000000 $d
     /tmp/ccONvy4E.s:11615  .rodata.sp_0022a:00000000 $d
     /tmp/ccONvy4E.s:11635  .rodata.sp_024a:00000000 $d
     /tmp/ccONvy4E.s:11657  .rodata.sp_013a:00000000 $d
     /tmp/ccONvy4E.s:11681  .rodata.sp_b019:00000000 $d
     /tmp/ccONvy4E.s:11693  .rodata.sp_b018:00000000 $d
     /tmp/ccONvy4E.s:11704  .rodata.sp_b012:00000000 $d
     /tmp/ccONvy4E.s:11731  .rodata.sp_b011:00000000 $d
     /tmp/ccONvy4E.s:11751  .rodata.sp_b010:00000000 $d
     /tmp/ccONvy4E.s:11770  .rodata.sp_b009:00000000 $d
     /tmp/ccONvy4E.s:11785  .rodata.sp_017b:00000000 $d
     /tmp/ccONvy4E.s:11806  .rodata.sp_013b:00000000 $d
     /tmp/ccONvy4E.s:11828  .rodata.sp_parNICE2:00000000 $d
     /tmp/ccONvy4E.s:11848  .rodata.sp_parCONGRAT:00000000 $d
     /tmp/ccONvy4E.s:11868  .rodata.sp_parALERT2:00000000 $d
     /tmp/ccONvy4E.s:11890  .rodata.sp_parALERT1:00000000 $d
     /tmp/ccONvy4E.s:11920  .rodata.sp_parASTEROID:00000000 $d
     /tmp/ccONvy4E.s:11944  .rodata.sp_parEXTRA:00000000 $d
     /tmp/ccONvy4E.s:11958  .rodata.sp_parFUEL:00000000 $d
     /tmp/ccONvy4E.s:11984  .rodata.sp_parLASER:00000000 $d
     /tmp/ccONvy4E.s:12006  .rodata.sp_parREFUEL:00000000 $d
     /tmp/ccONvy4E.s:12033  .rodata.sp_parTARGET:00000000 $d
     /tmp/ccONvy4E.s:12052  .rodata.sp_parENEMY:00000000 $d
     /tmp/ccONvy4E.s:12073  .rodata.sp_parGREAT:00000000 $d
     /tmp/ccONvy4E.s:12090  .rodata.sp_parNICE:00000000 $d
     /tmp/ccONvy4E.s:12105  .rodata.sp_parADVANCE:00000000 $d
     /tmp/ccONvy4E.s:12126  .rodata.sp_parONE:00000000 $d
     /tmp/ccONvy4E.s:12135  .rodata.sp_parTWO:00000000 $d
     /tmp/ccONvy4E.s:12144  .rodata.sp_parTHREE:00000000 $d
     /tmp/ccONvy4E.s:12153  .rodata.sp_parFOUR:00000000 $d
     /tmp/ccONvy4E.s:12163  .rodata.sp_parFIVE:00000000 $d
     /tmp/ccONvy4E.s:12174  .rodata.sp_parCOUNT:00000000 $d
     /tmp/ccONvy4E.s:12187  .rodata.sp_parSHOT:00000000 $d
     /tmp/ccONvy4E.s:12201  .rodata.sp_parFIRE:00000000 $d
     /tmp/ccONvy4E.s:12220  .rodata.tms5220_coeff:00000000 $d
     /tmp/ccONvy4E.s:12551  .rodata.T0285_2501E_coeff:00000000 $d
     /tmp/ccONvy4E.s:12882  .rodata.T0280F_2801A_coeff:00000000 $d
     /tmp/ccONvy4E.s:13182  .rodata.T0280B_0281A_coeff:00000000 $d
     /tmp/ccONvy4E.s:13483  .rodata.koffset:00000000 $d
     /tmp/ccONvy4E.s:13492  .bss.modus:00000000 $d

UNDEFINED SYMBOLS
_intmode
exy
ARM GAS  /tmp/ccONvy4E.s 			page 420


_selz
logpitch
_selx
_sely
text2speechforTMS
TTSinarray
