ARM GAS  /tmp/ccYdlVIk.s 			page 1


 GNU assembler version 2.41.0 (arm-none-eabi)
	 using BFD version (Arm GNU Toolchain 13.2.rel1 (Build arm-13.7)) 2.41.0.20231009.
 options passed	: -I -I -I -I -I -I -I -EL -march=armv7e-m+fp.dp -mfloat-abi=hard -mfpu=fpv5-d16 -meabi=5 -aghlms=src/tube.lst 
 input file    	: /tmp/ccYdlVIk.s
 output file   	: src/tube.o
 target        	: arm-none-eabi
 time stamp    	: 2025-03-08T13:36:00.000+0100

ARM GAS  /tmp/ccYdlVIk.s 			page 2


   1              		.cpu cortex-m7
   2              		.arch armv7e-m
   3              		.fpu fpv5-d16
   4              		.eabi_attribute 28, 1
   5              		.eabi_attribute 20, 1
   6              		.eabi_attribute 21, 1
   7              		.eabi_attribute 23, 3
   8              		.eabi_attribute 24, 1
   9              		.eabi_attribute 25, 1
  10              		.eabi_attribute 26, 1
  11              		.eabi_attribute 30, 2
  12              		.eabi_attribute 34, 1
  13              		.eabi_attribute 18, 4
  14              		.file	"tube.c"
  15              		.text
  16              		.section	.text.initializeWavetable,"ax",%progbits
  17              		.align	1
  18              		.p2align 2,,3
  19              		.global	initializeWavetable
  20              		.syntax unified
  21              		.thumb
  22              		.thumb_func
  23              		.type	initializeWavetable, %function
  24              	initializeWavetable:
  25              		@ args = 0, pretend = 0, frame = 0
  26              		@ frame_needed = 0, uses_anonymous_args = 0
  27 0000 38B5     		push	{r3, r4, r5, lr}
  28 0002 3F4B     		ldr	r3, .L17+8
  29 0004 0022     		movs	r2, #0
  30 0006 3F49     		ldr	r1, .L17+12
  31 0008 2DED048B 		vpush.64	{d8, d9}
  32 000c 1B78     		ldrb	r3, [r3]	@ zero_extendqisi2
  33 000e 0A60     		str	r2, [r1]	@ float
  34 0010 002B     		cmp	r3, #0
  35 0012 50D1     		bne	.L2
  36 0014 3C4A     		ldr	r2, .L17+16
  37 0016 1168     		ldr	r1, [r2]
  38 0018 0029     		cmp	r1, #0
  39 001a 1FDD     		ble	.L7
  40 001c 07EE901A 		vmov	s15, r1	@ int
  41 0020 B0EE085B 		vmov.f64	d5, #3.0e+0
  42 0024 394A     		ldr	r2, .L17+20
  43 0026 F8EEE74A 		vcvt.f32.s32	s9, s15
  44              	.L6:
  45 002a 07EE903A 		vmov	s15, r3	@ int
  46 002e 0133     		adds	r3, r3, #1
  47 0030 F8EEE77A 		vcvt.f32.s32	s15, s15
  48 0034 8B42     		cmp	r3, r1
  49 0036 87EEA47A 		vdiv.f32	s14, s15, s9
  50 003a 27EE076A 		vmul.f32	s12, s14, s14
  51 003e 27EE067A 		vmul.f32	s14, s14, s12
  52 0042 B7EEC66A 		vcvt.f64.f32	d6, s12
  53 0046 B7EEC77A 		vcvt.f64.f32	d7, s14
  54 004a 37EE077B 		vadd.f64	d7, d7, d7
  55 004e 16EE057B 		vnmls.f64	d7, d6, d5
  56 0052 B7EEC77B 		vcvt.f32.f64	s14, d7
  57 0056 A2EC017A 		vstmia.32	r2!, {s14}
ARM GAS  /tmp/ccYdlVIk.s 			page 3


  58 005a E6D1     		bne	.L6
  59              	.L7:
  60 005c 2C4B     		ldr	r3, .L17+24
  61 005e 1868     		ldr	r0, [r3]
  62 0060 8842     		cmp	r0, r1
  63 0062 18DD     		ble	.L5
  64 0064 2B4B     		ldr	r3, .L17+28
  65 0066 B7EE006A 		vmov.f32	s12, #1.0e+0
  66 006a 284A     		ldr	r2, .L17+20
  67 006c 441A     		subs	r4, r0, r1
  68 006e D3ED006A 		vldr.32	s13, [r3]
  69 0072 0023     		movs	r3, #0
  70 0074 02EB8102 		add	r2, r2, r1, lsl #2
  71              	.L10:
  72 0078 07EE903A 		vmov	s15, r3	@ int
  73 007c 0133     		adds	r3, r3, #1
  74 007e B8EEE77A 		vcvt.f32.s32	s14, s15
  75 0082 A342     		cmp	r3, r4
  76 0084 C7EE267A 		vdiv.f32	s15, s14, s13
  77 0088 67EEA77A 		vmul.f32	s15, s15, s15
  78 008c 76EE677A 		vsub.f32	s15, s12, s15
  79 0090 E2EC017A 		vstmia.32	r2!, {s15}
  80 0094 F0D1     		bne	.L10
  81              	.L5:
  82 0096 B0F5007F 		cmp	r0, #512
  83 009a 2ADA     		bge	.L1
  84 009c C0F50072 		rsb	r2, r0, #512
  85 00a0 1A4B     		ldr	r3, .L17+20
  86 00a2 0021     		movs	r1, #0
  87 00a4 03EB8000 		add	r0, r3, r0, lsl #2
  88 00a8 9200     		lsls	r2, r2, #2
  89 00aa BDEC048B 		vldm	sp!, {d8-d9}
  90 00ae BDE83840 		pop	{r3, r4, r5, lr}
  91 00b2 FFF7FEBF 		b	memset
  92              	.L2:
  93 00b6 9FED108B 		vldr.64	d8, .L17
  94 00ba 144D     		ldr	r5, .L17+20
  95 00bc 0124     		movs	r4, #1
  96 00be 9FED169A 		vldr.32	s18, .L17+32
  97 00c2 45F8042B 		str	r2, [r5], #4	@ float
  98              	.L11:
  99 00c6 07EE904A 		vmov	s15, r4	@ int
 100 00ca 0134     		adds	r4, r4, #1
 101 00cc B8EEE70A 		vcvt.f32.s32	s0, s15
 102 00d0 20EE090A 		vmul.f32	s0, s0, s18
 103 00d4 B7EEC00A 		vcvt.f64.f32	d0, s0
 104 00d8 30EE000B 		vadd.f64	d0, d0, d0
 105 00dc 20EE080B 		vmul.f64	d0, d0, d8
 106 00e0 B7EEC00B 		vcvt.f32.f64	s0, d0
 107 00e4 FFF7FEFF 		bl	sinf
 108 00e8 B4F5007F 		cmp	r4, #512
 109 00ec A5EC010A 		vstmia.32	r5!, {s0}
 110 00f0 E9D1     		bne	.L11
 111              	.L1:
 112 00f2 BDEC048B 		vldm	sp!, {d8-d9}
 113 00f6 38BD     		pop	{r3, r4, r5, pc}
 114              	.L18:
ARM GAS  /tmp/ccYdlVIk.s 			page 4


 115              		.align	3
 116              	.L17:
 117 00f8 00000060 		.word	1610612736
 118 00fc FB210940 		.word	1074340347
 119 0100 00000000 		.word	pulsed
 120 0104 00000000 		.word	currentPosition
 121 0108 00000000 		.word	tableDiv1
 122 010c 00000000 		.word	wavetable
 123 0110 00000000 		.word	tableDiv2
 124 0114 00000000 		.word	tnLength
 125 0118 0000003B 		.word	989855744
 126              		.size	initializeWavetable, .-initializeWavetable
 127              		.section	.text.updateWavetable,"ax",%progbits
 128              		.align	1
 129              		.p2align 2,,3
 130              		.global	updateWavetable
 131              		.syntax unified
 132              		.thumb
 133              		.thumb_func
 134              		.type	updateWavetable, %function
 135              	updateWavetable:
 136              		@ args = 0, pretend = 0, frame = 0
 137              		@ frame_needed = 0, uses_anonymous_args = 0
 138              		@ link register save eliminated.
 139 0000 254A     		ldr	r2, .L26
 140 0002 2649     		ldr	r1, .L26+4
 141 0004 1268     		ldr	r2, [r2]
 142 0006 D1ED007A 		vldr.32	s15, [r1]
 143 000a 254B     		ldr	r3, .L26+8
 144 000c 20EE270A 		vmul.f32	s0, s0, s15
 145 0010 07EE902A 		vmov	s15, r2	@ int
 146 0014 1B68     		ldr	r3, [r3]
 147 0016 B8EEE76A 		vcvt.f32.s32	s12, s15
 148 001a 07EE903A 		vmov	s15, r3	@ int
 149 001e B7EE400A 		vrintx.f32	s0, s0
 150 0022 F8EEE77A 		vcvt.f32.s32	s15, s15
 151 0026 36EE406A 		vsub.f32	s12, s12, s0
 152 002a F4EEC67A 		vcmpe.f32	s15, s12
 153 002e 76EE675A 		vsub.f32	s11, s12, s15
 154 0032 F1EE10FA 		vmrs	APSR_nzcv, FPSCR
 155 0036 1FD5     		bpl	.L20
 156 0038 1A48     		ldr	r0, .L26+12
 157 003a B7EE005A 		vmov.f32	s10, #1.0e+0
 158 003e 0021     		movs	r1, #0
 159 0040 03F1010C 		add	ip, r3, #1
 160 0044 00EB8300 		add	r0, r0, r3, lsl #2
 161              	.L22:
 162 0048 0CEB0103 		add	r3, ip, r1
 163 004c 07EE903A 		vmov	s15, r3	@ int
 164 0050 B8EEE77A 		vcvt.f32.s32	s14, s15
 165 0054 07EE901A 		vmov	s15, r1	@ int
 166 0058 0131     		adds	r1, r1, #1
 167 005a F8EEE76A 		vcvt.f32.s32	s13, s15
 168 005e B4EEC67A 		vcmpe.f32	s14, s12
 169 0062 C6EEA57A 		vdiv.f32	s15, s13, s11
 170 0066 F1EE10FA 		vmrs	APSR_nzcv, FPSCR
 171 006a 67EEA77A 		vmul.f32	s15, s15, s15
ARM GAS  /tmp/ccYdlVIk.s 			page 5


 172 006e 75EE677A 		vsub.f32	s15, s10, s15
 173 0072 E0EC017A 		vstmia.32	r0!, {s15}
 174 0076 E7D4     		bmi	.L22
 175              	.L20:
 176 0078 FDEEC67A 		vcvt.s32.f32	s15, s12
 177 007c 17EE903A 		vmov	r3, s15	@ int
 178 0080 9A42     		cmp	r2, r3
 179 0082 07DD     		ble	.L19
 180 0084 D21A     		subs	r2, r2, r3
 181 0086 0748     		ldr	r0, .L26+12
 182 0088 0021     		movs	r1, #0
 183 008a 9200     		lsls	r2, r2, #2
 184 008c 00EB8300 		add	r0, r0, r3, lsl #2
 185 0090 FFF7FEBF 		b	memset
 186              	.L19:
 187 0094 7047     		bx	lr
 188              	.L27:
 189 0096 00BF     		.align	2
 190              	.L26:
 191 0098 00000000 		.word	tableDiv2
 192 009c 00000000 		.word	tnDelta
 193 00a0 00000000 		.word	tableDiv1
 194 00a4 00000000 		.word	wavetable
 195              		.size	updateWavetable, .-updateWavetable
 196              		.section	.text.noise,"ax",%progbits
 197              		.align	1
 198              		.p2align 2,,3
 199              		.global	noise
 200              		.syntax unified
 201              		.thumb
 202              		.thumb_func
 203              		.type	noise, %function
 204              	noise:
 205              		@ args = 0, pretend = 0, frame = 0
 206              		@ frame_needed = 0, uses_anonymous_args = 0
 207              		@ link register save eliminated.
 208 0000 094B     		ldr	r3, .L29
 209 0002 B6EE000A 		vmov.f32	s0, #5.0e-1
 210 0006 9FED097A 		vldr.32	s14, .L29+4
 211 000a D3ED007A 		vldr.32	s15, [r3]
 212 000e 67EE877A 		vmul.f32	s15, s15, s14
 213 0012 BDEEE77A 		vcvt.s32.f32	s14, s15
 214 0016 B8EEC77A 		vcvt.f32.s32	s14, s14
 215 001a 77EEC77A 		vsub.f32	s15, s15, s14
 216 001e 37EEC00A 		vsub.f32	s0, s15, s0
 217 0022 C3ED007A 		vstr.32	s15, [r3]
 218 0026 7047     		bx	lr
 219              	.L30:
 220              		.align	2
 221              	.L29:
 222 0028 00000000 		.word	seed.12
 223 002c 0080BC43 		.word	1136427008
 224              		.size	noise, .-noise
 225              		.section	.text.noiseFilter,"ax",%progbits
 226              		.align	1
 227              		.p2align 2,,3
 228              		.global	noiseFilter
ARM GAS  /tmp/ccYdlVIk.s 			page 6


 229              		.syntax unified
 230              		.thumb
 231              		.thumb_func
 232              		.type	noiseFilter, %function
 233              	noiseFilter:
 234              		@ args = 0, pretend = 0, frame = 0
 235              		@ frame_needed = 0, uses_anonymous_args = 0
 236              		@ link register save eliminated.
 237 0000 034B     		ldr	r3, .L32
 238 0002 D3ED007A 		vldr.32	s15, [r3]
 239 0006 83ED000A 		vstr.32	s0, [r3]
 240 000a 30EE270A 		vadd.f32	s0, s0, s15
 241 000e 7047     		bx	lr
 242              	.L33:
 243              		.align	2
 244              	.L32:
 245 0010 00000000 		.word	noiseX.11
 246              		.size	noiseFilter, .-noiseFilter
 247              		.section	.text.initializeMouthCoefficients,"ax",%progbits
 248              		.align	1
 249              		.p2align 2,,3
 250              		.global	initializeMouthCoefficients
 251              		.syntax unified
 252              		.thumb
 253              		.thumb_func
 254              		.type	initializeMouthCoefficients, %function
 255              	initializeMouthCoefficients:
 256              		@ args = 0, pretend = 0, frame = 0
 257              		@ frame_needed = 0, uses_anonymous_args = 0
 258              		@ link register save eliminated.
 259 0000 F7EE007A 		vmov.f32	s15, #1.0e+0
 260 0004 0C48     		ldr	r0, .L36
 261 0006 F0EEC06A 		vabs.f32	s13, s0
 262 000a 0C4B     		ldr	r3, .L36+4
 263 000c B1EE407A 		vneg.f32	s14, s0
 264 0010 0B49     		ldr	r1, .L36+8
 265 0012 0C4A     		ldr	r2, .L36+12
 266 0014 77EEE67A 		vsub.f32	s15, s15, s13
 267 0018 10B4     		push	{r4}
 268 001a 0B4C     		ldr	r4, .L36+16
 269 001c 80ED007A 		vstr.32	s14, [r0]
 270 0020 84ED000A 		vstr.32	s0, [r4]
 271 0024 81ED007A 		vstr.32	s14, [r1]
 272 0028 5DF8044B 		ldr	r4, [sp], #4
 273 002c 82ED007A 		vstr.32	s14, [r2]
 274 0030 C3ED007A 		vstr.32	s15, [r3]
 275 0034 7047     		bx	lr
 276              	.L37:
 277 0036 00BF     		.align	2
 278              	.L36:
 279 0038 00000000 		.word	b11
 280 003c 00000000 		.word	a10
 281 0040 00000000 		.word	b21
 282 0044 00000000 		.word	a21
 283 0048 00000000 		.word	a20
 284              		.size	initializeMouthCoefficients, .-initializeMouthCoefficients
 285              		.section	.text.reflectionFilter,"ax",%progbits
ARM GAS  /tmp/ccYdlVIk.s 			page 7


 286              		.align	1
 287              		.p2align 2,,3
 288              		.global	reflectionFilter
 289              		.syntax unified
 290              		.thumb
 291              		.thumb_func
 292              		.type	reflectionFilter, %function
 293              	reflectionFilter:
 294              		@ args = 0, pretend = 0, frame = 0
 295              		@ frame_needed = 0, uses_anonymous_args = 0
 296              		@ link register save eliminated.
 297 0000 084B     		ldr	r3, .L39
 298 0002 0949     		ldr	r1, .L39+4
 299 0004 094A     		ldr	r2, .L39+8
 300 0006 93ED007A 		vldr.32	s14, [r3]
 301 000a D1ED006A 		vldr.32	s13, [r1]
 302 000e D2ED007A 		vldr.32	s15, [r2]
 303 0012 20EE260A 		vmul.f32	s0, s0, s13
 304 0016 67EE877A 		vmul.f32	s15, s15, s14
 305 001a 30EE670A 		vsub.f32	s0, s0, s15
 306 001e 83ED000A 		vstr.32	s0, [r3]
 307 0022 7047     		bx	lr
 308              	.L40:
 309              		.align	2
 310              	.L39:
 311 0024 00000000 		.word	reflectionY.10
 312 0028 00000000 		.word	a10
 313 002c 00000000 		.word	b11
 314              		.size	reflectionFilter, .-reflectionFilter
 315              		.section	.text.radiationFilter,"ax",%progbits
 316              		.align	1
 317              		.p2align 2,,3
 318              		.global	radiationFilter
 319              		.syntax unified
 320              		.thumb
 321              		.thumb_func
 322              		.type	radiationFilter, %function
 323              	radiationFilter:
 324              		@ args = 0, pretend = 0, frame = 0
 325              		@ frame_needed = 0, uses_anonymous_args = 0
 326              		@ link register save eliminated.
 327 0000 0E4A     		ldr	r2, .L42
 328 0002 0F49     		ldr	r1, .L42+4
 329 0004 0F4B     		ldr	r3, .L42+8
 330 0006 92ED007A 		vldr.32	s14, [r2]
 331 000a D3ED006A 		vldr.32	s13, [r3]
 332 000e D1ED007A 		vldr.32	s15, [r1]
 333 0012 0D4B     		ldr	r3, .L42+12
 334 0014 60EE266A 		vmul.f32	s13, s0, s13
 335 0018 0C49     		ldr	r1, .L42+16
 336 001a 67EE877A 		vmul.f32	s15, s15, s14
 337 001e 93ED006A 		vldr.32	s12, [r3]
 338 0022 91ED007A 		vldr.32	s14, [r1]
 339 0026 82ED000A 		vstr.32	s0, [r2]
 340 002a 37EEA60A 		vadd.f32	s0, s15, s13
 341 002e 67EE067A 		vmul.f32	s15, s14, s12
 342 0032 30EE670A 		vsub.f32	s0, s0, s15
ARM GAS  /tmp/ccYdlVIk.s 			page 8


 343 0036 83ED000A 		vstr.32	s0, [r3]
 344 003a 7047     		bx	lr
 345              	.L43:
 346              		.align	2
 347              	.L42:
 348 003c 00000000 		.word	radiationX.9
 349 0040 00000000 		.word	a21
 350 0044 00000000 		.word	a20
 351 0048 00000000 		.word	radiationY.8
 352 004c 00000000 		.word	b21
 353              		.size	radiationFilter, .-radiationFilter
 354              		.section	.text.initializeNasalFilterCoefficients,"ax",%progbits
 355              		.align	1
 356              		.p2align 2,,3
 357              		.global	initializeNasalFilterCoefficients
 358              		.syntax unified
 359              		.thumb
 360              		.thumb_func
 361              		.type	initializeNasalFilterCoefficients, %function
 362              	initializeNasalFilterCoefficients:
 363              		@ args = 0, pretend = 0, frame = 0
 364              		@ frame_needed = 0, uses_anonymous_args = 0
 365              		@ link register save eliminated.
 366 0000 F7EE007A 		vmov.f32	s15, #1.0e+0
 367 0004 0C48     		ldr	r0, .L46
 368 0006 F0EEC06A 		vabs.f32	s13, s0
 369 000a 0C4B     		ldr	r3, .L46+4
 370 000c B1EE407A 		vneg.f32	s14, s0
 371 0010 0B49     		ldr	r1, .L46+8
 372 0012 0C4A     		ldr	r2, .L46+12
 373 0014 77EEE67A 		vsub.f32	s15, s15, s13
 374 0018 10B4     		push	{r4}
 375 001a 0B4C     		ldr	r4, .L46+16
 376 001c 80ED007A 		vstr.32	s14, [r0]
 377 0020 84ED000A 		vstr.32	s0, [r4]
 378 0024 81ED007A 		vstr.32	s14, [r1]
 379 0028 5DF8044B 		ldr	r4, [sp], #4
 380 002c 82ED007A 		vstr.32	s14, [r2]
 381 0030 C3ED007A 		vstr.32	s15, [r3]
 382 0034 7047     		bx	lr
 383              	.L47:
 384 0036 00BF     		.align	2
 385              	.L46:
 386 0038 00000000 		.word	nb11
 387 003c 00000000 		.word	na10
 388 0040 00000000 		.word	nb21
 389 0044 00000000 		.word	na21
 390 0048 00000000 		.word	na20
 391              		.size	initializeNasalFilterCoefficients, .-initializeNasalFilterCoefficients
 392              		.section	.text.nasalReflectionFilter,"ax",%progbits
 393              		.align	1
 394              		.p2align 2,,3
 395              		.global	nasalReflectionFilter
 396              		.syntax unified
 397              		.thumb
 398              		.thumb_func
 399              		.type	nasalReflectionFilter, %function
ARM GAS  /tmp/ccYdlVIk.s 			page 9


 400              	nasalReflectionFilter:
 401              		@ args = 0, pretend = 0, frame = 0
 402              		@ frame_needed = 0, uses_anonymous_args = 0
 403              		@ link register save eliminated.
 404 0000 084B     		ldr	r3, .L49
 405 0002 0949     		ldr	r1, .L49+4
 406 0004 094A     		ldr	r2, .L49+8
 407 0006 93ED007A 		vldr.32	s14, [r3]
 408 000a D1ED006A 		vldr.32	s13, [r1]
 409 000e D2ED007A 		vldr.32	s15, [r2]
 410 0012 20EE260A 		vmul.f32	s0, s0, s13
 411 0016 67EE877A 		vmul.f32	s15, s15, s14
 412 001a 30EE670A 		vsub.f32	s0, s0, s15
 413 001e 83ED000A 		vstr.32	s0, [r3]
 414 0022 7047     		bx	lr
 415              	.L50:
 416              		.align	2
 417              	.L49:
 418 0024 00000000 		.word	nasalReflectionY.7
 419 0028 00000000 		.word	na10
 420 002c 00000000 		.word	nb11
 421              		.size	nasalReflectionFilter, .-nasalReflectionFilter
 422              		.section	.text.nasalRadiationFilter,"ax",%progbits
 423              		.align	1
 424              		.p2align 2,,3
 425              		.global	nasalRadiationFilter
 426              		.syntax unified
 427              		.thumb
 428              		.thumb_func
 429              		.type	nasalRadiationFilter, %function
 430              	nasalRadiationFilter:
 431              		@ args = 0, pretend = 0, frame = 0
 432              		@ frame_needed = 0, uses_anonymous_args = 0
 433              		@ link register save eliminated.
 434 0000 0E4A     		ldr	r2, .L52
 435 0002 0F49     		ldr	r1, .L52+4
 436 0004 0F4B     		ldr	r3, .L52+8
 437 0006 92ED007A 		vldr.32	s14, [r2]
 438 000a D3ED006A 		vldr.32	s13, [r3]
 439 000e D1ED007A 		vldr.32	s15, [r1]
 440 0012 0D4B     		ldr	r3, .L52+12
 441 0014 60EE266A 		vmul.f32	s13, s0, s13
 442 0018 0C49     		ldr	r1, .L52+16
 443 001a 67EE877A 		vmul.f32	s15, s15, s14
 444 001e 93ED006A 		vldr.32	s12, [r3]
 445 0022 91ED007A 		vldr.32	s14, [r1]
 446 0026 82ED000A 		vstr.32	s0, [r2]
 447 002a 37EEA60A 		vadd.f32	s0, s15, s13
 448 002e 67EE067A 		vmul.f32	s15, s14, s12
 449 0032 30EE670A 		vsub.f32	s0, s0, s15
 450 0036 83ED000A 		vstr.32	s0, [r3]
 451 003a 7047     		bx	lr
 452              	.L53:
 453              		.align	2
 454              	.L52:
 455 003c 00000000 		.word	nasalRadiationX.6
 456 0040 00000000 		.word	na21
ARM GAS  /tmp/ccYdlVIk.s 			page 10


 457 0044 00000000 		.word	na20
 458 0048 00000000 		.word	nasalRadiationY.5
 459 004c 00000000 		.word	nb21
 460              		.size	nasalRadiationFilter, .-nasalRadiationFilter
 461              		.section	.text.tube_newsay,"ax",%progbits
 462              		.align	1
 463              		.p2align 2,,3
 464              		.global	tube_newsay
 465              		.syntax unified
 466              		.thumb
 467              		.thumb_func
 468              		.type	tube_newsay, %function
 469              	tube_newsay:
 470              		@ args = 0, pretend = 0, frame = 8
 471              		@ frame_needed = 0, uses_anonymous_args = 0
 472 0000 344B     		ldr	r3, .L60
 473 0002 9FED357A 		vldr.32	s14, .L60+4
 474 0006 D3ED007A 		vldr.32	s15, [r3]
 475 000a 3449     		ldr	r1, .L60+8
 476 000c 67EE877A 		vmul.f32	s15, s15, s14
 477 0010 334B     		ldr	r3, .L60+12
 478 0012 3448     		ldr	r0, .L60+16
 479 0014 FCEEE77A 		vcvt.u32.f32	s15, s15
 480 0018 70B5     		push	{r4, r5, r6, lr}
 481 001a 82B0     		sub	sp, sp, #8
 482 001c 0A78     		ldrb	r2, [r1]	@ zero_extendqisi2
 483 001e 324C     		ldr	r4, .L60+20
 484 0020 1A70     		strb	r2, [r3]
 485 0022 CDED017A 		vstr.32	s15, [sp, #4]	@ int
 486 0026 9DF80430 		ldrb	r3, [sp, #4]	@ zero_extendqisi2
 487 002a 0460     		str	r4, [r0]	@ float
 488 002c 3F2B     		cmp	r3, #63
 489 002e 4ED8     		bhi	.L57
 490 0030 C3F13F03 		rsb	r3, r3, #63
 491 0034 DBB2     		uxtb	r3, r3
 492              	.L55:
 493 0036 2D48     		ldr	r0, .L60+24
 494 0038 2D4C     		ldr	r4, .L60+28
 495 003a 50F82250 		ldr	r5, [r0, r2, lsl #2]
 496 003e 0B70     		strb	r3, [r1]
 497 0040 AC46     		mov	ip, r5
 498 0042 05F14006 		add	r6, r5, #64
 499              	.L56:
 500 0046 DCF80000 		ldr	r0, [ip]	@ unaligned
 501 004a 0CF1100C 		add	ip, ip, #16
 502 004e 5CF80C1C 		ldr	r1, [ip, #-12]	@ unaligned
 503 0052 A646     		mov	lr, r4
 504 0054 5CF8082C 		ldr	r2, [ip, #-8]	@ unaligned
 505 0058 1034     		adds	r4, r4, #16
 506 005a 5CF8043C 		ldr	r3, [ip, #-4]	@ unaligned
 507 005e B445     		cmp	ip, r6
 508 0060 AEE80F00 		stmia	lr!, {r0, r1, r2, r3}
 509 0064 EFD1     		bne	.L56
 510 0066 234B     		ldr	r3, .L60+32
 511 0068 40F2FF34 		movw	r4, #1023
 512 006c DFED225A 		vldr.32	s11, .L60+36
 513 0070 B2EE006A 		vmov.f32	s12, #8.0e+0
ARM GAS  /tmp/ccYdlVIk.s 			page 11


 514 0074 D3ED007A 		vldr.32	s15, [r3]
 515 0078 F7EE006A 		vmov.f32	s13, #1.0e+0
 516 007c 1F4A     		ldr	r2, .L60+40
 517 007e 0026     		movs	r6, #0
 518 0080 67EEA57A 		vmul.f32	s15, s15, s11
 519 0084 95ED107A 		vldr.32	s14, [r5, #64]
 520 0088 1D48     		ldr	r0, .L60+44
 521 008a 1E49     		ldr	r1, .L60+48
 522 008c FDEEE77A 		vcvt.s32.f32	s15, s15
 523 0090 1D4D     		ldr	r5, .L60+52
 524 0092 2E80     		strh	r6, [r5]	@ movhi
 525 0094 17EE903A 		vmov	r3, s15	@ int
 526 0098 A342     		cmp	r3, r4
 527 009a A8BF     		it	ge
 528 009c 2346     		movge	r3, r4
 529 009e 02EB8303 		add	r3, r2, r3, lsl #2
 530 00a2 D3ED007A 		vldr.32	s15, [r3]
 531 00a6 67EE867A 		vmul.f32	s15, s15, s12
 532 00aa 67EE877A 		vmul.f32	s15, s15, s14
 533 00ae FCEEE77A 		vcvt.u32.f32	s15, s15
 534 00b2 17EE903A 		vmov	r3, s15	@ int
 535 00b6 9BB2     		uxth	r3, r3
 536 00b8 07EE903A 		vmov	s15, r3	@ int
 537 00bc 0380     		strh	r3, [r0]	@ movhi
 538 00be B8EE677A 		vcvt.f32.u32	s14, s15
 539 00c2 C6EE877A 		vdiv.f32	s15, s13, s14
 540 00c6 C1ED007A 		vstr.32	s15, [r1]
 541 00ca 02B0     		add	sp, sp, #8
 542              		@ sp needed
 543 00cc 70BD     		pop	{r4, r5, r6, pc}
 544              	.L57:
 545 00ce 0023     		movs	r3, #0
 546 00d0 B1E7     		b	.L55
 547              	.L61:
 548 00d2 00BF     		.align	2
 549              	.L60:
 550 00d4 00000000 		.word	_selz
 551 00d8 00008842 		.word	1116209152
 552 00dc 00000000 		.word	sel
 553 00e0 00000000 		.word	lastsel
 554 00e4 00000000 		.word	dampingFactor
 555 00e8 A4707D3F 		.word	1065185444
 556 00ec 00000000 		.word	vocablist_posture
 557 00f0 00000000 		.word	input_frame
 558 00f4 00000000 		.word	_sely
 559 00f8 00608044 		.word	1149263872
 560 00fc 00000000 		.word	logspeed
 561 0100 00000000 		.word	lengthy
 562 0104 00000000 		.word	interpol
 563 0108 00000000 		.word	sample_count
 564              		.size	tube_newsay, .-tube_newsay
 565              		.section	.text.tube_newsay_xy,"ax",%progbits
 566              		.align	1
 567              		.p2align 2,,3
 568              		.global	tube_newsay_xy
 569              		.syntax unified
 570              		.thumb
ARM GAS  /tmp/ccYdlVIk.s 			page 12


 571              		.thumb_func
 572              		.type	tube_newsay_xy, %function
 573              	tube_newsay_xy:
 574              		@ args = 0, pretend = 0, frame = 8
 575              		@ frame_needed = 0, uses_anonymous_args = 0
 576              		@ link register save eliminated.
 577 0000 824A     		ldr	r2, .L74
 578 0002 9FED837A 		vldr.32	s14, .L74+4
 579 0006 D2ED007A 		vldr.32	s15, [r2]
 580 000a 8249     		ldr	r1, .L74+8
 581 000c 67EE877A 		vmul.f32	s15, s15, s14
 582 0010 814B     		ldr	r3, .L74+12
 583 0012 70B4     		push	{r4, r5, r6}
 584 0014 FCEEE77A 		vcvt.u32.f32	s15, s15
 585 0018 83B0     		sub	sp, sp, #12
 586 001a 0D78     		ldrb	r5, [r1]	@ zero_extendqisi2
 587 001c CDED017A 		vstr.32	s15, [sp, #4]	@ int
 588 0020 1D70     		strb	r5, [r3]
 589 0022 9DF80430 		ldrb	r3, [sp, #4]	@ zero_extendqisi2
 590 0026 3F2B     		cmp	r3, #63
 591 0028 00F2ED80 		bhi	.L69
 592 002c C3F13F03 		rsb	r3, r3, #63
 593 0030 DBB2     		uxtb	r3, r3
 594              	.L63:
 595 0032 7A4C     		ldr	r4, .L74+16
 596 0034 B3EE027A 		vmov.f32	s14, #1.8e+1
 597 0038 0B70     		strb	r3, [r1]
 598 003a D4ED017A 		vldr.32	s15, [r4, #4]
 599 003e 784A     		ldr	r2, .L74+20
 600 0040 67EE877A 		vmul.f32	s15, s15, s14
 601 0044 1078     		ldrb	r0, [r2]	@ zero_extendqisi2
 602 0046 FCEEE77A 		vcvt.u32.f32	s15, s15
 603 004a CDED017A 		vstr.32	s15, [sp, #4]	@ int
 604 004e 9DF80430 		ldrb	r3, [sp, #4]	@ zero_extendqisi2
 605 0052 0F2B     		cmp	r3, #15
 606 0054 00F2D480 		bhi	.L70
 607 0058 1946     		mov	r1, r3
 608              	.L64:
 609 005a 9842     		cmp	r0, r3
 610 005c 1170     		strb	r1, [r2]
 611 005e 21D0     		beq	.L68
 612 0060 7048     		ldr	r0, .L74+24
 613 0062 03EB4302 		add	r2, r3, r3, lsl #1
 614 0066 704E     		ldr	r6, .L74+28
 615 0068 00EBC201 		add	r1, r0, r2, lsl #3
 616 006c 10F83220 		ldrb	r2, [r0, r2, lsl #3]	@ zero_extendqisi2
 617 0070 6E4B     		ldr	r3, .L74+32
 618 0072 003A     		subs	r2, r2, #0
 619 0074 4868     		ldr	r0, [r1, #4]
 620 0076 18BF     		it	ne
 621 0078 0122     		movne	r2, #1
 622 007a 3270     		strb	r2, [r6]
 623 007c 6C4A     		ldr	r2, .L74+36
 624 007e 1060     		str	r0, [r2]
 625 0080 6C4A     		ldr	r2, .L74+40
 626 0082 8868     		ldr	r0, [r1, #8]
 627 0084 1060     		str	r0, [r2]
ARM GAS  /tmp/ccYdlVIk.s 			page 13


 628 0086 6C4A     		ldr	r2, .L74+44
 629 0088 C868     		ldr	r0, [r1, #12]	@ float
 630 008a 1060     		str	r0, [r2]	@ float
 631 008c 6B4A     		ldr	r2, .L74+48
 632 008e 0869     		ldr	r0, [r1, #16]	@ float
 633 0090 1060     		str	r0, [r2]	@ float
 634 0092 03F50060 		add	r0, r3, #2048
 635 0096 4A69     		ldr	r2, [r1, #20]
 636              	.L67:
 637 0098 52F8041B 		ldr	r1, [r2], #4	@ float
 638 009c 43F8041B 		str	r1, [r3], #4	@ float
 639 00a0 9842     		cmp	r0, r3
 640 00a2 F9D1     		bne	.L67
 641              	.L68:
 642 00a4 B3EE027A 		vmov.f32	s14, #1.8e+1
 643 00a8 94ED026A 		vldr.32	s12, [r4, #8]
 644 00ac F2EE007A 		vmov.f32	s15, #8.0e+0
 645 00b0 9FED634A 		vldr.32	s8, .L74+52
 646 00b4 94ED035A 		vldr.32	s10, [r4, #12]
 647 00b8 F6EE006A 		vmov.f32	s13, #5.0e-1
 648 00bc 26EE076A 		vmul.f32	s12, s12, s14
 649 00c0 604B     		ldr	r3, .L74+56
 650 00c2 B7EE007A 		vmov.f32	s14, #1.0e+0
 651 00c6 DFED604A 		vldr.32	s9, .L74+60
 652 00ca DFED605A 		vldr.32	s11, .L74+64
 653 00ce 36EE276A 		vadd.f32	s12, s12, s15
 654 00d2 5F49     		ldr	r1, .L74+68
 655 00d4 37EE455A 		vsub.f32	s10, s14, s10
 656 00d8 5E4A     		ldr	r2, .L74+72
 657 00da DFED5F3A 		vldr.32	s7, .L74+76
 658 00de C4EE067A 		vdiv.f32	s15, s8, s12
 659 00e2 83ED005A 		vstr.32	s10, [r3]
 660 00e6 F7EE677A 		vrintx.f32	s15, s15
 661 00ea FCEEE77A 		vcvt.u32.f32	s15, s15
 662 00ee 17EE903A 		vmov	r3, s15	@ int
 663 00f2 9BB2     		uxth	r3, r3
 664 00f4 07EE903A 		vmov	s15, r3	@ int
 665 00f8 0B80     		strh	r3, [r1]	@ movhi
 666 00fa 584B     		ldr	r3, .L74+80
 667 00fc B8EEE76A 		vcvt.f32.s32	s12, s15
 668 0100 5749     		ldr	r1, .L74+84
 669 0102 B8EE674A 		vcvt.f32.u32	s8, s15
 670 0106 53F82550 		ldr	r5, [r3, r5, lsl #2]
 671 010a 564B     		ldr	r3, .L74+88
 672 010c 66EE267A 		vmul.f32	s15, s12, s13
 673 0110 84EE865A 		vdiv.f32	s10, s9, s12
 674 0114 C2ED007A 		vstr.32	s15, [r2]
 675 0118 534A     		ldr	r2, .L74+92
 676 011a 37EEE56A 		vsub.f32	s12, s15, s11
 677 011e C3EE844A 		vdiv.f32	s9, s7, s8
 678 0122 C6EE276A 		vdiv.f32	s13, s12, s15
 679 0126 77EE457A 		vsub.f32	s15, s14, s10
 680 012a 83ED005A 		vstr.32	s10, [r3]
 681 012e 4F4B     		ldr	r3, .L74+96
 682 0130 C3ED007A 		vstr.32	s15, [r3]
 683 0134 4E4B     		ldr	r3, .L74+100
 684 0136 B0EEE66A 		vabs.f32	s12, s13
ARM GAS  /tmp/ccYdlVIk.s 			page 14


 685 013a F1EE667A 		vneg.f32	s15, s13
 686 013e 37EE467A 		vsub.f32	s14, s14, s12
 687 0142 C1ED007A 		vstr.32	s15, [r1]
 688 0146 4B49     		ldr	r1, .L74+104
 689 0148 82ED007A 		vstr.32	s14, [r2]
 690 014c 4A4A     		ldr	r2, .L74+108
 691 014e C1ED006A 		vstr.32	s13, [r1]
 692 0152 C2ED007A 		vstr.32	s15, [r2]
 693 0156 494A     		ldr	r2, .L74+112
 694 0158 4949     		ldr	r1, .L74+116
 695 015a C2ED007A 		vstr.32	s15, [r2]
 696 015e 494A     		ldr	r2, .L74+120
 697 0160 C1ED007A 		vstr.32	s15, [r1]
 698 0164 C2ED006A 		vstr.32	s13, [r2]
 699 0168 474A     		ldr	r2, .L74+124
 700 016a 4849     		ldr	r1, .L74+128
 701 016c C2ED007A 		vstr.32	s15, [r2]
 702 0170 474A     		ldr	r2, .L74+132
 703 0172 81ED007A 		vstr.32	s14, [r1]
 704 0176 1A60     		str	r2, [r3]	@ float
 705 0178 2A46     		mov	r2, r5
 706 017a 4649     		ldr	r1, .L74+136
 707 017c 464B     		ldr	r3, .L74+140
 708 017e C1ED007A 		vstr.32	s15, [r1]
 709 0182 03F14000 		add	r0, r3, #64
 710 0186 4549     		ldr	r1, .L74+144
 711 0188 C1ED004A 		vstr.32	s9, [r1]
 712              	.L66:
 713 018c 52F8041B 		ldr	r1, [r2], #4	@ float
 714 0190 43F8041B 		str	r1, [r3], #4	@ float
 715 0194 9842     		cmp	r0, r3
 716 0196 F9D1     		bne	.L66
 717 0198 D4ED007A 		vldr.32	s15, [r4]
 718 019c 40F2FF34 		movw	r4, #1023
 719 01a0 9FED3F7A 		vldr.32	s14, .L74+148
 720 01a4 B2EE006A 		vmov.f32	s12, #8.0e+0
 721 01a8 3E4A     		ldr	r2, .L74+152
 722 01aa F7EE006A 		vmov.f32	s13, #1.0e+0
 723 01ae 67EE877A 		vmul.f32	s15, s15, s14
 724 01b2 95ED107A 		vldr.32	s14, [r5, #64]
 725 01b6 3C48     		ldr	r0, .L74+156
 726 01b8 3C49     		ldr	r1, .L74+160
 727 01ba FDEEE77A 		vcvt.s32.f32	s15, s15
 728 01be 17EE903A 		vmov	r3, s15	@ int
 729 01c2 A342     		cmp	r3, r4
 730 01c4 A8BF     		it	ge
 731 01c6 2346     		movge	r3, r4
 732 01c8 394C     		ldr	r4, .L74+164
 733 01ca 02EB8303 		add	r3, r2, r3, lsl #2
 734 01ce D3ED007A 		vldr.32	s15, [r3]
 735 01d2 0023     		movs	r3, #0
 736 01d4 67EE867A 		vmul.f32	s15, s15, s12
 737 01d8 2380     		strh	r3, [r4]	@ movhi
 738 01da 67EE877A 		vmul.f32	s15, s15, s14
 739 01de FCEEE77A 		vcvt.u32.f32	s15, s15
 740 01e2 17EE903A 		vmov	r3, s15	@ int
 741 01e6 9BB2     		uxth	r3, r3
ARM GAS  /tmp/ccYdlVIk.s 			page 15


 742 01e8 07EE903A 		vmov	s15, r3	@ int
 743 01ec 0380     		strh	r3, [r0]	@ movhi
 744 01ee B8EE677A 		vcvt.f32.u32	s14, s15
 745 01f2 C6EE877A 		vdiv.f32	s15, s13, s14
 746 01f6 C1ED007A 		vstr.32	s15, [r1]
 747 01fa 03B0     		add	sp, sp, #12
 748              		@ sp needed
 749 01fc 70BC     		pop	{r4, r5, r6}
 750 01fe 7047     		bx	lr
 751              	.L70:
 752 0200 0F21     		movs	r1, #15
 753 0202 0B46     		mov	r3, r1
 754 0204 29E7     		b	.L64
 755              	.L69:
 756 0206 0023     		movs	r3, #0
 757 0208 13E7     		b	.L63
 758              	.L75:
 759 020a 00BF     		.align	2
 760              	.L74:
 761 020c 00000000 		.word	_selz
 762 0210 00008842 		.word	1116209152
 763 0214 00000000 		.word	sel
 764 0218 00000000 		.word	lastsel
 765 021c 00000000 		.word	exy
 766 0220 00000000 		.word	waveindex
 767 0224 00000000 		.word	tubewaves
 768 0228 00000000 		.word	pulsed
 769 022c 00000000 		.word	wavetable
 770 0230 00000000 		.word	tableDiv1
 771 0234 00000000 		.word	tableDiv2
 772 0238 00000000 		.word	tnLength
 773 023c 00000000 		.word	tnDelta
 774 0240 00ADA748 		.word	1218948352
 775 0244 00000000 		.word	dampingFactor
 776 0248 00803B45 		.word	1161527296
 777 024c 00409C45 		.word	1167867904
 778 0250 00000000 		.word	sampleRate
 779 0254 00000000 		.word	nyquist
 780 0258 00000044 		.word	1140850688
 781 025c 00000000 		.word	vocablist_posture
 782 0260 00000000 		.word	b11
 783 0264 00000000 		.word	ta0
 784 0268 00000000 		.word	a10
 785 026c 00000000 		.word	tb1
 786 0270 00000000 		.word	throatGain
 787 0274 00000000 		.word	a20
 788 0278 00000000 		.word	b21
 789 027c 00000000 		.word	nb11
 790 0280 00000000 		.word	a21
 791 0284 00000000 		.word	na20
 792 0288 00000000 		.word	na21
 793 028c 00000000 		.word	na10
 794 0290 F1C2023B 		.word	990036721
 795 0294 00000000 		.word	nb21
 796 0298 00000000 		.word	input_frame
 797 029c 00000000 		.word	basicIncrement
 798 02a0 00608044 		.word	1149263872
ARM GAS  /tmp/ccYdlVIk.s 			page 16


 799 02a4 00000000 		.word	logspeed
 800 02a8 00000000 		.word	lengthy
 801 02ac 00000000 		.word	interpol
 802 02b0 00000000 		.word	sample_count
 803              		.size	tube_newsay_xy, .-tube_newsay_xy
 804              		.section	.text.tube_newsay_bend,"ax",%progbits
 805              		.align	1
 806              		.p2align 2,,3
 807              		.global	tube_newsay_bend
 808              		.syntax unified
 809              		.thumb
 810              		.thumb_func
 811              		.type	tube_newsay_bend, %function
 812              	tube_newsay_bend:
 813              		@ args = 0, pretend = 0, frame = 8
 814              		@ frame_needed = 0, uses_anonymous_args = 0
 815              		@ link register save eliminated.
 816 0000 6A4B     		ldr	r3, .L87
 817 0002 9FED6B7A 		vldr.32	s14, .L87+4
 818 0006 D3ED007A 		vldr.32	s15, [r3]
 819 000a 6A49     		ldr	r1, .L87+8
 820 000c 67EE877A 		vmul.f32	s15, s15, s14
 821 0010 694B     		ldr	r3, .L87+12
 822 0012 6A48     		ldr	r0, .L87+16
 823 0014 FCEEE77A 		vcvt.u32.f32	s15, s15
 824 0018 30B4     		push	{r4, r5}
 825 001a 82B0     		sub	sp, sp, #8
 826 001c 0A78     		ldrb	r2, [r1]	@ zero_extendqisi2
 827 001e 684C     		ldr	r4, .L87+20
 828 0020 1A70     		strb	r2, [r3]
 829 0022 CDED017A 		vstr.32	s15, [sp, #4]	@ int
 830 0026 9DF80430 		ldrb	r3, [sp, #4]	@ zero_extendqisi2
 831 002a 0460     		str	r4, [r0]	@ float
 832 002c 3F2B     		cmp	r3, #63
 833 002e 00F2BB80 		bhi	.L82
 834 0032 C3F13F03 		rsb	r3, r3, #63
 835 0036 DBB2     		uxtb	r3, r3
 836              	.L77:
 837 0038 624C     		ldr	r4, .L87+24
 838 003a B3EE027A 		vmov.f32	s14, #1.8e+1
 839 003e 0B70     		strb	r3, [r1]
 840 0040 D4ED137A 		vldr.32	s15, [r4, #76]
 841 0044 604A     		ldr	r2, .L87+28
 842 0046 67EE877A 		vmul.f32	s15, s15, s14
 843 004a 1078     		ldrb	r0, [r2]	@ zero_extendqisi2
 844 004c FCEEE77A 		vcvt.u32.f32	s15, s15
 845 0050 CDED017A 		vstr.32	s15, [sp, #4]	@ int
 846 0054 9DF80430 		ldrb	r3, [sp, #4]	@ zero_extendqisi2
 847 0058 0F2B     		cmp	r3, #15
 848 005a 00F2A280 		bhi	.L83
 849 005e 1946     		mov	r1, r3
 850              	.L78:
 851 0060 9842     		cmp	r0, r3
 852 0062 1170     		strb	r1, [r2]
 853 0064 21D0     		beq	.L81
 854 0066 03EB4303 		add	r3, r3, r3, lsl #1
 855 006a 5849     		ldr	r1, .L87+32
ARM GAS  /tmp/ccYdlVIk.s 			page 17


 856 006c 584D     		ldr	r5, .L87+36
 857 006e 01EBC302 		add	r2, r1, r3, lsl #3
 858 0072 11F83310 		ldrb	r1, [r1, r3, lsl #3]	@ zero_extendqisi2
 859 0076 5748     		ldr	r0, .L87+40
 860 0078 0039     		subs	r1, r1, #0
 861 007a 574B     		ldr	r3, .L87+44
 862 007c 18BF     		it	ne
 863 007e 0121     		movne	r1, #1
 864 0080 2970     		strb	r1, [r5]
 865 0082 5168     		ldr	r1, [r2, #4]
 866 0084 0160     		str	r1, [r0]
 867 0086 9068     		ldr	r0, [r2, #8]
 868 0088 5449     		ldr	r1, .L87+48
 869 008a 0860     		str	r0, [r1]
 870 008c D068     		ldr	r0, [r2, #12]	@ float
 871 008e 5449     		ldr	r1, .L87+52
 872 0090 0860     		str	r0, [r1]	@ float
 873 0092 1069     		ldr	r0, [r2, #16]	@ float
 874 0094 5349     		ldr	r1, .L87+56
 875 0096 5269     		ldr	r2, [r2, #20]
 876 0098 0860     		str	r0, [r1]	@ float
 877 009a 03F50060 		add	r0, r3, #2048
 878              	.L80:
 879 009e 52F8041B 		ldr	r1, [r2], #4	@ float
 880 00a2 43F8041B 		str	r1, [r3], #4	@ float
 881 00a6 9842     		cmp	r0, r3
 882 00a8 F9D1     		bne	.L80
 883              	.L81:
 884 00aa F3EE027A 		vmov.f32	s15, #1.8e+1
 885 00ae D4ED125A 		vldr.32	s11, [r4, #72]
 886 00b2 F2EE006A 		vmov.f32	s13, #8.0e+0
 887 00b6 94ED007A 		vldr.32	s14, [r4]
 888 00ba 9FED4B3A 		vldr.32	s6, .L87+60
 889 00be B6EE006A 		vmov.f32	s12, #5.0e-1
 890 00c2 65EEA75A 		vmul.f32	s11, s11, s15
 891 00c6 DFED497A 		vldr.32	s15, .L87+64
 892 00ca 9FED495A 		vldr.32	s10, .L87+68
 893 00ce 37EE277A 		vadd.f32	s14, s14, s15
 894 00d2 9FED484A 		vldr.32	s8, .L87+72
 895 00d6 75EEA65A 		vadd.f32	s11, s11, s13
 896 00da DFED473A 		vldr.32	s7, .L87+76
 897 00de DFED474A 		vldr.32	s9, .L87+80
 898 00e2 F7EE006A 		vmov.f32	s13, #1.0e+0
 899 00e6 4648     		ldr	r0, .L87+84
 900 00e8 C3EE257A 		vdiv.f32	s15, s6, s11
 901 00ec 454C     		ldr	r4, .L87+88
 902 00ee 464A     		ldr	r2, .L87+92
 903 00f0 4649     		ldr	r1, .L87+96
 904 00f2 474D     		ldr	r5, .L87+100
 905 00f4 27EE247A 		vmul.f32	s14, s14, s9
 906 00f8 BCEEC77A 		vcvt.u32.f32	s14, s14
 907 00fc F7EE677A 		vrintx.f32	s15, s15
 908 0100 FCEEE77A 		vcvt.u32.f32	s15, s15
 909 0104 17EE903A 		vmov	r3, s15	@ int
 910 0108 9BB2     		uxth	r3, r3
 911 010a 07EE903A 		vmov	s15, r3	@ int
 912 010e 2380     		strh	r3, [r4]	@ movhi
ARM GAS  /tmp/ccYdlVIk.s 			page 18


 913 0110 404B     		ldr	r3, .L87+104
 914 0112 F8EEE75A 		vcvt.f32.s32	s11, s15
 915 0116 404C     		ldr	r4, .L87+108
 916 0118 F8EE677A 		vcvt.f32.u32	s15, s15
 917 011c 25EE866A 		vmul.f32	s12, s11, s12
 918 0120 C4EE254A 		vdiv.f32	s9, s8, s11
 919 0124 80ED006A 		vstr.32	s12, [r0]
 920 0128 17EE100A 		vmov	r0, s14	@ int
 921 012c 1880     		strh	r0, [r3]	@ movhi
 922 012e 83EEA74A 		vdiv.f32	s8, s7, s15
 923 0132 3A48     		ldr	r0, .L87+112
 924 0134 3A4B     		ldr	r3, .L87+116
 925 0136 76EE457A 		vsub.f32	s15, s12, s10
 926 013a C7EE865A 		vdiv.f32	s11, s15, s12
 927 013e 36EEE46A 		vsub.f32	s12, s13, s9
 928 0142 B0EEE57A 		vabs.f32	s14, s11
 929 0146 C2ED005A 		vstr.32	s11, [r2]
 930 014a F1EE657A 		vneg.f32	s15, s11
 931 014e 354A     		ldr	r2, .L87+120
 932 0150 36EEC77A 		vsub.f32	s14, s13, s14
 933 0154 C0ED007A 		vstr.32	s15, [r0]
 934 0158 C4ED007A 		vstr.32	s15, [r4]
 935 015c 81ED007A 		vstr.32	s14, [r1]
 936 0160 83ED007A 		vstr.32	s14, [r3]
 937 0164 C2ED007A 		vstr.32	s15, [r2]
 938 0168 2F4C     		ldr	r4, .L87+124
 939 016a 3048     		ldr	r0, .L87+128
 940 016c 3049     		ldr	r1, .L87+132
 941 016e 314A     		ldr	r2, .L87+136
 942 0170 314B     		ldr	r3, .L87+140
 943 0172 C0ED007A 		vstr.32	s15, [r0]
 944 0176 C1ED007A 		vstr.32	s15, [r1]
 945 017a 83ED006A 		vstr.32	s12, [r3]
 946 017e 2F48     		ldr	r0, .L87+144
 947 0180 2F49     		ldr	r1, .L87+148
 948 0182 304B     		ldr	r3, .L87+152
 949 0184 C4ED005A 		vstr.32	s11, [r4]
 950 0188 C2ED004A 		vstr.32	s9, [r2]
 951 018c 0022     		movs	r2, #0
 952 018e 2E4C     		ldr	r4, .L87+156
 953 0190 C5ED007A 		vstr.32	s15, [r5]
 954 0194 0460     		str	r4, [r0]	@ float
 955 0196 81ED004A 		vstr.32	s8, [r1]
 956 019a 1A80     		strh	r2, [r3]	@ movhi
 957 019c 02B0     		add	sp, sp, #8
 958              		@ sp needed
 959 019e 30BC     		pop	{r4, r5}
 960 01a0 7047     		bx	lr
 961              	.L83:
 962 01a2 0F21     		movs	r1, #15
 963 01a4 0B46     		mov	r3, r1
 964 01a6 5BE7     		b	.L78
 965              	.L82:
 966 01a8 0023     		movs	r3, #0
 967 01aa 45E7     		b	.L77
 968              	.L88:
 969              		.align	2
ARM GAS  /tmp/ccYdlVIk.s 			page 19


 970              	.L87:
 971 01ac 00000000 		.word	_selz
 972 01b0 00008842 		.word	1116209152
 973 01b4 00000000 		.word	sel
 974 01b8 00000000 		.word	lastsel
 975 01bc 00000000 		.word	dampingFactor
 976 01c0 3D0A573F 		.word	1062668861
 977 01c4 00000000 		.word	exy
 978 01c8 00000000 		.word	waveindex
 979 01cc 00000000 		.word	tubewaves
 980 01d0 00000000 		.word	pulsed
 981 01d4 00000000 		.word	tableDiv1
 982 01d8 00000000 		.word	wavetable
 983 01dc 00000000 		.word	tableDiv2
 984 01e0 00000000 		.word	tnLength
 985 01e4 00000000 		.word	tnDelta
 986 01e8 00ADA748 		.word	1218948352
 987 01ec 6F12833A 		.word	981668463
 988 01f0 00409C45 		.word	1167867904
 989 01f4 00803B45 		.word	1161527296
 990 01f8 00000044 		.word	1140850688
 991 01fc 00008045 		.word	1166016512
 992 0200 00000000 		.word	nyquist
 993 0204 00000000 		.word	sampleRate
 994 0208 00000000 		.word	a20
 995 020c 00000000 		.word	a10
 996 0210 00000000 		.word	b11
 997 0214 00000000 		.word	lengthy
 998 0218 00000000 		.word	b21
 999 021c 00000000 		.word	a21
 1000 0220 00000000 		.word	na10
 1001 0224 00000000 		.word	nb11
 1002 0228 00000000 		.word	na20
 1003 022c 00000000 		.word	nb21
 1004 0230 00000000 		.word	na21
 1005 0234 00000000 		.word	ta0
 1006 0238 00000000 		.word	tb1
 1007 023c 00000000 		.word	throatGain
 1008 0240 00000000 		.word	basicIncrement
 1009 0244 00000000 		.word	sample_count
 1010 0248 F1C2023B 		.word	990036721
 1011              		.size	tube_newsay_bend, .-tube_newsay_bend
 1012              		.section	.text.tube_newsay_raw,"ax",%progbits
 1013              		.align	1
 1014              		.p2align 2,,3
 1015              		.global	tube_newsay_raw
 1016              		.syntax unified
 1017              		.thumb
 1018              		.thumb_func
 1019              		.type	tube_newsay_raw, %function
 1020              	tube_newsay_raw:
 1021              		@ args = 0, pretend = 0, frame = 8
 1022              		@ frame_needed = 0, uses_anonymous_args = 0
 1023              		@ link register save eliminated.
 1024 0000 30B4     		push	{r4, r5}
 1025 0002 5D4C     		ldr	r4, .L98
 1026 0004 B3EE027A 		vmov.f32	s14, #1.8e+1
ARM GAS  /tmp/ccYdlVIk.s 			page 20


 1027 0008 82B0     		sub	sp, sp, #8
 1028 000a 5C4B     		ldr	r3, .L98+4
 1029 000c D4ED137A 		vldr.32	s15, [r4, #76]
 1030 0010 5B49     		ldr	r1, .L98+8
 1031 0012 67EE877A 		vmul.f32	s15, s15, s14
 1032 0016 5B4A     		ldr	r2, .L98+12
 1033 0018 1960     		str	r1, [r3]	@ float
 1034 001a 1078     		ldrb	r0, [r2]	@ zero_extendqisi2
 1035 001c FCEEE77A 		vcvt.u32.f32	s15, s15
 1036 0020 CDED017A 		vstr.32	s15, [sp, #4]	@ int
 1037 0024 9DF80430 		ldrb	r3, [sp, #4]	@ zero_extendqisi2
 1038 0028 0F2B     		cmp	r3, #15
 1039 002a 00F2A280 		bhi	.L94
 1040 002e 1946     		mov	r1, r3
 1041              	.L90:
 1042 0030 9842     		cmp	r0, r3
 1043 0032 1170     		strb	r1, [r2]
 1044 0034 21D0     		beq	.L93
 1045 0036 03EB4303 		add	r3, r3, r3, lsl #1
 1046 003a 5349     		ldr	r1, .L98+16
 1047 003c 534D     		ldr	r5, .L98+20
 1048 003e 01EBC302 		add	r2, r1, r3, lsl #3
 1049 0042 11F83310 		ldrb	r1, [r1, r3, lsl #3]	@ zero_extendqisi2
 1050 0046 5248     		ldr	r0, .L98+24
 1051 0048 0039     		subs	r1, r1, #0
 1052 004a 524B     		ldr	r3, .L98+28
 1053 004c 18BF     		it	ne
 1054 004e 0121     		movne	r1, #1
 1055 0050 2970     		strb	r1, [r5]
 1056 0052 5168     		ldr	r1, [r2, #4]
 1057 0054 0160     		str	r1, [r0]
 1058 0056 9068     		ldr	r0, [r2, #8]
 1059 0058 4F49     		ldr	r1, .L98+32
 1060 005a 0860     		str	r0, [r1]
 1061 005c D068     		ldr	r0, [r2, #12]	@ float
 1062 005e 4F49     		ldr	r1, .L98+36
 1063 0060 0860     		str	r0, [r1]	@ float
 1064 0062 1069     		ldr	r0, [r2, #16]	@ float
 1065 0064 4E49     		ldr	r1, .L98+40
 1066 0066 5269     		ldr	r2, [r2, #20]
 1067 0068 0860     		str	r0, [r1]	@ float
 1068 006a 03F50060 		add	r0, r3, #2048
 1069              	.L92:
 1070 006e 52F8041B 		ldr	r1, [r2], #4	@ float
 1071 0072 43F8041B 		str	r1, [r3], #4	@ float
 1072 0076 8342     		cmp	r3, r0
 1073 0078 F9D1     		bne	.L92
 1074              	.L93:
 1075 007a F3EE027A 		vmov.f32	s15, #1.8e+1
 1076 007e D4ED125A 		vldr.32	s11, [r4, #72]
 1077 0082 F2EE006A 		vmov.f32	s13, #8.0e+0
 1078 0086 94ED007A 		vldr.32	s14, [r4]
 1079 008a 9FED463A 		vldr.32	s6, .L98+44
 1080 008e B6EE006A 		vmov.f32	s12, #5.0e-1
 1081 0092 65EEA75A 		vmul.f32	s11, s11, s15
 1082 0096 DFED447A 		vldr.32	s15, .L98+48
 1083 009a 9FED445A 		vldr.32	s10, .L98+52
ARM GAS  /tmp/ccYdlVIk.s 			page 21


 1084 009e 37EE277A 		vadd.f32	s14, s14, s15
 1085 00a2 9FED434A 		vldr.32	s8, .L98+56
 1086 00a6 75EEA65A 		vadd.f32	s11, s11, s13
 1087 00aa DFED423A 		vldr.32	s7, .L98+60
 1088 00ae DFED424A 		vldr.32	s9, .L98+64
 1089 00b2 F7EE006A 		vmov.f32	s13, #1.0e+0
 1090 00b6 4148     		ldr	r0, .L98+68
 1091 00b8 C3EE257A 		vdiv.f32	s15, s6, s11
 1092 00bc 404C     		ldr	r4, .L98+72
 1093 00be 414A     		ldr	r2, .L98+76
 1094 00c0 4149     		ldr	r1, .L98+80
 1095 00c2 424D     		ldr	r5, .L98+84
 1096 00c4 27EE247A 		vmul.f32	s14, s14, s9
 1097 00c8 BCEEC77A 		vcvt.u32.f32	s14, s14
 1098 00cc F7EE677A 		vrintx.f32	s15, s15
 1099 00d0 FCEEE77A 		vcvt.u32.f32	s15, s15
 1100 00d4 17EE903A 		vmov	r3, s15	@ int
 1101 00d8 9BB2     		uxth	r3, r3
 1102 00da 07EE903A 		vmov	s15, r3	@ int
 1103 00de 2380     		strh	r3, [r4]	@ movhi
 1104 00e0 3B4B     		ldr	r3, .L98+88
 1105 00e2 F8EEE75A 		vcvt.f32.s32	s11, s15
 1106 00e6 3B4C     		ldr	r4, .L98+92
 1107 00e8 F8EE677A 		vcvt.f32.u32	s15, s15
 1108 00ec 25EE866A 		vmul.f32	s12, s11, s12
 1109 00f0 C4EE254A 		vdiv.f32	s9, s8, s11
 1110 00f4 80ED006A 		vstr.32	s12, [r0]
 1111 00f8 17EE100A 		vmov	r0, s14	@ int
 1112 00fc 1880     		strh	r0, [r3]	@ movhi
 1113 00fe 83EEA74A 		vdiv.f32	s8, s7, s15
 1114 0102 3548     		ldr	r0, .L98+96
 1115 0104 354B     		ldr	r3, .L98+100
 1116 0106 76EE457A 		vsub.f32	s15, s12, s10
 1117 010a C7EE865A 		vdiv.f32	s11, s15, s12
 1118 010e 36EEE46A 		vsub.f32	s12, s13, s9
 1119 0112 B0EEE57A 		vabs.f32	s14, s11
 1120 0116 C2ED005A 		vstr.32	s11, [r2]
 1121 011a F1EE657A 		vneg.f32	s15, s11
 1122 011e 304A     		ldr	r2, .L98+104
 1123 0120 36EEC77A 		vsub.f32	s14, s13, s14
 1124 0124 C0ED007A 		vstr.32	s15, [r0]
 1125 0128 C4ED007A 		vstr.32	s15, [r4]
 1126 012c 81ED007A 		vstr.32	s14, [r1]
 1127 0130 83ED007A 		vstr.32	s14, [r3]
 1128 0134 C2ED007A 		vstr.32	s15, [r2]
 1129 0138 2A4C     		ldr	r4, .L98+108
 1130 013a 2B48     		ldr	r0, .L98+112
 1131 013c 2B49     		ldr	r1, .L98+116
 1132 013e 2C4A     		ldr	r2, .L98+120
 1133 0140 2C4B     		ldr	r3, .L98+124
 1134 0142 C0ED007A 		vstr.32	s15, [r0]
 1135 0146 C1ED007A 		vstr.32	s15, [r1]
 1136 014a 83ED006A 		vstr.32	s12, [r3]
 1137 014e 2A48     		ldr	r0, .L98+128
 1138 0150 2A49     		ldr	r1, .L98+132
 1139 0152 2B4B     		ldr	r3, .L98+136
 1140 0154 C4ED005A 		vstr.32	s11, [r4]
ARM GAS  /tmp/ccYdlVIk.s 			page 22


 1141 0158 C2ED004A 		vstr.32	s9, [r2]
 1142 015c 0022     		movs	r2, #0
 1143 015e 294C     		ldr	r4, .L98+140
 1144 0160 C5ED007A 		vstr.32	s15, [r5]
 1145 0164 0460     		str	r4, [r0]	@ float
 1146 0166 81ED004A 		vstr.32	s8, [r1]
 1147 016a 1A80     		strh	r2, [r3]	@ movhi
 1148 016c 02B0     		add	sp, sp, #8
 1149              		@ sp needed
 1150 016e 30BC     		pop	{r4, r5}
 1151 0170 7047     		bx	lr
 1152              	.L94:
 1153 0172 0F21     		movs	r1, #15
 1154 0174 0B46     		mov	r3, r1
 1155 0176 5BE7     		b	.L90
 1156              	.L99:
 1157              		.align	2
 1158              	.L98:
 1159 0178 00000000 		.word	exy
 1160 017c 00000000 		.word	dampingFactor
 1161 0180 3D0A573F 		.word	1062668861
 1162 0184 00000000 		.word	waveindex
 1163 0188 00000000 		.word	tubewaves
 1164 018c 00000000 		.word	pulsed
 1165 0190 00000000 		.word	tableDiv1
 1166 0194 00000000 		.word	wavetable
 1167 0198 00000000 		.word	tableDiv2
 1168 019c 00000000 		.word	tnLength
 1169 01a0 00000000 		.word	tnDelta
 1170 01a4 00ADA748 		.word	1218948352
 1171 01a8 6F12833A 		.word	981668463
 1172 01ac 00409C45 		.word	1167867904
 1173 01b0 00803B45 		.word	1161527296
 1174 01b4 00000044 		.word	1140850688
 1175 01b8 00008045 		.word	1166016512
 1176 01bc 00000000 		.word	nyquist
 1177 01c0 00000000 		.word	sampleRate
 1178 01c4 00000000 		.word	a20
 1179 01c8 00000000 		.word	a10
 1180 01cc 00000000 		.word	b11
 1181 01d0 00000000 		.word	lengthy
 1182 01d4 00000000 		.word	b21
 1183 01d8 00000000 		.word	a21
 1184 01dc 00000000 		.word	na10
 1185 01e0 00000000 		.word	nb11
 1186 01e4 00000000 		.word	na20
 1187 01e8 00000000 		.word	nb21
 1188 01ec 00000000 		.word	na21
 1189 01f0 00000000 		.word	ta0
 1190 01f4 00000000 		.word	tb1
 1191 01f8 00000000 		.word	throatGain
 1192 01fc 00000000 		.word	basicIncrement
 1193 0200 00000000 		.word	sample_count
 1194 0204 F1C2023B 		.word	990036721
 1195              		.size	tube_newsay_raw, .-tube_newsay_raw
 1196              		.section	.text.tube_newsay_sing,"ax",%progbits
 1197              		.align	1
ARM GAS  /tmp/ccYdlVIk.s 			page 23


 1198              		.p2align 2,,3
 1199              		.global	tube_newsay_sing
 1200              		.syntax unified
 1201              		.thumb
 1202              		.thumb_func
 1203              		.type	tube_newsay_sing, %function
 1204              	tube_newsay_sing:
 1205              		@ args = 0, pretend = 0, frame = 8
 1206              		@ frame_needed = 0, uses_anonymous_args = 0
 1207              		@ link register save eliminated.
 1208 0000 2D4B     		ldr	r3, .L106
 1209 0002 9FED2E7A 		vldr.32	s14, .L106+4
 1210 0006 D3ED007A 		vldr.32	s15, [r3]
 1211 000a 2D48     		ldr	r0, .L106+8
 1212 000c 67EE877A 		vmul.f32	s15, s15, s14
 1213 0010 2C4B     		ldr	r3, .L106+12
 1214 0012 2D4A     		ldr	r2, .L106+16
 1215 0014 FCEEE77A 		vcvt.u32.f32	s15, s15
 1216 0018 10B4     		push	{r4}
 1217 001a 83B0     		sub	sp, sp, #12
 1218 001c 0178     		ldrb	r1, [r0]	@ zero_extendqisi2
 1219 001e 2B4C     		ldr	r4, .L106+20
 1220 0020 1970     		strb	r1, [r3]
 1221 0022 CDED017A 		vstr.32	s15, [sp, #4]	@ int
 1222 0026 9DF80430 		ldrb	r3, [sp, #4]	@ zero_extendqisi2
 1223 002a 1460     		str	r4, [r2]	@ float
 1224 002c 3F2B     		cmp	r3, #63
 1225 002e 41D8     		bhi	.L103
 1226 0030 C3F13F03 		rsb	r3, r3, #63
 1227 0034 DAB2     		uxtb	r2, r3
 1228              	.L101:
 1229 0036 264C     		ldr	r4, .L106+24
 1230 0038 264B     		ldr	r3, .L106+28
 1231 003a 0270     		strb	r2, [r0]
 1232 003c 54F82120 		ldr	r2, [r4, r1, lsl #2]
 1233 0040 03F14000 		add	r0, r3, #64
 1234              	.L102:
 1235 0044 52F8041B 		ldr	r1, [r2], #4	@ float
 1236 0048 43F8041B 		str	r1, [r3], #4	@ float
 1237 004c 9842     		cmp	r0, r3
 1238 004e F9D1     		bne	.L102
 1239 0050 214B     		ldr	r3, .L106+32
 1240 0052 40F2FF3C 		movw	ip, #1023
 1241 0056 9FED216A 		vldr.32	s12, .L106+36
 1242 005a F7EE006A 		vmov.f32	s13, #1.0e+0
 1243 005e D3ED007A 		vldr.32	s15, [r3]
 1244 0062 1F4A     		ldr	r2, .L106+40
 1245 0064 67EE867A 		vmul.f32	s15, s15, s12
 1246 0068 9FED1E7A 		vldr.32	s14, .L106+44
 1247 006c 1E48     		ldr	r0, .L106+48
 1248 006e 1F49     		ldr	r1, .L106+52
 1249 0070 FDEEE77A 		vcvt.s32.f32	s15, s15
 1250 0074 1E4C     		ldr	r4, .L106+56
 1251 0076 17EE903A 		vmov	r3, s15	@ int
 1252 007a 6345     		cmp	r3, ip
 1253 007c A8BF     		it	ge
 1254 007e 6346     		movge	r3, ip
ARM GAS  /tmp/ccYdlVIk.s 			page 24


 1255 0080 02EB8303 		add	r3, r2, r3, lsl #2
 1256 0084 0022     		movs	r2, #0
 1257 0086 D3ED007A 		vldr.32	s15, [r3]
 1258 008a 2280     		strh	r2, [r4]	@ movhi
 1259 008c 67EE877A 		vmul.f32	s15, s15, s14
 1260 0090 FCEEE77A 		vcvt.u32.f32	s15, s15
 1261 0094 17EE903A 		vmov	r3, s15	@ int
 1262 0098 9BB2     		uxth	r3, r3
 1263 009a 07EE903A 		vmov	s15, r3	@ int
 1264 009e 0380     		strh	r3, [r0]	@ movhi
 1265 00a0 B8EE677A 		vcvt.f32.u32	s14, s15
 1266 00a4 C6EE877A 		vdiv.f32	s15, s13, s14
 1267 00a8 C1ED007A 		vstr.32	s15, [r1]
 1268 00ac 03B0     		add	sp, sp, #12
 1269              		@ sp needed
 1270 00ae 5DF8044B 		ldr	r4, [sp], #4
 1271 00b2 7047     		bx	lr
 1272              	.L103:
 1273 00b4 0022     		movs	r2, #0
 1274 00b6 BEE7     		b	.L101
 1275              	.L107:
 1276              		.align	2
 1277              	.L106:
 1278 00b8 00000000 		.word	_selz
 1279 00bc 00008842 		.word	1116209152
 1280 00c0 00000000 		.word	sel
 1281 00c4 00000000 		.word	lastsel
 1282 00c8 00000000 		.word	dampingFactor
 1283 00cc F6287C3F 		.word	1065101558
 1284 00d0 00000000 		.word	vocablist_posture
 1285 00d4 00000000 		.word	input_frame
 1286 00d8 00000000 		.word	_sely
 1287 00dc 00608044 		.word	1149263872
 1288 00e0 00000000 		.word	logspeed
 1289 00e4 00008044 		.word	1149239296
 1290 00e8 00000000 		.word	lengthy
 1291 00ec 00000000 		.word	interpol
 1292 00f0 00000000 		.word	sample_count
 1293              		.size	tube_newsay_sing, .-tube_newsay_sing
 1294              		.section	.text.initializeNasalCavity,"ax",%progbits
 1295              		.align	1
 1296              		.p2align 2,,3
 1297              		.global	initializeNasalCavity
 1298              		.syntax unified
 1299              		.thumb
 1300              		.thumb_func
 1301              		.type	initializeNasalCavity, %function
 1302              	initializeNasalCavity:
 1303              		@ args = 0, pretend = 0, frame = 0
 1304              		@ frame_needed = 0, uses_anonymous_args = 0
 1305              		@ link register save eliminated.
 1306 0000 0C4B     		ldr	r3, .L111
 1307 0002 0D4A     		ldr	r2, .L111+4
 1308 0004 9FED0D7A 		vldr.32	s14, .L111+8
 1309 0008 03F11001 		add	r1, r3, #16
 1310              	.L109:
 1311 000c F3EC016A 		vldmia.32	r3!, {s13}
ARM GAS  /tmp/ccYdlVIk.s 			page 25


 1312 0010 F0EE477A 		vmov.f32	s15, s14
 1313 0014 26EEA67A 		vmul.f32	s14, s13, s13
 1314 0018 8B42     		cmp	r3, r1
 1315 001a 37EEC76A 		vsub.f32	s12, s15, s14
 1316 001e 77EE877A 		vadd.f32	s15, s15, s14
 1317 0022 C6EE276A 		vdiv.f32	s13, s12, s15
 1318 0026 E2EC016A 		vstmia.32	r2!, {s13}
 1319 002a EFD1     		bne	.L109
 1320 002c 044A     		ldr	r2, .L111+12
 1321 002e 054B     		ldr	r3, .L111+16
 1322 0030 5A61     		str	r2, [r3, #20]	@ float
 1323 0032 7047     		bx	lr
 1324              	.L112:
 1325              		.align	2
 1326              	.L111:
 1327 0034 08000000 		.word	noseRadius+8
 1328 0038 04000000 		.word	nasal_coeff+4
 1329 003c C7DC7540 		.word	1081466055
 1330 0040 000080BF 		.word	-1082130432
 1331 0044 00000000 		.word	nasal_coeff
 1332              		.size	initializeNasalCavity, .-initializeNasalCavity
 1333              		.section	.text.initializeThroat,"ax",%progbits
 1334              		.align	1
 1335              		.p2align 2,,3
 1336              		.global	initializeThroat
 1337              		.syntax unified
 1338              		.thumb
 1339              		.thumb_func
 1340              		.type	initializeThroat, %function
 1341              	initializeThroat:
 1342              		@ args = 0, pretend = 0, frame = 0
 1343              		@ frame_needed = 0, uses_anonymous_args = 0
 1344              		@ link register save eliminated.
 1345 0000 0B4B     		ldr	r3, .L114
 1346 0002 F7EE007A 		vmov.f32	s15, #1.0e+0
 1347 0006 9FED0B6A 		vldr.32	s12, .L114+4
 1348 000a 1B88     		ldrh	r3, [r3]
 1349 000c 0A4A     		ldr	r2, .L114+8
 1350 000e 07EE103A 		vmov	s14, r3	@ int
 1351 0012 0A49     		ldr	r1, .L114+12
 1352 0014 0A4B     		ldr	r3, .L114+16
 1353 0016 B8EEC77A 		vcvt.f32.s32	s14, s14
 1354 001a 0A48     		ldr	r0, .L114+20
 1355 001c 0860     		str	r0, [r1]	@ float
 1356 001e C6EE076A 		vdiv.f32	s13, s12, s14
 1357 0022 77EEE67A 		vsub.f32	s15, s15, s13
 1358 0026 C2ED006A 		vstr.32	s13, [r2]
 1359 002a C3ED007A 		vstr.32	s15, [r3]
 1360 002e 7047     		bx	lr
 1361              	.L115:
 1362              		.align	2
 1363              	.L114:
 1364 0030 00000000 		.word	sampleRate
 1365 0034 00803B45 		.word	1161527296
 1366 0038 00000000 		.word	ta0
 1367 003c 00000000 		.word	throatGain
 1368 0040 00000000 		.word	tb1
ARM GAS  /tmp/ccYdlVIk.s 			page 26


 1369 0044 F1C2023B 		.word	990036721
 1370              		.size	initializeThroat, .-initializeThroat
 1371              		.section	.text.calculateTubeCoefficients,"ax",%progbits
 1372              		.align	1
 1373              		.p2align 2,,3
 1374              		.global	calculateTubeCoefficients
 1375              		.syntax unified
 1376              		.thumb
 1377              		.thumb_func
 1378              		.type	calculateTubeCoefficients, %function
 1379              	calculateTubeCoefficients:
 1380              		@ args = 0, pretend = 0, frame = 0
 1381              		@ frame_needed = 0, uses_anonymous_args = 0
 1382              		@ link register save eliminated.
 1383 0000 2948     		ldr	r0, .L120
 1384 0002 D0ED076A 		vldr.32	s13, [r0, #28]
 1385 0006 00F12003 		add	r3, r0, #32
 1386 000a 00F13C01 		add	r1, r0, #60
 1387 000e 26EEA67A 		vmul.f32	s14, s13, s13
 1388 0012 10B4     		push	{r4}
 1389 0014 254C     		ldr	r4, .L120+4
 1390 0016 2246     		mov	r2, r4
 1391              	.L117:
 1392 0018 F3EC016A 		vldmia.32	r3!, {s13}
 1393 001c F0EE477A 		vmov.f32	s15, s14
 1394 0020 26EEA67A 		vmul.f32	s14, s13, s13
 1395 0024 9942     		cmp	r1, r3
 1396 0026 37EEC76A 		vsub.f32	s12, s15, s14
 1397 002a 77EE877A 		vadd.f32	s15, s15, s14
 1398 002e C6EE276A 		vdiv.f32	s13, s12, s15
 1399 0032 E2EC016A 		vstmia.32	r2!, {s13}
 1400 0036 EFD1     		bne	.L117
 1401 0038 90ED0A7A 		vldr.32	s14, [r0, #40]
 1402 003c B0EE004A 		vmov.f32	s8, #2.0e+0
 1403 0040 D0ED0F7A 		vldr.32	s15, [r0, #60]
 1404 0044 27EE077A 		vmul.f32	s14, s14, s14
 1405 0048 D0ED0E6A 		vldr.32	s13, [r0, #56]
 1406 004c 67EEA77A 		vmul.f32	s15, s15, s15
 1407 0050 9FED175A 		vldr.32	s10, .L120+8
 1408 0054 66EEA66A 		vmul.f32	s13, s13, s13
 1409 0058 9FED166A 		vldr.32	s12, .L120+12
 1410 005c 77EE075A 		vadd.f32	s11, s14, s14
 1411 0060 154B     		ldr	r3, .L120+16
 1412 0062 77EEC63A 		vsub.f32	s7, s15, s12
 1413 0066 154A     		ldr	r2, .L120+20
 1414 0068 36EEC53A 		vsub.f32	s6, s13, s10
 1415 006c 75EEA75A 		vadd.f32	s11, s11, s15
 1416 0070 76EE856A 		vadd.f32	s13, s13, s10
 1417 0074 37EE866A 		vadd.f32	s12, s15, s12
 1418 0078 C3EE264A 		vdiv.f32	s9, s6, s13
 1419 007c C4EE256A 		vdiv.f32	s13, s8, s11
 1420 0080 83EE865A 		vdiv.f32	s10, s7, s12
 1421 0084 C4ED074A 		vstr.32	s9, [r4, #28]
 1422 0088 5DF8044B 		ldr	r4, [sp], #4
 1423 008c 27EE267A 		vmul.f32	s14, s14, s13
 1424 0090 67EEA67A 		vmul.f32	s15, s15, s13
 1425 0094 83ED007A 		vstr.32	s14, [r3]
ARM GAS  /tmp/ccYdlVIk.s 			page 27


 1426 0098 83ED017A 		vstr.32	s14, [r3, #4]
 1427 009c 82ED005A 		vstr.32	s10, [r2]
 1428 00a0 C3ED027A 		vstr.32	s15, [r3, #8]
 1429 00a4 7047     		bx	lr
 1430              	.L121:
 1431 00a6 00BF     		.align	2
 1432              	.L120:
 1433 00a8 00000000 		.word	input_frame
 1434 00ac 00000000 		.word	oropharynx_coeff
 1435 00b0 0AD71441 		.word	1091884810
 1436 00b4 C7DC7540 		.word	1081466055
 1437 00b8 00000000 		.word	alpha
 1438 00bc 00000000 		.word	nasal_coeff
 1439              		.size	calculateTubeCoefficients, .-calculateTubeCoefficients
 1440              		.section	.text.setFricationTaps,"ax",%progbits
 1441              		.align	1
 1442              		.p2align 2,,3
 1443              		.global	setFricationTaps
 1444              		.syntax unified
 1445              		.thumb
 1446              		.thumb_func
 1447              		.type	setFricationTaps, %function
 1448              	setFricationTaps:
 1449              		@ args = 0, pretend = 0, frame = 0
 1450              		@ frame_needed = 0, uses_anonymous_args = 0
 1451 0000 10B5     		push	{r4, lr}
 1452 0002 274C     		ldr	r4, .L134
 1453 0004 DFED276A 		vldr.32	s13, .L134+4
 1454 0008 D4ED037A 		vldr.32	s15, [r4, #12]
 1455 000c 9FED267A 		vldr.32	s14, .L134+8
 1456 0010 77EEE67A 		vsub.f32	s15, s15, s13
 1457 0014 F4EEC77A 		vcmpe.f32	s15, s14
 1458 0018 F1EE10FA 		vmrs	APSR_nzcv, FPSCR
 1459 001c 3DD9     		bls	.L129
 1460 001e F5EEC07A 		vcmpe.f32	s15, #0
 1461 0022 F1EE10FA 		vmrs	APSR_nzcv, FPSCR
 1462 0026 2FDB     		blt	.L133
 1463 0028 B7EE000A 		vmov.f32	s0, #1.0e+0
 1464              	.L123:
 1465 002c 94ED047A 		vldr.32	s14, [r4, #16]
 1466 0030 F7EE006A 		vmov.f32	s13, #1.0e+0
 1467 0034 0023     		movs	r3, #0
 1468 0036 1D4A     		ldr	r2, .L134+12
 1469 0038 FDEEC77A 		vcvt.s32.f32	s15, s14
 1470 003c 4FF0000C 		mov	ip, #0
 1471 0040 17EE900A 		vmov	r0, s15	@ int
 1472 0044 F8EEE77A 		vcvt.f32.s32	s15, s15
 1473 0048 37EE677A 		vsub.f32	s14, s14, s15
 1474 004c 76EEC76A 		vsub.f32	s13, s13, s14
 1475 0050 04E0     		b	.L127
 1476              	.L124:
 1477 0052 0133     		adds	r3, r3, #1
 1478 0054 C1F800C0 		str	ip, [r1]	@ float
 1479 0058 082B     		cmp	r3, #8
 1480 005a 14D0     		beq	.L122
 1481              	.L127:
 1482 005c 8342     		cmp	r3, r0
ARM GAS  /tmp/ccYdlVIk.s 			page 28


 1483 005e 02EB8301 		add	r1, r2, r3, lsl #2
 1484 0062 F6D1     		bne	.L124
 1485 0064 66EE807A 		vmul.f32	s15, s13, s0
 1486 0068 072B     		cmp	r3, #7
 1487 006a 03F10103 		add	r3, r3, #1
 1488 006e C1ED007A 		vstr.32	s15, [r1]
 1489 0072 08D0     		beq	.L122
 1490 0074 02EB8301 		add	r1, r2, r3, lsl #2
 1491 0078 0133     		adds	r3, r3, #1
 1492 007a 67EE007A 		vmul.f32	s15, s14, s0
 1493 007e 082B     		cmp	r3, #8
 1494 0080 C1ED007A 		vstr.32	s15, [r1]
 1495 0084 EAD1     		bne	.L127
 1496              	.L122:
 1497 0086 10BD     		pop	{r4, pc}
 1498              	.L133:
 1499 0088 F3EE040A 		vmov.f32	s1, #2.0e+1
 1500 008c B2EE040A 		vmov.f32	s0, #1.0e+1
 1501 0090 C7EEA00A 		vdiv.f32	s1, s15, s1
 1502 0094 FFF7FEFF 		bl	powf
 1503 0098 C8E7     		b	.L123
 1504              	.L129:
 1505 009a 9FED050A 		vldr.32	s0, .L134+16
 1506 009e C5E7     		b	.L123
 1507              	.L135:
 1508              		.align	2
 1509              	.L134:
 1510 00a0 00000000 		.word	input_frame
 1511 00a4 00007042 		.word	1114636288
 1512 00a8 000070C2 		.word	-1032847360
 1513 00ac 00000000 		.word	fricationTap
 1514 00b0 00000000 		.word	0
 1515              		.size	setFricationTaps, .-setFricationTaps
 1516              		.section	.text.calculateBandpassCoefficients,"ax",%progbits
 1517              		.align	1
 1518              		.p2align 2,,3
 1519              		.global	calculateBandpassCoefficients
 1520              		.syntax unified
 1521              		.thumb
 1522              		.thumb_func
 1523              		.type	calculateBandpassCoefficients, %function
 1524              	calculateBandpassCoefficients:
 1525              		@ args = 0, pretend = 0, frame = 0
 1526              		@ frame_needed = 0, uses_anonymous_args = 0
 1527 0000 2B4B     		ldr	r3, .L138+8
 1528 0002 9FED2C7A 		vldr.32	s14, .L138+12
 1529 0006 1B88     		ldrh	r3, [r3]
 1530 0008 10B5     		push	{r4, lr}
 1531 000a 2B4C     		ldr	r4, .L138+16
 1532 000c 2DED028B 		vpush.64	{d8}
 1533 0010 D4ED067A 		vldr.32	s15, [r4, #24]
 1534 0014 08EE103A 		vmov	s16, r3	@ int
 1535 0018 67EE877A 		vmul.f32	s15, s15, s14
 1536 001c B8EEC80A 		vcvt.f32.s32	s0, s16
 1537 0020 87EE800A 		vdiv.f32	s0, s15, s0
 1538 0024 FFF7FEFF 		bl	tanf
 1539 0028 94ED057A 		vldr.32	s14, [r4, #20]
ARM GAS  /tmp/ccYdlVIk.s 			page 29


 1540 002c B7EEC77A 		vcvt.f64.f32	d7, s14
 1541 0030 B8EEC86B 		vcvt.f64.s32	d6, s16
 1542 0034 B0EE408A 		vmov.f32	s16, s0
 1543 0038 9FED1B5B 		vldr.64	d5, .L138
 1544 003c B7EEC88A 		vcvt.f64.f32	d8, s16
 1545 0040 27EE057B 		vmul.f64	d7, d7, d5
 1546 0044 87EE060B 		vdiv.f64	d0, d7, d6
 1547 0048 B7EEC00B 		vcvt.f32.f64	s0, d0
 1548 004c FFF7FEFF 		bl	cosf
 1549 0050 B7EE005B 		vmov.f64	d5, #1.0e+0
 1550 0054 B6EE004B 		vmov.f64	d4, #5.0e-1
 1551 0058 1849     		ldr	r1, .L138+20
 1552 005a B7EEC03A 		vcvt.f64.f32	d3, s0
 1553 005e 184A     		ldr	r2, .L138+24
 1554 0060 38EE056B 		vadd.f64	d6, d8, d5
 1555 0064 174B     		ldr	r3, .L138+28
 1556 0066 35EE485B 		vsub.f64	d5, d5, d8
 1557 006a 36EE066B 		vadd.f64	d6, d6, d6
 1558 006e BDEC028B 		vldm	sp!, {d8}
 1559 0072 85EE067B 		vdiv.f64	d7, d5, d6
 1560 0076 F7EEC76B 		vcvt.f32.f64	s13, d7
 1561 007a B7EEE67A 		vcvt.f64.f32	d7, s13
 1562 007e C1ED006A 		vstr.32	s13, [r1]
 1563 0082 37EE040B 		vadd.f64	d0, d7, d4
 1564 0086 34EE477B 		vsub.f64	d7, d4, d7
 1565 008a 20EE030B 		vmul.f64	d0, d0, d3
 1566 008e 27EE047B 		vmul.f64	d7, d7, d4
 1567 0092 B7EEC00B 		vcvt.f32.f64	s0, d0
 1568 0096 B7EEC77B 		vcvt.f32.f64	s14, d7
 1569 009a 82ED000A 		vstr.32	s0, [r2]
 1570 009e 83ED007A 		vstr.32	s14, [r3]
 1571 00a2 10BD     		pop	{r4, pc}
 1572              	.L139:
 1573 00a4 AFF30080 		.align	3
 1574              	.L138:
 1575 00a8 00000060 		.word	1610612736
 1576 00ac FB211940 		.word	1075388923
 1577 00b0 00000000 		.word	sampleRate
 1578 00b4 DB0F4940 		.word	1078530011
 1579 00b8 00000000 		.word	input_frame
 1580 00bc 00000000 		.word	bpBeta
 1581 00c0 00000000 		.word	bpGamma
 1582 00c4 00000000 		.word	bpAlpha
 1583              		.size	calculateBandpassCoefficients, .-calculateBandpassCoefficients
 1584              		.section	.text.mod0,"ax",%progbits
 1585              		.align	1
 1586              		.p2align 2,,3
 1587              		.global	mod0
 1588              		.syntax unified
 1589              		.thumb
 1590              		.thumb_func
 1591              		.type	mod0, %function
 1592              	mod0:
 1593              		@ args = 0, pretend = 0, frame = 0
 1594              		@ frame_needed = 0, uses_anonymous_args = 0
 1595              		@ link register save eliminated.
 1596 0000 DFED057A 		vldr.32	s15, .L144
ARM GAS  /tmp/ccYdlVIk.s 			page 30


 1597 0004 B4EEE70A 		vcmpe.f32	s0, s15
 1598 0008 F1EE10FA 		vmrs	APSR_nzcv, FPSCR
 1599 000c 03DD     		ble	.L141
 1600 000e DFED037A 		vldr.32	s15, .L144+4
 1601 0012 30EE670A 		vsub.f32	s0, s0, s15
 1602              	.L141:
 1603 0016 7047     		bx	lr
 1604              	.L145:
 1605              		.align	2
 1606              	.L144:
 1607 0018 0080FF43 		.word	1140817920
 1608 001c 00000044 		.word	1140850688
 1609              		.size	mod0, .-mod0
 1610              		.section	.text.incrementTablePosition,"ax",%progbits
 1611              		.align	1
 1612              		.p2align 2,,3
 1613              		.global	incrementTablePosition
 1614              		.syntax unified
 1615              		.thumb
 1616              		.thumb_func
 1617              		.type	incrementTablePosition, %function
 1618              	incrementTablePosition:
 1619              		@ args = 0, pretend = 0, frame = 0
 1620              		@ frame_needed = 0, uses_anonymous_args = 0
 1621              		@ link register save eliminated.
 1622 0000 0B4A     		ldr	r2, .L150
 1623 0002 0C4B     		ldr	r3, .L150+4
 1624 0004 D2ED006A 		vldr.32	s13, [r2]
 1625 0008 93ED007A 		vldr.32	s14, [r3]
 1626 000c 20EE260A 		vmul.f32	s0, s0, s13
 1627 0010 DFED097A 		vldr.32	s15, .L150+8
 1628 0014 30EE070A 		vadd.f32	s0, s0, s14
 1629 0018 B4EEE70A 		vcmpe.f32	s0, s15
 1630 001c F1EE10FA 		vmrs	APSR_nzcv, FPSCR
 1631 0020 03DD     		ble	.L147
 1632 0022 DFED067A 		vldr.32	s15, .L150+12
 1633 0026 30EE670A 		vsub.f32	s0, s0, s15
 1634              	.L147:
 1635 002a 83ED000A 		vstr.32	s0, [r3]
 1636 002e 7047     		bx	lr
 1637              	.L151:
 1638              		.align	2
 1639              	.L150:
 1640 0030 00000000 		.word	basicIncrement
 1641 0034 00000000 		.word	currentPosition
 1642 0038 0080FF43 		.word	1140817920
 1643 003c 00000044 		.word	1140850688
 1644              		.size	incrementTablePosition, .-incrementTablePosition
 1645              		.section	.text.oscillator,"ax",%progbits
 1646              		.align	1
 1647              		.p2align 2,,3
 1648              		.global	oscillator
 1649              		.syntax unified
 1650              		.thumb
 1651              		.thumb_func
 1652              		.type	oscillator, %function
 1653              	oscillator:
ARM GAS  /tmp/ccYdlVIk.s 			page 31


 1654              		@ args = 0, pretend = 0, frame = 0
 1655              		@ frame_needed = 0, uses_anonymous_args = 0
 1656              		@ link register save eliminated.
 1657 0000 224B     		ldr	r3, .L159
 1658 0002 234A     		ldr	r2, .L159+4
 1659 0004 D3ED007A 		vldr.32	s15, [r3]
 1660 0008 D2ED006A 		vldr.32	s13, [r2]
 1661 000c 60EE277A 		vmul.f32	s15, s0, s15
 1662 0010 9FED207A 		vldr.32	s14, .L159+8
 1663 0014 77EEA67A 		vadd.f32	s15, s15, s13
 1664 0018 F4EEC77A 		vcmpe.f32	s15, s14
 1665 001c F1EE10FA 		vmrs	APSR_nzcv, FPSCR
 1666 0020 03DD     		ble	.L153
 1667 0022 9FED1D7A 		vldr.32	s14, .L159+12
 1668 0026 77EEC77A 		vsub.f32	s15, s15, s14
 1669              	.L153:
 1670 002a BDEEE77A 		vcvt.s32.f32	s14, s15
 1671 002e C2ED007A 		vstr.32	s15, [r2]
 1672 0032 DFED186A 		vldr.32	s13, .L159+8
 1673 0036 17EE103A 		vmov	r3, s14	@ int
 1674 003a 5A1C     		adds	r2, r3, #1
 1675 003c 07EE102A 		vmov	s14, r2	@ int
 1676 0040 B8EEC77A 		vcvt.f32.s32	s14, s14
 1677 0044 B4EEE67A 		vcmpe.f32	s14, s13
 1678 0048 F1EE10FA 		vmrs	APSR_nzcv, FPSCR
 1679 004c 03DD     		ble	.L155
 1680 004e DFED126A 		vldr.32	s13, .L159+12
 1681 0052 37EE667A 		vsub.f32	s14, s14, s13
 1682              	.L155:
 1683 0056 BDEEC77A 		vcvt.s32.f32	s14, s14
 1684 005a 104A     		ldr	r2, .L159+16
 1685 005c 06EE903A 		vmov	s13, r3	@ int
 1686 0060 02EB8303 		add	r3, r2, r3, lsl #2
 1687 0064 17EE101A 		vmov	r1, s14	@ int
 1688 0068 F8EEE66A 		vcvt.f32.s32	s13, s13
 1689 006c 93ED000A 		vldr.32	s0, [r3]
 1690 0070 02EB8102 		add	r2, r2, r1, lsl #2
 1691 0074 77EEE67A 		vsub.f32	s15, s15, s13
 1692 0078 92ED007A 		vldr.32	s14, [r2]
 1693 007c 37EE407A 		vsub.f32	s14, s14, s0
 1694 0080 67EE277A 		vmul.f32	s15, s14, s15
 1695 0084 37EE800A 		vadd.f32	s0, s15, s0
 1696 0088 7047     		bx	lr
 1697              	.L160:
 1698 008a 00BF     		.align	2
 1699              	.L159:
 1700 008c 00000000 		.word	basicIncrement
 1701 0090 00000000 		.word	currentPosition
 1702 0094 0080FF43 		.word	1140817920
 1703 0098 00000044 		.word	1140850688
 1704 009c 00000000 		.word	wavetable
 1705              		.size	oscillator, .-oscillator
 1706              		.section	.text.tube_get_sample,"ax",%progbits
 1707              		.align	1
 1708              		.p2align 2,,3
 1709              		.global	tube_get_sample
 1710              		.syntax unified
ARM GAS  /tmp/ccYdlVIk.s 			page 32


 1711              		.thumb
 1712              		.thumb_func
 1713              		.type	tube_get_sample, %function
 1714              	tube_get_sample:
 1715              		@ args = 0, pretend = 0, frame = 8
 1716              		@ frame_needed = 0, uses_anonymous_args = 0
 1717 0000 9D4A     		ldr	r2, .L192+8
 1718 0002 9E49     		ldr	r1, .L192+12
 1719 0004 1388     		ldrh	r3, [r2]
 1720 0006 0988     		ldrh	r1, [r1]
 1721 0008 581C     		adds	r0, r3, #1
 1722 000a 9942     		cmp	r1, r3
 1723 000c 30B5     		push	{r4, r5, lr}
 1724 000e 2DED048B 		vpush.64	{d8, d9}
 1725 0012 1080     		strh	r0, [r2]	@ movhi
 1726 0014 83B0     		sub	sp, sp, #12
 1727 0016 40F21881 		bls	.L186
 1728              	.L162:
 1729 001a 9949     		ldr	r1, .L192+16
 1730 001c 9948     		ldr	r0, .L192+20
 1731 001e 9A4D     		ldr	r5, .L192+24
 1732 0020 9A4A     		ldr	r2, .L192+28
 1733 0022 9B4B     		ldr	r3, .L192+32
 1734 0024 0078     		ldrb	r0, [r0]	@ zero_extendqisi2
 1735 0026 0978     		ldrb	r1, [r1]	@ zero_extendqisi2
 1736 0028 93ED006A 		vldr.32	s12, [r3]
 1737 002c 2B46     		mov	r3, r5
 1738 002e 52F82110 		ldr	r1, [r2, r1, lsl #2]
 1739 0032 52F82020 		ldr	r2, [r2, r0, lsl #2]
 1740 0036 05F14000 		add	r0, r5, #64
 1741              	.L163:
 1742 003a F1EC017A 		vldmia.32	r1!, {s15}
 1743 003e F2EC016A 		vldmia.32	r2!, {s13}
 1744 0042 93ED007A 		vldr.32	s14, [r3]
 1745 0046 77EEE67A 		vsub.f32	s15, s15, s13
 1746 004a 67EE867A 		vmul.f32	s15, s15, s12
 1747 004e 77EE877A 		vadd.f32	s15, s15, s14
 1748 0052 E3EC017A 		vstmia.32	r3!, {s15}
 1749 0056 9842     		cmp	r0, r3
 1750 0058 EFD1     		bne	.L163
 1751 005a 8E4B     		ldr	r3, .L192+36
 1752 005c F0EE086A 		vmov.f32	s13, #3.0e+0
 1753 0060 9FED8D6A 		vldr.32	s12, .L192+40
 1754 0064 F2EE080A 		vmov.f32	s1, #1.2e+1
 1755 0068 93ED007A 		vldr.32	s14, [r3]
 1756 006c B0EE000A 		vmov.f32	s0, #2.0e+0
 1757 0070 D5ED007A 		vldr.32	s15, [r5]
 1758 0074 27EE067A 		vmul.f32	s14, s14, s12
 1759 0078 77EEA67A 		vadd.f32	s15, s15, s13
 1760 007c BCEEC77A 		vcvt.u32.f32	s14, s14
 1761 0080 C7EEA00A 		vdiv.f32	s1, s15, s1
 1762 0084 8DED017A 		vstr.32	s14, [sp, #4]	@ int
 1763 0088 9DF80440 		ldrb	r4, [sp, #4]	@ zero_extendqisi2
 1764 008c 7F2C     		cmp	r4, #127
 1765 008e 28BF     		it	cs
 1766 0090 7F24     		movcs	r4, #127
 1767 0092 FFF7FEFF 		bl	powf
ARM GAS  /tmp/ccYdlVIk.s 			page 33


 1768 0096 9FED817A 		vldr.32	s14, .L192+44
 1769 009a C4F17F04 		rsb	r4, r4, #127
 1770 009e D5ED017A 		vldr.32	s15, [r5, #4]
 1771 00a2 20EE079A 		vmul.f32	s18, s0, s14
 1772 00a6 9FED7E7A 		vldr.32	s14, .L192+48
 1773 00aa 7E4B     		ldr	r3, .L192+52
 1774 00ac E4B2     		uxtb	r4, r4
 1775 00ae 77EEC77A 		vsub.f32	s15, s15, s14
 1776 00b2 9FED7D7A 		vldr.32	s14, .L192+56
 1777 00b6 03EB8403 		add	r3, r3, r4, lsl #2
 1778 00ba 7C4A     		ldr	r2, .L192+60
 1779 00bc F4EEC77A 		vcmpe.f32	s15, s14
 1780 00c0 D3ED006A 		vldr.32	s13, [r3]
 1781 00c4 29EE269A 		vmul.f32	s18, s18, s13
 1782 00c8 F1EE10FA 		vmrs	APSR_nzcv, FPSCR
 1783 00cc 82ED009A 		vstr.32	s18, [r2]
 1784 00d0 40F2B880 		bls	.L173
 1785 00d4 F5EEC07A 		vcmpe.f32	s15, #0
 1786 00d8 F1EE10FA 		vmrs	APSR_nzcv, FPSCR
 1787 00dc C0F29880 		blt	.L187
 1788 00e0 F7EE008A 		vmov.f32	s17, #1.0e+0
 1789              	.L164:
 1790 00e4 D5ED027A 		vldr.32	s15, [r5, #8]
 1791 00e8 DFED6D6A 		vldr.32	s13, .L192+48
 1792 00ec 9FED6E7A 		vldr.32	s14, .L192+56
 1793 00f0 77EEE67A 		vsub.f32	s15, s15, s13
 1794 00f4 6E4B     		ldr	r3, .L192+64
 1795 00f6 C3ED008A 		vstr.32	s17, [r3]
 1796 00fa F4EEC77A 		vcmpe.f32	s15, s14
 1797 00fe F1EE10FA 		vmrs	APSR_nzcv, FPSCR
 1798 0102 40F29C80 		bls	.L175
 1799 0106 F5EEC07A 		vcmpe.f32	s15, #0
 1800 010a F1EE10FA 		vmrs	APSR_nzcv, FPSCR
 1801 010e C0F2A480 		blt	.L188
 1802 0112 B7EE008A 		vmov.f32	s16, #1.0e+0
 1803              	.L165:
 1804 0116 674B     		ldr	r3, .L192+68
 1805 0118 83ED008A 		vstr.32	s16, [r3]
 1806 011c FFF7FEFF 		bl	calculateTubeCoefficients
 1807 0120 FFF7FEFF 		bl	setFricationTaps
 1808 0124 FFF7FEFF 		bl	calculateBandpassCoefficients
 1809 0128 634A     		ldr	r2, .L192+72
 1810 012a DFED646A 		vldr.32	s13, .L192+76
 1811 012e B6EE007A 		vmov.f32	s14, #5.0e-1
 1812 0132 D2ED007A 		vldr.32	s15, [r2]
 1813 0136 624B     		ldr	r3, .L192+80
 1814 0138 67EEA67A 		vmul.f32	s15, s15, s13
 1815 013c 6149     		ldr	r1, .L192+84
 1816 013e 93ED005A 		vldr.32	s10, [r3]
 1817 0142 0978     		ldrb	r1, [r1]	@ zero_extendqisi2
 1818 0144 FDEEE76A 		vcvt.s32.f32	s13, s15
 1819 0148 F8EEE66A 		vcvt.f32.s32	s13, s13
 1820 014c 77EEE67A 		vsub.f32	s15, s15, s13
 1821 0150 37EEC77A 		vsub.f32	s14, s15, s14
 1822 0154 C2ED007A 		vstr.32	s15, [r2]
 1823 0158 77EE059A 		vadd.f32	s19, s14, s10
 1824 015c 83ED007A 		vstr.32	s14, [r3]
ARM GAS  /tmp/ccYdlVIk.s 			page 34


 1825 0160 0029     		cmp	r1, #0
 1826 0162 75D0     		beq	.L189
 1827              	.L166:
 1828 0164 B0EE490A 		vmov.f32	s0, s18
 1829 0168 FFF7FEFF 		bl	oscillator
 1830 016c 564B     		ldr	r3, .L192+88
 1831 016e 20EE297A 		vmul.f32	s14, s0, s19
 1832 0172 DFED567A 		vldr.32	s15, .L192+92
 1833 0176 93ED006A 		vldr.32	s12, [r3]
 1834 017a B7EE004B 		vmov.f64	d4, #1.0e+0
 1835 017e B7EEC00A 		vcvt.f64.f32	d0, s0
 1836 0182 B7EEC62A 		vcvt.f64.f32	d2, s12
 1837 0186 26EE076A 		vmul.f32	s12, s12, s14
 1838 018a B7EEE83A 		vcvt.f64.f32	d3, s17
 1839 018e 34EE422B 		vsub.f64	d2, d4, d2
 1840 0192 B7EEC66A 		vcvt.f64.f32	d6, s12
 1841 0196 68EEA78A 		vmul.f32	s17, s17, s15
 1842 019a F7EE007A 		vmov.f32	s15, #1.0e+0
 1843 019e 02EE006B 		vmla.f64	d6, d2, d0
 1844 01a2 F4EEE78A 		vcmpe.f32	s17, s15
 1845 01a6 F1EE10FA 		vmrs	APSR_nzcv, FPSCR
 1846 01aa 26EE036B 		vmul.f64	d6, d6, d3
 1847 01ae B7EEC66B 		vcvt.f32.f64	s12, d6
 1848 01b2 3DD4     		bmi	.L190
 1849 01b4 9FED2E4B 		vldr.64	d4, .L192
 1850              	.L167:
 1851 01b8 B7EEE95A 		vcvt.f64.f32	d5, s19
 1852 01bc 444B     		ldr	r3, .L192+96
 1853 01be B7EEC77A 		vcvt.f64.f32	d7, s14
 1854 01c2 D3ED006A 		vldr.32	s13, [r3]
 1855 01c6 05EE047B 		vmla.f64	d7, d5, d4
 1856 01ca F7EEC77B 		vcvt.f32.f64	s15, d7
 1857 01ce 67EE887A 		vmul.f32	s15, s15, s16
 1858 01d2 77EE867A 		vadd.f32	s15, s15, s12
 1859 01d6 B0EEE77A 		vabs.f32	s14, s15
 1860 01da F4EEC76A 		vcmpe.f32	s13, s14
 1861 01de F1EE10FA 		vmrs	APSR_nzcv, FPSCR
 1862 01e2 03D5     		bpl	.L169
 1863 01e4 F0EE476A 		vmov.f32	s13, s14
 1864 01e8 83ED007A 		vstr.32	s14, [r3]
 1865              	.L169:
 1866 01ec F5EEC06A 		vcmpe.f32	s13, #0
 1867 01f0 F1EE10FA 		vmrs	APSR_nzcv, FPSCR
 1868 01f4 17DC     		bgt	.L191
 1869 01f6 9FED377A 		vldr.32	s14, .L192+100
 1870              	.L171:
 1871 01fa 67EE277A 		vmul.f32	s15, s14, s15
 1872 01fe FDEEE77A 		vcvt.s32.f32	s15, s15
 1873 0202 17EE903A 		vmov	r3, s15	@ int
 1874 0206 18B2     		sxth	r0, r3
 1875 0208 03B0     		add	sp, sp, #12
 1876              		@ sp needed
 1877 020a BDEC048B 		vldm	sp!, {d8-d9}
 1878 020e 30BD     		pop	{r4, r5, pc}
 1879              	.L187:
 1880 0210 F3EE040A 		vmov.f32	s1, #2.0e+1
 1881 0214 B2EE040A 		vmov.f32	s0, #1.0e+1
ARM GAS  /tmp/ccYdlVIk.s 			page 35


 1882 0218 C7EEA00A 		vdiv.f32	s1, s15, s1
 1883 021c FFF7FEFF 		bl	powf
 1884 0220 F0EE408A 		vmov.f32	s17, s0
 1885 0224 5EE7     		b	.L164
 1886              	.L191:
 1887 0226 9FED2C6A 		vldr.32	s12, .L192+104
 1888 022a 86EE267A 		vdiv.f32	s14, s12, s13
 1889 022e E4E7     		b	.L171
 1890              	.L190:
 1891 0230 B7EEE85A 		vcvt.f64.f32	d5, s17
 1892 0234 27EE287A 		vmul.f32	s14, s14, s17
 1893 0238 34EE454B 		vsub.f64	d4, d4, d5
 1894 023c BCE7     		b	.L167
 1895              	.L175:
 1896 023e 9FED278A 		vldr.32	s16, .L192+108
 1897 0242 68E7     		b	.L165
 1898              	.L173:
 1899 0244 DFED258A 		vldr.32	s17, .L192+108
 1900 0248 4CE7     		b	.L164
 1901              	.L186:
 1902 024a FFF7FEFF 		bl	tube_newsay
 1903 024e E4E6     		b	.L162
 1904              	.L189:
 1905 0250 B0EE680A 		vmov.f32	s0, s17
 1906 0254 FFF7FEFF 		bl	updateWavetable
 1907 0258 84E7     		b	.L166
 1908              	.L188:
 1909 025a F3EE040A 		vmov.f32	s1, #2.0e+1
 1910 025e B2EE040A 		vmov.f32	s0, #1.0e+1
 1911 0262 C7EEA00A 		vdiv.f32	s1, s15, s1
 1912 0266 FFF7FEFF 		bl	powf
 1913 026a B0EE408A 		vmov.f32	s16, s0
 1914 026e 52E7     		b	.L165
 1915              	.L193:
 1916              		.align	3
 1917              	.L192:
 1918 0270 00000000 		.word	0
 1919 0274 00000000 		.word	0
 1920 0278 00000000 		.word	sample_count
 1921 027c 00000000 		.word	lengthy
 1922 0280 00000000 		.word	sel
 1923 0284 00000000 		.word	lastsel
 1924 0288 00000000 		.word	input_frame
 1925 028c 00000000 		.word	vocablist_posture
 1926 0290 00000000 		.word	interpol
 1927 0294 00000000 		.word	_selx
 1928 0298 00000243 		.word	1124204544
 1929 029c 0000DC43 		.word	1138491392
 1930 02a0 00007042 		.word	1114636288
 1931 02a4 00000000 		.word	logpitch
 1932 02a8 000070C2 		.word	-1032847360
 1933 02ac 00000000 		.word	f0
 1934 02b0 00000000 		.word	ax
 1935 02b4 00000000 		.word	ah1
 1936 02b8 00000000 		.word	seed.12
 1937 02bc 0080BC43 		.word	1136427008
 1938 02c0 00000000 		.word	noiseX.11
ARM GAS  /tmp/ccYdlVIk.s 			page 36


 1939 02c4 00000000 		.word	pulsed
 1940 02c8 00000000 		.word	breathinessFactor
 1941 02cc 52B87E40 		.word	1082046546
 1942 02d0 00000000 		.word	maximumSampleValue
 1943 02d4 0000C842 		.word	1120403456
 1944 02d8 00FEFF46 		.word	1191181824
 1945 02dc 00000000 		.word	0
 1946              		.size	tube_get_sample, .-tube_get_sample
 1947              		.section	.text.vocalTract,"ax",%progbits
 1948              		.align	1
 1949              		.p2align 2,,3
 1950              		.global	vocalTract
 1951              		.syntax unified
 1952              		.thumb
 1953              		.thumb_func
 1954              		.type	vocalTract, %function
 1955              	vocalTract:
 1956              		@ args = 0, pretend = 0, frame = 0
 1957              		@ frame_needed = 0, uses_anonymous_args = 0
 1958 0000 DF4A     		ldr	r2, .L206
 1959 0002 E049     		ldr	r1, .L206+4
 1960 0004 2DE9F04F 		push	{r4, r5, r6, r7, r8, r9, r10, fp, lr}
 1961 0008 1378     		ldrb	r3, [r2]	@ zero_extendqisi2
 1962 000a DF4C     		ldr	r4, .L206+8
 1963 000c 0133     		adds	r3, r3, #1
 1964 000e DFF8D0A3 		ldr	r10, .L206+96
 1965 0012 D4ED006A 		vldr.32	s13, [r4]
 1966 0016 DBB2     		uxtb	r3, r3
 1967 0018 9AED006A 		vldr.32	s12, [r10]
 1968 001c DAED015A 		vldr.32	s11, [r10, #4]
 1969 0020 0AF11009 		add	r9, r10, #16
 1970 0024 012B     		cmp	r3, #1
 1971 0026 9AED023A 		vldr.32	s6, [r10, #8]
 1972 002a D84C     		ldr	r4, .L206+12
 1973 002c 0AF11C0B 		add	fp, r10, #28
 1974 0030 88BF     		it	hi
 1975 0032 0023     		movhi	r3, #0
 1976 0034 1370     		strb	r3, [r2]
 1977 0036 9C46     		mov	ip, r3
 1978 0038 0A78     		ldrb	r2, [r1]	@ zero_extendqisi2
 1979 003a D54B     		ldr	r3, .L206+16
 1980 003c 0CF11606 		add	r6, ip, #22
 1981 0040 0132     		adds	r2, r2, #1
 1982 0042 03EB8C0E 		add	lr, r3, ip, lsl #2
 1983 0046 D2B2     		uxtb	r2, r2
 1984 0048 012A     		cmp	r2, #1
 1985 004a 88BF     		it	hi
 1986 004c 0022     		movhi	r2, #0
 1987 004e 951C     		adds	r5, r2, #2
 1988 0050 0A70     		strb	r2, [r1]
 1989 0052 1046     		mov	r0, r2
 1990 0054 4FEA8C02 		lsl	r2, ip, #2
 1991 0058 03EB8501 		add	r1, r3, r5, lsl #2
 1992 005c 03EB8007 		add	r7, r3, r0, lsl #2
 1993 0060 D1ED007A 		vldr.32	s15, [r1]
 1994 0064 D7ED064A 		vldr.32	s9, [r7, #24]
 1995 0068 66EEA77A 		vmul.f32	s15, s13, s15
ARM GAS  /tmp/ccYdlVIk.s 			page 37


 1996 006c C949     		ldr	r1, .L206+20
 1997 006e D1ED013A 		vldr.32	s7, [r1, #4]
 1998 0072 01F11408 		add	r8, r1, #20
 1999 0076 37EE800A 		vadd.f32	s0, s15, s0
 2000 007a 91ED024A 		vldr.32	s8, [r1, #8]
 2001 007e 60EEA33A 		vmul.f32	s7, s1, s7
 2002 0082 20EE844A 		vmul.f32	s8, s1, s8
 2003 0086 8EED000A 		vstr.32	s0, [lr]
 2004 008a D7ED007A 		vldr.32	s15, [r7]
 2005 008e 37EEE47A 		vsub.f32	s14, s15, s9
 2006 0092 27EE067A 		vmul.f32	s14, s14, s12
 2007 0096 77EE877A 		vadd.f32	s15, s15, s14
 2008 009a 74EE874A 		vadd.f32	s9, s9, s14
 2009 009e 97ED0A7A 		vldr.32	s14, [r7, #40]
 2010 00a2 67EEA67A 		vmul.f32	s15, s15, s13
 2011 00a6 64EEA64A 		vmul.f32	s9, s9, s13
 2012 00aa CEED047A 		vstr.32	s15, [lr, #16]
 2013 00ae D7ED047A 		vldr.32	s15, [r7, #16]
 2014 00b2 CEED024A 		vstr.32	s9, [lr, #8]
 2015 00b6 37EEC76A 		vsub.f32	s12, s15, s14
 2016 00ba 26EE256A 		vmul.f32	s12, s12, s11
 2017 00be 37EE067A 		vadd.f32	s14, s14, s12
 2018 00c2 77EE867A 		vadd.f32	s15, s15, s12
 2019 00c6 97ED0E6A 		vldr.32	s12, [r7, #56]
 2020 00ca 27EE265A 		vmul.f32	s10, s14, s13
 2021 00ce 91ED007A 		vldr.32	s14, [r1]
 2022 00d2 67EEA67A 		vmul.f32	s15, s15, s13
 2023 00d6 20EE877A 		vmul.f32	s14, s1, s14
 2024 00da 8EED065A 		vstr.32	s10, [lr, #24]
 2025 00de 77EE877A 		vadd.f32	s15, s15, s14
 2026 00e2 CEED087A 		vstr.32	s15, [lr, #32]
 2027 00e6 D7ED087A 		vldr.32	s15, [r7, #32]
 2028 00ea 77EEC65A 		vsub.f32	s11, s15, s12
 2029 00ee 65EE835A 		vmul.f32	s11, s11, s6
 2030 00f2 94ED013A 		vldr.32	s6, [r4, #4]
 2031 00f6 37EEA57A 		vadd.f32	s14, s15, s11
 2032 00fa D4ED007A 		vldr.32	s15, [r4]
 2033 00fe 36EE256A 		vadd.f32	s12, s12, s11
 2034 0102 27EE267A 		vmul.f32	s14, s14, s13
 2035 0106 66EE265A 		vmul.f32	s11, s12, s13
 2036 010a 37EE237A 		vadd.f32	s14, s14, s7
 2037 010e D4ED023A 		vldr.32	s7, [r4, #8]
 2038 0112 A14C     		ldr	r4, .L206+24
 2039 0114 CEED0A5A 		vstr.32	s11, [lr, #40]
 2040 0118 8EED0C7A 		vstr.32	s14, [lr, #48]
 2041 011c 04EB8505 		add	r5, r4, r5, lsl #2
 2042 0120 97ED0C6A 		vldr.32	s12, [r7, #48]
 2043 0124 97ED127A 		vldr.32	s14, [r7, #72]
 2044 0128 66EE277A 		vmul.f32	s15, s12, s15
 2045 012c 27EE033A 		vmul.f32	s6, s14, s6
 2046 0130 77EE837A 		vadd.f32	s15, s15, s6
 2047 0134 95ED003A 		vldr.32	s6, [r5]
 2048 0138 04EB8C05 		add	r5, r4, ip, lsl #2
 2049 013c 63EE233A 		vmul.f32	s7, s6, s7
 2050 0140 77EEA37A 		vadd.f32	s15, s15, s7
 2051 0144 37EEC77A 		vsub.f32	s14, s15, s14
 2052 0148 37EEC66A 		vsub.f32	s12, s15, s12
ARM GAS  /tmp/ccYdlVIk.s 			page 38


 2053 014c 77EEC37A 		vsub.f32	s15, s15, s6
 2054 0150 27EE267A 		vmul.f32	s14, s14, s13
 2055 0154 26EE266A 		vmul.f32	s12, s12, s13
 2056 0158 67EEA67A 		vmul.f32	s15, s15, s13
 2057 015c 37EE047A 		vadd.f32	s14, s14, s8
 2058 0160 8EED0E6A 		vstr.32	s12, [lr, #56]
 2059 0164 C5ED007A 		vstr.32	s15, [r5]
 2060 0168 00F11405 		add	r5, r0, #20
 2061 016c 8EED107A 		vstr.32	s14, [lr, #64]
 2062 0170 D7ED107A 		vldr.32	s15, [r7, #64]
 2063 0174 97ED167A 		vldr.32	s14, [r7, #88]
 2064 0178 DAED034A 		vldr.32	s9, [r10, #12]
 2065 017c 37EEC76A 		vsub.f32	s12, s15, s14
 2066 0180 91ED035A 		vldr.32	s10, [r1, #12]
 2067 0184 D1ED045A 		vldr.32	s11, [r1, #16]
 2068 0188 03EB8501 		add	r1, r3, r5, lsl #2
 2069 018c 20EE855A 		vmul.f32	s10, s1, s10
 2070 0190 26EE246A 		vmul.f32	s12, s12, s9
 2071 0194 60EEA55A 		vmul.f32	s11, s1, s11
 2072 0198 77EE867A 		vadd.f32	s15, s15, s12
 2073 019c 37EE067A 		vadd.f32	s14, s14, s12
 2074 01a0 97ED1A6A 		vldr.32	s12, [r7, #104]
 2075 01a4 67EEA67A 		vmul.f32	s15, s15, s13
 2076 01a8 26EE266A 		vmul.f32	s12, s12, s13
 2077 01ac 27EE267A 		vmul.f32	s14, s14, s13
 2078 01b0 77EE857A 		vadd.f32	s15, s15, s10
 2079 01b4 8EED127A 		vstr.32	s14, [lr, #72]
 2080 01b8 CEED147A 		vstr.32	s15, [lr, #80]
 2081 01bc D1ED007A 		vldr.32	s15, [r1]
 2082 01c0 03EB8601 		add	r1, r3, r6, lsl #2
 2083 01c4 66EEA77A 		vmul.f32	s15, s13, s15
 2084 01c8 81ED006A 		vstr.32	s12, [r1]
 2085 01cc 8100     		lsls	r1, r0, #2
 2086 01ce 77EEA57A 		vadd.f32	s15, s15, s11
 2087 01d2 CEED187A 		vstr.32	s15, [lr, #96]
 2088              	.L197:
 2089 01d6 D7ED187A 		vldr.32	s15, [r7, #96]
 2090 01da 0EF1100E 		add	lr, lr, #16
 2091 01de 97ED1E7A 		vldr.32	s14, [r7, #120]
 2092 01e2 1037     		adds	r7, r7, #16
 2093 01e4 B9EC015A 		vldmia.32	r9!, {s10}
 2094 01e8 37EEC76A 		vsub.f32	s12, s15, s14
 2095 01ec F8EC015A 		vldmia.32	r8!, {s11}
 2096 01f0 CB45     		cmp	fp, r9
 2097 01f2 65EEA05A 		vmul.f32	s11, s11, s1
 2098 01f6 26EE056A 		vmul.f32	s12, s12, s10
 2099 01fa 77EE867A 		vadd.f32	s15, s15, s12
 2100 01fe 37EE067A 		vadd.f32	s14, s14, s12
 2101 0202 67EEA67A 		vmul.f32	s15, s15, s13
 2102 0206 27EE267A 		vmul.f32	s14, s14, s13
 2103 020a 77EEA57A 		vadd.f32	s15, s15, s11
 2104 020e 8EED167A 		vstr.32	s14, [lr, #88]
 2105 0212 CEED187A 		vstr.32	s15, [lr, #96]
 2106 0216 DED1     		bne	.L197
 2107 0218 DAED077A 		vldr.32	s15, [r10, #28]
 2108 021c 03EB8000 		add	r0, r3, r0, lsl #2
 2109 0220 B7EE003B 		vmov.f64	d3, #1.0e+0
ARM GAS  /tmp/ccYdlVIk.s 			page 39


 2110 0224 5D4F     		ldr	r7, .L206+28
 2111 0226 B7EEE75A 		vcvt.f64.f32	d5, s15
 2112 022a 90ED247A 		vldr.32	s14, [r0, #144]
 2113 022e 97ED006A 		vldr.32	s12, [r7]
 2114 0232 03EB8C03 		add	r3, r3, ip, lsl #2
 2115 0236 B7EEC74A 		vcvt.f64.f32	d4, s14
 2116 023a 5948     		ldr	r0, .L206+32
 2117 023c 35EE035B 		vadd.f64	d5, d5, d3
 2118 0240 2144     		add	r1, r1, r4
 2119 0242 67EE877A 		vmul.f32	s15, s15, s14
 2120 0246 2244     		add	r2, r2, r4
 2121 0248 25EE045B 		vmul.f64	d5, d5, d4
 2122 024c B7EEC55B 		vcvt.f32.f64	s10, d5
 2123 0250 D0ED005A 		vldr.32	s11, [r0]
 2124 0254 87ED005A 		vstr.32	s10, [r7]
 2125 0258 524F     		ldr	r7, .L206+36
 2126 025a 97ED007A 		vldr.32	s14, [r7]
 2127 025e 524F     		ldr	r7, .L206+40
 2128 0260 67EE877A 		vmul.f32	s15, s15, s14
 2129 0264 97ED007A 		vldr.32	s14, [r7]
 2130 0268 504F     		ldr	r7, .L206+44
 2131 026a 27EE257A 		vmul.f32	s14, s14, s11
 2132 026e 77EEC77A 		vsub.f32	s15, s15, s14
 2133 0272 C0ED007A 		vstr.32	s15, [r0]
 2134 0276 66EEA77A 		vmul.f32	s15, s13, s15
 2135 027a 4D48     		ldr	r0, .L206+48
 2136 027c C3ED267A 		vstr.32	s15, [r3, #152]
 2137 0280 4C4B     		ldr	r3, .L206+52
 2138 0282 93ED000A 		vldr.32	s0, [r3]
 2139 0286 4C4B     		ldr	r3, .L206+56
 2140 0288 20EE060A 		vmul.f32	s0, s0, s12
 2141 028c D3ED007A 		vldr.32	s15, [r3]
 2142 0290 4A4B     		ldr	r3, .L206+60
 2143 0292 25EE275A 		vmul.f32	s10, s10, s15
 2144 0296 D0ED007A 		vldr.32	s15, [r0]
 2145 029a 93ED007A 		vldr.32	s14, [r3]
 2146 029e 07F11400 		add	r0, r7, #20
 2147 02a2 30EE050A 		vadd.f32	s0, s0, s10
 2148 02a6 67EE877A 		vmul.f32	s15, s15, s14
 2149 02aa 30EE670A 		vsub.f32	s0, s0, s15
 2150 02ae 83ED000A 		vstr.32	s0, [r3]
 2151 02b2 3B46     		mov	r3, r7
 2152              	.L198:
 2153 02b4 91ED007A 		vldr.32	s14, [r1]
 2154 02b8 1032     		adds	r2, r2, #16
 2155 02ba D1ED067A 		vldr.32	s15, [r1, #24]
 2156 02be 1031     		adds	r1, r1, #16
 2157 02c0 F3EC015A 		vldmia.32	r3!, {s11}
 2158 02c4 37EE676A 		vsub.f32	s12, s14, s15
 2159 02c8 9842     		cmp	r0, r3
 2160 02ca 26EE256A 		vmul.f32	s12, s12, s11
 2161 02ce 37EE067A 		vadd.f32	s14, s14, s12
 2162 02d2 77EE867A 		vadd.f32	s15, s15, s12
 2163 02d6 27EE267A 		vmul.f32	s14, s14, s13
 2164 02da 67EEA67A 		vmul.f32	s15, s15, s13
 2165 02de 82ED007A 		vstr.32	s14, [r2]
 2166 02e2 42ED027A 		vstr.32	s15, [r2, #-8]
ARM GAS  /tmp/ccYdlVIk.s 			page 40


 2167 02e6 E5D1     		bne	.L198
 2168 02e8 D7ED057A 		vldr.32	s15, [r7, #20]
 2169 02ec 04EB8505 		add	r5, r4, r5, lsl #2
 2170 02f0 B7EE003B 		vmov.f64	d3, #1.0e+0
 2171 02f4 324A     		ldr	r2, .L206+64
 2172 02f6 B7EEE75A 		vcvt.f64.f32	d5, s15
 2173 02fa 95ED007A 		vldr.32	s14, [r5]
 2174 02fe 314B     		ldr	r3, .L206+68
 2175 0300 04EB8604 		add	r4, r4, r6, lsl #2
 2176 0304 B7EEC74A 		vcvt.f64.f32	d4, s14
 2177 0308 2F48     		ldr	r0, .L206+72
 2178 030a 35EE035B 		vadd.f64	d5, d5, d3
 2179 030e 93ED006A 		vldr.32	s12, [r3]
 2180 0312 67EE877A 		vmul.f32	s15, s15, s14
 2181 0316 92ED003A 		vldr.32	s6, [r2]
 2182 031a 2C49     		ldr	r1, .L206+76
 2183 031c 25EE045B 		vmul.f64	d5, d5, d4
 2184 0320 90ED004A 		vldr.32	s8, [r0]
 2185 0324 2A4B     		ldr	r3, .L206+80
 2186 0326 2B48     		ldr	r0, .L206+84
 2187 0328 67EE867A 		vmul.f32	s15, s15, s12
 2188 032c D1ED003A 		vldr.32	s7, [r1]
 2189 0330 24EE034A 		vmul.f32	s8, s8, s6
 2190 0334 93ED007A 		vldr.32	s14, [r3]
 2191 0338 D0ED004A 		vldr.32	s9, [r0]
 2192 033c B7EEC55B 		vcvt.f32.f64	s10, d5
 2193 0340 254B     		ldr	r3, .L206+88
 2194 0342 2648     		ldr	r0, .L206+92
 2195 0344 77EEC47A 		vsub.f32	s15, s15, s8
 2196 0348 27EE237A 		vmul.f32	s14, s14, s7
 2197 034c D3ED003A 		vldr.32	s7, [r3]
 2198 0350 65EE245A 		vmul.f32	s11, s10, s9
 2199 0354 90ED006A 		vldr.32	s12, [r0]
 2200 0358 66EEA76A 		vmul.f32	s13, s13, s15
 2201 035c C2ED007A 		vstr.32	s15, [r2]
 2202 0360 26EE236A 		vmul.f32	s12, s12, s7
 2203 0364 81ED005A 		vstr.32	s10, [r1]
 2204 0368 77EE257A 		vadd.f32	s15, s14, s11
 2205 036c C4ED006A 		vstr.32	s13, [r4]
 2206 0370 77EEC67A 		vsub.f32	s15, s15, s12
 2207 0374 30EE270A 		vadd.f32	s0, s0, s15
 2208 0378 C3ED007A 		vstr.32	s15, [r3]
 2209 037c BDE8F08F 		pop	{r4, r5, r6, r7, r8, r9, r10, fp, pc}
 2210              	.L207:
 2211              		.align	2
 2212              	.L206:
 2213 0380 00000000 		.word	current_ptr
 2214 0384 00000000 		.word	prev_ptr
 2215 0388 00000000 		.word	dampingFactor
 2216 038c 00000000 		.word	alpha
 2217 0390 00000000 		.word	oropharynx
 2218 0394 00000000 		.word	fricationTap
 2219 0398 00000000 		.word	nasal
 2220 039c 00000000 		.word	radiationX.9
 2221 03a0 00000000 		.word	reflectionY.10
 2222 03a4 00000000 		.word	a10
 2223 03a8 00000000 		.word	b11
ARM GAS  /tmp/ccYdlVIk.s 			page 41


 2224 03ac 00000000 		.word	nasal_coeff
 2225 03b0 00000000 		.word	b21
 2226 03b4 00000000 		.word	a21
 2227 03b8 00000000 		.word	a20
 2228 03bc 00000000 		.word	radiationY.8
 2229 03c0 00000000 		.word	nasalReflectionY.7
 2230 03c4 00000000 		.word	na10
 2231 03c8 00000000 		.word	nb11
 2232 03cc 00000000 		.word	nasalRadiationX.6
 2233 03d0 00000000 		.word	na21
 2234 03d4 00000000 		.word	na20
 2235 03d8 00000000 		.word	nasalRadiationY.5
 2236 03dc 00000000 		.word	nb21
 2237 03e0 00000000 		.word	oropharynx_coeff
 2238              		.size	vocalTract, .-vocalTract
 2239              		.section	.text.throaty,"ax",%progbits
 2240              		.align	1
 2241              		.p2align 2,,3
 2242              		.global	throaty
 2243              		.syntax unified
 2244              		.thumb
 2245              		.thumb_func
 2246              		.type	throaty, %function
 2247              	throaty:
 2248              		@ args = 0, pretend = 0, frame = 0
 2249              		@ frame_needed = 0, uses_anonymous_args = 0
 2250              		@ link register save eliminated.
 2251 0000 0B4B     		ldr	r3, .L209
 2252 0002 0C49     		ldr	r1, .L209+4
 2253 0004 0C4A     		ldr	r2, .L209+8
 2254 0006 D3ED006A 		vldr.32	s13, [r3]
 2255 000a 92ED007A 		vldr.32	s14, [r2]
 2256 000e D1ED007A 		vldr.32	s15, [r1]
 2257 0012 20EE077A 		vmul.f32	s14, s0, s14
 2258 0016 094A     		ldr	r2, .L209+12
 2259 0018 67EEA67A 		vmul.f32	s15, s15, s13
 2260 001c 92ED000A 		vldr.32	s0, [r2]
 2261 0020 77EE877A 		vadd.f32	s15, s15, s14
 2262 0024 27EE800A 		vmul.f32	s0, s15, s0
 2263 0028 C3ED007A 		vstr.32	s15, [r3]
 2264 002c 7047     		bx	lr
 2265              	.L210:
 2266 002e 00BF     		.align	2
 2267              	.L209:
 2268 0030 00000000 		.word	throatY.4
 2269 0034 00000000 		.word	tb1
 2270 0038 00000000 		.word	ta0
 2271 003c 00000000 		.word	throatGain
 2272              		.size	throaty, .-throaty
 2273              		.section	.text.bandpassFilter,"ax",%progbits
 2274              		.align	1
 2275              		.p2align 2,,3
 2276              		.global	bandpassFilter
 2277              		.syntax unified
 2278              		.thumb
 2279              		.thumb_func
 2280              		.type	bandpassFilter, %function
ARM GAS  /tmp/ccYdlVIk.s 			page 42


 2281              	bandpassFilter:
 2282              		@ args = 0, pretend = 0, frame = 0
 2283              		@ frame_needed = 0, uses_anonymous_args = 0
 2284              		@ link register save eliminated.
 2285 0000 174A     		ldr	r2, .L213
 2286 0002 184B     		ldr	r3, .L213+4
 2287 0004 D2ED007A 		vldr.32	s15, [r2]
 2288 0008 1748     		ldr	r0, .L213+8
 2289 000a 1849     		ldr	r1, .L213+12
 2290 000c 70EE677A 		vsub.f32	s15, s0, s15
 2291 0010 90ED007A 		vldr.32	s14, [r0]
 2292 0014 93ED006A 		vldr.32	s12, [r3]
 2293 0018 D1ED006A 		vldr.32	s13, [r1]
 2294 001c 67EE877A 		vmul.f32	s15, s15, s14
 2295 0020 1348     		ldr	r0, .L213+16
 2296 0022 66EE266A 		vmul.f32	s13, s12, s13
 2297 0026 1349     		ldr	r1, .L213+20
 2298 0028 D0ED005A 		vldr.32	s11, [r0]
 2299 002c D1F800C0 		ldr	ip, [r1]	@ float
 2300 0030 10B4     		push	{r4}
 2301 0032 114C     		ldr	r4, .L213+24
 2302 0034 81ED000A 		vstr.32	s0, [r1]
 2303 0038 37EEA60A 		vadd.f32	s0, s15, s13
 2304 003c 94ED007A 		vldr.32	s14, [r4]
 2305 0040 80ED006A 		vstr.32	s12, [r0]
 2306 0044 67EE257A 		vmul.f32	s15, s14, s11
 2307 0048 5DF8044B 		ldr	r4, [sp], #4
 2308 004c C2F800C0 		str	ip, [r2]	@ float
 2309 0050 30EE670A 		vsub.f32	s0, s0, s15
 2310 0054 30EE000A 		vadd.f32	s0, s0, s0
 2311 0058 83ED000A 		vstr.32	s0, [r3]
 2312 005c 7047     		bx	lr
 2313              	.L214:
 2314 005e 00BF     		.align	2
 2315              	.L213:
 2316 0060 00000000 		.word	xn2.3
 2317 0064 00000000 		.word	yn1.2
 2318 0068 00000000 		.word	bpAlpha
 2319 006c 00000000 		.word	bpGamma
 2320 0070 00000000 		.word	yn2.1
 2321 0074 00000000 		.word	xn1.0
 2322 0078 00000000 		.word	bpBeta
 2323              		.size	bandpassFilter, .-bandpassFilter
 2324              		.section	.text.tube_get_sample_sing,"ax",%progbits
 2325              		.align	1
 2326              		.p2align 2,,3
 2327              		.global	tube_get_sample_sing
 2328              		.syntax unified
 2329              		.thumb
 2330              		.thumb_func
 2331              		.type	tube_get_sample_sing, %function
 2332              	tube_get_sample_sing:
 2333              		@ args = 0, pretend = 0, frame = 8
 2334              		@ frame_needed = 0, uses_anonymous_args = 0
 2335 0000 A74A     		ldr	r2, .L246+8
 2336 0002 A849     		ldr	r1, .L246+12
 2337 0004 1388     		ldrh	r3, [r2]
ARM GAS  /tmp/ccYdlVIk.s 			page 43


 2338 0006 0988     		ldrh	r1, [r1]
 2339 0008 581C     		adds	r0, r3, #1
 2340 000a 9942     		cmp	r1, r3
 2341 000c 10B5     		push	{r4, lr}
 2342 000e 2DED048B 		vpush.64	{d8, d9}
 2343 0012 1080     		strh	r0, [r2]	@ movhi
 2344 0014 82B0     		sub	sp, sp, #8
 2345 0016 40F22981 		bls	.L240
 2346              	.L216:
 2347 001a A349     		ldr	r1, .L246+16
 2348 001c A348     		ldr	r0, .L246+20
 2349 001e A44C     		ldr	r4, .L246+24
 2350 0020 A44A     		ldr	r2, .L246+28
 2351 0022 A54B     		ldr	r3, .L246+32
 2352 0024 0078     		ldrb	r0, [r0]	@ zero_extendqisi2
 2353 0026 0978     		ldrb	r1, [r1]	@ zero_extendqisi2
 2354 0028 93ED006A 		vldr.32	s12, [r3]
 2355 002c 2346     		mov	r3, r4
 2356 002e 52F82110 		ldr	r1, [r2, r1, lsl #2]
 2357 0032 52F82020 		ldr	r2, [r2, r0, lsl #2]
 2358 0036 04F14000 		add	r0, r4, #64
 2359              	.L217:
 2360 003a F1EC017A 		vldmia.32	r1!, {s15}
 2361 003e F2EC016A 		vldmia.32	r2!, {s13}
 2362 0042 93ED007A 		vldr.32	s14, [r3]
 2363 0046 77EEE67A 		vsub.f32	s15, s15, s13
 2364 004a 67EE867A 		vmul.f32	s15, s15, s12
 2365 004e 77EE877A 		vadd.f32	s15, s15, s14
 2366 0052 E3EC017A 		vstmia.32	r3!, {s15}
 2367 0056 9842     		cmp	r0, r3
 2368 0058 EFD1     		bne	.L217
 2369 005a 984B     		ldr	r3, .L246+36
 2370 005c DFED986A 		vldr.32	s13, .L246+40
 2371 0060 93ED007A 		vldr.32	s14, [r3]
 2372 0064 D4ED017A 		vldr.32	s15, [r4, #4]
 2373 0068 27EE267A 		vmul.f32	s14, s14, s13
 2374 006c DFED955A 		vldr.32	s11, .L246+44
 2375 0070 954A     		ldr	r2, .L246+48
 2376 0072 77EEE57A 		vsub.f32	s15, s15, s11
 2377 0076 DFED956A 		vldr.32	s13, .L246+52
 2378 007a BCEEC77A 		vcvt.u32.f32	s14, s14
 2379 007e 9FED946A 		vldr.32	s12, .L246+56
 2380 0082 9449     		ldr	r1, .L246+60
 2381 0084 F4EEE67A 		vcmpe.f32	s15, s13
 2382 0088 8DED017A 		vstr.32	s14, [sp, #4]	@ int
 2383 008c 9DF80430 		ldrb	r3, [sp, #4]	@ zero_extendqisi2
 2384 0090 7F2B     		cmp	r3, #127
 2385 0092 28BF     		it	cs
 2386 0094 7F23     		movcs	r3, #127
 2387 0096 F1EE10FA 		vmrs	APSR_nzcv, FPSCR
 2388 009a C3F17F03 		rsb	r3, r3, #127
 2389 009e DBB2     		uxtb	r3, r3
 2390 00a0 02EB8303 		add	r3, r2, r3, lsl #2
 2391 00a4 D3ED009A 		vldr.32	s19, [r3]
 2392 00a8 69EE869A 		vmul.f32	s19, s19, s12
 2393 00ac C1ED009A 		vstr.32	s19, [r1]
 2394 00b0 40F2D980 		bls	.L227
ARM GAS  /tmp/ccYdlVIk.s 			page 44


 2395 00b4 F5EEC07A 		vcmpe.f32	s15, #0
 2396 00b8 F1EE10FA 		vmrs	APSR_nzcv, FPSCR
 2397 00bc C0F2B980 		blt	.L241
 2398 00c0 F7EE008A 		vmov.f32	s17, #1.0e+0
 2399              	.L218:
 2400 00c4 D4ED027A 		vldr.32	s15, [r4, #8]
 2401 00c8 DFED7E6A 		vldr.32	s13, .L246+44
 2402 00cc 9FED7F7A 		vldr.32	s14, .L246+52
 2403 00d0 77EEE67A 		vsub.f32	s15, s15, s13
 2404 00d4 804B     		ldr	r3, .L246+64
 2405 00d6 C3ED008A 		vstr.32	s17, [r3]
 2406 00da F4EEC77A 		vcmpe.f32	s15, s14
 2407 00de F1EE10FA 		vmrs	APSR_nzcv, FPSCR
 2408 00e2 40F2BD80 		bls	.L229
 2409 00e6 F5EEC07A 		vcmpe.f32	s15, #0
 2410 00ea F1EE10FA 		vmrs	APSR_nzcv, FPSCR
 2411 00ee C0F2C580 		blt	.L242
 2412 00f2 B7EE008A 		vmov.f32	s16, #1.0e+0
 2413              	.L219:
 2414 00f6 794B     		ldr	r3, .L246+68
 2415 00f8 83ED008A 		vstr.32	s16, [r3]
 2416 00fc FFF7FEFF 		bl	calculateTubeCoefficients
 2417 0100 FFF7FEFF 		bl	setFricationTaps
 2418 0104 FFF7FEFF 		bl	calculateBandpassCoefficients
 2419 0108 754A     		ldr	r2, .L246+72
 2420 010a DFED766A 		vldr.32	s13, .L246+76
 2421 010e B6EE007A 		vmov.f32	s14, #5.0e-1
 2422 0112 D2ED007A 		vldr.32	s15, [r2]
 2423 0116 744B     		ldr	r3, .L246+80
 2424 0118 67EEA67A 		vmul.f32	s15, s15, s13
 2425 011c 7349     		ldr	r1, .L246+84
 2426 011e 93ED005A 		vldr.32	s10, [r3]
 2427 0122 0978     		ldrb	r1, [r1]	@ zero_extendqisi2
 2428 0124 FDEEE76A 		vcvt.s32.f32	s13, s15
 2429 0128 F8EEE66A 		vcvt.f32.s32	s13, s13
 2430 012c 77EEE67A 		vsub.f32	s15, s15, s13
 2431 0130 37EEC77A 		vsub.f32	s14, s15, s14
 2432 0134 C2ED007A 		vstr.32	s15, [r2]
 2433 0138 37EE059A 		vadd.f32	s18, s14, s10
 2434 013c 83ED007A 		vstr.32	s14, [r3]
 2435 0140 0029     		cmp	r1, #0
 2436 0142 00F09680 		beq	.L243
 2437              	.L220:
 2438 0146 B0EE690A 		vmov.f32	s0, s19
 2439 014a FFF7FEFF 		bl	oscillator
 2440 014e 684B     		ldr	r3, .L246+88
 2441 0150 60EE096A 		vmul.f32	s13, s0, s18
 2442 0154 DFED677A 		vldr.32	s15, .L246+92
 2443 0158 93ED007A 		vldr.32	s14, [r3]
 2444 015c B7EE004B 		vmov.f64	d4, #1.0e+0
 2445 0160 B7EEE83A 		vcvt.f64.f32	d3, s17
 2446 0164 B7EEC72A 		vcvt.f64.f32	d2, s14
 2447 0168 27EE267A 		vmul.f32	s14, s14, s13
 2448 016c 68EEA78A 		vmul.f32	s17, s17, s15
 2449 0170 34EE422B 		vsub.f64	d2, d4, d2
 2450 0174 B7EEC00A 		vcvt.f64.f32	d0, s0
 2451 0178 B7EEC77A 		vcvt.f64.f32	d7, s14
ARM GAS  /tmp/ccYdlVIk.s 			page 45


 2452 017c B7EE006A 		vmov.f32	s12, #1.0e+0
 2453 0180 02EE007B 		vmla.f64	d7, d2, d0
 2454 0184 F4EEC68A 		vcmpe.f32	s17, s12
 2455 0188 F1EE10FA 		vmrs	APSR_nzcv, FPSCR
 2456 018c 27EE037B 		vmul.f64	d7, d7, d3
 2457 0190 F7EEC72B 		vcvt.f32.f64	s5, d7
 2458 0194 5DD4     		bmi	.L244
 2459 0196 9FED404B 		vldr.64	d4, .L246
 2460              	.L221:
 2461 019a B7EEE67A 		vcvt.f64.f32	d7, s13
 2462 019e B7EEC99A 		vcvt.f64.f32	d9, s18
 2463 01a2 09EE047B 		vmla.f64	d7, d9, d4
 2464 01a6 B7EEC70B 		vcvt.f32.f64	s0, d7
 2465 01aa 20EE088A 		vmul.f32	s16, s0, s16
 2466 01ae FFF7FEFF 		bl	bandpassFilter
 2467 01b2 F0EE400A 		vmov.f32	s1, s0
 2468 01b6 38EE228A 		vadd.f32	s16, s16, s5
 2469 01ba B0EE480A 		vmov.f32	s0, s16
 2470 01be FFF7FEFF 		bl	vocalTract
 2471 01c2 4D4B     		ldr	r3, .L246+96
 2472 01c4 4D48     		ldr	r0, .L246+100
 2473 01c6 4E49     		ldr	r1, .L246+104
 2474 01c8 D3ED006A 		vldr.32	s13, [r3]
 2475 01cc 90ED007A 		vldr.32	s14, [r0]
 2476 01d0 91ED006A 		vldr.32	s12, [r1]
 2477 01d4 67EE266A 		vmul.f32	s13, s14, s13
 2478 01d8 4A4A     		ldr	r2, .L246+108
 2479 01da 22EE867A 		vmul.f32	s14, s5, s12
 2480 01de D2ED007A 		vldr.32	s15, [r2]
 2481 01e2 494A     		ldr	r2, .L246+112
 2482 01e4 36EE877A 		vadd.f32	s14, s13, s14
 2483 01e8 92ED006A 		vldr.32	s12, [r2]
 2484 01ec 67EE277A 		vmul.f32	s15, s14, s15
 2485 01f0 83ED007A 		vstr.32	s14, [r3]
 2486 01f4 37EE800A 		vadd.f32	s0, s15, s0
 2487 01f8 F0EEC07A 		vabs.f32	s15, s0
 2488 01fc B4EEE76A 		vcmpe.f32	s12, s15
 2489 0200 F1EE10FA 		vmrs	APSR_nzcv, FPSCR
 2490 0204 03D5     		bpl	.L223
 2491 0206 B0EE676A 		vmov.f32	s12, s15
 2492 020a C2ED007A 		vstr.32	s15, [r2]
 2493              	.L223:
 2494 020e B5EEC06A 		vcmpe.f32	s12, #0
 2495 0212 F1EE10FA 		vmrs	APSR_nzcv, FPSCR
 2496 0216 17DC     		bgt	.L245
 2497 0218 DFED3C7A 		vldr.32	s15, .L246+116
 2498              	.L225:
 2499 021c 67EE807A 		vmul.f32	s15, s15, s0
 2500 0220 FDEEE77A 		vcvt.s32.f32	s15, s15
 2501 0224 17EE903A 		vmov	r3, s15	@ int
 2502 0228 18B2     		sxth	r0, r3
 2503 022a 02B0     		add	sp, sp, #8
 2504              		@ sp needed
 2505 022c BDEC048B 		vldm	sp!, {d8-d9}
 2506 0230 10BD     		pop	{r4, pc}
 2507              	.L241:
 2508 0232 F3EE040A 		vmov.f32	s1, #2.0e+1
ARM GAS  /tmp/ccYdlVIk.s 			page 46


 2509 0236 B2EE040A 		vmov.f32	s0, #1.0e+1
 2510 023a C7EEA00A 		vdiv.f32	s1, s15, s1
 2511 023e FFF7FEFF 		bl	powf
 2512 0242 F0EE408A 		vmov.f32	s17, s0
 2513 0246 3DE7     		b	.L218
 2514              	.L245:
 2515 0248 9FED317A 		vldr.32	s14, .L246+120
 2516 024c C7EE067A 		vdiv.f32	s15, s14, s12
 2517 0250 E4E7     		b	.L225
 2518              	.L244:
 2519 0252 B7EEE87A 		vcvt.f64.f32	d7, s17
 2520 0256 66EEA86A 		vmul.f32	s13, s13, s17
 2521 025a 34EE474B 		vsub.f64	d4, d4, d7
 2522 025e 9CE7     		b	.L221
 2523              	.L229:
 2524 0260 9FED2C8A 		vldr.32	s16, .L246+124
 2525 0264 47E7     		b	.L219
 2526              	.L227:
 2527 0266 DFED2B8A 		vldr.32	s17, .L246+124
 2528 026a 2BE7     		b	.L218
 2529              	.L240:
 2530 026c FFF7FEFF 		bl	tube_newsay_sing
 2531 0270 D3E6     		b	.L216
 2532              	.L243:
 2533 0272 B0EE680A 		vmov.f32	s0, s17
 2534 0276 FFF7FEFF 		bl	updateWavetable
 2535 027a 64E7     		b	.L220
 2536              	.L242:
 2537 027c F3EE040A 		vmov.f32	s1, #2.0e+1
 2538 0280 B2EE040A 		vmov.f32	s0, #1.0e+1
 2539 0284 C7EEA00A 		vdiv.f32	s1, s15, s1
 2540 0288 FFF7FEFF 		bl	powf
 2541 028c B0EE408A 		vmov.f32	s16, s0
 2542 0290 31E7     		b	.L219
 2543              	.L247:
 2544 0292 00BFAFF3 		.align	3
 2544      0080
 2545              	.L246:
 2546 0298 00000000 		.word	0
 2547 029c 00000000 		.word	0
 2548 02a0 00000000 		.word	sample_count
 2549 02a4 00000000 		.word	lengthy
 2550 02a8 00000000 		.word	sel
 2551 02ac 00000000 		.word	lastsel
 2552 02b0 00000000 		.word	input_frame
 2553 02b4 00000000 		.word	vocablist_posture
 2554 02b8 00000000 		.word	interpol
 2555 02bc 00000000 		.word	_selx
 2556 02c0 00000243 		.word	1124204544
 2557 02c4 00007042 		.word	1114636288
 2558 02c8 00000000 		.word	logpitch
 2559 02cc 000070C2 		.word	-1032847360
 2560 02d0 0000DC43 		.word	1138491392
 2561 02d4 00000000 		.word	f0
 2562 02d8 00000000 		.word	ax
 2563 02dc 00000000 		.word	ah1
 2564 02e0 00000000 		.word	seed.12
ARM GAS  /tmp/ccYdlVIk.s 			page 47


 2565 02e4 0080BC43 		.word	1136427008
 2566 02e8 00000000 		.word	noiseX.11
 2567 02ec 00000000 		.word	pulsed
 2568 02f0 00000000 		.word	breathinessFactor
 2569 02f4 52B87E40 		.word	1082046546
 2570 02f8 00000000 		.word	throatY.4
 2571 02fc 00000000 		.word	tb1
 2572 0300 00000000 		.word	ta0
 2573 0304 00000000 		.word	throatGain
 2574 0308 00000000 		.word	maximumSampleValue
 2575 030c 0000C842 		.word	1120403456
 2576 0310 00FEFF46 		.word	1191181824
 2577 0314 00000000 		.word	0
 2578              		.size	tube_get_sample_sing, .-tube_get_sample_sing
 2579              		.section	.text.tube_get_sample_xy,"ax",%progbits
 2580              		.align	1
 2581              		.p2align 2,,3
 2582              		.global	tube_get_sample_xy
 2583              		.syntax unified
 2584              		.thumb
 2585              		.thumb_func
 2586              		.type	tube_get_sample_xy, %function
 2587              	tube_get_sample_xy:
 2588              		@ args = 0, pretend = 0, frame = 8
 2589              		@ frame_needed = 0, uses_anonymous_args = 0
 2590 0000 AF4A     		ldr	r2, .L279+8
 2591 0002 B049     		ldr	r1, .L279+12
 2592 0004 1388     		ldrh	r3, [r2]
 2593 0006 0988     		ldrh	r1, [r1]
 2594 0008 581C     		adds	r0, r3, #1
 2595 000a 9942     		cmp	r1, r3
 2596 000c 30B5     		push	{r4, r5, lr}
 2597 000e 2DED048B 		vpush.64	{d8, d9}
 2598 0012 1080     		strh	r0, [r2]	@ movhi
 2599 0014 83B0     		sub	sp, sp, #12
 2600 0016 40F23981 		bls	.L273
 2601              	.L249:
 2602 001a AB49     		ldr	r1, .L279+16
 2603 001c AB48     		ldr	r0, .L279+20
 2604 001e AC4D     		ldr	r5, .L279+24
 2605 0020 AC4A     		ldr	r2, .L279+28
 2606 0022 AD4B     		ldr	r3, .L279+32
 2607 0024 0078     		ldrb	r0, [r0]	@ zero_extendqisi2
 2608 0026 0978     		ldrb	r1, [r1]	@ zero_extendqisi2
 2609 0028 93ED006A 		vldr.32	s12, [r3]
 2610 002c 2B46     		mov	r3, r5
 2611 002e 52F82110 		ldr	r1, [r2, r1, lsl #2]
 2612 0032 52F82020 		ldr	r2, [r2, r0, lsl #2]
 2613 0036 05F14000 		add	r0, r5, #64
 2614              	.L250:
 2615 003a F1EC017A 		vldmia.32	r1!, {s15}
 2616 003e F2EC016A 		vldmia.32	r2!, {s13}
 2617 0042 93ED007A 		vldr.32	s14, [r3]
 2618 0046 77EEE67A 		vsub.f32	s15, s15, s13
 2619 004a 67EE867A 		vmul.f32	s15, s15, s12
 2620 004e 77EE877A 		vadd.f32	s15, s15, s14
 2621 0052 E3EC017A 		vstmia.32	r3!, {s15}
ARM GAS  /tmp/ccYdlVIk.s 			page 48


 2622 0056 9842     		cmp	r0, r3
 2623 0058 EFD1     		bne	.L250
 2624 005a A04B     		ldr	r3, .L279+36
 2625 005c F0EE086A 		vmov.f32	s13, #3.0e+0
 2626 0060 9FED9F6A 		vldr.32	s12, .L279+40
 2627 0064 F2EE080A 		vmov.f32	s1, #1.2e+1
 2628 0068 93ED047A 		vldr.32	s14, [r3, #16]
 2629 006c B0EE000A 		vmov.f32	s0, #2.0e+0
 2630 0070 D5ED007A 		vldr.32	s15, [r5]
 2631 0074 27EE067A 		vmul.f32	s14, s14, s12
 2632 0078 77EEA67A 		vadd.f32	s15, s15, s13
 2633 007c BCEEC77A 		vcvt.u32.f32	s14, s14
 2634 0080 C7EEA00A 		vdiv.f32	s1, s15, s1
 2635 0084 8DED017A 		vstr.32	s14, [sp, #4]	@ int
 2636 0088 9DF80440 		ldrb	r4, [sp, #4]	@ zero_extendqisi2
 2637 008c 7F2C     		cmp	r4, #127
 2638 008e 28BF     		it	cs
 2639 0090 7F24     		movcs	r4, #127
 2640 0092 FFF7FEFF 		bl	powf
 2641 0096 9FED937A 		vldr.32	s14, .L279+44
 2642 009a C4F17F04 		rsb	r4, r4, #127
 2643 009e D5ED017A 		vldr.32	s15, [r5, #4]
 2644 00a2 20EE079A 		vmul.f32	s18, s0, s14
 2645 00a6 9FED907A 		vldr.32	s14, .L279+48
 2646 00aa 904B     		ldr	r3, .L279+52
 2647 00ac E4B2     		uxtb	r4, r4
 2648 00ae 77EEC77A 		vsub.f32	s15, s15, s14
 2649 00b2 9FED8F7A 		vldr.32	s14, .L279+56
 2650 00b6 03EB8403 		add	r3, r3, r4, lsl #2
 2651 00ba 8E4A     		ldr	r2, .L279+60
 2652 00bc F4EEC77A 		vcmpe.f32	s15, s14
 2653 00c0 D3ED006A 		vldr.32	s13, [r3]
 2654 00c4 29EE269A 		vmul.f32	s18, s18, s13
 2655 00c8 F1EE10FA 		vmrs	APSR_nzcv, FPSCR
 2656 00cc 82ED009A 		vstr.32	s18, [r2]
 2657 00d0 40F2D980 		bls	.L260
 2658 00d4 F5EEC07A 		vcmpe.f32	s15, #0
 2659 00d8 F1EE10FA 		vmrs	APSR_nzcv, FPSCR
 2660 00dc C0F2B980 		blt	.L274
 2661 00e0 F7EE008A 		vmov.f32	s17, #1.0e+0
 2662              	.L251:
 2663 00e4 D5ED027A 		vldr.32	s15, [r5, #8]
 2664 00e8 DFED7F6A 		vldr.32	s13, .L279+48
 2665 00ec 9FED807A 		vldr.32	s14, .L279+56
 2666 00f0 77EEE67A 		vsub.f32	s15, s15, s13
 2667 00f4 804B     		ldr	r3, .L279+64
 2668 00f6 C3ED008A 		vstr.32	s17, [r3]
 2669 00fa F4EEC77A 		vcmpe.f32	s15, s14
 2670 00fe F1EE10FA 		vmrs	APSR_nzcv, FPSCR
 2671 0102 40F2BD80 		bls	.L262
 2672 0106 F5EEC07A 		vcmpe.f32	s15, #0
 2673 010a F1EE10FA 		vmrs	APSR_nzcv, FPSCR
 2674 010e C0F2C580 		blt	.L275
 2675 0112 B7EE008A 		vmov.f32	s16, #1.0e+0
 2676              	.L252:
 2677 0116 794B     		ldr	r3, .L279+68
 2678 0118 83ED008A 		vstr.32	s16, [r3]
ARM GAS  /tmp/ccYdlVIk.s 			page 49


 2679 011c FFF7FEFF 		bl	calculateTubeCoefficients
 2680 0120 FFF7FEFF 		bl	setFricationTaps
 2681 0124 FFF7FEFF 		bl	calculateBandpassCoefficients
 2682 0128 754A     		ldr	r2, .L279+72
 2683 012a DFED766A 		vldr.32	s13, .L279+76
 2684 012e B6EE007A 		vmov.f32	s14, #5.0e-1
 2685 0132 D2ED007A 		vldr.32	s15, [r2]
 2686 0136 744B     		ldr	r3, .L279+80
 2687 0138 67EEA67A 		vmul.f32	s15, s15, s13
 2688 013c 7349     		ldr	r1, .L279+84
 2689 013e 93ED005A 		vldr.32	s10, [r3]
 2690 0142 0978     		ldrb	r1, [r1]	@ zero_extendqisi2
 2691 0144 FDEEE76A 		vcvt.s32.f32	s13, s15
 2692 0148 F8EEE66A 		vcvt.f32.s32	s13, s13
 2693 014c 77EEE67A 		vsub.f32	s15, s15, s13
 2694 0150 37EEC77A 		vsub.f32	s14, s15, s14
 2695 0154 C2ED007A 		vstr.32	s15, [r2]
 2696 0158 77EE059A 		vadd.f32	s19, s14, s10
 2697 015c 83ED007A 		vstr.32	s14, [r3]
 2698 0160 0029     		cmp	r1, #0
 2699 0162 00F09680 		beq	.L276
 2700              	.L253:
 2701 0166 B0EE490A 		vmov.f32	s0, s18
 2702 016a FFF7FEFF 		bl	oscillator
 2703 016e 684B     		ldr	r3, .L279+88
 2704 0170 60EE296A 		vmul.f32	s13, s0, s19
 2705 0174 DFED677A 		vldr.32	s15, .L279+92
 2706 0178 93ED007A 		vldr.32	s14, [r3]
 2707 017c B7EE004B 		vmov.f64	d4, #1.0e+0
 2708 0180 B7EEE83A 		vcvt.f64.f32	d3, s17
 2709 0184 B7EEC72A 		vcvt.f64.f32	d2, s14
 2710 0188 27EE267A 		vmul.f32	s14, s14, s13
 2711 018c 68EEA78A 		vmul.f32	s17, s17, s15
 2712 0190 34EE422B 		vsub.f64	d2, d4, d2
 2713 0194 B7EEC00A 		vcvt.f64.f32	d0, s0
 2714 0198 B7EEC77A 		vcvt.f64.f32	d7, s14
 2715 019c B7EE006A 		vmov.f32	s12, #1.0e+0
 2716 01a0 02EE007B 		vmla.f64	d7, d2, d0
 2717 01a4 F4EEC68A 		vcmpe.f32	s17, s12
 2718 01a8 F1EE10FA 		vmrs	APSR_nzcv, FPSCR
 2719 01ac 27EE037B 		vmul.f64	d7, d7, d3
 2720 01b0 F7EEC72B 		vcvt.f32.f64	s5, d7
 2721 01b4 5DD4     		bmi	.L277
 2722 01b6 9FED404B 		vldr.64	d4, .L279
 2723              	.L254:
 2724 01ba B7EEE67A 		vcvt.f64.f32	d7, s13
 2725 01be B7EEE95A 		vcvt.f64.f32	d5, s19
 2726 01c2 05EE047B 		vmla.f64	d7, d5, d4
 2727 01c6 B7EEC70B 		vcvt.f32.f64	s0, d7
 2728 01ca 20EE088A 		vmul.f32	s16, s0, s16
 2729 01ce FFF7FEFF 		bl	bandpassFilter
 2730 01d2 F0EE400A 		vmov.f32	s1, s0
 2731 01d6 38EE228A 		vadd.f32	s16, s16, s5
 2732 01da B0EE480A 		vmov.f32	s0, s16
 2733 01de FFF7FEFF 		bl	vocalTract
 2734 01e2 4D4B     		ldr	r3, .L279+96
 2735 01e4 4D48     		ldr	r0, .L279+100
ARM GAS  /tmp/ccYdlVIk.s 			page 50


 2736 01e6 4E49     		ldr	r1, .L279+104
 2737 01e8 D3ED006A 		vldr.32	s13, [r3]
 2738 01ec 90ED007A 		vldr.32	s14, [r0]
 2739 01f0 91ED006A 		vldr.32	s12, [r1]
 2740 01f4 67EE266A 		vmul.f32	s13, s14, s13
 2741 01f8 4A4A     		ldr	r2, .L279+108
 2742 01fa 22EE867A 		vmul.f32	s14, s5, s12
 2743 01fe D2ED007A 		vldr.32	s15, [r2]
 2744 0202 494A     		ldr	r2, .L279+112
 2745 0204 36EE877A 		vadd.f32	s14, s13, s14
 2746 0208 92ED006A 		vldr.32	s12, [r2]
 2747 020c 67EE277A 		vmul.f32	s15, s14, s15
 2748 0210 83ED007A 		vstr.32	s14, [r3]
 2749 0214 37EE800A 		vadd.f32	s0, s15, s0
 2750 0218 F0EEC07A 		vabs.f32	s15, s0
 2751 021c B4EEE76A 		vcmpe.f32	s12, s15
 2752 0220 F1EE10FA 		vmrs	APSR_nzcv, FPSCR
 2753 0224 03D5     		bpl	.L256
 2754 0226 B0EE676A 		vmov.f32	s12, s15
 2755 022a C2ED007A 		vstr.32	s15, [r2]
 2756              	.L256:
 2757 022e B5EEC06A 		vcmpe.f32	s12, #0
 2758 0232 F1EE10FA 		vmrs	APSR_nzcv, FPSCR
 2759 0236 17DC     		bgt	.L278
 2760 0238 DFED3C7A 		vldr.32	s15, .L279+116
 2761              	.L258:
 2762 023c 67EE807A 		vmul.f32	s15, s15, s0
 2763 0240 FDEEE77A 		vcvt.s32.f32	s15, s15
 2764 0244 17EE903A 		vmov	r3, s15	@ int
 2765 0248 18B2     		sxth	r0, r3
 2766 024a 03B0     		add	sp, sp, #12
 2767              		@ sp needed
 2768 024c BDEC048B 		vldm	sp!, {d8-d9}
 2769 0250 30BD     		pop	{r4, r5, pc}
 2770              	.L274:
 2771 0252 F3EE040A 		vmov.f32	s1, #2.0e+1
 2772 0256 B2EE040A 		vmov.f32	s0, #1.0e+1
 2773 025a C7EEA00A 		vdiv.f32	s1, s15, s1
 2774 025e FFF7FEFF 		bl	powf
 2775 0262 F0EE408A 		vmov.f32	s17, s0
 2776 0266 3DE7     		b	.L251
 2777              	.L278:
 2778 0268 9FED317A 		vldr.32	s14, .L279+120
 2779 026c C7EE067A 		vdiv.f32	s15, s14, s12
 2780 0270 E4E7     		b	.L258
 2781              	.L277:
 2782 0272 B7EEE87A 		vcvt.f64.f32	d7, s17
 2783 0276 66EEA86A 		vmul.f32	s13, s13, s17
 2784 027a 34EE474B 		vsub.f64	d4, d4, d7
 2785 027e 9CE7     		b	.L254
 2786              	.L262:
 2787 0280 9FED2C8A 		vldr.32	s16, .L279+124
 2788 0284 47E7     		b	.L252
 2789              	.L260:
 2790 0286 DFED2B8A 		vldr.32	s17, .L279+124
 2791 028a 2BE7     		b	.L251
 2792              	.L273:
ARM GAS  /tmp/ccYdlVIk.s 			page 51


 2793 028c FFF7FEFF 		bl	tube_newsay_xy
 2794 0290 C3E6     		b	.L249
 2795              	.L276:
 2796 0292 B0EE680A 		vmov.f32	s0, s17
 2797 0296 FFF7FEFF 		bl	updateWavetable
 2798 029a 64E7     		b	.L253
 2799              	.L275:
 2800 029c F3EE040A 		vmov.f32	s1, #2.0e+1
 2801 02a0 B2EE040A 		vmov.f32	s0, #1.0e+1
 2802 02a4 C7EEA00A 		vdiv.f32	s1, s15, s1
 2803 02a8 FFF7FEFF 		bl	powf
 2804 02ac B0EE408A 		vmov.f32	s16, s0
 2805 02b0 31E7     		b	.L252
 2806              	.L280:
 2807 02b2 00BFAFF3 		.align	3
 2807      0080
 2808              	.L279:
 2809 02b8 00000000 		.word	0
 2810 02bc 00000000 		.word	0
 2811 02c0 00000000 		.word	sample_count
 2812 02c4 00000000 		.word	lengthy
 2813 02c8 00000000 		.word	sel
 2814 02cc 00000000 		.word	lastsel
 2815 02d0 00000000 		.word	input_frame
 2816 02d4 00000000 		.word	vocablist_posture
 2817 02d8 00000000 		.word	interpol
 2818 02dc 00000000 		.word	exy
 2819 02e0 00000243 		.word	1124204544
 2820 02e4 0000DC43 		.word	1138491392
 2821 02e8 00007042 		.word	1114636288
 2822 02ec 00000000 		.word	logpitch
 2823 02f0 000070C2 		.word	-1032847360
 2824 02f4 00000000 		.word	f0
 2825 02f8 00000000 		.word	ax
 2826 02fc 00000000 		.word	ah1
 2827 0300 00000000 		.word	seed.12
 2828 0304 0080BC43 		.word	1136427008
 2829 0308 00000000 		.word	noiseX.11
 2830 030c 00000000 		.word	pulsed
 2831 0310 00000000 		.word	breathinessFactor
 2832 0314 52B87E40 		.word	1082046546
 2833 0318 00000000 		.word	throatY.4
 2834 031c 00000000 		.word	tb1
 2835 0320 00000000 		.word	ta0
 2836 0324 00000000 		.word	throatGain
 2837 0328 00000000 		.word	maximumSampleValue
 2838 032c 0000C842 		.word	1120403456
 2839 0330 00FEFF46 		.word	1191181824
 2840 0334 00000000 		.word	0
 2841              		.size	tube_get_sample_xy, .-tube_get_sample_xy
 2842              		.section	.text.tube_get_sample_bend,"ax",%progbits
 2843              		.align	1
 2844              		.p2align 2,,3
 2845              		.global	tube_get_sample_bend
 2846              		.syntax unified
 2847              		.thumb
 2848              		.thumb_func
ARM GAS  /tmp/ccYdlVIk.s 			page 52


 2849              		.type	tube_get_sample_bend, %function
 2850              	tube_get_sample_bend:
 2851              		@ args = 0, pretend = 0, frame = 0
 2852              		@ frame_needed = 0, uses_anonymous_args = 0
 2853 0000 A74A     		ldr	r2, .L312+8
 2854 0002 A849     		ldr	r1, .L312+12
 2855 0004 38B5     		push	{r3, r4, r5, lr}
 2856 0006 0988     		ldrh	r1, [r1]
 2857 0008 1388     		ldrh	r3, [r2]
 2858 000a 581C     		adds	r0, r3, #1
 2859 000c 9942     		cmp	r1, r3
 2860 000e 2DED048B 		vpush.64	{d8, d9}
 2861 0012 1080     		strh	r0, [r2]	@ movhi
 2862 0014 40F23681 		bls	.L306
 2863              	.L282:
 2864 0018 A349     		ldr	r1, .L312+16
 2865 001a B7EE006A 		vmov.f32	s12, #1.0e+0
 2866 001e A34A     		ldr	r2, .L312+20
 2867 0020 0878     		ldrb	r0, [r1]	@ zero_extendqisi2
 2868 0022 A34B     		ldr	r3, .L312+24
 2869 0024 A34C     		ldr	r4, .L312+28
 2870 0026 52F82020 		ldr	r2, [r2, r0, lsl #2]
 2871 002a 03F14000 		add	r0, r3, #64
 2872 002e 2146     		mov	r1, r4
 2873 0030 DFEDA16A 		vldr.32	s13, .L312+32
 2874              	.L283:
 2875 0034 F3EC017A 		vldmia.32	r3!, {s15}
 2876 0038 B2EC017A 		vldmia.32	r2!, {s14}
 2877 003c 76EE677A 		vsub.f32	s15, s12, s15
 2878 0040 9842     		cmp	r0, r3
 2879 0042 67EE877A 		vmul.f32	s15, s15, s14
 2880 0046 67EEA67A 		vmul.f32	s15, s15, s13
 2881 004a E1EC017A 		vstmia.32	r1!, {s15}
 2882 004e F1D1     		bne	.L283
 2883 0050 9A4B     		ldr	r3, .L312+36
 2884 0052 B2EE048A 		vmov.f32	s16, #1.0e+1
 2885 0056 B0EE086A 		vmov.f32	s12, #3.0e+0
 2886 005a 94ED007A 		vldr.32	s14, [r4]
 2887 005e D3ED117A 		vldr.32	s15, [r3, #68]
 2888 0062 F2EE080A 		vmov.f32	s1, #1.2e+1
 2889 0066 DFED968A 		vldr.32	s17, .L312+40
 2890 006a B0EE000A 		vmov.f32	s0, #2.0e+0
 2891 006e 67EE887A 		vmul.f32	s15, s15, s16
 2892 0072 DFED946A 		vldr.32	s13, .L312+44
 2893 0076 37EE067A 		vadd.f32	s14, s14, s12
 2894 007a 934D     		ldr	r5, .L312+48
 2895 007c 77EEA87A 		vadd.f32	s15, s15, s17
 2896 0080 C7EE200A 		vdiv.f32	s1, s14, s1
 2897 0084 87EEA67A 		vdiv.f32	s14, s15, s13
 2898 0088 85ED007A 		vstr.32	s14, [r5]
 2899 008c FFF7FEFF 		bl	powf
 2900 0090 9FED8E7A 		vldr.32	s14, .L312+52
 2901 0094 D4ED017A 		vldr.32	s15, [r4, #4]
 2902 0098 DFED8D6A 		vldr.32	s13, .L312+56
 2903 009c 77EEC77A 		vsub.f32	s15, s15, s14
 2904 00a0 9FED8C7A 		vldr.32	s14, .L312+60
 2905 00a4 60EE269A 		vmul.f32	s19, s0, s13
ARM GAS  /tmp/ccYdlVIk.s 			page 53


 2906 00a8 8B4B     		ldr	r3, .L312+64
 2907 00aa F4EEC77A 		vcmpe.f32	s15, s14
 2908 00ae C3ED009A 		vstr.32	s19, [r3]
 2909 00b2 F1EE10FA 		vmrs	APSR_nzcv, FPSCR
 2910 00b6 07D9     		bls	.L284
 2911 00b8 F4EEE87A 		vcmpe.f32	s15, s17
 2912 00bc F1EE10FA 		vmrs	APSR_nzcv, FPSCR
 2913 00c0 C0F2C280 		blt	.L307
 2914 00c4 F7EE008A 		vmov.f32	s17, #1.0e+0
 2915              	.L284:
 2916 00c8 D4ED027A 		vldr.32	s15, [r4, #8]
 2917 00cc DFED7F6A 		vldr.32	s13, .L312+52
 2918 00d0 9FED807A 		vldr.32	s14, .L312+60
 2919 00d4 77EEE67A 		vsub.f32	s15, s15, s13
 2920 00d8 804B     		ldr	r3, .L312+68
 2921 00da C3ED008A 		vstr.32	s17, [r3]
 2922 00de F4EEC77A 		vcmpe.f32	s15, s14
 2923 00e2 F1EE10FA 		vmrs	APSR_nzcv, FPSCR
 2924 00e6 40F2CA80 		bls	.L295
 2925 00ea F5EEC07A 		vcmpe.f32	s15, #0
 2926 00ee F1EE10FA 		vmrs	APSR_nzcv, FPSCR
 2927 00f2 C0F29E80 		blt	.L308
 2928 00f6 B7EE008A 		vmov.f32	s16, #1.0e+0
 2929              	.L285:
 2930 00fa 794B     		ldr	r3, .L312+72
 2931 00fc 83ED008A 		vstr.32	s16, [r3]
 2932 0100 FFF7FEFF 		bl	calculateTubeCoefficients
 2933 0104 FFF7FEFF 		bl	setFricationTaps
 2934 0108 FFF7FEFF 		bl	calculateBandpassCoefficients
 2935 010c 754A     		ldr	r2, .L312+76
 2936 010e DFED766A 		vldr.32	s13, .L312+80
 2937 0112 B6EE007A 		vmov.f32	s14, #5.0e-1
 2938 0116 D2ED007A 		vldr.32	s15, [r2]
 2939 011a 744B     		ldr	r3, .L312+84
 2940 011c 67EEA67A 		vmul.f32	s15, s15, s13
 2941 0120 7349     		ldr	r1, .L312+88
 2942 0122 93ED005A 		vldr.32	s10, [r3]
 2943 0126 0978     		ldrb	r1, [r1]	@ zero_extendqisi2
 2944 0128 FDEEE76A 		vcvt.s32.f32	s13, s15
 2945 012c F8EEE66A 		vcvt.f32.s32	s13, s13
 2946 0130 77EEE67A 		vsub.f32	s15, s15, s13
 2947 0134 37EEC77A 		vsub.f32	s14, s15, s14
 2948 0138 C2ED007A 		vstr.32	s15, [r2]
 2949 013c 37EE059A 		vadd.f32	s18, s14, s10
 2950 0140 83ED007A 		vstr.32	s14, [r3]
 2951 0144 0029     		cmp	r1, #0
 2952 0146 00F0A080 		beq	.L309
 2953              	.L286:
 2954 014a B0EE690A 		vmov.f32	s0, s19
 2955 014e FFF7FEFF 		bl	oscillator
 2956 0152 60EE096A 		vmul.f32	s13, s0, s18
 2957 0156 95ED007A 		vldr.32	s14, [r5]
 2958 015a B7EE004B 		vmov.f64	d4, #1.0e+0
 2959 015e DFED657A 		vldr.32	s15, .L312+92
 2960 0162 B7EEE83A 		vcvt.f64.f32	d3, s17
 2961 0166 B7EEC72A 		vcvt.f64.f32	d2, s14
 2962 016a 27EE267A 		vmul.f32	s14, s14, s13
ARM GAS  /tmp/ccYdlVIk.s 			page 54


 2963 016e 68EEA78A 		vmul.f32	s17, s17, s15
 2964 0172 34EE422B 		vsub.f64	d2, d4, d2
 2965 0176 B7EEC00A 		vcvt.f64.f32	d0, s0
 2966 017a B7EEC77A 		vcvt.f64.f32	d7, s14
 2967 017e B7EE006A 		vmov.f32	s12, #1.0e+0
 2968 0182 02EE007B 		vmla.f64	d7, d2, d0
 2969 0186 F4EEC68A 		vcmpe.f32	s17, s12
 2970 018a F1EE10FA 		vmrs	APSR_nzcv, FPSCR
 2971 018e 27EE037B 		vmul.f64	d7, d7, d3
 2972 0192 F7EEC72B 		vcvt.f32.f64	s5, d7
 2973 0196 6BD4     		bmi	.L310
 2974 0198 9FED3F4B 		vldr.64	d4, .L312
 2975              	.L287:
 2976 019c B7EEE67A 		vcvt.f64.f32	d7, s13
 2977 01a0 B7EEC99A 		vcvt.f64.f32	d9, s18
 2978 01a4 09EE047B 		vmla.f64	d7, d9, d4
 2979 01a8 B7EEC70B 		vcvt.f32.f64	s0, d7
 2980 01ac 20EE088A 		vmul.f32	s16, s0, s16
 2981 01b0 FFF7FEFF 		bl	bandpassFilter
 2982 01b4 F0EE400A 		vmov.f32	s1, s0
 2983 01b8 38EE228A 		vadd.f32	s16, s16, s5
 2984 01bc B0EE480A 		vmov.f32	s0, s16
 2985 01c0 FFF7FEFF 		bl	vocalTract
 2986 01c4 4C4B     		ldr	r3, .L312+96
 2987 01c6 4D48     		ldr	r0, .L312+100
 2988 01c8 4D49     		ldr	r1, .L312+104
 2989 01ca D3ED006A 		vldr.32	s13, [r3]
 2990 01ce 90ED007A 		vldr.32	s14, [r0]
 2991 01d2 91ED006A 		vldr.32	s12, [r1]
 2992 01d6 67EE266A 		vmul.f32	s13, s14, s13
 2993 01da 4A4A     		ldr	r2, .L312+108
 2994 01dc 22EE867A 		vmul.f32	s14, s5, s12
 2995 01e0 D2ED007A 		vldr.32	s15, [r2]
 2996 01e4 484A     		ldr	r2, .L312+112
 2997 01e6 36EE877A 		vadd.f32	s14, s13, s14
 2998 01ea 92ED006A 		vldr.32	s12, [r2]
 2999 01ee 67EE277A 		vmul.f32	s15, s14, s15
 3000 01f2 83ED007A 		vstr.32	s14, [r3]
 3001 01f6 37EE800A 		vadd.f32	s0, s15, s0
 3002 01fa F0EEC07A 		vabs.f32	s15, s0
 3003 01fe B4EEE76A 		vcmpe.f32	s12, s15
 3004 0202 F1EE10FA 		vmrs	APSR_nzcv, FPSCR
 3005 0206 03D5     		bpl	.L289
 3006 0208 B0EE676A 		vmov.f32	s12, s15
 3007 020c C2ED007A 		vstr.32	s15, [r2]
 3008              	.L289:
 3009 0210 B5EEC06A 		vcmpe.f32	s12, #0
 3010 0214 F1EE10FA 		vmrs	APSR_nzcv, FPSCR
 3011 0218 21DC     		bgt	.L311
 3012 021a F0EE087A 		vmov.f32	s15, #3.0e+0
 3013              	.L291:
 3014 021e 67EE807A 		vmul.f32	s15, s15, s0
 3015 0222 BDEC048B 		vldm	sp!, {d8-d9}
 3016 0226 FDEEE77A 		vcvt.s32.f32	s15, s15
 3017 022a 17EE903A 		vmov	r3, s15	@ int
 3018 022e 18B2     		sxth	r0, r3
 3019 0230 38BD     		pop	{r3, r4, r5, pc}
ARM GAS  /tmp/ccYdlVIk.s 			page 55


 3020              	.L308:
 3021 0232 F3EE040A 		vmov.f32	s1, #2.0e+1
 3022 0236 B2EE040A 		vmov.f32	s0, #1.0e+1
 3023 023a C7EEA00A 		vdiv.f32	s1, s15, s1
 3024 023e FFF7FEFF 		bl	powf
 3025 0242 B0EE408A 		vmov.f32	s16, s0
 3026 0246 58E7     		b	.L285
 3027              	.L307:
 3028 0248 F3EE040A 		vmov.f32	s1, #2.0e+1
 3029 024c B0EE480A 		vmov.f32	s0, s16
 3030 0250 C7EEA00A 		vdiv.f32	s1, s15, s1
 3031 0254 FFF7FEFF 		bl	powf
 3032 0258 F0EE408A 		vmov.f32	s17, s0
 3033 025c 34E7     		b	.L284
 3034              	.L311:
 3035 025e DFED2B6A 		vldr.32	s13, .L312+116
 3036 0262 9FED2B7A 		vldr.32	s14, .L312+120
 3037 0266 C6EE867A 		vdiv.f32	s15, s13, s12
 3038 026a 67EE877A 		vmul.f32	s15, s15, s14
 3039 026e D6E7     		b	.L291
 3040              	.L310:
 3041 0270 B7EEE87A 		vcvt.f64.f32	d7, s17
 3042 0274 66EEA86A 		vmul.f32	s13, s13, s17
 3043 0278 34EE474B 		vsub.f64	d4, d4, d7
 3044 027c 8EE7     		b	.L287
 3045              	.L295:
 3046 027e 9FED108A 		vldr.32	s16, .L312+40
 3047 0282 3AE7     		b	.L285
 3048              	.L306:
 3049 0284 FFF7FEFF 		bl	tube_newsay_bend
 3050 0288 C6E6     		b	.L282
 3051              	.L309:
 3052 028a B0EE680A 		vmov.f32	s0, s17
 3053 028e FFF7FEFF 		bl	updateWavetable
 3054 0292 5AE7     		b	.L286
 3055              	.L313:
 3056 0294 AFF30080 		.align	3
 3057              	.L312:
 3058 0298 00000000 		.word	0
 3059 029c 00000000 		.word	0
 3060 02a0 00000000 		.word	sample_count
 3061 02a4 00000000 		.word	lengthy
 3062 02a8 00000000 		.word	sel
 3063 02ac 00000000 		.word	vocablist_posture
 3064 02b0 04000000 		.word	exy+4
 3065 02b4 00000000 		.word	input_frame
 3066 02b8 3333B33F 		.word	1068708659
 3067 02bc 00000000 		.word	exy
 3068 02c0 00000000 		.word	0
 3069 02c4 0000C842 		.word	1120403456
 3070 02c8 00000000 		.word	breathinessFactor
 3071 02cc 00007042 		.word	1114636288
 3072 02d0 0000DC43 		.word	1138491392
 3073 02d4 000070C2 		.word	-1032847360
 3074 02d8 00000000 		.word	f0
 3075 02dc 00000000 		.word	ax
 3076 02e0 00000000 		.word	ah1
ARM GAS  /tmp/ccYdlVIk.s 			page 56


 3077 02e4 00000000 		.word	seed.12
 3078 02e8 0080BC43 		.word	1136427008
 3079 02ec 00000000 		.word	noiseX.11
 3080 02f0 00000000 		.word	pulsed
 3081 02f4 52B87E40 		.word	1082046546
 3082 02f8 00000000 		.word	throatY.4
 3083 02fc 00000000 		.word	tb1
 3084 0300 00000000 		.word	ta0
 3085 0304 00000000 		.word	throatGain
 3086 0308 00000000 		.word	maximumSampleValue
 3087 030c 00FEFF46 		.word	1191181824
 3088 0310 9A99993F 		.word	1067030938
 3089              		.size	tube_get_sample_bend, .-tube_get_sample_bend
 3090              		.section	.text.tube_get_sample_raw,"ax",%progbits
 3091              		.align	1
 3092              		.p2align 2,,3
 3093              		.global	tube_get_sample_raw
 3094              		.syntax unified
 3095              		.thumb
 3096              		.thumb_func
 3097              		.type	tube_get_sample_raw, %function
 3098              	tube_get_sample_raw:
 3099              		@ args = 0, pretend = 0, frame = 8
 3100              		@ frame_needed = 0, uses_anonymous_args = 0
 3101 0000 B34A     		ldr	r2, .L345+8
 3102 0002 B449     		ldr	r1, .L345+12
 3103 0004 1388     		ldrh	r3, [r2]
 3104 0006 0988     		ldrh	r1, [r1]
 3105 0008 581C     		adds	r0, r3, #1
 3106 000a 9942     		cmp	r1, r3
 3107 000c 70B5     		push	{r4, r5, r6, lr}
 3108 000e 2DED048B 		vpush.64	{d8, d9}
 3109 0012 1080     		strh	r0, [r2]	@ movhi
 3110 0014 82B0     		sub	sp, sp, #8
 3111 0016 40F24E81 		bls	.L339
 3112              	.L315:
 3113 001a AF4B     		ldr	r3, .L345+16
 3114 001c B7EE006A 		vmov.f32	s12, #1.0e+0
 3115 0020 AE4D     		ldr	r5, .L345+20
 3116 0022 AF48     		ldr	r0, .L345+24
 3117 0024 03F1400C 		add	ip, r3, #64
 3118 0028 AE49     		ldr	r1, .L345+28
 3119 002a 2A46     		mov	r2, r5
 3120              	.L316:
 3121 002c F1EC017A 		vldmia.32	r1!, {s15}
 3122 0030 F0EC016A 		vldmia.32	r0!, {s13}
 3123 0034 76EE677A 		vsub.f32	s15, s12, s15
 3124 0038 B3EC017A 		vldmia.32	r3!, {s14}
 3125 003c 9C45     		cmp	ip, r3
 3126 003e 67EEA67A 		vmul.f32	s15, s15, s13
 3127 0042 77EE877A 		vadd.f32	s15, s15, s14
 3128 0046 E2EC017A 		vstmia.32	r2!, {s15}
 3129 004a EFD1     		bne	.L316
 3130 004c A64B     		ldr	r3, .L345+32
 3131 004e B2EE048A 		vmov.f32	s16, #1.0e+1
 3132 0052 9FEDA65A 		vldr.32	s10, .L345+36
 3133 0056 F0EE085A 		vmov.f32	s11, #3.0e+0
ARM GAS  /tmp/ccYdlVIk.s 			page 57


 3134 005a D3ED117A 		vldr.32	s15, [r3, #68]
 3135 005e F2EE080A 		vmov.f32	s1, #1.2e+1
 3136 0062 A34B     		ldr	r3, .L345+40
 3137 0064 B0EE000A 		vmov.f32	s0, #2.0e+0
 3138 0068 67EE887A 		vmul.f32	s15, s15, s16
 3139 006c DFEDA18A 		vldr.32	s17, .L345+44
 3140 0070 D3ED006A 		vldr.32	s13, [r3]
 3141 0074 9FEDA06A 		vldr.32	s12, .L345+48
 3142 0078 66EE856A 		vmul.f32	s13, s13, s10
 3143 007c 95ED007A 		vldr.32	s14, [r5]
 3144 0080 77EEA87A 		vadd.f32	s15, s15, s17
 3145 0084 9D4E     		ldr	r6, .L345+52
 3146 0086 37EE257A 		vadd.f32	s14, s14, s11
 3147 008a FCEEE66A 		vcvt.u32.f32	s13, s13
 3148 008e C7EE200A 		vdiv.f32	s1, s14, s1
 3149 0092 CDED016A 		vstr.32	s13, [sp, #4]	@ int
 3150 0096 9DF80440 		ldrb	r4, [sp, #4]	@ zero_extendqisi2
 3151 009a 7F2C     		cmp	r4, #127
 3152 009c C7EE866A 		vdiv.f32	s13, s15, s12
 3153 00a0 28BF     		it	cs
 3154 00a2 7F24     		movcs	r4, #127
 3155 00a4 C4F17F04 		rsb	r4, r4, #127
 3156 00a8 E4B2     		uxtb	r4, r4
 3157 00aa C6ED006A 		vstr.32	s13, [r6]
 3158 00ae FFF7FEFF 		bl	powf
 3159 00b2 9FED937A 		vldr.32	s14, .L345+56
 3160 00b6 D5ED017A 		vldr.32	s15, [r5, #4]
 3161 00ba 20EE079A 		vmul.f32	s18, s0, s14
 3162 00be 9FED917A 		vldr.32	s14, .L345+60
 3163 00c2 914B     		ldr	r3, .L345+64
 3164 00c4 77EEC77A 		vsub.f32	s15, s15, s14
 3165 00c8 9FED907A 		vldr.32	s14, .L345+68
 3166 00cc 03EB8403 		add	r3, r3, r4, lsl #2
 3167 00d0 8F4A     		ldr	r2, .L345+72
 3168 00d2 F4EEC77A 		vcmpe.f32	s15, s14
 3169 00d6 D3ED006A 		vldr.32	s13, [r3]
 3170 00da 29EE269A 		vmul.f32	s18, s18, s13
 3171 00de F1EE10FA 		vmrs	APSR_nzcv, FPSCR
 3172 00e2 82ED009A 		vstr.32	s18, [r2]
 3173 00e6 07D9     		bls	.L317
 3174 00e8 F4EEE87A 		vcmpe.f32	s15, s17
 3175 00ec F1EE10FA 		vmrs	APSR_nzcv, FPSCR
 3176 00f0 C0F2C380 		blt	.L340
 3177 00f4 F7EE008A 		vmov.f32	s17, #1.0e+0
 3178              	.L317:
 3179 00f8 D5ED027A 		vldr.32	s15, [r5, #8]
 3180 00fc DFED816A 		vldr.32	s13, .L345+60
 3181 0100 9FED827A 		vldr.32	s14, .L345+68
 3182 0104 77EEE67A 		vsub.f32	s15, s15, s13
 3183 0108 824B     		ldr	r3, .L345+76
 3184 010a C3ED008A 		vstr.32	s17, [r3]
 3185 010e F4EEC77A 		vcmpe.f32	s15, s14
 3186 0112 F1EE10FA 		vmrs	APSR_nzcv, FPSCR
 3187 0116 40F2CB80 		bls	.L328
 3188 011a F5EEC07A 		vcmpe.f32	s15, #0
 3189 011e F1EE10FA 		vmrs	APSR_nzcv, FPSCR
 3190 0122 C0F29F80 		blt	.L341
ARM GAS  /tmp/ccYdlVIk.s 			page 58


 3191 0126 B7EE008A 		vmov.f32	s16, #1.0e+0
 3192              	.L318:
 3193 012a 7B4B     		ldr	r3, .L345+80
 3194 012c 83ED008A 		vstr.32	s16, [r3]
 3195 0130 FFF7FEFF 		bl	calculateTubeCoefficients
 3196 0134 FFF7FEFF 		bl	setFricationTaps
 3197 0138 FFF7FEFF 		bl	calculateBandpassCoefficients
 3198 013c 774A     		ldr	r2, .L345+84
 3199 013e DFED786A 		vldr.32	s13, .L345+88
 3200 0142 B6EE007A 		vmov.f32	s14, #5.0e-1
 3201 0146 D2ED007A 		vldr.32	s15, [r2]
 3202 014a 764B     		ldr	r3, .L345+92
 3203 014c 67EEA67A 		vmul.f32	s15, s15, s13
 3204 0150 7549     		ldr	r1, .L345+96
 3205 0152 93ED005A 		vldr.32	s10, [r3]
 3206 0156 0978     		ldrb	r1, [r1]	@ zero_extendqisi2
 3207 0158 FDEEE76A 		vcvt.s32.f32	s13, s15
 3208 015c F8EEE66A 		vcvt.f32.s32	s13, s13
 3209 0160 77EEE67A 		vsub.f32	s15, s15, s13
 3210 0164 37EEC77A 		vsub.f32	s14, s15, s14
 3211 0168 C2ED007A 		vstr.32	s15, [r2]
 3212 016c 77EE059A 		vadd.f32	s19, s14, s10
 3213 0170 83ED007A 		vstr.32	s14, [r3]
 3214 0174 0029     		cmp	r1, #0
 3215 0176 00F0A180 		beq	.L342
 3216              	.L319:
 3217 017a B0EE490A 		vmov.f32	s0, s18
 3218 017e FFF7FEFF 		bl	oscillator
 3219 0182 60EE296A 		vmul.f32	s13, s0, s19
 3220 0186 96ED007A 		vldr.32	s14, [r6]
 3221 018a B7EE004B 		vmov.f64	d4, #1.0e+0
 3222 018e DFED677A 		vldr.32	s15, .L345+100
 3223 0192 B7EEE83A 		vcvt.f64.f32	d3, s17
 3224 0196 B7EEC72A 		vcvt.f64.f32	d2, s14
 3225 019a 27EE267A 		vmul.f32	s14, s14, s13
 3226 019e 68EEA78A 		vmul.f32	s17, s17, s15
 3227 01a2 34EE422B 		vsub.f64	d2, d4, d2
 3228 01a6 B7EEC00A 		vcvt.f64.f32	d0, s0
 3229 01aa B7EEC77A 		vcvt.f64.f32	d7, s14
 3230 01ae B7EE006A 		vmov.f32	s12, #1.0e+0
 3231 01b2 02EE007B 		vmla.f64	d7, d2, d0
 3232 01b6 F4EEC68A 		vcmpe.f32	s17, s12
 3233 01ba F1EE10FA 		vmrs	APSR_nzcv, FPSCR
 3234 01be 27EE037B 		vmul.f64	d7, d7, d3
 3235 01c2 F7EEC72B 		vcvt.f32.f64	s5, d7
 3236 01c6 6CD4     		bmi	.L343
 3237 01c8 9FED3F4B 		vldr.64	d4, .L345
 3238              	.L320:
 3239 01cc B7EEE67A 		vcvt.f64.f32	d7, s13
 3240 01d0 B7EEE95A 		vcvt.f64.f32	d5, s19
 3241 01d4 05EE047B 		vmla.f64	d7, d5, d4
 3242 01d8 B7EEC70B 		vcvt.f32.f64	s0, d7
 3243 01dc 20EE088A 		vmul.f32	s16, s0, s16
 3244 01e0 FFF7FEFF 		bl	bandpassFilter
 3245 01e4 F0EE400A 		vmov.f32	s1, s0
 3246 01e8 38EE228A 		vadd.f32	s16, s16, s5
 3247 01ec B0EE480A 		vmov.f32	s0, s16
ARM GAS  /tmp/ccYdlVIk.s 			page 59


 3248 01f0 FFF7FEFF 		bl	vocalTract
 3249 01f4 4E4B     		ldr	r3, .L345+104
 3250 01f6 4F48     		ldr	r0, .L345+108
 3251 01f8 4F49     		ldr	r1, .L345+112
 3252 01fa D3ED006A 		vldr.32	s13, [r3]
 3253 01fe 90ED007A 		vldr.32	s14, [r0]
 3254 0202 91ED006A 		vldr.32	s12, [r1]
 3255 0206 67EE266A 		vmul.f32	s13, s14, s13
 3256 020a 4C4A     		ldr	r2, .L345+116
 3257 020c 22EE867A 		vmul.f32	s14, s5, s12
 3258 0210 D2ED007A 		vldr.32	s15, [r2]
 3259 0214 4A4A     		ldr	r2, .L345+120
 3260 0216 36EE877A 		vadd.f32	s14, s13, s14
 3261 021a 92ED006A 		vldr.32	s12, [r2]
 3262 021e 67EE277A 		vmul.f32	s15, s14, s15
 3263 0222 83ED007A 		vstr.32	s14, [r3]
 3264 0226 37EE800A 		vadd.f32	s0, s15, s0
 3265 022a F0EEC07A 		vabs.f32	s15, s0
 3266 022e B4EEE76A 		vcmpe.f32	s12, s15
 3267 0232 F1EE10FA 		vmrs	APSR_nzcv, FPSCR
 3268 0236 03D5     		bpl	.L322
 3269 0238 B0EE676A 		vmov.f32	s12, s15
 3270 023c C2ED007A 		vstr.32	s15, [r2]
 3271              	.L322:
 3272 0240 B5EEC06A 		vcmpe.f32	s12, #0
 3273 0244 F1EE10FA 		vmrs	APSR_nzcv, FPSCR
 3274 0248 22DC     		bgt	.L344
 3275 024a DFED2B7A 		vldr.32	s15, .L345+48
 3276              	.L324:
 3277 024e 67EE807A 		vmul.f32	s15, s15, s0
 3278 0252 FDEEE77A 		vcvt.s32.f32	s15, s15
 3279 0256 17EE903A 		vmov	r3, s15	@ int
 3280 025a 18B2     		sxth	r0, r3
 3281 025c 02B0     		add	sp, sp, #8
 3282              		@ sp needed
 3283 025e BDEC048B 		vldm	sp!, {d8-d9}
 3284 0262 70BD     		pop	{r4, r5, r6, pc}
 3285              	.L341:
 3286 0264 F3EE040A 		vmov.f32	s1, #2.0e+1
 3287 0268 B2EE040A 		vmov.f32	s0, #1.0e+1
 3288 026c C7EEA00A 		vdiv.f32	s1, s15, s1
 3289 0270 FFF7FEFF 		bl	powf
 3290 0274 B0EE408A 		vmov.f32	s16, s0
 3291 0278 57E7     		b	.L318
 3292              	.L340:
 3293 027a F3EE040A 		vmov.f32	s1, #2.0e+1
 3294 027e B0EE480A 		vmov.f32	s0, s16
 3295 0282 C7EEA00A 		vdiv.f32	s1, s15, s1
 3296 0286 FFF7FEFF 		bl	powf
 3297 028a F0EE408A 		vmov.f32	s17, s0
 3298 028e 33E7     		b	.L317
 3299              	.L344:
 3300 0290 DFED2C6A 		vldr.32	s13, .L345+124
 3301 0294 9FED2C7A 		vldr.32	s14, .L345+128
 3302 0298 C6EE867A 		vdiv.f32	s15, s13, s12
 3303 029c 67EE877A 		vmul.f32	s15, s15, s14
 3304 02a0 D5E7     		b	.L324
ARM GAS  /tmp/ccYdlVIk.s 			page 60


 3305              	.L343:
 3306 02a2 B7EEE87A 		vcvt.f64.f32	d7, s17
 3307 02a6 66EEA86A 		vmul.f32	s13, s13, s17
 3308 02aa 34EE474B 		vsub.f64	d4, d4, d7
 3309 02ae 8DE7     		b	.L320
 3310              	.L328:
 3311 02b0 9FED108A 		vldr.32	s16, .L345+44
 3312 02b4 39E7     		b	.L318
 3313              	.L339:
 3314 02b6 FFF7FEFF 		bl	tube_newsay_raw
 3315 02ba AEE6     		b	.L315
 3316              	.L342:
 3317 02bc B0EE680A 		vmov.f32	s0, s17
 3318 02c0 FFF7FEFF 		bl	updateWavetable
 3319 02c4 59E7     		b	.L319
 3320              	.L346:
 3321 02c6 00BF     		.align	3
 3322              	.L345:
 3323 02c8 00000000 		.word	0
 3324 02cc 00000000 		.word	0
 3325 02d0 00000000 		.word	sample_count
 3326 02d4 00000000 		.word	lengthy
 3327 02d8 00000000 		.word	mins
 3328 02dc 00000000 		.word	input_frame
 3329 02e0 00000000 		.word	range
 3330 02e4 04000000 		.word	exy+4
 3331 02e8 00000000 		.word	exy
 3332 02ec 00000243 		.word	1124204544
 3333 02f0 00000000 		.word	_selz
 3334 02f4 00000000 		.word	0
 3335 02f8 0000C842 		.word	1120403456
 3336 02fc 00000000 		.word	breathinessFactor
 3337 0300 0000DC43 		.word	1138491392
 3338 0304 00007042 		.word	1114636288
 3339 0308 00000000 		.word	logpitch
 3340 030c 000070C2 		.word	-1032847360
 3341 0310 00000000 		.word	f0
 3342 0314 00000000 		.word	ax
 3343 0318 00000000 		.word	ah1
 3344 031c 00000000 		.word	seed.12
 3345 0320 0080BC43 		.word	1136427008
 3346 0324 00000000 		.word	noiseX.11
 3347 0328 00000000 		.word	pulsed
 3348 032c 52B87E40 		.word	1082046546
 3349 0330 00000000 		.word	throatY.4
 3350 0334 00000000 		.word	tb1
 3351 0338 00000000 		.word	ta0
 3352 033c 00000000 		.word	throatGain
 3353 0340 00000000 		.word	maximumSampleValue
 3354 0344 00FEFF46 		.word	1191181824
 3355 0348 9A99993F 		.word	1067030938
 3356              		.size	tube_get_sample_raw, .-tube_get_sample_raw
 3357              		.section	.text.amplitude,"ax",%progbits
 3358              		.align	1
 3359              		.p2align 2,,3
 3360              		.global	amplitude
 3361              		.syntax unified
ARM GAS  /tmp/ccYdlVIk.s 			page 61


 3362              		.thumb
 3363              		.thumb_func
 3364              		.type	amplitude, %function
 3365              	amplitude:
 3366              		@ args = 0, pretend = 0, frame = 0
 3367              		@ frame_needed = 0, uses_anonymous_args = 0
 3368              		@ link register save eliminated.
 3369 0000 DFED0E7A 		vldr.32	s15, .L352
 3370 0004 9FED0E7A 		vldr.32	s14, .L352+4
 3371 0008 70EE677A 		vsub.f32	s15, s0, s15
 3372 000c F4EEC77A 		vcmpe.f32	s15, s14
 3373 0010 F1EE10FA 		vmrs	APSR_nzcv, FPSCR
 3374 0014 0FD9     		bls	.L349
 3375 0016 F5EEC07A 		vcmpe.f32	s15, #0
 3376 001a F1EE10FA 		vmrs	APSR_nzcv, FPSCR
 3377 001e 02DB     		blt	.L351
 3378 0020 B7EE000A 		vmov.f32	s0, #1.0e+0
 3379 0024 7047     		bx	lr
 3380              	.L351:
 3381 0026 F3EE040A 		vmov.f32	s1, #2.0e+1
 3382 002a B2EE040A 		vmov.f32	s0, #1.0e+1
 3383 002e C7EEA00A 		vdiv.f32	s1, s15, s1
 3384 0032 FFF7FEBF 		b	powf
 3385              	.L349:
 3386 0036 9FED030A 		vldr.32	s0, .L352+8
 3387 003a 7047     		bx	lr
 3388              	.L353:
 3389              		.align	2
 3390              	.L352:
 3391 003c 00007042 		.word	1114636288
 3392 0040 000070C2 		.word	-1032847360
 3393 0044 00000000 		.word	0
 3394              		.size	amplitude, .-amplitude
 3395              		.section	.text.frequency,"ax",%progbits
 3396              		.align	1
 3397              		.p2align 2,,3
 3398              		.global	frequency
 3399              		.syntax unified
 3400              		.thumb
 3401              		.thumb_func
 3402              		.type	frequency, %function
 3403              	frequency:
 3404              		@ args = 0, pretend = 0, frame = 0
 3405              		@ frame_needed = 0, uses_anonymous_args = 0
 3406 0000 B0EE087A 		vmov.f32	s14, #3.0e+0
 3407 0004 F0EE407A 		vmov.f32	s15, s0
 3408 0008 F2EE080A 		vmov.f32	s1, #1.2e+1
 3409 000c B0EE000A 		vmov.f32	s0, #2.0e+0
 3410 0010 77EE877A 		vadd.f32	s15, s15, s14
 3411 0014 08B5     		push	{r3, lr}
 3412 0016 C7EEA00A 		vdiv.f32	s1, s15, s1
 3413 001a FFF7FEFF 		bl	powf
 3414 001e DFED027A 		vldr.32	s15, .L356
 3415 0022 20EE270A 		vmul.f32	s0, s0, s15
 3416 0026 08BD     		pop	{r3, pc}
 3417              	.L357:
 3418              		.align	2
ARM GAS  /tmp/ccYdlVIk.s 			page 62


 3419              	.L356:
 3420 0028 0000DC43 		.word	1138491392
 3421              		.size	frequency, .-frequency
 3422              		.section	.text.trim,"ax",%progbits
 3423              		.align	1
 3424              		.p2align 2,,3
 3425              		.global	trim
 3426              		.syntax unified
 3427              		.thumb
 3428              		.thumb_func
 3429              		.type	trim, %function
 3430              	trim:
 3431              		@ args = 0, pretend = 0, frame = 0
 3432              		@ frame_needed = 0, uses_anonymous_args = 0
 3433              		@ link register save eliminated.
 3434 0000 0368     		ldr	r3, [r0]
 3435 0002 002B     		cmp	r3, #0
 3436 0004 12DD     		ble	.L358
 3437 0006 5A1C     		adds	r2, r3, #1
 3438 0008 B0EEC00A 		vabs.f32	s0, s0
 3439 000c 01EB8201 		add	r1, r1, r2, lsl #2
 3440 0010 01E0     		b	.L362
 3441              	.L365:
 3442 0012 013B     		subs	r3, r3, #1
 3443 0014 0AD0     		beq	.L358
 3444              	.L362:
 3445 0016 71ED017A 		vldmdb.32	r1!, {s15}
 3446 001a F0EEE77A 		vabs.f32	s15, s15
 3447 001e F4EEC07A 		vcmpe.f32	s15, s0
 3448 0022 F1EE10FA 		vmrs	APSR_nzcv, FPSCR
 3449 0026 F4DB     		blt	.L365
 3450 0028 0360     		str	r3, [r0]
 3451 002a 7047     		bx	lr
 3452              	.L358:
 3453 002c 7047     		bx	lr
 3454              		.size	trim, .-trim
 3455 002e 00BF     		.section	.text.rationalApproximation,"ax",%progbits
 3456              		.align	1
 3457              		.p2align 2,,3
 3458              		.global	rationalApproximation
 3459              		.syntax unified
 3460              		.thumb
 3461              		.thumb_func
 3462              		.type	rationalApproximation, %function
 3463              	rationalApproximation:
 3464              		@ args = 0, pretend = 0, frame = 0
 3465              		@ frame_needed = 0, uses_anonymous_args = 0
 3466 0000 0368     		ldr	r3, [r0]
 3467 0002 002B     		cmp	r3, #0
 3468 0004 30B5     		push	{r4, r5, lr}
 3469 0006 53DD     		ble	.L380
 3470 0008 FDEEC05A 		vcvt.s32.f32	s11, s0
 3471 000c 5C00     		lsls	r4, r3, #1
 3472 000e C82C     		cmp	r4, #200
 3473 0010 F8EEE55A 		vcvt.f32.s32	s11, s11
 3474 0014 A8BF     		it	ge
 3475 0016 C824     		movge	r4, #200
ARM GAS  /tmp/ccYdlVIk.s 			page 63


 3476 0018 70EE655A 		vsub.f32	s11, s0, s11
 3477 001c A342     		cmp	r3, r4
 3478 001e F0EEE55A 		vabs.f32	s11, s11
 3479 0022 4CDC     		bgt	.L375
 3480 0024 B7EE005A 		vmov.f32	s10, #1.0e+0
 3481 0028 04F1010C 		add	ip, r4, #1
 3482 002c B6EE004B 		vmov.f64	d4, #5.0e-1
 3483 0030 4FF0000E 		mov	lr, #0
 3484              	.L372:
 3485 0034 07EE903A 		vmov	s15, r3	@ int
 3486 0038 B8EEE76A 		vcvt.f32.s32	s12, s15
 3487 003c 66EE256A 		vmul.f32	s13, s12, s11
 3488 0040 B7EEE67A 		vcvt.f64.f32	d7, s13
 3489 0044 37EE047B 		vadd.f64	d7, d7, d4
 3490 0048 BDEEC77B 		vcvt.s32.f64	s14, d7
 3491 004c F8EEC77A 		vcvt.f32.s32	s15, s14
 3492 0050 76EEE76A 		vsub.f32	s13, s13, s15
 3493 0054 C6EE867A 		vdiv.f32	s15, s13, s12
 3494 0058 F0EEE77A 		vabs.f32	s15, s15
 3495 005c F4EEC57A 		vcmpe.f32	s15, s10
 3496 0060 F1EE10FA 		vmrs	APSR_nzcv, FPSCR
 3497 0064 04D5     		bpl	.L370
 3498 0066 B0EE675A 		vmov.f32	s10, s15
 3499 006a 17EE10EA 		vmov	lr, s14	@ int
 3500 006e 1360     		str	r3, [r2]
 3501              	.L370:
 3502 0070 0133     		adds	r3, r3, #1
 3503 0072 6345     		cmp	r3, ip
 3504 0074 DED1     		bne	.L372
 3505              	.L369:
 3506 0076 F0EEC07A 		vabs.f32	s15, s0
 3507 007a 1368     		ldr	r3, [r2]
 3508 007c B5EEC00A 		vcmpe.f32	s0, #0
 3509 0080 FDEEE77A 		vcvt.s32.f32	s15, s15
 3510 0084 F1EE10FA 		vmrs	APSR_nzcv, FPSCR
 3511 0088 17EE905A 		vmov	r5, s15	@ int
 3512 008c 03FB05E3 		mla	r3, r3, r5, lr
 3513 0090 48BF     		it	mi
 3514 0092 5B42     		rsbmi	r3, r3, #0
 3515 0094 0B60     		str	r3, [r1]
 3516 0096 1368     		ldr	r3, [r2]
 3517 0098 013B     		subs	r3, r3, #1
 3518 009a 0360     		str	r3, [r0]
 3519 009c 1368     		ldr	r3, [r2]
 3520 009e 0D68     		ldr	r5, [r1]
 3521 00a0 9D42     		cmp	r5, r3
 3522 00a2 00D0     		beq	.L381
 3523 00a4 30BD     		pop	{r4, r5, pc}
 3524              	.L381:
 3525 00a6 631E     		subs	r3, r4, #1
 3526 00a8 1460     		str	r4, [r2]
 3527 00aa 0B60     		str	r3, [r1]
 3528 00ac 0360     		str	r3, [r0]
 3529 00ae 30BD     		pop	{r4, r5, pc}
 3530              	.L380:
 3531 00b0 0023     		movs	r3, #0
 3532 00b2 4FF0FF34 		mov	r4, #-1
ARM GAS  /tmp/ccYdlVIk.s 			page 64


 3533 00b6 0B60     		str	r3, [r1]
 3534 00b8 1360     		str	r3, [r2]
 3535 00ba 0460     		str	r4, [r0]
 3536 00bc 30BD     		pop	{r4, r5, pc}
 3537              	.L375:
 3538 00be 4FF0000E 		mov	lr, #0
 3539 00c2 D8E7     		b	.L369
 3540              		.size	rationalApproximation, .-rationalApproximation
 3541              		.section	.text.maximallyFlat.part.0.constprop.0,"ax",%progbits
 3542              		.align	1
 3543              		.p2align 2,,3
 3544              		.syntax unified
 3545              		.thumb
 3546              		.thumb_func
 3547              		.type	maximallyFlat.part.0.constprop.0, %function
 3548              	maximallyFlat.part.0.constprop.0:
 3549              		@ args = 0, pretend = 0, frame = 1624
 3550              		@ frame_needed = 0, uses_anonymous_args = 0
 3551 0000 B7EEE06A 		vcvt.f64.f32	d6, s1
 3552 0004 B1EE007B 		vmov.f64	d7, #4.0e+0
 3553 0008 2DE9F04F 		push	{r4, r5, r6, r7, r8, r9, r10, fp, lr}
 3554 000c 26EE077B 		vmul.f64	d7, d6, d7
 3555 0010 2DED068B 		vpush.64	{d8, d9, d10}
 3556 0014 B7EE008B 		vmov.f64	d8, #1.0e+0
 3557 0018 ADF25C6D 		subw	sp, sp, #1628
 3558 001c 27EE067B 		vmul.f64	d7, d7, d6
 3559 0020 0090     		str	r0, [sp]
 3560 0022 0191     		str	r1, [sp, #4]
 3561 0024 88EE076B 		vdiv.f64	d6, d8, d7
 3562 0028 FDEEC67B 		vcvt.s32.f64	s15, d6
 3563 002c 17EE903A 		vmov	r3, s15	@ int
 3564 0030 CDED027A 		vstr.32	s15, [sp, #8]	@ int
 3565 0034 A02B     		cmp	r3, #160
 3566 0036 00F3F180 		bgt	.L400
 3567 003a DFED7C7A 		vldr.32	s15, .L410
 3568 003e 0446     		mov	r4, r0
 3569 0040 20EE270A 		vmul.f32	s0, s0, s15
 3570 0044 FFF7FEFF 		bl	cosf
 3571 0048 B7EEC00A 		vcvt.f64.f32	d0, s0
 3572 004c B6EE007B 		vmov.f64	d7, #5.0e-1
 3573 0050 2246     		mov	r2, r4
 3574 0052 03A9     		add	r1, sp, #12
 3575 0054 02A8     		add	r0, sp, #8
 3576 0056 30EE080B 		vadd.f64	d0, d0, d8
 3577 005a 20EE070B 		vmul.f64	d0, d0, d7
 3578 005e B7EEC00B 		vcvt.f32.f64	s0, d0
 3579 0062 FFF7FEFF 		bl	rationalApproximation
 3580 0066 D4F800B0 		ldr	fp, [r4]
 3581 006a DDF80C90 		ldr	r9, [sp, #12]
 3582 006e 4FEA4B04 		lsl	r4, fp, #1
 3583 0072 013C     		subs	r4, r4, #1
 3584 0074 B9F1000F 		cmp	r9, #0
 3585 0078 00F0CC80 		beq	.L409
 3586              	.L384:
 3587 007c 029D     		ldr	r5, [sp, #8]
 3588 007e 4FF07E53 		mov	r3, #1065353216
 3589 0082 BBF1010F 		cmp	fp, #1
ARM GAS  /tmp/ccYdlVIk.s 			page 65


 3590 0086 A5EB090A 		sub	r10, r5, r9
 3591 008a CE93     		str	r3, [sp, #824]	@ float
 3592 008c 71DD     		ble	.L385
 3593 008e 07EE904A 		vmov	s15, r4	@ int
 3594 0092 B7EE008B 		vmov.f64	d8, #1.0e+0
 3595 0096 9FED659A 		vldr.32	s18, .L410
 3596 009a 0DF54F78 		add	r8, sp, #828
 3597 009e F8EEE79A 		vcvt.f32.s32	s19, s15
 3598 00a2 06AE     		add	r6, sp, #24
 3599 00a4 0227     		movs	r7, #2
 3600              	.L391:
 3601 00a6 7B1E     		subs	r3, r7, #1
 3602 00a8 07EE903A 		vmov	s15, r3	@ int
 3603 00ac F8EEE77A 		vcvt.f32.s32	s15, s15
 3604 00b0 87EEA90A 		vdiv.f32	s0, s15, s19
 3605 00b4 20EE090A 		vmul.f32	s0, s0, s18
 3606 00b8 FFF7FEFF 		bl	cosf
 3607 00bc 4D45     		cmp	r5, r9
 3608 00be A8EC010A 		vstmia.32	r8!, {s0}
 3609 00c2 52D0     		beq	.L386
 3610 00c4 B7EEC00A 		vcvt.f64.f32	d0, s0
 3611 00c8 BAF1000F 		cmp	r10, #0
 3612 00cc B6EE007B 		vmov.f64	d7, #5.0e-1
 3613 00d0 B7EE00AA 		vmov.f32	s20, #1.0e+0
 3614 00d4 38EE400B 		vsub.f64	d0, d8, d0
 3615 00d8 20EE070B 		vmul.f64	d0, d0, d7
 3616 00dc B7EEC00B 		vcvt.f32.f64	s0, d0
 3617 00e0 32DD     		ble	.L387
 3618 00e2 B0EE405A 		vmov.f32	s10, s0
 3619 00e6 0AF1010C 		add	ip, r10, #1
 3620 00ea 0121     		movs	r1, #1
 3621 00ec 08E0     		b	.L390
 3622              	.L402:
 3623 00ee 0131     		adds	r1, r1, #1
 3624 00f0 B0EE456A 		vmov.f32	s12, s10
 3625 00f4 25EE005A 		vmul.f32	s10, s10, s0
 3626 00f8 6145     		cmp	r1, ip
 3627 00fa 3AEE06AA 		vadd.f32	s20, s20, s12
 3628 00fe 23D0     		beq	.L387
 3629              	.L390:
 3630 0100 B9F1010F 		cmp	r9, #1
 3631 0104 F3DD     		ble	.L402
 3632 0106 07EE901A 		vmov	s15, r1	@ int
 3633 010a B0EE456A 		vmov.f32	s12, s10
 3634 010e 0123     		movs	r3, #1
 3635 0110 F8EEE75A 		vcvt.f32.s32	s11, s15
 3636              	.L389:
 3637 0114 07EE903A 		vmov	s15, r3	@ int
 3638 0118 B7EEC66A 		vcvt.f64.f32	d6, s12
 3639 011c 0133     		adds	r3, r3, #1
 3640 011e F8EEE77A 		vcvt.f32.s32	s15, s15
 3641 0122 4B45     		cmp	r3, r9
 3642 0124 85EEA77A 		vdiv.f32	s14, s11, s15
 3643 0128 B7EEC77A 		vcvt.f64.f32	d7, s14
 3644 012c 37EE087B 		vadd.f64	d7, d7, d8
 3645 0130 27EE066B 		vmul.f64	d6, d7, d6
 3646 0134 B7EEC66B 		vcvt.f32.f64	s12, d6
ARM GAS  /tmp/ccYdlVIk.s 			page 66


 3647 0138 ECD1     		bne	.L389
 3648 013a 0131     		adds	r1, r1, #1
 3649 013c 25EE005A 		vmul.f32	s10, s10, s0
 3650 0140 3AEE06AA 		vadd.f32	s20, s20, s12
 3651 0144 6145     		cmp	r1, ip
 3652 0146 DBD1     		bne	.L390
 3653              	.L387:
 3654 0148 F7EE007A 		vmov.f32	s15, #1.0e+0
 3655 014c 07EE109A 		vmov	s14, r9	@ int
 3656 0150 F8EEC70A 		vcvt.f32.s32	s1, s14
 3657 0154 37EEC00A 		vsub.f32	s0, s15, s0
 3658 0158 FFF7FEFF 		bl	powf
 3659 015c 009B     		ldr	r3, [sp]
 3660 015e 20EE0A0A 		vmul.f32	s0, s0, s20
 3661 0162 D3F800B0 		ldr	fp, [r3]
 3662 0166 86ED000A 		vstr.32	s0, [r6]
 3663              	.L386:
 3664 016a 0137     		adds	r7, r7, #1
 3665 016c 0436     		adds	r6, r6, #4
 3666 016e 5F45     		cmp	r7, fp
 3667 0170 99DD     		ble	.L391
 3668              	.L385:
 3669 0172 BBF1000F 		cmp	fp, #0
 3670 0176 46DD     		ble	.L393
 3671 0178 07EE904A 		vmov	s15, r4	@ int
 3672 017c B0EE006B 		vmov.f64	d6, #2.0e+0
 3673 0180 BBF1010F 		cmp	fp, #1
 3674 0184 B8EEE77A 		vcvt.f32.s32	s14, s15
 3675 0188 B7EEC77A 		vcvt.f64.f32	d7, s14
 3676 018c 86EE075B 		vdiv.f64	d5, d6, d7
 3677 0190 30D0     		beq	.L394
 3678 0192 019F     		ldr	r7, [sp, #4]
 3679 0194 05AB     		add	r3, sp, #20
 3680 0196 0020     		movs	r0, #0
 3681 0198 0437     		adds	r7, r7, #4
 3682 019a 03EB8B06 		add	r6, r3, fp, lsl #2
 3683 019e BC46     		mov	ip, r7
 3684              	.L399:
 3685 01a0 B6EE007A 		vmov.f32	s14, #5.0e-1
 3686 01a4 06A9     		add	r1, sp, #24
 3687 01a6 0246     		mov	r2, r0
 3688              	.L396:
 3689 01a8 0DF54D7E 		add	lr, sp, #820
 3690 01ac F1EC017A 		vldmia.32	r1!, {s15}
 3691 01b0 92FBF4F3 		sdiv	r3, r2, r4
 3692 01b4 04FB1323 		mls	r3, r4, r3, r2
 3693 01b8 0244     		add	r2, r2, r0
 3694 01ba 9D42     		cmp	r5, r3
 3695 01bc B8BF     		it	lt
 3696 01be E31A     		sublt	r3, r4, r3
 3697 01c0 B142     		cmp	r1, r6
 3698 01c2 0EEB8303 		add	r3, lr, r3, lsl #2
 3699 01c6 D3ED016A 		vldr.32	s13, [r3, #4]
 3700 01ca 67EEA67A 		vmul.f32	s15, s15, s13
 3701 01ce 37EE277A 		vadd.f32	s14, s14, s15
 3702 01d2 E9D1     		bne	.L396
 3703 01d4 B7EEC77A 		vcvt.f64.f32	d7, s14
ARM GAS  /tmp/ccYdlVIk.s 			page 67


 3704 01d8 831C     		adds	r3, r0, #2
 3705 01da 0CF1040C 		add	ip, ip, #4
 3706 01de 0130     		adds	r0, r0, #1
 3707 01e0 9B45     		cmp	fp, r3
 3708 01e2 27EE057B 		vmul.f64	d7, d7, d5
 3709 01e6 B7EEC77B 		vcvt.f32.f64	s14, d7
 3710 01ea 87ED007A 		vstr.32	s14, [r7]
 3711 01ee 0ADB     		blt	.L393
 3712 01f0 6746     		mov	r7, ip
 3713 01f2 D5E7     		b	.L399
 3714              	.L394:
 3715 01f4 B6EE007B 		vmov.f64	d7, #5.0e-1
 3716 01f8 019B     		ldr	r3, [sp, #4]
 3717 01fa 25EE075B 		vmul.f64	d5, d5, d7
 3718 01fe B7EEC55B 		vcvt.f32.f64	s10, d5
 3719 0202 83ED015A 		vstr.32	s10, [r3, #4]
 3720              	.L393:
 3721 0206 0020     		movs	r0, #0
 3722 0208 0DF25C6D 		addw	sp, sp, #1628
 3723              		@ sp needed
 3724 020c BDEC068B 		vldm	sp!, {d8-d10}
 3725 0210 BDE8F08F 		pop	{r4, r5, r6, r7, r8, r9, r10, fp, pc}
 3726              	.L409:
 3727 0214 0122     		movs	r2, #1
 3728 0216 9146     		mov	r9, r2
 3729 0218 0392     		str	r2, [sp, #12]
 3730 021a 2FE7     		b	.L384
 3731              	.L400:
 3732 021c 0320     		movs	r0, #3
 3733 021e 0DF25C6D 		addw	sp, sp, #1628
 3734              		@ sp needed
 3735 0222 BDEC068B 		vldm	sp!, {d8-d10}
 3736 0226 BDE8F08F 		pop	{r4, r5, r6, r7, r8, r9, r10, fp, pc}
 3737              	.L411:
 3738 022a 00BF     		.align	2
 3739              	.L410:
 3740 022c DB0FC940 		.word	1086918619
 3741              		.size	maximallyFlat.part.0.constprop.0, .-maximallyFlat.part.0.constprop.0
 3742              		.section	.text.maximallyFlat,"ax",%progbits
 3743              		.align	1
 3744              		.p2align 2,,3
 3745              		.global	maximallyFlat
 3746              		.syntax unified
 3747              		.thumb
 3748              		.thumb_func
 3749              		.type	maximallyFlat, %function
 3750              	maximallyFlat:
 3751              		@ args = 0, pretend = 0, frame = 0
 3752              		@ frame_needed = 0, uses_anonymous_args = 0
 3753              		@ link register save eliminated.
 3754 0000 B5EEC00A 		vcmpe.f32	s0, #0
 3755 0004 0023     		movs	r3, #0
 3756 0006 0360     		str	r3, [r0]
 3757 0008 F1EE10FA 		vmrs	APSR_nzcv, FPSCR
 3758 000c 23D9     		bls	.L418
 3759 000e F6EE007A 		vmov.f32	s15, #5.0e-1
 3760 0012 B4EEE70A 		vcmpe.f32	s0, s15
ARM GAS  /tmp/ccYdlVIk.s 			page 68


 3761 0016 F1EE10FA 		vmrs	APSR_nzcv, FPSCR
 3762 001a 1CDA     		bge	.L418
 3763 001c B7EEC07A 		vcvt.f64.f32	d7, s0
 3764 0020 B7EE006B 		vmov.f64	d6, #1.0e+0
 3765 0024 37EE077B 		vadd.f64	d7, d7, d7
 3766 0028 36EE476B 		vsub.f64	d6, d6, d7
 3767 002c B4EEC67B 		vcmpe.f64	d7, d6
 3768 0030 F1EE10FA 		vmrs	APSR_nzcv, FPSCR
 3769 0034 F5EEC00A 		vcmpe.f32	s1, #0
 3770 0038 4CBF     		ite	mi
 3771 003a 30EE006A 		vaddmi.f32	s12, s0, s0
 3772 003e B7EEC66B 		vcvtpl.f32.f64	s12, d6
 3773 0042 F1EE10FA 		vmrs	APSR_nzcv, FPSCR
 3774 0046 08D9     		bls	.L420
 3775 0048 B4EEE06A 		vcmpe.f32	s12, s1
 3776 004c F1EE10FA 		vmrs	APSR_nzcv, FPSCR
 3777 0050 03D9     		bls	.L420
 3778 0052 FFF7FEBF 		b	maximallyFlat.part.0.constprop.0
 3779              	.L418:
 3780 0056 0120     		movs	r0, #1
 3781 0058 7047     		bx	lr
 3782              	.L420:
 3783 005a 0220     		movs	r0, #2
 3784 005c 7047     		bx	lr
 3785              		.size	maximallyFlat, .-maximallyFlat
 3786 005e 00BF     		.section	.text.initializeFIR,"ax",%progbits
 3787              		.align	1
 3788              		.p2align 2,,3
 3789              		.global	initializeFIR
 3790              		.syntax unified
 3791              		.thumb
 3792              		.thumb_func
 3793              		.type	initializeFIR, %function
 3794              	initializeFIR:
 3795              		@ args = 0, pretend = 0, frame = 808
 3796              		@ frame_needed = 0, uses_anonymous_args = 0
 3797 0000 00B5     		push	{lr}
 3798 0002 2DED028B 		vpush.64	{d8}
 3799 0006 ADF54B7D 		sub	sp, sp, #812
 3800 000a B0EE418A 		vmov.f32	s16, s2
 3801 000e 01A9     		add	r1, sp, #4
 3802 0010 6846     		mov	r0, sp
 3803 0012 FFF7FEFF 		bl	maximallyFlat
 3804 0016 009B     		ldr	r3, [sp]
 3805 0018 002B     		cmp	r3, #0
 3806 001a 14DD     		ble	.L424
 3807 001c 591C     		adds	r1, r3, #1
 3808 001e 01A8     		add	r0, sp, #4
 3809 0020 B0EEC81A 		vabs.f32	s2, s16
 3810 0024 1A46     		mov	r2, r3
 3811 0026 00EB8101 		add	r1, r0, r1, lsl #2
 3812 002a 00E0     		b	.L425
 3813              	.L433:
 3814 002c 5AB1     		cbz	r2, .L424
 3815              	.L425:
 3816 002e 71ED017A 		vldmdb.32	r1!, {s15}
 3817 0032 1046     		mov	r0, r2
ARM GAS  /tmp/ccYdlVIk.s 			page 69


 3818 0034 013A     		subs	r2, r2, #1
 3819 0036 F0EEE77A 		vabs.f32	s15, s15
 3820 003a F4EEC17A 		vcmpe.f32	s15, s2
 3821 003e F1EE10FA 		vmrs	APSR_nzcv, FPSCR
 3822 0042 F3DB     		blt	.L433
 3823 0044 0346     		mov	r3, r0
 3824              	.L424:
 3825 0046 4FEA430C 		lsl	ip, r3, #1
 3826 004a 114A     		ldr	r2, .L434
 3827 004c 1149     		ldr	r1, .L434+4
 3828 004e 4FF0FF3E 		mov	lr, #-1
 3829 0052 0CF1FF3C 		add	ip, ip, #-1
 3830 0056 5FFA8CFC 		uxtb	ip, ip
 3831 005a 82F800C0 		strb	ip, [r2]
 3832 005e 0022     		movs	r2, #0
 3833              	.L427:
 3834 0060 01A8     		add	r0, sp, #4
 3835 0062 0132     		adds	r2, r2, #1
 3836 0064 00EB8300 		add	r0, r0, r3, lsl #2
 3837 0068 7344     		add	r3, r3, lr
 3838 006a 0068     		ldr	r0, [r0]	@ float
 3839 006c 002B     		cmp	r3, #0
 3840 006e 41F8040B 		str	r0, [r1], #4	@ float
 3841 0072 02DC     		bgt	.L426
 3842 0074 4FF0010E 		mov	lr, #1
 3843 0078 0223     		movs	r3, #2
 3844              	.L426:
 3845 007a 6245     		cmp	r2, ip
 3846 007c F0DB     		blt	.L427
 3847 007e 064B     		ldr	r3, .L434+8
 3848 0080 0022     		movs	r2, #0
 3849 0082 1A70     		strb	r2, [r3]
 3850 0084 0DF54B7D 		add	sp, sp, #812
 3851              		@ sp needed
 3852 0088 BDEC028B 		vldm	sp!, {d8}
 3853 008c 5DF804FB 		ldr	pc, [sp], #4
 3854              	.L435:
 3855              		.align	2
 3856              	.L434:
 3857 0090 00000000 		.word	numberTaps
 3858 0094 00000000 		.word	FIRCoef
 3859 0098 00000000 		.word	FIRPtr
 3860              		.size	initializeFIR, .-initializeFIR
 3861              		.section	.text.tube_init,"ax",%progbits
 3862              		.align	1
 3863              		.p2align 2,,3
 3864              		.global	tube_init
 3865              		.syntax unified
 3866              		.thumb
 3867              		.thumb_func
 3868              		.type	tube_init, %function
 3869              	tube_init:
 3870              		@ args = 0, pretend = 0, frame = 0
 3871              		@ frame_needed = 0, uses_anonymous_args = 0
 3872 0000 10B5     		push	{r4, lr}
 3873 0002 FFF7FEFF 		bl	initializeWavetable
 3874 0006 9FED351A 		vldr.32	s2, .L440
ARM GAS  /tmp/ccYdlVIk.s 			page 70


 3875 000a DFED350A 		vldr.32	s1, .L440+4
 3876 000e 9FED350A 		vldr.32	s0, .L440+8
 3877 0012 FFF7FEFF 		bl	initializeFIR
 3878 0016 344B     		ldr	r3, .L440+12
 3879 0018 DFED347A 		vldr.32	s15, .L440+16
 3880 001c B7EE006A 		vmov.f32	s12, #1.0e+0
 3881 0020 D3ED005A 		vldr.32	s11, [r3]
 3882 0024 3249     		ldr	r1, .L440+20
 3883 0026 75EEE77A 		vsub.f32	s15, s11, s15
 3884 002a 324C     		ldr	r4, .L440+24
 3885 002c 324A     		ldr	r2, .L440+28
 3886 002e 3348     		ldr	r0, .L440+32
 3887 0030 C7EEA56A 		vdiv.f32	s13, s15, s11
 3888 0034 324B     		ldr	r3, .L440+36
 3889 0036 9FED337A 		vldr.32	s14, .L440+40
 3890 003a F1EE667A 		vneg.f32	s15, s13
 3891 003e C4ED006A 		vstr.32	s13, [r4]
 3892 0042 F0EEE65A 		vabs.f32	s11, s13
 3893 0046 304C     		ldr	r4, .L440+44
 3894 0048 C1ED007A 		vstr.32	s15, [r1]
 3895 004c 2F49     		ldr	r1, .L440+48
 3896 004e 36EE656A 		vsub.f32	s12, s12, s11
 3897 0052 C2ED007A 		vstr.32	s15, [r2]
 3898 0056 C1ED007A 		vstr.32	s15, [r1]
 3899 005a 2D4A     		ldr	r2, .L440+52
 3900 005c 2D49     		ldr	r1, .L440+56
 3901 005e C4ED007A 		vstr.32	s15, [r4]
 3902 0062 80ED006A 		vstr.32	s12, [r0]
 3903 0066 2C4C     		ldr	r4, .L440+60
 3904 0068 2C48     		ldr	r0, .L440+64
 3905 006a 82ED006A 		vstr.32	s12, [r2]
 3906 006e C1ED006A 		vstr.32	s13, [r1]
 3907 0072 03F11001 		add	r1, r3, #16
 3908 0076 2A4A     		ldr	r2, .L440+68
 3909 0078 C4ED007A 		vstr.32	s15, [r4]
 3910 007c C0ED007A 		vstr.32	s15, [r0]
 3911              	.L437:
 3912 0080 F3EC016A 		vldmia.32	r3!, {s13}
 3913 0084 F0EE477A 		vmov.f32	s15, s14
 3914 0088 26EEA67A 		vmul.f32	s14, s13, s13
 3915 008c 8B42     		cmp	r3, r1
 3916 008e 37EEC76A 		vsub.f32	s12, s15, s14
 3917 0092 77EE877A 		vadd.f32	s15, s15, s14
 3918 0096 C6EE276A 		vdiv.f32	s13, s12, s15
 3919 009a E2EC016A 		vstmia.32	r2!, {s13}
 3920 009e EFD1     		bne	.L437
 3921 00a0 204B     		ldr	r3, .L440+72
 3922 00a2 F7EE007A 		vmov.f32	s15, #1.0e+0
 3923 00a6 9FED206A 		vldr.32	s12, .L440+76
 3924 00aa 1B88     		ldrh	r3, [r3]
 3925 00ac 1F48     		ldr	r0, .L440+80
 3926 00ae 07EE103A 		vmov	s14, r3	@ int
 3927 00b2 DFF88CC0 		ldr	ip, .L440+100
 3928 00b6 1E4A     		ldr	r2, .L440+84
 3929 00b8 B8EEC77A 		vcvt.f32.s32	s14, s14
 3930 00bc 1D4B     		ldr	r3, .L440+88
 3931 00be 1E49     		ldr	r1, .L440+92
ARM GAS  /tmp/ccYdlVIk.s 			page 71


 3932 00c0 C0F814C0 		str	ip, [r0, #20]	@ float
 3933 00c4 C6EE076A 		vdiv.f32	s13, s12, s14
 3934 00c8 1C48     		ldr	r0, .L440+96
 3935 00ca 0860     		str	r0, [r1]	@ float
 3936 00cc 77EEE67A 		vsub.f32	s15, s15, s13
 3937 00d0 C2ED006A 		vstr.32	s13, [r2]
 3938 00d4 C3ED007A 		vstr.32	s15, [r3]
 3939 00d8 10BD     		pop	{r4, pc}
 3940              	.L441:
 3941 00da 00BF     		.align	2
 3942              	.L440:
 3943 00dc 77CC2B32 		.word	841731191
 3944 00e0 CDCCCC3D 		.word	1036831949
 3945 00e4 CDCC4C3E 		.word	1045220557
 3946 00e8 00000000 		.word	nyquist
 3947 00ec 00409C45 		.word	1167867904
 3948 00f0 00000000 		.word	b11
 3949 00f4 00000000 		.word	a20
 3950 00f8 00000000 		.word	b21
 3951 00fc 00000000 		.word	a10
 3952 0100 08000000 		.word	noseRadius+8
 3953 0104 C7DC7540 		.word	1081466055
 3954 0108 00000000 		.word	a21
 3955 010c 00000000 		.word	nb11
 3956 0110 00000000 		.word	na10
 3957 0114 00000000 		.word	na20
 3958 0118 00000000 		.word	nb21
 3959 011c 00000000 		.word	na21
 3960 0120 04000000 		.word	nasal_coeff+4
 3961 0124 00000000 		.word	sampleRate
 3962 0128 00803B45 		.word	1161527296
 3963 012c 00000000 		.word	nasal_coeff
 3964 0130 00000000 		.word	ta0
 3965 0134 00000000 		.word	tb1
 3966 0138 00000000 		.word	throatGain
 3967 013c F1C2023B 		.word	990036721
 3968 0140 000080BF 		.word	-1082130432
 3969              		.size	tube_init, .-tube_init
 3970              		.section	.text.FIRFilter,"ax",%progbits
 3971              		.align	1
 3972              		.p2align 2,,3
 3973              		.global	FIRFilter
 3974              		.syntax unified
 3975              		.thumb
 3976              		.thumb_func
 3977              		.type	FIRFilter, %function
 3978              	FIRFilter:
 3979              		@ args = 0, pretend = 0, frame = 0
 3980              		@ frame_needed = 0, uses_anonymous_args = 0
 3981              		@ link register save eliminated.
 3982 0000 70B4     		push	{r4, r5, r6}
 3983 0002 1F4A     		ldr	r2, .L456
 3984 0004 B0EE407A 		vmov.f32	s14, s0
 3985 0008 1E4E     		ldr	r6, .L456+4
 3986 000a 1478     		ldrb	r4, [r2]	@ zero_extendqisi2
 3987 000c 3378     		ldrb	r3, [r6]	@ zero_extendqisi2
 3988 000e 20B3     		cbz	r0, .L443
ARM GAS  /tmp/ccYdlVIk.s 			page 72


 3989 0010 1D4D     		ldr	r5, .L456+8
 3990 0012 05EB8301 		add	r1, r5, r3, lsl #2
 3991 0016 81ED000A 		vstr.32	s0, [r1]
 3992 001a 6CB3     		cbz	r4, .L450
 3993 001c 1B49     		ldr	r1, .L456+12
 3994 001e 9FED1C0A 		vldr.32	s0, .L456+16
 3995 0022 01EB840C 		add	ip, r1, r4, lsl #2
 3996 0026 01E0     		b	.L446
 3997              	.L454:
 3998 0028 90ED007A 		vldr.32	s14, [r0]
 3999              	.L446:
 4000 002c 5A1C     		adds	r2, r3, #1
 4001 002e F1EC017A 		vldmia.32	r1!, {s15}
 4002 0032 0023     		movs	r3, #0
 4003 0034 A242     		cmp	r2, r4
 4004 0036 67EE877A 		vmul.f32	s15, s15, s14
 4005 003a B4BF     		ite	lt
 4006 003c D3B2     		uxtblt	r3, r2
 4007 003e 1A46     		movge	r2, r3
 4008 0040 8C45     		cmp	ip, r1
 4009 0042 30EE270A 		vadd.f32	s0, s0, s15
 4010 0046 05EB8300 		add	r0, r5, r3, lsl #2
 4011 004a EDD1     		bne	.L454
 4012              	.L444:
 4013 004c 531E     		subs	r3, r2, #1
 4014 004e 02B9     		cbnz	r2, .L447
 4015 0050 631E     		subs	r3, r4, #1
 4016              	.L447:
 4017 0052 DBB2     		uxtb	r3, r3
 4018 0054 3370     		strb	r3, [r6]
 4019 0056 70BC     		pop	{r4, r5, r6}
 4020 0058 7047     		bx	lr
 4021              	.L443:
 4022 005a 0B49     		ldr	r1, .L456+8
 4023 005c 5A1E     		subs	r2, r3, #1
 4024 005e 01EB8301 		add	r1, r1, r3, lsl #2
 4025 0062 81ED000A 		vstr.32	s0, [r1]
 4026 0066 2BB1     		cbz	r3, .L455
 4027              	.L449:
 4028 0068 D3B2     		uxtb	r3, r2
 4029 006a 9FED090A 		vldr.32	s0, .L456+16
 4030 006e 3370     		strb	r3, [r6]
 4031 0070 70BC     		pop	{r4, r5, r6}
 4032 0072 7047     		bx	lr
 4033              	.L455:
 4034 0074 621E     		subs	r2, r4, #1
 4035 0076 F7E7     		b	.L449
 4036              	.L450:
 4037 0078 1A46     		mov	r2, r3
 4038 007a 9FED050A 		vldr.32	s0, .L456+16
 4039 007e E5E7     		b	.L444
 4040              	.L457:
 4041              		.align	2
 4042              	.L456:
 4043 0080 00000000 		.word	numberTaps
 4044 0084 00000000 		.word	FIRPtr
 4045 0088 00000000 		.word	FIRData
ARM GAS  /tmp/ccYdlVIk.s 			page 73


 4046 008c 00000000 		.word	FIRCoef
 4047 0090 00000000 		.word	0
 4048              		.size	FIRFilter, .-FIRFilter
 4049              		.section	.text.increment,"ax",%progbits
 4050              		.align	1
 4051              		.p2align 2,,3
 4052              		.global	increment
 4053              		.syntax unified
 4054              		.thumb
 4055              		.thumb_func
 4056              		.type	increment, %function
 4057              	increment:
 4058              		@ args = 0, pretend = 0, frame = 0
 4059              		@ frame_needed = 0, uses_anonymous_args = 0
 4060              		@ link register save eliminated.
 4061 0000 0130     		adds	r0, r0, #1
 4062 0002 8842     		cmp	r0, r1
 4063 0004 A8BF     		it	ge
 4064 0006 0020     		movge	r0, #0
 4065 0008 7047     		bx	lr
 4066              		.size	increment, .-increment
 4067 000a 00BF     		.section	.text.decrement,"ax",%progbits
 4068              		.align	1
 4069              		.p2align 2,,3
 4070              		.global	decrement
 4071              		.syntax unified
 4072              		.thumb
 4073              		.thumb_func
 4074              		.type	decrement, %function
 4075              	decrement:
 4076              		@ args = 0, pretend = 0, frame = 0
 4077              		@ frame_needed = 0, uses_anonymous_args = 0
 4078              		@ link register save eliminated.
 4079 0000 0138     		subs	r0, r0, #1
 4080 0002 48BF     		it	mi
 4081 0004 01F1FF30 		addmi	r0, r1, #-1
 4082 0008 7047     		bx	lr
 4083              		.size	decrement, .-decrement
 4084 000a 00BF     		.section	.bss.xn1.0,"aw",%nobits
 4085              		.align	2
 4086              		.type	xn1.0, %object
 4087              		.size	xn1.0, 4
 4088              	xn1.0:
 4089 0000 00000000 		.space	4
 4090              		.section	.bss.yn2.1,"aw",%nobits
 4091              		.align	2
 4092              		.type	yn2.1, %object
 4093              		.size	yn2.1, 4
 4094              	yn2.1:
 4095 0000 00000000 		.space	4
 4096              		.section	.bss.yn1.2,"aw",%nobits
 4097              		.align	2
 4098              		.type	yn1.2, %object
 4099              		.size	yn1.2, 4
 4100              	yn1.2:
 4101 0000 00000000 		.space	4
 4102              		.section	.bss.xn2.3,"aw",%nobits
ARM GAS  /tmp/ccYdlVIk.s 			page 74


 4103              		.align	2
 4104              		.type	xn2.3, %object
 4105              		.size	xn2.3, 4
 4106              	xn2.3:
 4107 0000 00000000 		.space	4
 4108              		.section	.bss.throatY.4,"aw",%nobits
 4109              		.align	2
 4110              		.type	throatY.4, %object
 4111              		.size	throatY.4, 4
 4112              	throatY.4:
 4113 0000 00000000 		.space	4
 4114              		.section	.bss.nasalRadiationY.5,"aw",%nobits
 4115              		.align	2
 4116              		.type	nasalRadiationY.5, %object
 4117              		.size	nasalRadiationY.5, 4
 4118              	nasalRadiationY.5:
 4119 0000 00000000 		.space	4
 4120              		.section	.bss.nasalRadiationX.6,"aw",%nobits
 4121              		.align	2
 4122              		.type	nasalRadiationX.6, %object
 4123              		.size	nasalRadiationX.6, 4
 4124              	nasalRadiationX.6:
 4125 0000 00000000 		.space	4
 4126              		.section	.bss.nasalReflectionY.7,"aw",%nobits
 4127              		.align	2
 4128              		.type	nasalReflectionY.7, %object
 4129              		.size	nasalReflectionY.7, 4
 4130              	nasalReflectionY.7:
 4131 0000 00000000 		.space	4
 4132              		.section	.bss.radiationY.8,"aw",%nobits
 4133              		.align	2
 4134              		.type	radiationY.8, %object
 4135              		.size	radiationY.8, 4
 4136              	radiationY.8:
 4137 0000 00000000 		.space	4
 4138              		.section	.bss.radiationX.9,"aw",%nobits
 4139              		.align	2
 4140              		.type	radiationX.9, %object
 4141              		.size	radiationX.9, 4
 4142              	radiationX.9:
 4143 0000 00000000 		.space	4
 4144              		.section	.bss.reflectionY.10,"aw",%nobits
 4145              		.align	2
 4146              		.type	reflectionY.10, %object
 4147              		.size	reflectionY.10, 4
 4148              	reflectionY.10:
 4149 0000 00000000 		.space	4
 4150              		.section	.bss.noiseX.11,"aw",%nobits
 4151              		.align	2
 4152              		.type	noiseX.11, %object
 4153              		.size	noiseX.11, 4
 4154              	noiseX.11:
 4155 0000 00000000 		.space	4
 4156              		.section	.data.seed.12,"aw"
 4157              		.align	2
 4158              		.type	seed.12, %object
 4159              		.size	seed.12, 4
ARM GAS  /tmp/ccYdlVIk.s 			page 75


 4160              	seed.12:
 4161 0000 490B4A3F 		.word	1061817161
 4162              		.section	.bss.waveindex,"aw",%nobits
 4163              		.type	waveindex, %object
 4164              		.size	waveindex, 1
 4165              	waveindex:
 4166 0000 00       		.space	1
 4167              		.section	.bss.sample_count,"aw",%nobits
 4168              		.align	1
 4169              		.type	sample_count, %object
 4170              		.size	sample_count, 2
 4171              	sample_count:
 4172 0000 0000     		.space	2
 4173              		.section	.bss.maximumSampleValue,"aw",%nobits
 4174              		.align	2
 4175              		.type	maximumSampleValue, %object
 4176              		.size	maximumSampleValue, 4
 4177              	maximumSampleValue:
 4178 0000 00000000 		.space	4
 4179              		.section	.bss.interpol,"aw",%nobits
 4180              		.align	2
 4181              		.type	interpol, %object
 4182              		.size	interpol, 4
 4183              	interpol:
 4184 0000 00000000 		.space	4
 4185              		.section	.data.lengthy,"aw"
 4186              		.align	1
 4187              		.type	lengthy, %object
 4188              		.size	lengthy, 2
 4189              	lengthy:
 4190 0000 4000     		.short	64
 4191              		.section	.bss.sel,"aw",%nobits
 4192              		.type	sel, %object
 4193              		.size	sel, 1
 4194              	sel:
 4195 0000 00       		.space	1
 4196              		.section	.bss.lastsel,"aw",%nobits
 4197              		.type	lastsel, %object
 4198              		.size	lastsel, 1
 4199              	lastsel:
 4200 0000 00       		.space	1
 4201              		.section	.bss.ah1,"aw",%nobits
 4202              		.align	2
 4203              		.type	ah1, %object
 4204              		.size	ah1, 4
 4205              	ah1:
 4206 0000 00000000 		.space	4
 4207              		.section	.bss.ax,"aw",%nobits
 4208              		.align	2
 4209              		.type	ax, %object
 4210              		.size	ax, 4
 4211              	ax:
 4212 0000 00000000 		.space	4
 4213              		.section	.bss.f0,"aw",%nobits
 4214              		.align	2
 4215              		.type	f0, %object
 4216              		.size	f0, 4
ARM GAS  /tmp/ccYdlVIk.s 			page 76


 4217              	f0:
 4218 0000 00000000 		.space	4
 4219              		.section	.bss.input_frame,"aw",%nobits
 4220              		.align	2
 4221              		.type	input_frame, %object
 4222              		.size	input_frame, 72
 4223              	input_frame:
 4224 0000 00000000 		.space	72
 4224      00000000 
 4224      00000000 
 4224      00000000 
 4224      00000000 
 4225              		.section	.bss.numberTaps,"aw",%nobits
 4226              		.type	numberTaps, %object
 4227              		.size	numberTaps, 1
 4228              	numberTaps:
 4229 0000 00       		.space	1
 4230              		.section	.bss.FIRPtr,"aw",%nobits
 4231              		.type	FIRPtr, %object
 4232              		.size	FIRPtr, 1
 4233              	FIRPtr:
 4234 0000 00       		.space	1
 4235              		.section	.bss.FIRCoef,"aw",%nobits
 4236              		.align	2
 4237              		.type	FIRCoef, %object
 4238              		.size	FIRCoef, 1024
 4239              	FIRCoef:
 4240 0000 00000000 		.space	1024
 4240      00000000 
 4240      00000000 
 4240      00000000 
 4240      00000000 
 4241              		.section	.bss.FIRData,"aw",%nobits
 4242              		.align	2
 4243              		.type	FIRData, %object
 4244              		.size	FIRData, 1024
 4245              	FIRData:
 4246 0000 00000000 		.space	1024
 4246      00000000 
 4246      00000000 
 4246      00000000 
 4246      00000000 
 4247              		.section	.bss.fricationTap,"aw",%nobits
 4248              		.align	2
 4249              		.type	fricationTap, %object
 4250              		.size	fricationTap, 32
 4251              	fricationTap:
 4252 0000 00000000 		.space	32
 4252      00000000 
 4252      00000000 
 4252      00000000 
 4252      00000000 
 4253              		.section	.bss.prev_ptr,"aw",%nobits
 4254              		.type	prev_ptr, %object
 4255              		.size	prev_ptr, 1
 4256              	prev_ptr:
 4257 0000 00       		.space	1
ARM GAS  /tmp/ccYdlVIk.s 			page 77


 4258              		.section	.data.current_ptr,"aw"
 4259              		.type	current_ptr, %object
 4260              		.size	current_ptr, 1
 4261              	current_ptr:
 4262 0000 01       		.byte	1
 4263              		.section	.bss.alpha,"aw",%nobits
 4264              		.align	2
 4265              		.type	alpha, %object
 4266              		.size	alpha, 12
 4267              	alpha:
 4268 0000 00000000 		.space	12
 4268      00000000 
 4268      00000000 
 4269              		.section	.bss.nasal_coeff,"aw",%nobits
 4270              		.align	2
 4271              		.type	nasal_coeff, %object
 4272              		.size	nasal_coeff, 24
 4273              	nasal_coeff:
 4274 0000 00000000 		.space	24
 4274      00000000 
 4274      00000000 
 4274      00000000 
 4274      00000000 
 4275              		.section	.bss.nasal,"aw",%nobits
 4276              		.align	2
 4277              		.type	nasal, %object
 4278              		.size	nasal, 96
 4279              	nasal:
 4280 0000 00000000 		.space	96
 4280      00000000 
 4280      00000000 
 4280      00000000 
 4280      00000000 
 4281              		.section	.bss.oropharynx_coeff,"aw",%nobits
 4282              		.align	2
 4283              		.type	oropharynx_coeff, %object
 4284              		.size	oropharynx_coeff, 32
 4285              	oropharynx_coeff:
 4286 0000 00000000 		.space	32
 4286      00000000 
 4286      00000000 
 4286      00000000 
 4286      00000000 
 4287              		.section	.bss.oropharynx,"aw",%nobits
 4288              		.align	2
 4289              		.type	oropharynx, %object
 4290              		.size	oropharynx, 160
 4291              	oropharynx:
 4292 0000 00000000 		.space	160
 4292      00000000 
 4292      00000000 
 4292      00000000 
 4292      00000000 
 4293              		.section	.bss.bpGamma,"aw",%nobits
 4294              		.align	2
 4295              		.type	bpGamma, %object
 4296              		.size	bpGamma, 4
ARM GAS  /tmp/ccYdlVIk.s 			page 78


 4297              	bpGamma:
 4298 0000 00000000 		.space	4
 4299              		.section	.bss.bpBeta,"aw",%nobits
 4300              		.align	2
 4301              		.type	bpBeta, %object
 4302              		.size	bpBeta, 4
 4303              	bpBeta:
 4304 0000 00000000 		.space	4
 4305              		.section	.bss.bpAlpha,"aw",%nobits
 4306              		.align	2
 4307              		.type	bpAlpha, %object
 4308              		.size	bpAlpha, 4
 4309              	bpAlpha:
 4310 0000 00000000 		.space	4
 4311              		.section	.bss.throatGain,"aw",%nobits
 4312              		.align	2
 4313              		.type	throatGain, %object
 4314              		.size	throatGain, 4
 4315              	throatGain:
 4316 0000 00000000 		.space	4
 4317              		.section	.bss.ta0,"aw",%nobits
 4318              		.align	2
 4319              		.type	ta0, %object
 4320              		.size	ta0, 4
 4321              	ta0:
 4322 0000 00000000 		.space	4
 4323              		.section	.bss.tb1,"aw",%nobits
 4324              		.align	2
 4325              		.type	tb1, %object
 4326              		.size	tb1, 4
 4327              	tb1:
 4328 0000 00000000 		.space	4
 4329              		.section	.bss.nb21,"aw",%nobits
 4330              		.align	2
 4331              		.type	nb21, %object
 4332              		.size	nb21, 4
 4333              	nb21:
 4334 0000 00000000 		.space	4
 4335              		.section	.bss.na21,"aw",%nobits
 4336              		.align	2
 4337              		.type	na21, %object
 4338              		.size	na21, 4
 4339              	na21:
 4340 0000 00000000 		.space	4
 4341              		.section	.bss.na20,"aw",%nobits
 4342              		.align	2
 4343              		.type	na20, %object
 4344              		.size	na20, 4
 4345              	na20:
 4346 0000 00000000 		.space	4
 4347              		.section	.bss.nb11,"aw",%nobits
 4348              		.align	2
 4349              		.type	nb11, %object
 4350              		.size	nb11, 4
 4351              	nb11:
 4352 0000 00000000 		.space	4
 4353              		.section	.bss.na10,"aw",%nobits
ARM GAS  /tmp/ccYdlVIk.s 			page 79


 4354              		.align	2
 4355              		.type	na10, %object
 4356              		.size	na10, 4
 4357              	na10:
 4358 0000 00000000 		.space	4
 4359              		.section	.bss.b21,"aw",%nobits
 4360              		.align	2
 4361              		.type	b21, %object
 4362              		.size	b21, 4
 4363              	b21:
 4364 0000 00000000 		.space	4
 4365              		.section	.bss.a21,"aw",%nobits
 4366              		.align	2
 4367              		.type	a21, %object
 4368              		.size	a21, 4
 4369              	a21:
 4370 0000 00000000 		.space	4
 4371              		.section	.bss.a20,"aw",%nobits
 4372              		.align	2
 4373              		.type	a20, %object
 4374              		.size	a20, 4
 4375              	a20:
 4376 0000 00000000 		.space	4
 4377              		.section	.bss.b11,"aw",%nobits
 4378              		.align	2
 4379              		.type	b11, %object
 4380              		.size	b11, 4
 4381              	b11:
 4382 0000 00000000 		.space	4
 4383              		.section	.bss.a10,"aw",%nobits
 4384              		.align	2
 4385              		.type	a10, %object
 4386              		.size	a10, 4
 4387              	a10:
 4388 0000 00000000 		.space	4
 4389              		.section	.bss.currentPosition,"aw",%nobits
 4390              		.align	2
 4391              		.type	currentPosition, %object
 4392              		.size	currentPosition, 4
 4393              	currentPosition:
 4394 0000 00000000 		.space	4
 4395              		.section	.bss.wavetable,"aw",%nobits
 4396              		.align	2
 4397              		.type	wavetable, %object
 4398              		.size	wavetable, 2048
 4399              	wavetable:
 4400 0000 00000000 		.space	2048
 4400      00000000 
 4400      00000000 
 4400      00000000 
 4400      00000000 
 4401              		.global	pulsed
 4402              		.section	.bss.pulsed,"aw",%nobits
 4403              		.type	pulsed, %object
 4404              		.size	pulsed, 1
 4405              	pulsed:
 4406 0000 00       		.space	1
ARM GAS  /tmp/ccYdlVIk.s 			page 80


 4407              		.global	noseRadius
 4408              		.section	.rodata.noseRadius,"a"
 4409              		.align	2
 4410              		.type	noseRadius, %object
 4411              		.size	noseRadius, 24
 4412              	noseRadius:
 4413 0000 CDCCAC3F 		.word	1068289229
 4414 0004 48E1FA3F 		.word	1073406280
 4415 0008 E17AF43F 		.word	1072986849
 4416 000c 6666A63F 		.word	1067869798
 4417 0010 48E13A3F 		.word	1060823368
 4418 0014 00000000 		.space	4
 4419              		.global	basicIncrement
 4420              		.section	.data.basicIncrement,"aw"
 4421              		.align	2
 4422              		.type	basicIncrement, %object
 4423              		.size	basicIncrement, 4
 4424              	basicIncrement:
 4425 0000 075CD73C 		.word	1020746759
 4426              		.global	breathinessFactor
 4427              		.section	.data.breathinessFactor,"aw"
 4428              		.align	2
 4429              		.type	breathinessFactor, %object
 4430              		.size	breathinessFactor, 4
 4431              	breathinessFactor:
 4432 0000 CDCCCC3C 		.word	1020054733
 4433              		.global	tnDelta
 4434              		.section	.data.tnDelta,"aw"
 4435              		.align	2
 4436              		.type	tnDelta, %object
 4437              		.size	tnDelta, 4
 4438              	tnDelta:
 4439 0000 0000A442 		.word	1118044160
 4440              		.global	tnLength
 4441              		.section	.data.tnLength,"aw"
 4442              		.align	2
 4443              		.type	tnLength, %object
 4444              		.size	tnLength, 4
 4445              	tnLength:
 4446 0000 00002343 		.word	1126367232
 4447              		.global	tableDiv2
 4448              		.section	.data.tableDiv2,"aw"
 4449              		.align	2
 4450              		.type	tableDiv2, %object
 4451              		.size	tableDiv2, 4
 4452              	tableDiv2:
 4453 0000 3D010000 		.word	317
 4454              		.global	tableDiv1
 4455              		.section	.data.tableDiv1,"aw"
 4456              		.align	2
 4457              		.type	tableDiv1, %object
 4458              		.size	tableDiv1, 4
 4459              	tableDiv1:
 4460 0000 9A000000 		.word	154
 4461              		.global	crossmixFactor
 4462              		.section	.rodata.crossmixFactor,"a"
 4463              		.align	2
ARM GAS  /tmp/ccYdlVIk.s 			page 81


 4464              		.type	crossmixFactor, %object
 4465              		.size	crossmixFactor, 4
 4466              	crossmixFactor:
 4467 0000 52B87E40 		.word	1082046546
 4468              		.global	dampingFactor
 4469              		.section	.data.dampingFactor,"aw"
 4470              		.align	2
 4471              		.type	dampingFactor, %object
 4472              		.size	dampingFactor, 4
 4473              	dampingFactor:
 4474 0000 A4707D3F 		.word	1065185444
 4475              		.global	actualTubeLength
 4476              		.section	.rodata.actualTubeLength,"a"
 4477              		.align	2
 4478              		.type	actualTubeLength, %object
 4479              		.size	actualTubeLength, 4
 4480              	actualTubeLength:
 4481 0000 6F039041 		.word	1099957103
 4482              		.global	nyquist
 4483              		.section	.data.nyquist,"aw"
 4484              		.align	2
 4485              		.type	nyquist, %object
 4486              		.size	nyquist, 4
 4487              	nyquist:
 4488 0000 00081546 		.word	1175783424
 4489              		.global	sampleRate
 4490              		.section	.data.sampleRate,"aw"
 4491              		.align	1
 4492              		.type	sampleRate, %object
 4493              		.size	sampleRate, 2
 4494              	sampleRate:
 4495 0000 844A     		.short	19076
 4496              		.global	controlPeriod
 4497              		.section	.rodata.controlPeriod,"a"
 4498              		.align	2
 4499              		.type	controlPeriod, %object
 4500              		.size	controlPeriod, 4
 4501              	controlPeriod:
 4502 0000 A1120000 		.word	4769
 4503              		.section	.rodata.range,"a"
 4504              		.align	2
 4505              		.type	range, %object
 4506              		.size	range, 80
 4507              	range:
 4508 0000 00002041 		.word	1092616192
 4509 0004 00007042 		.word	1114636288
 4510 0008 00002041 		.word	1092616192
 4511 000c 00002041 		.word	1092616192
 4512 0010 00001041 		.word	1091567616
 4513 0014 0060B845 		.word	1169711104
 4514 0018 0060B845 		.word	1169711104
 4515 001c 00000000 		.word	0
 4516 0020 3333F33F 		.word	1072902963
 4517 0024 3333F33F 		.word	1072902963
 4518 0028 3333F33F 		.word	1072902963
 4519 002c 0000803F 		.word	1065353216
 4520 0030 3333F33F 		.word	1072902963
ARM GAS  /tmp/ccYdlVIk.s 			page 82


 4521 0034 3333F33F 		.word	1072902963
 4522 0038 295C3F40 		.word	1077894185
 4523 003c 3333F33F 		.word	1072902963
 4524 0040 00002041 		.word	1092616192
 4525 0044 00009041 		.word	1099956224
 4526 0048 00007041 		.word	1097859072
 4527 004c 00004743 		.word	1128726528
 4528              		.section	.rodata.mins,"a"
 4529              		.align	2
 4530              		.type	mins, %object
 4531              		.size	mins, 80
 4532              	mins:
 4533 0000 000020C1 		.word	-1054867456
 4534 0004 00000000 		.word	0
 4535 0008 00000000 		.word	0
 4536 000c 00000000 		.word	0
 4537 0010 0000803F 		.word	1065353216
 4538 0014 0000C842 		.word	1120403456
 4539 0018 0000C842 		.word	1120403456
 4540 001c CDCC4C3F 		.word	1061997773
 4541 0020 CDCC4C3F 		.word	1061997773
 4542 0024 CDCCCC3D 		.word	1036831949
 4543 0028 CDCCCC3D 		.word	1036831949
 4544 002c CDCCCC3D 		.word	1036831949
 4545 0030 CDCCCC3D 		.word	1036831949
 4546 0034 CDCCCC3D 		.word	1036831949
 4547 0038 0AD7233C 		.word	1008981770
 4548 003c CDCCCC3D 		.word	1036831949
 4549 0040 00000000 		.word	0
 4550 0044 00000041 		.word	1090519040
 4551 0048 0000803F 		.word	1065353216
 4552 004c 0000803F 		.word	1065353216
 4553              		.global	parameter_list
 4554              		.section	.rodata.parameter_list,"a"
 4555              		.align	2
 4556              		.type	parameter_list, %object
 4557              		.size	parameter_list, 84
 4558              	parameter_list:
 4559 0000 00007042 		.word	1114636288
 4560 0004 00000000 		.word	0
 4561 0008 0000F041 		.word	1106247680
 4562 000c 00008041 		.word	1098907648
 4563 0010 00000042 		.word	1107296256
 4564 0014 00002040 		.word	1075838976
 4565 0018 00009041 		.word	1099956224
 4566 001c 00000042 		.word	1107296256
 4567 0020 0000C03F 		.word	1069547520
 4568 0024 33334340 		.word	1078145843
 4569 0028 00409C45 		.word	1167867904
 4570 002c 00409C45 		.word	1167867904
 4571 0030 CDCCAC3F 		.word	1068289229
 4572 0034 48E1FA3F 		.word	1073406280
 4573 0038 E17AF43F 		.word	1072986849
 4574 003c 6666A63F 		.word	1067869798
 4575 0040 48E13A3F 		.word	1060823368
 4576 0044 0080BB44 		.word	1153138688
 4577 0048 0000C040 		.word	1086324736
ARM GAS  /tmp/ccYdlVIk.s 			page 83


 4578 004c 0000803F 		.word	1065353216
 4579 0050 00004042 		.word	1111490560
 4580              		.global	tubewaves
 4581              		.section	.rodata.tubewaves,"a"
 4582              		.align	2
 4583              		.type	tubewaves, %object
 4584              		.size	tubewaves, 384
 4585              	tubewaves:
 4586 0000 01       		.byte	1
 4587 0001 000000   		.space	3
 4588 0004 00000000 		.word	0
 4589 0008 00000000 		.word	0
 4590 000c 00000000 		.word	0
 4591 0010 00000000 		.word	0
 4592 0014 00000000 		.word	sinetable
 4593 0018 00       		.byte	0
 4594 0019 000000   		.space	3
 4595 001c 9A000000 		.word	154
 4596 0020 3D010000 		.word	317
 4597 0024 00002343 		.word	1126367232
 4598 0028 0000A442 		.word	1118044160
 4599 002c 00000000 		.word	pulsetable000
 4600 0030 00       		.byte	0
 4601 0031 000000   		.space	3
 4602 0034 CD000000 		.word	205
 4603 0038 71010000 		.word	369
 4604 003c 00002443 		.word	1126432768
 4605 0040 0000A442 		.word	1118044160
 4606 0044 00000000 		.word	pulsetable001
 4607 0048 00       		.byte	0
 4608 0049 000000   		.space	3
 4609 004c CD000000 		.word	205
 4610 0050 B3010000 		.word	435
 4611 0054 00006643 		.word	1130758144
 4612 0058 0000EC42 		.word	1122762752
 4613 005c 00000000 		.word	pulsetable002
 4614 0060 00       		.byte	0
 4615 0061 000000   		.space	3
 4616 0064 B3000000 		.word	179
 4617 0068 80010000 		.word	384
 4618 006c 00004D43 		.word	1129119744
 4619 0070 0000F642 		.word	1123418112
 4620 0074 00000000 		.word	pulsetable003
 4621 0078 00       		.byte	0
 4622 0079 000000   		.space	3
 4623 007c 1A000000 		.word	26
 4624 0080 4D000000 		.word	77
 4625 0084 00004C42 		.word	1112276992
 4626 0088 0000D041 		.word	1104150528
 4627 008c 00000000 		.word	pulsetable004
 4628 0090 00       		.byte	0
 4629 0091 000000   		.space	3
 4630 0094 33000000 		.word	51
 4631 0098 80000000 		.word	128
 4632 009c 00009A42 		.word	1117388800
 4633 00a0 0000D041 		.word	1104150528
 4634 00a4 00000000 		.word	pulsetable005
ARM GAS  /tmp/ccYdlVIk.s 			page 84


 4635 00a8 00       		.byte	0
 4636 00a9 000000   		.space	3
 4637 00ac 66000000 		.word	102
 4638 00b0 B3000000 		.word	179
 4639 00b4 00009A42 		.word	1117388800
 4640 00b8 0000D041 		.word	1104150528
 4641 00bc 00000000 		.word	pulsetable006
 4642 00c0 00       		.byte	0
 4643 00c1 000000   		.space	3
 4644 00c4 9A000000 		.word	154
 4645 00c8 E6000000 		.word	230
 4646 00cc 00009842 		.word	1117257728
 4647 00d0 0000D041 		.word	1104150528
 4648 00d4 00000000 		.word	pulsetable007
 4649 00d8 00       		.byte	0
 4650 00d9 000000   		.space	3
 4651 00dc CD000000 		.word	205
 4652 00e0 1A010000 		.word	282
 4653 00e4 00009A42 		.word	1117388800
 4654 00e8 0000D041 		.word	1104150528
 4655 00ec 00000000 		.word	pulsetable008
 4656 00f0 00       		.byte	0
 4657 00f1 000000   		.space	3
 4658 00f4 00010000 		.word	256
 4659 00f8 4D010000 		.word	333
 4660 00fc 00009A42 		.word	1117388800
 4661 0100 0000D041 		.word	1104150528
 4662 0104 00000000 		.word	pulsetable009
 4663 0108 00       		.byte	0
 4664 0109 000000   		.space	3
 4665 010c 00010000 		.word	256
 4666 0110 33010000 		.word	307
 4667 0114 00004C42 		.word	1112276992
 4668 0118 0000D041 		.word	1104150528
 4669 011c 00000000 		.word	pulsetable010
 4670 0120 00       		.byte	0
 4671 0121 000000   		.space	3
 4672 0124 CD000000 		.word	205
 4673 0128 33010000 		.word	307
 4674 012c 0000CC42 		.word	1120665600
 4675 0130 00004C42 		.word	1112276992
 4676 0134 00000000 		.word	pulsetable011
 4677 0138 00       		.byte	0
 4678 0139 000000   		.space	3
 4679 013c CD000000 		.word	205
 4680 0140 33010000 		.word	307
 4681 0144 0000CC42 		.word	1120665600
 4682 0148 0000D041 		.word	1104150528
 4683 014c 00000000 		.word	pulsetable012
 4684 0150 00       		.byte	0
 4685 0151 000000   		.space	3
 4686 0154 CD000000 		.word	205
 4687 0158 4D010000 		.word	333
 4688 015c 00000043 		.word	1124073472
 4689 0160 0000D041 		.word	1104150528
 4690 0164 00000000 		.word	pulsetable013
 4691 0168 00       		.byte	0
ARM GAS  /tmp/ccYdlVIk.s 			page 85


 4692 0169 000000   		.space	3
 4693 016c CD000000 		.word	205
 4694 0170 CD010000 		.word	461
 4695 0174 00008043 		.word	1132462080
 4696 0178 00001A43 		.word	1125777408
 4697 017c 00000000 		.word	pulsetable014
 4698              		.section	.rodata.pulsetable014,"a"
 4699              		.align	2
 4700              		.type	pulsetable014, %object
 4701              		.size	pulsetable014, 2048
 4702              	pulsetable014:
 4703 0000 00000000 		.word	0
 4704 0004 D6E59438 		.word	949282262
 4705 0008 D6E59439 		.word	966059478
 4706 000c 3DB9263A 		.word	975616317
 4707 0010 D8B7933A 		.word	982759384
 4708 0014 9529E63A 		.word	988162453
 4709 0018 9626253B 		.word	992290454
 4710 001c 8600603B 		.word	996147334
 4711 0020 4ED1913B 		.word	999412046
 4712 0024 42EDB73B 		.word	1001909570
 4713 0028 BA4BE23B 		.word	1004686266
 4714 002c 5C76083C 		.word	1007187548
 4715 0030 56D7213C 		.word	1008850774
 4716 0034 FD4C3D3C 		.word	1010650365
 4717 0038 EECE5A3C 		.word	1012584174
 4718 003c 94507A3C 		.word	1014648980
 4719 0040 10EB8D3C 		.word	1015933712
 4720 0044 7EA99F3C 		.word	1017096574
 4721 0048 7C61B23C 		.word	1018323324
 4722 004c F110C63C 		.word	1019613425
 4723 0050 ABB3DA3C 		.word	1020965803
 4724 0054 9147F03C 		.word	1022379921
 4725 0058 4565033D 		.word	1023632709
 4726 005c 321C0F3D 		.word	1024400434
 4727 0060 78461B3D 		.word	1025197688
 4728 0064 15E4273D 		.word	1026024469
 4729 0068 F1F2343D 		.word	1026880241
 4730 006c F470423D 		.word	1027764468
 4731 0070 1C5E503D 		.word	1028677148
 4732 0074 45B75E3D 		.word	1029617477
 4733 0078 637B6D3D 		.word	1030585187
 4734 007c 76AA7C3D 		.word	1031580278
 4735 0080 AB20863D 		.word	1032200363
 4736 0084 04208E3D 		.word	1032724484
 4737 0088 B151963D 		.word	1033261489
 4738 008c B3B59E3D 		.word	1033811379
 4739 0090 774AA73D 		.word	1034373751
 4740 0094 FE0FB03D 		.word	1034948606
 4741 0098 C005B93D 		.word	1035535808
 4742 009c 2C2AC23D 		.word	1036134956
 4743 00a0 417DCB3D 		.word	1036746049
 4744 00a4 F4FDD43D 		.word	1037368820
 4745 00a8 BDABDE3D 		.word	1038003133
 4746 00ac 0A85E83D 		.word	1038648586
 4747 00b0 618AF23D 		.word	1039305313
 4748 00b4 30BAFC3D 		.word	1039972912
ARM GAS  /tmp/ccYdlVIk.s 			page 86


 4749 00b8 F889033E 		.word	1040419320
 4750 00bc 8ECB083E 		.word	1040763790
 4751 00c0 96210E3E 		.word	1041113494
 4752 00c4 488B133E 		.word	1041468232
 4753 00c8 5F08193E 		.word	1041827935
 4754 00cc DD981E3E 		.word	1042192605
 4755 00d0 3A3C243E 		.word	1042562106
 4756 00d4 F1F1293E 		.word	1042936305
 4757 00d8 BFB92F3E 		.word	1043315135
 4758 00dc 1D93353E 		.word	1043698461
 4759 00e0 0B7E3B3E 		.word	1044086283
 4760 00e4 C079413E 		.word	1044478400
 4761 00e8 3C86473E 		.word	1044874812
 4762 00ec B6A24D3E 		.word	1045275318
 4763 00f0 70CF533E 		.word	1045679984
 4764 00f4 5F0B5A3E 		.word	1046088543
 4765 00f8 8256603E 		.word	1046500994
 4766 00fc 96B0663E 		.word	1046917270
 4767 0100 15196D3E 		.word	1047337237
 4768 0104 7A8F733E 		.word	1047760762
 4769 0108 C2137A3E 		.word	1048187842
 4770 010c 9352803E 		.word	1048597139
 4771 0110 D3A1833E 		.word	1048814035
 4772 0114 5EF7863E 		.word	1049032542
 4773 0118 F0528A3E 		.word	1049252592
 4774 011c 89B48D3E 		.word	1049474185
 4775 0120 E71B913E 		.word	1049697255
 4776 0124 C688943E 		.word	1049921734
 4777 0128 26FB973E 		.word	1050147622
 4778 012c 82729B3E 		.word	1050374786
 4779 0130 1CEF9E3E 		.word	1050603292
 4780 0134 6D70A23E 		.word	1050833005
 4781 0138 77F6A53E 		.word	1051063927
 4782 013c F580A93E 		.word	1051295989
 4783 0140 A60FAD3E 		.word	1051529126
 4784 0144 87A2B03E 		.word	1051763335
 4785 0148 5839B43E 		.word	1051998552
 4786 014c D4D3B73E 		.word	1052234708
 4787 0150 FC71BB3E 		.word	1052471804
 4788 0154 6A13BF3E 		.word	1052709738
 4789 0158 20B8C23E 		.word	1052948512
 4790 015c D95FC63E 		.word	1053188057
 4791 0160 520ACA3E 		.word	1053428306
 4792 0164 8DB7CD3E 		.word	1053669261
 4793 0168 2367D13E 		.word	1053910819
 4794 016c 1519D53E 		.word	1054152981
 4795 0170 FFCCD83E 		.word	1054395647
 4796 0174 0283DC3E 		.word	1054638850
 4797 0178 973AE03E 		.word	1054882455
 4798 017c E0F3E33E 		.word	1055126496
 4799 0180 79AEE73E 		.word	1055370873
 4800 0184 406AEB3E 		.word	1055615552
 4801 0188 F226EF3E 		.word	1055860466
 4802 018c 8FE4F23E 		.word	1056105615
 4803 0190 D3A2F63E 		.word	1056350931
 4804 0194 7C61FA3E 		.word	1056596348
 4805 0198 6820FE3E 		.word	1056841832
ARM GAS  /tmp/ccYdlVIk.s 			page 87


 4806 019c CCEF003F 		.word	1057025996
 4807 01a0 42CF023F 		.word	1057148738
 4808 01a4 97AE043F 		.word	1057271447
 4809 01a8 B98D063F 		.word	1057394105
 4810 01ac 876C083F 		.word	1057516679
 4811 01b0 E04A0A3F 		.word	1057639136
 4812 01b4 C3280C3F 		.word	1057761475
 4813 01b8 10060E3F 		.word	1057883664
 4814 01bc B5E20F3F 		.word	1058005685
 4815 01c0 7FBE113F 		.word	1058127487
 4816 01c4 7099133F 		.word	1058249072
 4817 01c8 7573153F 		.word	1058370421
 4818 01cc 6E4C173F 		.word	1058491502
 4819 01d0 3A24193F 		.word	1058612282
 4820 01d4 D7FA1A3F 		.word	1058732759
 4821 01d8 14D01C3F 		.word	1058852884
 4822 01dc F0A31E3F 		.word	1058972656
 4823 01e0 4B76203F 		.word	1059092043
 4824 01e4 0247223F 		.word	1059211010
 4825 01e8 1616243F 		.word	1059329558
 4826 01ec 54E3253F 		.word	1059447636
 4827 01f0 BCAE273F 		.word	1059565244
 4828 01f4 2D78293F 		.word	1059682349
 4829 01f8 853F2B3F 		.word	1059798917
 4830 01fc C5042D3F 		.word	1059914949
 4831 0200 C9C72E3F 		.word	1060030409
 4832 0204 7288303F 		.word	1060145266
 4833 0208 BF46323F 		.word	1060259519
 4834 020c 7E02343F 		.word	1060373118
 4835 0210 9DBB353F 		.word	1060486045
 4836 0214 0D72373F 		.word	1060598285
 4837 0218 BB25393F 		.word	1060709819
 4838 021c 88D63A3F 		.word	1060820616
 4839 0220 51843C3F 		.word	1060930641
 4840 0224 162F3E3F 		.word	1061039894
 4841 0228 B6D63F3F 		.word	1061148342
 4842 022c 0F7B413F 		.word	1061255951
 4843 0230 221C433F 		.word	1061362722
 4844 0234 BBB9443F 		.word	1061468603
 4845 0238 DA53463F 		.word	1061573594
 4846 023c 60EA473F 		.word	1061677664
 4847 0240 287D493F 		.word	1061780776
 4848 0244 240C4B3F 		.word	1061882916
 4849 0248 53974C3F 		.word	1061984083
 4850 024c 711E4E3F 		.word	1062084209
 4851 0250 90A14F3F 		.word	1062183312
 4852 0254 7D20513F 		.word	1062281341
 4853 0258 399B523F 		.word	1062378297
 4854 025c 9011543F 		.word	1062474128
 4855 0260 8483553F 		.word	1062568836
 4856 0264 F1F0563F 		.word	1062662385
 4857 0268 C959583F 		.word	1062754761
 4858 026c E8BD593F 		.word	1062845928
 4859 0270 2E1D5B3F 		.word	1062935854
 4860 0274 9A775C3F 		.word	1063024538
 4861 0278 1CCD5D3F 		.word	1063111964
 4862 027c 821D5F3F 		.word	1063198082
ARM GAS  /tmp/ccYdlVIk.s 			page 88


 4863 0280 BA68603F 		.word	1063282874
 4864 0284 B4AE613F 		.word	1063366324
 4865 0288 5FEF623F 		.word	1063448415
 4866 028c 882A643F 		.word	1063529096
 4867 0290 4260653F 		.word	1063608386
 4868 0294 5890663F 		.word	1063686232
 4869 0298 BABA673F 		.word	1063762618
 4870 029c 48DF683F 		.word	1063837512
 4871 02a0 00FE693F 		.word	1063910912
 4872 02a4 B1166B3F 		.word	1063982769
 4873 02a8 4A296C3F 		.word	1064053066
 4874 02ac CA356D3F 		.word	1064121802
 4875 02b0 003C6E3F 		.word	1064188928
 4876 02b4 EB3B6F3F 		.word	1064254443
 4877 02b8 5935703F 		.word	1064318297
 4878 02bc 4A28713F 		.word	1064380490
 4879 02c0 8C14723F 		.word	1064440972
 4880 02c4 1EFA723F 		.word	1064499742
 4881 02c8 F1D8733F 		.word	1064556785
 4882 02cc D1B0743F 		.word	1064612049
 4883 02d0 BF81753F 		.word	1064665535
 4884 02d4 994B763F 		.word	1064717209
 4885 02d8 3D0E773F 		.word	1064767037
 4886 02dc ACC9773F 		.word	1064815020
 4887 02e0 C37D783F 		.word	1064861123
 4888 02e4 632A793F 		.word	1064905315
 4889 02e8 78CF793F 		.word	1064947576
 4890 02ec F46C7A3F 		.word	1064987892
 4891 02f0 B4027B3F 		.word	1065026228
 4892 02f4 A8907B3F 		.word	1065062568
 4893 02f8 BE167C3F 		.word	1065096894
 4894 02fc C4947C3F 		.word	1065129156
 4895 0300 CC0A7D3F 		.word	1065159372
 4896 0304 A3787D3F 		.word	1065187491
 4897 0308 27DE7D3F 		.word	1065213479
 4898 030c 583B7E3F 		.word	1065237336
 4899 0310 25907E3F 		.word	1065259045
 4900 0314 5DDC7E3F 		.word	1065278557
 4901 0318 FF1F7F3F 		.word	1065295871
 4902 031c D95A7F3F 		.word	1065310937
 4903 0320 EB8C7F3F 		.word	1065323755
 4904 0324 24B67F3F 		.word	1065334308
 4905 0328 52D67F3F 		.word	1065342546
 4906 032c 63ED7F3F 		.word	1065348451
 4907 0330 59FB7F3F 		.word	1065352025
 4908 0334 0000803F 		.word	1065353216
 4909 0338 04FF7F3F 		.word	1065352964
 4910 033c 01FC7F3F 		.word	1065352193
 4911 0340 06F77F3F 		.word	1065350918
 4912 0344 02F07F3F 		.word	1065349122
 4913 0348 08E77F3F 		.word	1065346824
 4914 034c 05DC7F3F 		.word	1065344005
 4915 0350 FBCE7F3F 		.word	1065340667
 4916 0354 F9BF7F3F 		.word	1065336825
 4917 0358 FFAE7F3F 		.word	1065332479
 4918 035c FE9B7F3F 		.word	1065327614
 4919 0360 05877F3F 		.word	1065322245
ARM GAS  /tmp/ccYdlVIk.s 			page 89


 4920 0364 04707F3F 		.word	1065316356
 4921 0368 FC567F3F 		.word	1065309948
 4922 036c FB3B7F3F 		.word	1065303035
 4923 0370 041F7F3F 		.word	1065295620
 4924 0374 04007F3F 		.word	1065287684
 4925 0378 FCDE7E3F 		.word	1065279228
 4926 037c FDBB7E3F 		.word	1065270269
 4927 0380 07977E3F 		.word	1065260807
 4928 0384 F86F7E3F 		.word	1065250808
 4929 0388 02477E3F 		.word	1065240322
 4930 038c 041C7E3F 		.word	1065229316
 4931 0390 FEEE7D3F 		.word	1065217790
 4932 0394 01C07D3F 		.word	1065205761
 4933 0398 FC8E7D3F 		.word	1065193212
 4934 039c FF5B7D3F 		.word	1065180159
 4935 03a0 FA267D3F 		.word	1065166586
 4936 03a4 FEEF7C3F 		.word	1065152510
 4937 03a8 FAB67C3F 		.word	1065137914
 4938 03ac FE7B7C3F 		.word	1065122814
 4939 03b0 FB3E7C3F 		.word	1065107195
 4940 03b4 00007C3F 		.word	1065091072
 4941 03b8 FDBE7B3F 		.word	1065074429
 4942 03bc 037C7B3F 		.word	1065057283
 4943 03c0 00377B3F 		.word	1065039616
 4944 03c4 07F07A3F 		.word	1065021447
 4945 03c8 05A77A3F 		.word	1065002757
 4946 03cc FB5B7A3F 		.word	1064983547
 4947 03d0 FA0E7A3F 		.word	1064963834
 4948 03d4 01C0793F 		.word	1064943617
 4949 03d8 006F793F 		.word	1064922880
 4950 03dc F81B793F 		.word	1064901624
 4951 03e0 F8C6783F 		.word	1064879864
 4952 03e4 0070783F 		.word	1064857600
 4953 03e8 0117783F 		.word	1064834817
 4954 03ec F9BB773F 		.word	1064811513
 4955 03f0 FA5E773F 		.word	1064787706
 4956 03f4 0400773F 		.word	1064763396
 4957 03f8 069F763F 		.word	1064738566
 4958 03fc 003C763F 		.word	1064713216
 4959 0400 02D7753F 		.word	1064687362
 4960 0404 FC6F753F 		.word	1064660988
 4961 0408 FF06753F 		.word	1064634111
 4962 040c FA9B743F 		.word	1064606714
 4963 0410 FD2E743F 		.word	1064578813
 4964 0414 F9BF733F 		.word	1064550393
 4965 0418 FD4E733F 		.word	1064521469
 4966 041c F9DB723F 		.word	1064492025
 4967 0420 FD66723F 		.word	1064462077
 4968 0424 FAEF713F 		.word	1064431610
 4969 0428 FF76713F 		.word	1064400639
 4970 042c FCFB703F 		.word	1064369148
 4971 0430 027F703F 		.word	1064337154
 4972 0434 0000703F 		.word	1064304640
 4973 0438 067F6F3F 		.word	1064271622
 4974 043c 05FC6E3F 		.word	1064238085
 4975 0440 FB766E3F 		.word	1064204027
 4976 0444 FAEF6D3F 		.word	1064169466
ARM GAS  /tmp/ccYdlVIk.s 			page 90


 4977 0448 02676D3F 		.word	1064134402
 4978 044c 01DC6C3F 		.word	1064098817
 4979 0450 F94E6C3F 		.word	1064062713
 4980 0454 F9BF6B3F 		.word	1064026105
 4981 0458 012F6B3F 		.word	1063988993
 4982 045c 029C6A3F 		.word	1063951362
 4983 0460 FB066A3F 		.word	1063913211
 4984 0464 FC6F693F 		.word	1063874556
 4985 0468 06D7683F 		.word	1063835398
 4986 046c 083C683F 		.word	1063795720
 4987 0470 029F673F 		.word	1063755522
 4988 0474 0400673F 		.word	1063714820
 4989 0478 FF5E663F 		.word	1063673599
 4990 047c 02BC653F 		.word	1063631874
 4991 0480 FD16653F 		.word	1063589629
 4992 0484 0070643F 		.word	1063546880
 4993 0488 FCC6633F 		.word	1063503612
 4994 048c 001C633F 		.word	1063459840
 4995 0490 FC6E623F 		.word	1063415548
 4996 0494 01C0613F 		.word	1063370753
 4997 0498 FE0E613F 		.word	1063325438
 4998 049c 035C603F 		.word	1063279619
 4999 04a0 01A75F3F 		.word	1063233281
 5000 04a4 07F05E3F 		.word	1063186439
 5001 04a8 04375E3F 		.word	1063139076
 5002 04ac FA7B5D3F 		.word	1063091194
 5003 04b0 F9BE5C3F 		.word	1063042809
 5004 04b4 00005C3F 		.word	1062993920
 5005 04b8 FF3E5B3F 		.word	1062944511
 5006 04bc 077C5A3F 		.word	1062894599
 5007 04c0 07B7593F 		.word	1062844167
 5008 04c4 FEEF583F 		.word	1062793214
 5009 04c8 FE26583F 		.word	1062741758
 5010 04cc 075C573F 		.word	1062689799
 5011 04d0 088F563F 		.word	1062637320
 5012 04d4 01C0553F 		.word	1062584321
 5013 04d8 03EF543F 		.word	1062530819
 5014 04dc FC1B543F 		.word	1062476796
 5015 04e0 FE46533F 		.word	1062422270
 5016 04e4 F86F523F 		.word	1062367224
 5017 04e8 FB96513F 		.word	1062311675
 5018 04ec 06BC503F 		.word	1062255622
 5019 04f0 F8DE4F3F 		.word	1062199032
 5020 04f4 04004F3F 		.word	1062141956
 5021 04f8 081F4E3F 		.word	1062084360
 5022 04fc 043C4D3F 		.word	1062026244
 5023 0500 08574C3F 		.word	1061967624
 5024 0504 04704B3F 		.word	1061908484
 5025 0508 F9864A3F 		.word	1061848825
 5026 050c 069C493F 		.word	1061788678
 5027 0510 FBAE483F 		.word	1061727995
 5028 0514 F9BF473F 		.word	1061666809
 5029 0518 FFCE463F 		.word	1061605119
 5030 051c FDDB453F 		.word	1061542909
 5031 0520 04E7443F 		.word	1061480196
 5032 0524 02F0433F 		.word	1061416962
 5033 0528 F9F6423F 		.word	1061353209
ARM GAS  /tmp/ccYdlVIk.s 			page 91


 5034 052c F8FB413F 		.word	1061288952
 5035 0530 00FF403F 		.word	1061224192
 5036 0534 0000403F 		.word	1061158912
 5037 0538 F8FE3E3F 		.word	1061093112
 5038 053c F8FB3D3F 		.word	1061026808
 5039 0540 01F73C3F 		.word	1060960001
 5040 0544 02F03B3F 		.word	1060892674
 5041 0548 FBE63A3F 		.word	1060824827
 5042 054c FDDB393F 		.word	1060756477
 5043 0550 07CF383F 		.word	1060687623
 5044 0554 F9BF373F 		.word	1060618233
 5045 0558 04AF363F 		.word	1060548356
 5046 055c 069C353F 		.word	1060477958
 5047 0560 0187343F 		.word	1060407041
 5048 0564 0470333F 		.word	1060335620
 5049 0568 0057323F 		.word	1060263680
 5050 056c 043C313F 		.word	1060191236
 5051 0570 001F303F 		.word	1060118272
 5052 0574 04002F3F 		.word	1060044804
 5053 0578 01DF2D3F 		.word	1059970817
 5054 057c 06BC2C3F 		.word	1059896326
 5055 0580 03972B3F 		.word	1059821315
 5056 0584 F86F2A3F 		.word	1059745784
 5057 0588 0647293F 		.word	1059669766
 5058 058c FC1B283F 		.word	1059593212
 5059 0590 FAEE263F 		.word	1059516154
 5060 0594 01C0253F 		.word	1059438593
 5061 0598 008F243F 		.word	1059360512
 5062 059c 075C233F 		.word	1059281927
 5063 05a0 0727223F 		.word	1059202823
 5064 05a4 FEEF203F 		.word	1059123198
 5065 05a8 FEB61F3F 		.word	1059043070
 5066 05ac 077C1E3F 		.word	1058962439
 5067 05b0 073F1D3F 		.word	1058881287
 5068 05b4 00001C3F 		.word	1058799616
 5069 05b8 01BF1A3F 		.word	1058717441
 5070 05bc FA7B193F 		.word	1058634746
 5071 05c0 FC36183F 		.word	1058551548
 5072 05c4 07F0163F 		.word	1058467847
 5073 05c8 F8A6153F 		.word	1058383608
 5074 05cc 035C143F 		.word	1058298883
 5075 05d0 060F133F 		.word	1058213638
 5076 05d4 01C0113F 		.word	1058127873
 5077 05d8 056F103F 		.word	1058041605
 5078 05dc 001C0F3F 		.word	1057954816
 5079 05e0 04C70D3F 		.word	1057867524
 5080 05e4 00700C3F 		.word	1057779712
 5081 05e8 05170B3F 		.word	1057691397
 5082 05ec 02BC093F 		.word	1057602562
 5083 05f0 075F083F 		.word	1057513223
 5084 05f4 0400073F 		.word	1057423364
 5085 05f8 F99E053F 		.word	1057332985
 5086 05fc 083C043F 		.word	1057242120
 5087 0600 FED6023F 		.word	1057150718
 5088 0604 FC6F013F 		.word	1057058812
 5089 0608 0307003F 		.word	1056966403
 5090 060c 0438FD3E 		.word	1056782340
ARM GAS  /tmp/ccYdlVIk.s 			page 92


 5091 0610 F25DFA3E 		.word	1056595442
 5092 0614 F17FF73E 		.word	1056407537
 5093 0618 029EF43E 		.word	1056218626
 5094 061c 02B8F13E 		.word	1056028674
 5095 0620 F2CDEE3E 		.word	1055837682
 5096 0624 F4DFEB3E 		.word	1055645684
 5097 0628 07EEE83E 		.word	1055452679
 5098 062c 0AF8E53E 		.word	1055258634
 5099 0630 FCFDE23E 		.word	1055063548
 5100 0634 0000E03E 		.word	1054867456
 5101 0638 F4FDDC3E 		.word	1054670324
 5102 063c F9F7D93E 		.word	1054472185
 5103 0640 0FEED63E 		.word	1054273039
 5104 0644 F4DFD33E 		.word	1054072820
 5105 0648 0CCED03E 		.word	1053871628
 5106 064c F1B7CD3E 		.word	1053669361
 5107 0650 0A9ECA3E 		.word	1053466122
 5108 0654 F17FC73E 		.word	1053261809
 5109 0658 0B5EC43E 		.word	1053056523
 5110 065c F437C13E 		.word	1052850164
 5111 0660 0F0EBE3E 		.word	1052642831
 5112 0664 F8DFBA3E 		.word	1052434424
 5113 0668 F3ADB73E 		.word	1052225011
 5114 066c FF77B43E 		.word	1052014591
 5115 0670 FB3DB13E 		.word	1051803131
 5116 0674 0800AE3E 		.word	1051590664
 5117 0678 06BEAA3E 		.word	1051377158
 5118 067c F277A73E 		.word	1051162610
 5119 0680 F12DA43E 		.word	1050947057
 5120 0684 01E0A03E 		.word	1050730497
 5121 0688 008E9D3E 		.word	1050512896
 5122 068c EF379A3E 		.word	1050294255
 5123 0690 F0DD963E 		.word	1050074608
 5124 0694 0280933E 		.word	1049853954
 5125 0698 041E903E 		.word	1049632260
 5126 069c F6B78C3E 		.word	1049409526
 5127 06a0 F94D893E 		.word	1049185785
 5128 06a4 0DE0853E 		.word	1048961037
 5129 06a8 F06D823E 		.word	1048735216
 5130 06ac 0BF07D3E 		.word	1048440843
 5131 06b0 16FC763E 		.word	1047985174
 5132 06b4 0000703E 		.word	1047527424
 5133 06b8 0DFC683E 		.word	1047067661
 5134 06bc FAEF613E 		.word	1046605818
 5135 06c0 0ADC5A3E 		.word	1046141962
 5136 06c4 F9BF533E 		.word	1045676025
 5137 06c8 0B9C4C3E 		.word	1045208075
 5138 06cc FC6F453E 		.word	1044738044
 5139 06d0 103C3E3E 		.word	1044266000
 5140 06d4 0400373E 		.word	1043791876
 5141 06d8 1BBC2F3E 		.word	1043315739
 5142 06dc 1170283E 		.word	1042837521
 5143 06e0 E71B213E 		.word	1042357223
 5144 06e4 DFBF193E 		.word	1041874911
 5145 06e8 FB5B123E 		.word	1041390587
 5146 06ec F6EF0A3E 		.word	1040904182
 5147 06f0 137C033E 		.word	1040415763
ARM GAS  /tmp/ccYdlVIk.s 			page 93


 5148 06f4 2200F83D 		.word	1039663138
 5149 06f8 DBF7E83D 		.word	1038677979
 5150 06fc DBDFD93D 		.word	1037688795
 5151 0700 20B8CA3D 		.word	1036695584
 5152 0704 2480BB3D 		.word	1035698212
 5153 0708 E737AC3D 		.word	1034696679
 5154 070c F0DF9C3D 		.word	1033691120
 5155 0710 3E788D3D 		.word	1032681534
 5156 0714 8BFF7B3D 		.word	1031536523
 5157 0718 30F05C3D 		.word	1029500976
 5158 071c 55C03D3D 		.word	1027457109
 5159 0720 F86F1E3D 		.word	1025404920
 5160 0724 4B00FE3C 		.word	1023279179
 5161 0728 A4DFBE3C 		.word	1019142052
 5162 072c 26007F3C 		.word	1014956070
 5163 0730 FA7DFF3B 		.word	1006599674
 5164 0734 00000000 		.word	0
 5165 0738 00000000 		.word	0
 5166 073c 00000000 		.word	0
 5167 0740 00000000 		.word	0
 5168 0744 00000000 		.word	0
 5169 0748 00000000 		.word	0
 5170 074c 00000000 		.word	0
 5171 0750 00000000 		.word	0
 5172 0754 00000000 		.word	0
 5173 0758 00000000 		.word	0
 5174 075c 00000000 		.word	0
 5175 0760 00000000 		.word	0
 5176 0764 00000000 		.word	0
 5177 0768 00000000 		.word	0
 5178 076c 00000000 		.word	0
 5179 0770 00000000 		.word	0
 5180 0774 00000000 		.word	0
 5181 0778 00000000 		.word	0
 5182 077c 00000000 		.word	0
 5183 0780 00000000 		.word	0
 5184 0784 00000000 		.word	0
 5185 0788 00000000 		.word	0
 5186 078c 00000000 		.word	0
 5187 0790 00000000 		.word	0
 5188 0794 00000000 		.word	0
 5189 0798 00000000 		.word	0
 5190 079c 00000000 		.word	0
 5191 07a0 00000000 		.word	0
 5192 07a4 00000000 		.word	0
 5193 07a8 00000000 		.word	0
 5194 07ac 00000000 		.word	0
 5195 07b0 00000000 		.word	0
 5196 07b4 00000000 		.word	0
 5197 07b8 00000000 		.word	0
 5198 07bc 00000000 		.word	0
 5199 07c0 00000000 		.word	0
 5200 07c4 00000000 		.word	0
 5201 07c8 00000000 		.word	0
 5202 07cc 00000000 		.word	0
 5203 07d0 00000000 		.word	0
 5204 07d4 00000000 		.word	0
ARM GAS  /tmp/ccYdlVIk.s 			page 94


 5205 07d8 00000000 		.word	0
 5206 07dc 00000000 		.word	0
 5207 07e0 00000000 		.word	0
 5208 07e4 00000000 		.word	0
 5209 07e8 00000000 		.word	0
 5210 07ec 00000000 		.word	0
 5211 07f0 00000000 		.word	0
 5212 07f4 00000000 		.word	0
 5213 07f8 00000000 		.word	0
 5214 07fc 00000000 		.word	0
 5215              		.section	.rodata.pulsetable013,"a"
 5216              		.align	2
 5217              		.type	pulsetable013, %object
 5218              		.size	pulsetable013, 2048
 5219              	pulsetable013:
 5220 0000 00000000 		.word	0
 5221 0004 D6E59438 		.word	949282262
 5222 0008 D6E59439 		.word	966059478
 5223 000c 3DB9263A 		.word	975616317
 5224 0010 D8B7933A 		.word	982759384
 5225 0014 9529E63A 		.word	988162453
 5226 0018 9626253B 		.word	992290454
 5227 001c 8600603B 		.word	996147334
 5228 0020 4ED1913B 		.word	999412046
 5229 0024 42EDB73B 		.word	1001909570
 5230 0028 BA4BE23B 		.word	1004686266
 5231 002c 5C76083C 		.word	1007187548
 5232 0030 56D7213C 		.word	1008850774
 5233 0034 FD4C3D3C 		.word	1010650365
 5234 0038 EECE5A3C 		.word	1012584174
 5235 003c 94507A3C 		.word	1014648980
 5236 0040 10EB8D3C 		.word	1015933712
 5237 0044 7EA99F3C 		.word	1017096574
 5238 0048 7C61B23C 		.word	1018323324
 5239 004c F110C63C 		.word	1019613425
 5240 0050 ABB3DA3C 		.word	1020965803
 5241 0054 9147F03C 		.word	1022379921
 5242 0058 4565033D 		.word	1023632709
 5243 005c 321C0F3D 		.word	1024400434
 5244 0060 78461B3D 		.word	1025197688
 5245 0064 15E4273D 		.word	1026024469
 5246 0068 F1F2343D 		.word	1026880241
 5247 006c F470423D 		.word	1027764468
 5248 0070 1C5E503D 		.word	1028677148
 5249 0074 45B75E3D 		.word	1029617477
 5250 0078 637B6D3D 		.word	1030585187
 5251 007c 76AA7C3D 		.word	1031580278
 5252 0080 AB20863D 		.word	1032200363
 5253 0084 04208E3D 		.word	1032724484
 5254 0088 B151963D 		.word	1033261489
 5255 008c B3B59E3D 		.word	1033811379
 5256 0090 774AA73D 		.word	1034373751
 5257 0094 FE0FB03D 		.word	1034948606
 5258 0098 C005B93D 		.word	1035535808
 5259 009c 2C2AC23D 		.word	1036134956
 5260 00a0 417DCB3D 		.word	1036746049
 5261 00a4 F4FDD43D 		.word	1037368820
ARM GAS  /tmp/ccYdlVIk.s 			page 95


 5262 00a8 BDABDE3D 		.word	1038003133
 5263 00ac 0A85E83D 		.word	1038648586
 5264 00b0 618AF23D 		.word	1039305313
 5265 00b4 30BAFC3D 		.word	1039972912
 5266 00b8 F889033E 		.word	1040419320
 5267 00bc 8ECB083E 		.word	1040763790
 5268 00c0 96210E3E 		.word	1041113494
 5269 00c4 488B133E 		.word	1041468232
 5270 00c8 5F08193E 		.word	1041827935
 5271 00cc DD981E3E 		.word	1042192605
 5272 00d0 3A3C243E 		.word	1042562106
 5273 00d4 F1F1293E 		.word	1042936305
 5274 00d8 BFB92F3E 		.word	1043315135
 5275 00dc 1D93353E 		.word	1043698461
 5276 00e0 0B7E3B3E 		.word	1044086283
 5277 00e4 C079413E 		.word	1044478400
 5278 00e8 3C86473E 		.word	1044874812
 5279 00ec B6A24D3E 		.word	1045275318
 5280 00f0 70CF533E 		.word	1045679984
 5281 00f4 5F0B5A3E 		.word	1046088543
 5282 00f8 8256603E 		.word	1046500994
 5283 00fc 96B0663E 		.word	1046917270
 5284 0100 15196D3E 		.word	1047337237
 5285 0104 7A8F733E 		.word	1047760762
 5286 0108 C2137A3E 		.word	1048187842
 5287 010c 9352803E 		.word	1048597139
 5288 0110 D3A1833E 		.word	1048814035
 5289 0114 5EF7863E 		.word	1049032542
 5290 0118 F0528A3E 		.word	1049252592
 5291 011c 89B48D3E 		.word	1049474185
 5292 0120 E71B913E 		.word	1049697255
 5293 0124 C688943E 		.word	1049921734
 5294 0128 26FB973E 		.word	1050147622
 5295 012c 82729B3E 		.word	1050374786
 5296 0130 1CEF9E3E 		.word	1050603292
 5297 0134 6D70A23E 		.word	1050833005
 5298 0138 77F6A53E 		.word	1051063927
 5299 013c F580A93E 		.word	1051295989
 5300 0140 A60FAD3E 		.word	1051529126
 5301 0144 87A2B03E 		.word	1051763335
 5302 0148 5839B43E 		.word	1051998552
 5303 014c D4D3B73E 		.word	1052234708
 5304 0150 FC71BB3E 		.word	1052471804
 5305 0154 6A13BF3E 		.word	1052709738
 5306 0158 20B8C23E 		.word	1052948512
 5307 015c D95FC63E 		.word	1053188057
 5308 0160 520ACA3E 		.word	1053428306
 5309 0164 8DB7CD3E 		.word	1053669261
 5310 0168 2367D13E 		.word	1053910819
 5311 016c 1519D53E 		.word	1054152981
 5312 0170 FFCCD83E 		.word	1054395647
 5313 0174 0283DC3E 		.word	1054638850
 5314 0178 973AE03E 		.word	1054882455
 5315 017c E0F3E33E 		.word	1055126496
 5316 0180 79AEE73E 		.word	1055370873
 5317 0184 406AEB3E 		.word	1055615552
 5318 0188 F226EF3E 		.word	1055860466
ARM GAS  /tmp/ccYdlVIk.s 			page 96


 5319 018c 8FE4F23E 		.word	1056105615
 5320 0190 D3A2F63E 		.word	1056350931
 5321 0194 7C61FA3E 		.word	1056596348
 5322 0198 6820FE3E 		.word	1056841832
 5323 019c CCEF003F 		.word	1057025996
 5324 01a0 42CF023F 		.word	1057148738
 5325 01a4 97AE043F 		.word	1057271447
 5326 01a8 B98D063F 		.word	1057394105
 5327 01ac 876C083F 		.word	1057516679
 5328 01b0 E04A0A3F 		.word	1057639136
 5329 01b4 C3280C3F 		.word	1057761475
 5330 01b8 10060E3F 		.word	1057883664
 5331 01bc B5E20F3F 		.word	1058005685
 5332 01c0 7FBE113F 		.word	1058127487
 5333 01c4 7099133F 		.word	1058249072
 5334 01c8 7573153F 		.word	1058370421
 5335 01cc 6E4C173F 		.word	1058491502
 5336 01d0 3A24193F 		.word	1058612282
 5337 01d4 D7FA1A3F 		.word	1058732759
 5338 01d8 14D01C3F 		.word	1058852884
 5339 01dc F0A31E3F 		.word	1058972656
 5340 01e0 4B76203F 		.word	1059092043
 5341 01e4 0247223F 		.word	1059211010
 5342 01e8 1616243F 		.word	1059329558
 5343 01ec 54E3253F 		.word	1059447636
 5344 01f0 BCAE273F 		.word	1059565244
 5345 01f4 2D78293F 		.word	1059682349
 5346 01f8 853F2B3F 		.word	1059798917
 5347 01fc C5042D3F 		.word	1059914949
 5348 0200 C9C72E3F 		.word	1060030409
 5349 0204 7288303F 		.word	1060145266
 5350 0208 BF46323F 		.word	1060259519
 5351 020c 7E02343F 		.word	1060373118
 5352 0210 9DBB353F 		.word	1060486045
 5353 0214 0D72373F 		.word	1060598285
 5354 0218 BB25393F 		.word	1060709819
 5355 021c 88D63A3F 		.word	1060820616
 5356 0220 51843C3F 		.word	1060930641
 5357 0224 162F3E3F 		.word	1061039894
 5358 0228 B6D63F3F 		.word	1061148342
 5359 022c 0F7B413F 		.word	1061255951
 5360 0230 221C433F 		.word	1061362722
 5361 0234 BBB9443F 		.word	1061468603
 5362 0238 DA53463F 		.word	1061573594
 5363 023c 60EA473F 		.word	1061677664
 5364 0240 287D493F 		.word	1061780776
 5365 0244 240C4B3F 		.word	1061882916
 5366 0248 53974C3F 		.word	1061984083
 5367 024c 711E4E3F 		.word	1062084209
 5368 0250 90A14F3F 		.word	1062183312
 5369 0254 7D20513F 		.word	1062281341
 5370 0258 399B523F 		.word	1062378297
 5371 025c 9011543F 		.word	1062474128
 5372 0260 8483553F 		.word	1062568836
 5373 0264 F1F0563F 		.word	1062662385
 5374 0268 C959583F 		.word	1062754761
 5375 026c E8BD593F 		.word	1062845928
ARM GAS  /tmp/ccYdlVIk.s 			page 97


 5376 0270 2E1D5B3F 		.word	1062935854
 5377 0274 9A775C3F 		.word	1063024538
 5378 0278 1CCD5D3F 		.word	1063111964
 5379 027c 821D5F3F 		.word	1063198082
 5380 0280 BA68603F 		.word	1063282874
 5381 0284 B4AE613F 		.word	1063366324
 5382 0288 5FEF623F 		.word	1063448415
 5383 028c 882A643F 		.word	1063529096
 5384 0290 4260653F 		.word	1063608386
 5385 0294 5890663F 		.word	1063686232
 5386 0298 BABA673F 		.word	1063762618
 5387 029c 48DF683F 		.word	1063837512
 5388 02a0 00FE693F 		.word	1063910912
 5389 02a4 B1166B3F 		.word	1063982769
 5390 02a8 4A296C3F 		.word	1064053066
 5391 02ac CA356D3F 		.word	1064121802
 5392 02b0 003C6E3F 		.word	1064188928
 5393 02b4 EB3B6F3F 		.word	1064254443
 5394 02b8 5935703F 		.word	1064318297
 5395 02bc 4A28713F 		.word	1064380490
 5396 02c0 8C14723F 		.word	1064440972
 5397 02c4 1EFA723F 		.word	1064499742
 5398 02c8 F1D8733F 		.word	1064556785
 5399 02cc D1B0743F 		.word	1064612049
 5400 02d0 BF81753F 		.word	1064665535
 5401 02d4 994B763F 		.word	1064717209
 5402 02d8 3D0E773F 		.word	1064767037
 5403 02dc ACC9773F 		.word	1064815020
 5404 02e0 C37D783F 		.word	1064861123
 5405 02e4 632A793F 		.word	1064905315
 5406 02e8 78CF793F 		.word	1064947576
 5407 02ec F46C7A3F 		.word	1064987892
 5408 02f0 B4027B3F 		.word	1065026228
 5409 02f4 A8907B3F 		.word	1065062568
 5410 02f8 BE167C3F 		.word	1065096894
 5411 02fc C4947C3F 		.word	1065129156
 5412 0300 CC0A7D3F 		.word	1065159372
 5413 0304 A3787D3F 		.word	1065187491
 5414 0308 27DE7D3F 		.word	1065213479
 5415 030c 583B7E3F 		.word	1065237336
 5416 0310 25907E3F 		.word	1065259045
 5417 0314 5DDC7E3F 		.word	1065278557
 5418 0318 FF1F7F3F 		.word	1065295871
 5419 031c D95A7F3F 		.word	1065310937
 5420 0320 EB8C7F3F 		.word	1065323755
 5421 0324 24B67F3F 		.word	1065334308
 5422 0328 52D67F3F 		.word	1065342546
 5423 032c 63ED7F3F 		.word	1065348451
 5424 0330 59FB7F3F 		.word	1065352025
 5425 0334 0000803F 		.word	1065353216
 5426 0338 01FC7F3F 		.word	1065352193
 5427 033c 02F07F3F 		.word	1065349122
 5428 0340 05DC7F3F 		.word	1065344005
 5429 0344 F9BF7F3F 		.word	1065336825
 5430 0348 FE9B7F3F 		.word	1065327614
 5431 034c 04707F3F 		.word	1065316356
 5432 0350 FB3B7F3F 		.word	1065303035
ARM GAS  /tmp/ccYdlVIk.s 			page 98


 5433 0354 04007F3F 		.word	1065287684
 5434 0358 FDBB7E3F 		.word	1065270269
 5435 035c F86F7E3F 		.word	1065250808
 5436 0360 041C7E3F 		.word	1065229316
 5437 0364 01C07D3F 		.word	1065205761
 5438 0368 FF5B7D3F 		.word	1065180159
 5439 036c FEEF7C3F 		.word	1065152510
 5440 0370 FE7B7C3F 		.word	1065122814
 5441 0374 00007C3F 		.word	1065091072
 5442 0378 037C7B3F 		.word	1065057283
 5443 037c 07F07A3F 		.word	1065021447
 5444 0380 FB5B7A3F 		.word	1064983547
 5445 0384 01C0793F 		.word	1064943617
 5446 0388 F81B793F 		.word	1064901624
 5447 038c 0070783F 		.word	1064857600
 5448 0390 F9BB773F 		.word	1064811513
 5449 0394 0400773F 		.word	1064763396
 5450 0398 003C763F 		.word	1064713216
 5451 039c FC6F753F 		.word	1064660988
 5452 03a0 FA9B743F 		.word	1064606714
 5453 03a4 F9BF733F 		.word	1064550393
 5454 03a8 F9DB723F 		.word	1064492025
 5455 03ac FAEF713F 		.word	1064431610
 5456 03b0 FCFB703F 		.word	1064369148
 5457 03b4 0000703F 		.word	1064304640
 5458 03b8 05FC6E3F 		.word	1064238085
 5459 03bc FAEF6D3F 		.word	1064169466
 5460 03c0 01DC6C3F 		.word	1064098817
 5461 03c4 F9BF6B3F 		.word	1064026105
 5462 03c8 029C6A3F 		.word	1063951362
 5463 03cc FC6F693F 		.word	1063874556
 5464 03d0 083C683F 		.word	1063795720
 5465 03d4 0400673F 		.word	1063714820
 5466 03d8 02BC653F 		.word	1063631874
 5467 03dc 0070643F 		.word	1063546880
 5468 03e0 001C633F 		.word	1063459840
 5469 03e4 01C0613F 		.word	1063370753
 5470 03e8 035C603F 		.word	1063279619
 5471 03ec 07F05E3F 		.word	1063186439
 5472 03f0 FA7B5D3F 		.word	1063091194
 5473 03f4 00005C3F 		.word	1062993920
 5474 03f8 077C5A3F 		.word	1062894599
 5475 03fc FEEF583F 		.word	1062793214
 5476 0400 075C573F 		.word	1062689799
 5477 0404 01C0553F 		.word	1062584321
 5478 0408 FC1B543F 		.word	1062476796
 5479 040c F86F523F 		.word	1062367224
 5480 0410 06BC503F 		.word	1062255622
 5481 0414 04004F3F 		.word	1062141956
 5482 0418 043C4D3F 		.word	1062026244
 5483 041c 04704B3F 		.word	1061908484
 5484 0420 069C493F 		.word	1061788678
 5485 0424 F9BF473F 		.word	1061666809
 5486 0428 FDDB453F 		.word	1061542909
 5487 042c 02F0433F 		.word	1061416962
 5488 0430 F8FB413F 		.word	1061288952
 5489 0434 0000403F 		.word	1061158912
ARM GAS  /tmp/ccYdlVIk.s 			page 99


 5490 0438 F8FB3D3F 		.word	1061026808
 5491 043c 02F03B3F 		.word	1060892674
 5492 0440 FDDB393F 		.word	1060756477
 5493 0444 F9BF373F 		.word	1060618233
 5494 0448 069C353F 		.word	1060477958
 5495 044c 0470333F 		.word	1060335620
 5496 0450 043C313F 		.word	1060191236
 5497 0454 04002F3F 		.word	1060044804
 5498 0458 06BC2C3F 		.word	1059896326
 5499 045c F86F2A3F 		.word	1059745784
 5500 0460 FC1B283F 		.word	1059593212
 5501 0464 01C0253F 		.word	1059438593
 5502 0468 075C233F 		.word	1059281927
 5503 046c FEEF203F 		.word	1059123198
 5504 0470 077C1E3F 		.word	1058962439
 5505 0474 00001C3F 		.word	1058799616
 5506 0478 FA7B193F 		.word	1058634746
 5507 047c 07F0163F 		.word	1058467847
 5508 0480 035C143F 		.word	1058298883
 5509 0484 01C0113F 		.word	1058127873
 5510 0488 001C0F3F 		.word	1057954816
 5511 048c 00700C3F 		.word	1057779712
 5512 0490 02BC093F 		.word	1057602562
 5513 0494 0400073F 		.word	1057423364
 5514 0498 083C043F 		.word	1057242120
 5515 049c FC6F013F 		.word	1057058812
 5516 04a0 0438FD3E 		.word	1056782340
 5517 04a4 F17FF73E 		.word	1056407537
 5518 04a8 02B8F13E 		.word	1056028674
 5519 04ac F4DFEB3E 		.word	1055645684
 5520 04b0 0AF8E53E 		.word	1055258634
 5521 04b4 0000E03E 		.word	1054867456
 5522 04b8 F9F7D93E 		.word	1054472185
 5523 04bc F4DFD33E 		.word	1054072820
 5524 04c0 F1B7CD3E 		.word	1053669361
 5525 04c4 F17FC73E 		.word	1053261809
 5526 04c8 F437C13E 		.word	1052850164
 5527 04cc F8DFBA3E 		.word	1052434424
 5528 04d0 FF77B43E 		.word	1052014591
 5529 04d4 0800AE3E 		.word	1051590664
 5530 04d8 F277A73E 		.word	1051162610
 5531 04dc 01E0A03E 		.word	1050730497
 5532 04e0 EF379A3E 		.word	1050294255
 5533 04e4 0280933E 		.word	1049853954
 5534 04e8 F6B78C3E 		.word	1049409526
 5535 04ec 0DE0853E 		.word	1048961037
 5536 04f0 0BF07D3E 		.word	1048440843
 5537 04f4 0000703E 		.word	1047527424
 5538 04f8 FAEF613E 		.word	1046605818
 5539 04fc F9BF533E 		.word	1045676025
 5540 0500 FC6F453E 		.word	1044738044
 5541 0504 0400373E 		.word	1043791876
 5542 0508 1170283E 		.word	1042837521
 5543 050c DFBF193E 		.word	1041874911
 5544 0510 F6EF0A3E 		.word	1040904182
 5545 0514 2200F83D 		.word	1039663138
 5546 0518 DBDFD93D 		.word	1037688795
ARM GAS  /tmp/ccYdlVIk.s 			page 100


 5547 051c 2480BB3D 		.word	1035698212
 5548 0520 F0DF9C3D 		.word	1033691120
 5549 0524 8BFF7B3D 		.word	1031536523
 5550 0528 55C03D3D 		.word	1027457109
 5551 052c 4B00FE3C 		.word	1023279179
 5552 0530 26007F3C 		.word	1014956070
 5553 0534 00000000 		.word	0
 5554 0538 00000000 		.word	0
 5555 053c 00000000 		.word	0
 5556 0540 00000000 		.word	0
 5557 0544 00000000 		.word	0
 5558 0548 00000000 		.word	0
 5559 054c 00000000 		.word	0
 5560 0550 00000000 		.word	0
 5561 0554 00000000 		.word	0
 5562 0558 00000000 		.word	0
 5563 055c 00000000 		.word	0
 5564 0560 00000000 		.word	0
 5565 0564 00000000 		.word	0
 5566 0568 00000000 		.word	0
 5567 056c 00000000 		.word	0
 5568 0570 00000000 		.word	0
 5569 0574 00000000 		.word	0
 5570 0578 00000000 		.word	0
 5571 057c 00000000 		.word	0
 5572 0580 00000000 		.word	0
 5573 0584 00000000 		.word	0
 5574 0588 00000000 		.word	0
 5575 058c 00000000 		.word	0
 5576 0590 00000000 		.word	0
 5577 0594 00000000 		.word	0
 5578 0598 00000000 		.word	0
 5579 059c 00000000 		.word	0
 5580 05a0 00000000 		.word	0
 5581 05a4 00000000 		.word	0
 5582 05a8 00000000 		.word	0
 5583 05ac 00000000 		.word	0
 5584 05b0 00000000 		.word	0
 5585 05b4 00000000 		.word	0
 5586 05b8 00000000 		.word	0
 5587 05bc 00000000 		.word	0
 5588 05c0 00000000 		.word	0
 5589 05c4 00000000 		.word	0
 5590 05c8 00000000 		.word	0
 5591 05cc 00000000 		.word	0
 5592 05d0 00000000 		.word	0
 5593 05d4 00000000 		.word	0
 5594 05d8 00000000 		.word	0
 5595 05dc 00000000 		.word	0
 5596 05e0 00000000 		.word	0
 5597 05e4 00000000 		.word	0
 5598 05e8 00000000 		.word	0
 5599 05ec 00000000 		.word	0
 5600 05f0 00000000 		.word	0
 5601 05f4 00000000 		.word	0
 5602 05f8 00000000 		.word	0
 5603 05fc 00000000 		.word	0
ARM GAS  /tmp/ccYdlVIk.s 			page 101


 5604 0600 00000000 		.word	0
 5605 0604 00000000 		.word	0
 5606 0608 00000000 		.word	0
 5607 060c 00000000 		.word	0
 5608 0610 00000000 		.word	0
 5609 0614 00000000 		.word	0
 5610 0618 00000000 		.word	0
 5611 061c 00000000 		.word	0
 5612 0620 00000000 		.word	0
 5613 0624 00000000 		.word	0
 5614 0628 00000000 		.word	0
 5615 062c 00000000 		.word	0
 5616 0630 00000000 		.word	0
 5617 0634 00000000 		.word	0
 5618 0638 00000000 		.word	0
 5619 063c 00000000 		.word	0
 5620 0640 00000000 		.word	0
 5621 0644 00000000 		.word	0
 5622 0648 00000000 		.word	0
 5623 064c 00000000 		.word	0
 5624 0650 00000000 		.word	0
 5625 0654 00000000 		.word	0
 5626 0658 00000000 		.word	0
 5627 065c 00000000 		.word	0
 5628 0660 00000000 		.word	0
 5629 0664 00000000 		.word	0
 5630 0668 00000000 		.word	0
 5631 066c 00000000 		.word	0
 5632 0670 00000000 		.word	0
 5633 0674 00000000 		.word	0
 5634 0678 00000000 		.word	0
 5635 067c 00000000 		.word	0
 5636 0680 00000000 		.word	0
 5637 0684 00000000 		.word	0
 5638 0688 00000000 		.word	0
 5639 068c 00000000 		.word	0
 5640 0690 00000000 		.word	0
 5641 0694 00000000 		.word	0
 5642 0698 00000000 		.word	0
 5643 069c 00000000 		.word	0
 5644 06a0 00000000 		.word	0
 5645 06a4 00000000 		.word	0
 5646 06a8 00000000 		.word	0
 5647 06ac 00000000 		.word	0
 5648 06b0 00000000 		.word	0
 5649 06b4 00000000 		.word	0
 5650 06b8 00000000 		.word	0
 5651 06bc 00000000 		.word	0
 5652 06c0 00000000 		.word	0
 5653 06c4 00000000 		.word	0
 5654 06c8 00000000 		.word	0
 5655 06cc 00000000 		.word	0
 5656 06d0 00000000 		.word	0
 5657 06d4 00000000 		.word	0
 5658 06d8 00000000 		.word	0
 5659 06dc 00000000 		.word	0
 5660 06e0 00000000 		.word	0
ARM GAS  /tmp/ccYdlVIk.s 			page 102


 5661 06e4 00000000 		.word	0
 5662 06e8 00000000 		.word	0
 5663 06ec 00000000 		.word	0
 5664 06f0 00000000 		.word	0
 5665 06f4 00000000 		.word	0
 5666 06f8 00000000 		.word	0
 5667 06fc 00000000 		.word	0
 5668 0700 00000000 		.word	0
 5669 0704 00000000 		.word	0
 5670 0708 00000000 		.word	0
 5671 070c 00000000 		.word	0
 5672 0710 00000000 		.word	0
 5673 0714 00000000 		.word	0
 5674 0718 00000000 		.word	0
 5675 071c 00000000 		.word	0
 5676 0720 00000000 		.word	0
 5677 0724 00000000 		.word	0
 5678 0728 00000000 		.word	0
 5679 072c 00000000 		.word	0
 5680 0730 00000000 		.word	0
 5681 0734 00000000 		.word	0
 5682 0738 00000000 		.word	0
 5683 073c 00000000 		.word	0
 5684 0740 00000000 		.word	0
 5685 0744 00000000 		.word	0
 5686 0748 00000000 		.word	0
 5687 074c 00000000 		.word	0
 5688 0750 00000000 		.word	0
 5689 0754 00000000 		.word	0
 5690 0758 00000000 		.word	0
 5691 075c 00000000 		.word	0
 5692 0760 00000000 		.word	0
 5693 0764 00000000 		.word	0
 5694 0768 00000000 		.word	0
 5695 076c 00000000 		.word	0
 5696 0770 00000000 		.word	0
 5697 0774 00000000 		.word	0
 5698 0778 00000000 		.word	0
 5699 077c 00000000 		.word	0
 5700 0780 00000000 		.word	0
 5701 0784 00000000 		.word	0
 5702 0788 00000000 		.word	0
 5703 078c 00000000 		.word	0
 5704 0790 00000000 		.word	0
 5705 0794 00000000 		.word	0
 5706 0798 00000000 		.word	0
 5707 079c 00000000 		.word	0
 5708 07a0 00000000 		.word	0
 5709 07a4 00000000 		.word	0
 5710 07a8 00000000 		.word	0
 5711 07ac 00000000 		.word	0
 5712 07b0 00000000 		.word	0
 5713 07b4 00000000 		.word	0
 5714 07b8 00000000 		.word	0
 5715 07bc 00000000 		.word	0
 5716 07c0 00000000 		.word	0
 5717 07c4 00000000 		.word	0
ARM GAS  /tmp/ccYdlVIk.s 			page 103


 5718 07c8 00000000 		.word	0
 5719 07cc 00000000 		.word	0
 5720 07d0 00000000 		.word	0
 5721 07d4 00000000 		.word	0
 5722 07d8 00000000 		.word	0
 5723 07dc 00000000 		.word	0
 5724 07e0 00000000 		.word	0
 5725 07e4 00000000 		.word	0
 5726 07e8 00000000 		.word	0
 5727 07ec 00000000 		.word	0
 5728 07f0 00000000 		.word	0
 5729 07f4 00000000 		.word	0
 5730 07f8 00000000 		.word	0
 5731 07fc 00000000 		.word	0
 5732              		.section	.rodata.pulsetable012,"a"
 5733              		.align	2
 5734              		.type	pulsetable012, %object
 5735              		.size	pulsetable012, 2048
 5736              	pulsetable012:
 5737 0000 00000000 		.word	0
 5738 0004 D6E59438 		.word	949282262
 5739 0008 D6E59439 		.word	966059478
 5740 000c 3DB9263A 		.word	975616317
 5741 0010 D8B7933A 		.word	982759384
 5742 0014 9529E63A 		.word	988162453
 5743 0018 9626253B 		.word	992290454
 5744 001c 8600603B 		.word	996147334
 5745 0020 4ED1913B 		.word	999412046
 5746 0024 42EDB73B 		.word	1001909570
 5747 0028 BA4BE23B 		.word	1004686266
 5748 002c 5C76083C 		.word	1007187548
 5749 0030 56D7213C 		.word	1008850774
 5750 0034 FD4C3D3C 		.word	1010650365
 5751 0038 EECE5A3C 		.word	1012584174
 5752 003c 94507A3C 		.word	1014648980
 5753 0040 10EB8D3C 		.word	1015933712
 5754 0044 7EA99F3C 		.word	1017096574
 5755 0048 7C61B23C 		.word	1018323324
 5756 004c F110C63C 		.word	1019613425
 5757 0050 ABB3DA3C 		.word	1020965803
 5758 0054 9147F03C 		.word	1022379921
 5759 0058 4565033D 		.word	1023632709
 5760 005c 321C0F3D 		.word	1024400434
 5761 0060 78461B3D 		.word	1025197688
 5762 0064 15E4273D 		.word	1026024469
 5763 0068 F1F2343D 		.word	1026880241
 5764 006c F470423D 		.word	1027764468
 5765 0070 1C5E503D 		.word	1028677148
 5766 0074 45B75E3D 		.word	1029617477
 5767 0078 637B6D3D 		.word	1030585187
 5768 007c 76AA7C3D 		.word	1031580278
 5769 0080 AB20863D 		.word	1032200363
 5770 0084 04208E3D 		.word	1032724484
 5771 0088 B151963D 		.word	1033261489
 5772 008c B3B59E3D 		.word	1033811379
 5773 0090 774AA73D 		.word	1034373751
 5774 0094 FE0FB03D 		.word	1034948606
ARM GAS  /tmp/ccYdlVIk.s 			page 104


 5775 0098 C005B93D 		.word	1035535808
 5776 009c 2C2AC23D 		.word	1036134956
 5777 00a0 417DCB3D 		.word	1036746049
 5778 00a4 F4FDD43D 		.word	1037368820
 5779 00a8 BDABDE3D 		.word	1038003133
 5780 00ac 0A85E83D 		.word	1038648586
 5781 00b0 618AF23D 		.word	1039305313
 5782 00b4 30BAFC3D 		.word	1039972912
 5783 00b8 F889033E 		.word	1040419320
 5784 00bc 8ECB083E 		.word	1040763790
 5785 00c0 96210E3E 		.word	1041113494
 5786 00c4 488B133E 		.word	1041468232
 5787 00c8 5F08193E 		.word	1041827935
 5788 00cc DD981E3E 		.word	1042192605
 5789 00d0 3A3C243E 		.word	1042562106
 5790 00d4 F1F1293E 		.word	1042936305
 5791 00d8 BFB92F3E 		.word	1043315135
 5792 00dc 1D93353E 		.word	1043698461
 5793 00e0 0B7E3B3E 		.word	1044086283
 5794 00e4 C079413E 		.word	1044478400
 5795 00e8 3C86473E 		.word	1044874812
 5796 00ec B6A24D3E 		.word	1045275318
 5797 00f0 70CF533E 		.word	1045679984
 5798 00f4 5F0B5A3E 		.word	1046088543
 5799 00f8 8256603E 		.word	1046500994
 5800 00fc 96B0663E 		.word	1046917270
 5801 0100 15196D3E 		.word	1047337237
 5802 0104 7A8F733E 		.word	1047760762
 5803 0108 C2137A3E 		.word	1048187842
 5804 010c 9352803E 		.word	1048597139
 5805 0110 D3A1833E 		.word	1048814035
 5806 0114 5EF7863E 		.word	1049032542
 5807 0118 F0528A3E 		.word	1049252592
 5808 011c 89B48D3E 		.word	1049474185
 5809 0120 E71B913E 		.word	1049697255
 5810 0124 C688943E 		.word	1049921734
 5811 0128 26FB973E 		.word	1050147622
 5812 012c 82729B3E 		.word	1050374786
 5813 0130 1CEF9E3E 		.word	1050603292
 5814 0134 6D70A23E 		.word	1050833005
 5815 0138 77F6A53E 		.word	1051063927
 5816 013c F580A93E 		.word	1051295989
 5817 0140 A60FAD3E 		.word	1051529126
 5818 0144 87A2B03E 		.word	1051763335
 5819 0148 5839B43E 		.word	1051998552
 5820 014c D4D3B73E 		.word	1052234708
 5821 0150 FC71BB3E 		.word	1052471804
 5822 0154 6A13BF3E 		.word	1052709738
 5823 0158 20B8C23E 		.word	1052948512
 5824 015c D95FC63E 		.word	1053188057
 5825 0160 520ACA3E 		.word	1053428306
 5826 0164 8DB7CD3E 		.word	1053669261
 5827 0168 2367D13E 		.word	1053910819
 5828 016c 1519D53E 		.word	1054152981
 5829 0170 FFCCD83E 		.word	1054395647
 5830 0174 0283DC3E 		.word	1054638850
 5831 0178 973AE03E 		.word	1054882455
ARM GAS  /tmp/ccYdlVIk.s 			page 105


 5832 017c E0F3E33E 		.word	1055126496
 5833 0180 79AEE73E 		.word	1055370873
 5834 0184 406AEB3E 		.word	1055615552
 5835 0188 F226EF3E 		.word	1055860466
 5836 018c 8FE4F23E 		.word	1056105615
 5837 0190 D3A2F63E 		.word	1056350931
 5838 0194 7C61FA3E 		.word	1056596348
 5839 0198 6820FE3E 		.word	1056841832
 5840 019c CCEF003F 		.word	1057025996
 5841 01a0 42CF023F 		.word	1057148738
 5842 01a4 97AE043F 		.word	1057271447
 5843 01a8 B98D063F 		.word	1057394105
 5844 01ac 876C083F 		.word	1057516679
 5845 01b0 E04A0A3F 		.word	1057639136
 5846 01b4 C3280C3F 		.word	1057761475
 5847 01b8 10060E3F 		.word	1057883664
 5848 01bc B5E20F3F 		.word	1058005685
 5849 01c0 7FBE113F 		.word	1058127487
 5850 01c4 7099133F 		.word	1058249072
 5851 01c8 7573153F 		.word	1058370421
 5852 01cc 6E4C173F 		.word	1058491502
 5853 01d0 3A24193F 		.word	1058612282
 5854 01d4 D7FA1A3F 		.word	1058732759
 5855 01d8 14D01C3F 		.word	1058852884
 5856 01dc F0A31E3F 		.word	1058972656
 5857 01e0 4B76203F 		.word	1059092043
 5858 01e4 0247223F 		.word	1059211010
 5859 01e8 1616243F 		.word	1059329558
 5860 01ec 54E3253F 		.word	1059447636
 5861 01f0 BCAE273F 		.word	1059565244
 5862 01f4 2D78293F 		.word	1059682349
 5863 01f8 853F2B3F 		.word	1059798917
 5864 01fc C5042D3F 		.word	1059914949
 5865 0200 C9C72E3F 		.word	1060030409
 5866 0204 7288303F 		.word	1060145266
 5867 0208 BF46323F 		.word	1060259519
 5868 020c 7E02343F 		.word	1060373118
 5869 0210 9DBB353F 		.word	1060486045
 5870 0214 0D72373F 		.word	1060598285
 5871 0218 BB25393F 		.word	1060709819
 5872 021c 88D63A3F 		.word	1060820616
 5873 0220 51843C3F 		.word	1060930641
 5874 0224 162F3E3F 		.word	1061039894
 5875 0228 B6D63F3F 		.word	1061148342
 5876 022c 0F7B413F 		.word	1061255951
 5877 0230 221C433F 		.word	1061362722
 5878 0234 BBB9443F 		.word	1061468603
 5879 0238 DA53463F 		.word	1061573594
 5880 023c 60EA473F 		.word	1061677664
 5881 0240 287D493F 		.word	1061780776
 5882 0244 240C4B3F 		.word	1061882916
 5883 0248 53974C3F 		.word	1061984083
 5884 024c 711E4E3F 		.word	1062084209
 5885 0250 90A14F3F 		.word	1062183312
 5886 0254 7D20513F 		.word	1062281341
 5887 0258 399B523F 		.word	1062378297
 5888 025c 9011543F 		.word	1062474128
ARM GAS  /tmp/ccYdlVIk.s 			page 106


 5889 0260 8483553F 		.word	1062568836
 5890 0264 F1F0563F 		.word	1062662385
 5891 0268 C959583F 		.word	1062754761
 5892 026c E8BD593F 		.word	1062845928
 5893 0270 2E1D5B3F 		.word	1062935854
 5894 0274 9A775C3F 		.word	1063024538
 5895 0278 1CCD5D3F 		.word	1063111964
 5896 027c 821D5F3F 		.word	1063198082
 5897 0280 BA68603F 		.word	1063282874
 5898 0284 B4AE613F 		.word	1063366324
 5899 0288 5FEF623F 		.word	1063448415
 5900 028c 882A643F 		.word	1063529096
 5901 0290 4260653F 		.word	1063608386
 5902 0294 5890663F 		.word	1063686232
 5903 0298 BABA673F 		.word	1063762618
 5904 029c 48DF683F 		.word	1063837512
 5905 02a0 00FE693F 		.word	1063910912
 5906 02a4 B1166B3F 		.word	1063982769
 5907 02a8 4A296C3F 		.word	1064053066
 5908 02ac CA356D3F 		.word	1064121802
 5909 02b0 003C6E3F 		.word	1064188928
 5910 02b4 EB3B6F3F 		.word	1064254443
 5911 02b8 5935703F 		.word	1064318297
 5912 02bc 4A28713F 		.word	1064380490
 5913 02c0 8C14723F 		.word	1064440972
 5914 02c4 1EFA723F 		.word	1064499742
 5915 02c8 F1D8733F 		.word	1064556785
 5916 02cc D1B0743F 		.word	1064612049
 5917 02d0 BF81753F 		.word	1064665535
 5918 02d4 994B763F 		.word	1064717209
 5919 02d8 3D0E773F 		.word	1064767037
 5920 02dc ACC9773F 		.word	1064815020
 5921 02e0 C37D783F 		.word	1064861123
 5922 02e4 632A793F 		.word	1064905315
 5923 02e8 78CF793F 		.word	1064947576
 5924 02ec F46C7A3F 		.word	1064987892
 5925 02f0 B4027B3F 		.word	1065026228
 5926 02f4 A8907B3F 		.word	1065062568
 5927 02f8 BE167C3F 		.word	1065096894
 5928 02fc C4947C3F 		.word	1065129156
 5929 0300 CC0A7D3F 		.word	1065159372
 5930 0304 A3787D3F 		.word	1065187491
 5931 0308 27DE7D3F 		.word	1065213479
 5932 030c 583B7E3F 		.word	1065237336
 5933 0310 25907E3F 		.word	1065259045
 5934 0314 5DDC7E3F 		.word	1065278557
 5935 0318 FF1F7F3F 		.word	1065295871
 5936 031c D95A7F3F 		.word	1065310937
 5937 0320 EB8C7F3F 		.word	1065323755
 5938 0324 24B67F3F 		.word	1065334308
 5939 0328 52D67F3F 		.word	1065342546
 5940 032c 63ED7F3F 		.word	1065348451
 5941 0330 59FB7F3F 		.word	1065352025
 5942 0334 0000803F 		.word	1065353216
 5943 0338 B5F97F3F 		.word	1065351605
 5944 033c D6E67F3F 		.word	1065346774
 5945 0340 50C77F3F 		.word	1065338704
ARM GAS  /tmp/ccYdlVIk.s 			page 107


 5946 0344 359B7F3F 		.word	1065327413
 5947 0348 84627F3F 		.word	1065312900
 5948 034c 3F1D7F3F 		.word	1065295167
 5949 0350 53CB7E3F 		.word	1065274195
 5950 0354 E36C7E3F 		.word	1065250019
 5951 0358 CD017E3F 		.word	1065222605
 5952 035c 118A7D3F 		.word	1065191953
 5953 0360 D1057D3F 		.word	1065158097
 5954 0364 EB747C3F 		.word	1065121003
 5955 0368 6FD77B3F 		.word	1065080687
 5956 036c 5E2D7B3F 		.word	1065037150
 5957 0370 B8767A3F 		.word	1064990392
 5958 0374 6CB3793F 		.word	1064940396
 5959 0378 8AE3783F 		.word	1064887178
 5960 037c 1407783F 		.word	1064830740
 5961 0380 081E773F 		.word	1064771080
 5962 0384 5628763F 		.word	1064708182
 5963 0388 0F26753F 		.word	1064642063
 5964 038c 3317743F 		.word	1064572723
 5965 0390 C2FB723F 		.word	1064500162
 5966 0394 BBD3713F 		.word	1064424379
 5967 0398 0E9F703F 		.word	1064345358
 5968 039c CC5D6F3F 		.word	1064263116
 5969 03a0 F50F6E3F 		.word	1064177653
 5970 03a4 78B56C3F 		.word	1064088952
 5971 03a8 774E6B3F 		.word	1063997047
 5972 03ac CFDA693F 		.word	1063901903
 5973 03b0 925A683F 		.word	1063803538
 5974 03b4 AFCD663F 		.word	1063701935
 5975 03b8 4834653F 		.word	1063597128
 5976 03bc 3B8E633F 		.word	1063489083
 5977 03c0 98DB613F 		.word	1063377816
 5978 03c4 501C603F 		.word	1063263312
 5979 03c8 83505E3F 		.word	1063145603
 5980 03cc 10785C3F 		.word	1063024656
 5981 03d0 08935A3F 		.word	1062900488
 5982 03d4 6AA1583F 		.word	1062773098
 5983 03d8 38A3563F 		.word	1062642488
 5984 03dc 5F98543F 		.word	1062508639
 5985 03e0 F180523F 		.word	1062371569
 5986 03e4 EE5C503F 		.word	1062231278
 5987 03e8 452C4E3F 		.word	1062087749
 5988 03ec 17EF4B3F 		.word	1061941015
 5989 03f0 44A5493F 		.word	1061791044
 5990 03f4 DB4E473F 		.word	1061637851
 5991 03f8 CCEB443F 		.word	1061481420
 5992 03fc 397C423F 		.word	1061321785
 5993 0400 0000403F 		.word	1061158912
 5994 0404 32773D3F 		.word	1060992818
 5995 0408 CEE13A3F 		.word	1060823502
 5996 040c C43F383F 		.word	1060650948
 5997 0410 2591353F 		.word	1060475173
 5998 0414 F1D5323F 		.word	1060296177
 5999 0418 280E303F 		.word	1060113960
 6000 041c C9392D3F 		.word	1059928521
 6001 0420 C5582A3F 		.word	1059739845
 6002 0424 2B6B273F 		.word	1059547947
ARM GAS  /tmp/ccYdlVIk.s 			page 108


 6003 0428 FC70243F 		.word	1059352828
 6004 042c 386A213F 		.word	1059154488
 6005 0430 CD561E3F 		.word	1058952909
 6006 0434 CE361B3F 		.word	1058748110
 6007 0438 390A183F 		.word	1058540089
 6008 043c 0FD1143F 		.word	1058328847
 6009 0440 3F8B113F 		.word	1058114367
 6010 0444 EB380E3F 		.word	1057896683
 6011 0448 F1D90A3F 		.word	1057675761
 6012 044c 506E073F 		.word	1057451600
 6013 0450 2BF6033F 		.word	1057224235
 6014 0454 6171003F 		.word	1056993633
 6015 0458 01C0F93E 		.word	1056555009
 6016 045c 1684F23E 		.word	1056080918
 6017 0460 012FEB3E 		.word	1055600385
 6018 0464 A0C0E33E 		.word	1055113376
 6019 0468 1539DC3E 		.word	1054619925
 6020 046c 5F98D43E 		.word	1054120031
 6021 0470 7FDECC3E 		.word	1053613695
 6022 0474 520BC53E 		.word	1053100882
 6023 0478 FB1EBD3E 		.word	1052581627
 6024 047c 7A19B53E 		.word	1052055930
 6025 0480 CEFAAC3E 		.word	1051523790
 6026 0484 D7C2A43E 		.word	1050985175
 6027 0488 D6719C3E 		.word	1050440150
 6028 048c 8907943E 		.word	1049888649
 6029 0490 F1838B3E 		.word	1049330673
 6030 0494 4FE7823E 		.word	1048766287
 6031 0498 C362743E 		.word	1047814851
 6032 049c 93C4623E 		.word	1046660243
 6033 04a0 0EF4503E 		.word	1045492750
 6034 04a4 35F13E3E 		.word	1044312373
 6035 04a8 C3BB2C3E 		.word	1043119043
 6036 04ac FC531A3E 		.word	1041912828
 6037 04b0 E0B9073E 		.word	1040693728
 6038 04b4 E0DAE93D 		.word	1038736096
 6039 04b8 CFDCC33D 		.word	1036246223
 6040 04bc 9A7A9D3D 		.word	1033730714
 6041 04c0 6B666D3D 		.word	1030579819
 6042 04c4 410D1F3D 		.word	1025445185
 6043 04c8 A1D79F3C 		.word	1017108385
 6044 04cc 00000000 		.word	0
 6045 04d0 00000000 		.word	0
 6046 04d4 00000000 		.word	0
 6047 04d8 00000000 		.word	0
 6048 04dc 00000000 		.word	0
 6049 04e0 00000000 		.word	0
 6050 04e4 00000000 		.word	0
 6051 04e8 00000000 		.word	0
 6052 04ec 00000000 		.word	0
 6053 04f0 00000000 		.word	0
 6054 04f4 00000000 		.word	0
 6055 04f8 00000000 		.word	0
 6056 04fc 00000000 		.word	0
 6057 0500 00000000 		.word	0
 6058 0504 00000000 		.word	0
 6059 0508 00000000 		.word	0
ARM GAS  /tmp/ccYdlVIk.s 			page 109


 6060 050c 00000000 		.word	0
 6061 0510 00000000 		.word	0
 6062 0514 00000000 		.word	0
 6063 0518 00000000 		.word	0
 6064 051c 00000000 		.word	0
 6065 0520 00000000 		.word	0
 6066 0524 00000000 		.word	0
 6067 0528 00000000 		.word	0
 6068 052c 00000000 		.word	0
 6069 0530 00000000 		.word	0
 6070 0534 00000000 		.word	0
 6071 0538 00000000 		.word	0
 6072 053c 00000000 		.word	0
 6073 0540 00000000 		.word	0
 6074 0544 00000000 		.word	0
 6075 0548 00000000 		.word	0
 6076 054c 00000000 		.word	0
 6077 0550 00000000 		.word	0
 6078 0554 00000000 		.word	0
 6079 0558 00000000 		.word	0
 6080 055c 00000000 		.word	0
 6081 0560 00000000 		.word	0
 6082 0564 00000000 		.word	0
 6083 0568 00000000 		.word	0
 6084 056c 00000000 		.word	0
 6085 0570 00000000 		.word	0
 6086 0574 00000000 		.word	0
 6087 0578 00000000 		.word	0
 6088 057c 00000000 		.word	0
 6089 0580 00000000 		.word	0
 6090 0584 00000000 		.word	0
 6091 0588 00000000 		.word	0
 6092 058c 00000000 		.word	0
 6093 0590 00000000 		.word	0
 6094 0594 00000000 		.word	0
 6095 0598 00000000 		.word	0
 6096 059c 00000000 		.word	0
 6097 05a0 00000000 		.word	0
 6098 05a4 00000000 		.word	0
 6099 05a8 00000000 		.word	0
 6100 05ac 00000000 		.word	0
 6101 05b0 00000000 		.word	0
 6102 05b4 00000000 		.word	0
 6103 05b8 00000000 		.word	0
 6104 05bc 00000000 		.word	0
 6105 05c0 00000000 		.word	0
 6106 05c4 00000000 		.word	0
 6107 05c8 00000000 		.word	0
 6108 05cc 00000000 		.word	0
 6109 05d0 00000000 		.word	0
 6110 05d4 00000000 		.word	0
 6111 05d8 00000000 		.word	0
 6112 05dc 00000000 		.word	0
 6113 05e0 00000000 		.word	0
 6114 05e4 00000000 		.word	0
 6115 05e8 00000000 		.word	0
 6116 05ec 00000000 		.word	0
ARM GAS  /tmp/ccYdlVIk.s 			page 110


 6117 05f0 00000000 		.word	0
 6118 05f4 00000000 		.word	0
 6119 05f8 00000000 		.word	0
 6120 05fc 00000000 		.word	0
 6121 0600 00000000 		.word	0
 6122 0604 00000000 		.word	0
 6123 0608 00000000 		.word	0
 6124 060c 00000000 		.word	0
 6125 0610 00000000 		.word	0
 6126 0614 00000000 		.word	0
 6127 0618 00000000 		.word	0
 6128 061c 00000000 		.word	0
 6129 0620 00000000 		.word	0
 6130 0624 00000000 		.word	0
 6131 0628 00000000 		.word	0
 6132 062c 00000000 		.word	0
 6133 0630 00000000 		.word	0
 6134 0634 00000000 		.word	0
 6135 0638 00000000 		.word	0
 6136 063c 00000000 		.word	0
 6137 0640 00000000 		.word	0
 6138 0644 00000000 		.word	0
 6139 0648 00000000 		.word	0
 6140 064c 00000000 		.word	0
 6141 0650 00000000 		.word	0
 6142 0654 00000000 		.word	0
 6143 0658 00000000 		.word	0
 6144 065c 00000000 		.word	0
 6145 0660 00000000 		.word	0
 6146 0664 00000000 		.word	0
 6147 0668 00000000 		.word	0
 6148 066c 00000000 		.word	0
 6149 0670 00000000 		.word	0
 6150 0674 00000000 		.word	0
 6151 0678 00000000 		.word	0
 6152 067c 00000000 		.word	0
 6153 0680 00000000 		.word	0
 6154 0684 00000000 		.word	0
 6155 0688 00000000 		.word	0
 6156 068c 00000000 		.word	0
 6157 0690 00000000 		.word	0
 6158 0694 00000000 		.word	0
 6159 0698 00000000 		.word	0
 6160 069c 00000000 		.word	0
 6161 06a0 00000000 		.word	0
 6162 06a4 00000000 		.word	0
 6163 06a8 00000000 		.word	0
 6164 06ac 00000000 		.word	0
 6165 06b0 00000000 		.word	0
 6166 06b4 00000000 		.word	0
 6167 06b8 00000000 		.word	0
 6168 06bc 00000000 		.word	0
 6169 06c0 00000000 		.word	0
 6170 06c4 00000000 		.word	0
 6171 06c8 00000000 		.word	0
 6172 06cc 00000000 		.word	0
 6173 06d0 00000000 		.word	0
ARM GAS  /tmp/ccYdlVIk.s 			page 111


 6174 06d4 00000000 		.word	0
 6175 06d8 00000000 		.word	0
 6176 06dc 00000000 		.word	0
 6177 06e0 00000000 		.word	0
 6178 06e4 00000000 		.word	0
 6179 06e8 00000000 		.word	0
 6180 06ec 00000000 		.word	0
 6181 06f0 00000000 		.word	0
 6182 06f4 00000000 		.word	0
 6183 06f8 00000000 		.word	0
 6184 06fc 00000000 		.word	0
 6185 0700 00000000 		.word	0
 6186 0704 00000000 		.word	0
 6187 0708 00000000 		.word	0
 6188 070c 00000000 		.word	0
 6189 0710 00000000 		.word	0
 6190 0714 00000000 		.word	0
 6191 0718 00000000 		.word	0
 6192 071c 00000000 		.word	0
 6193 0720 00000000 		.word	0
 6194 0724 00000000 		.word	0
 6195 0728 00000000 		.word	0
 6196 072c 00000000 		.word	0
 6197 0730 00000000 		.word	0
 6198 0734 00000000 		.word	0
 6199 0738 00000000 		.word	0
 6200 073c 00000000 		.word	0
 6201 0740 00000000 		.word	0
 6202 0744 00000000 		.word	0
 6203 0748 00000000 		.word	0
 6204 074c 00000000 		.word	0
 6205 0750 00000000 		.word	0
 6206 0754 00000000 		.word	0
 6207 0758 00000000 		.word	0
 6208 075c 00000000 		.word	0
 6209 0760 00000000 		.word	0
 6210 0764 00000000 		.word	0
 6211 0768 00000000 		.word	0
 6212 076c 00000000 		.word	0
 6213 0770 00000000 		.word	0
 6214 0774 00000000 		.word	0
 6215 0778 00000000 		.word	0
 6216 077c 00000000 		.word	0
 6217 0780 00000000 		.word	0
 6218 0784 00000000 		.word	0
 6219 0788 00000000 		.word	0
 6220 078c 00000000 		.word	0
 6221 0790 00000000 		.word	0
 6222 0794 00000000 		.word	0
 6223 0798 00000000 		.word	0
 6224 079c 00000000 		.word	0
 6225 07a0 00000000 		.word	0
 6226 07a4 00000000 		.word	0
 6227 07a8 00000000 		.word	0
 6228 07ac 00000000 		.word	0
 6229 07b0 00000000 		.word	0
 6230 07b4 00000000 		.word	0
ARM GAS  /tmp/ccYdlVIk.s 			page 112


 6231 07b8 00000000 		.word	0
 6232 07bc 00000000 		.word	0
 6233 07c0 00000000 		.word	0
 6234 07c4 00000000 		.word	0
 6235 07c8 00000000 		.word	0
 6236 07cc 00000000 		.word	0
 6237 07d0 00000000 		.word	0
 6238 07d4 00000000 		.word	0
 6239 07d8 00000000 		.word	0
 6240 07dc 00000000 		.word	0
 6241 07e0 00000000 		.word	0
 6242 07e4 00000000 		.word	0
 6243 07e8 00000000 		.word	0
 6244 07ec 00000000 		.word	0
 6245 07f0 00000000 		.word	0
 6246 07f4 00000000 		.word	0
 6247 07f8 00000000 		.word	0
 6248 07fc 00000000 		.word	0
 6249              		.section	.rodata.pulsetable011,"a"
 6250              		.align	2
 6251              		.type	pulsetable011, %object
 6252              		.size	pulsetable011, 2048
 6253              	pulsetable011:
 6254 0000 00000000 		.word	0
 6255 0004 D6E59438 		.word	949282262
 6256 0008 D6E59439 		.word	966059478
 6257 000c 3DB9263A 		.word	975616317
 6258 0010 D8B7933A 		.word	982759384
 6259 0014 9529E63A 		.word	988162453
 6260 0018 9626253B 		.word	992290454
 6261 001c 8600603B 		.word	996147334
 6262 0020 4ED1913B 		.word	999412046
 6263 0024 42EDB73B 		.word	1001909570
 6264 0028 BA4BE23B 		.word	1004686266
 6265 002c 5C76083C 		.word	1007187548
 6266 0030 56D7213C 		.word	1008850774
 6267 0034 FD4C3D3C 		.word	1010650365
 6268 0038 EECE5A3C 		.word	1012584174
 6269 003c 94507A3C 		.word	1014648980
 6270 0040 10EB8D3C 		.word	1015933712
 6271 0044 7EA99F3C 		.word	1017096574
 6272 0048 7C61B23C 		.word	1018323324
 6273 004c F110C63C 		.word	1019613425
 6274 0050 ABB3DA3C 		.word	1020965803
 6275 0054 9147F03C 		.word	1022379921
 6276 0058 4565033D 		.word	1023632709
 6277 005c 321C0F3D 		.word	1024400434
 6278 0060 78461B3D 		.word	1025197688
 6279 0064 15E4273D 		.word	1026024469
 6280 0068 F1F2343D 		.word	1026880241
 6281 006c F470423D 		.word	1027764468
 6282 0070 1C5E503D 		.word	1028677148
 6283 0074 45B75E3D 		.word	1029617477
 6284 0078 637B6D3D 		.word	1030585187
 6285 007c 76AA7C3D 		.word	1031580278
 6286 0080 AB20863D 		.word	1032200363
 6287 0084 04208E3D 		.word	1032724484
ARM GAS  /tmp/ccYdlVIk.s 			page 113


 6288 0088 B151963D 		.word	1033261489
 6289 008c B3B59E3D 		.word	1033811379
 6290 0090 774AA73D 		.word	1034373751
 6291 0094 FE0FB03D 		.word	1034948606
 6292 0098 C005B93D 		.word	1035535808
 6293 009c 2C2AC23D 		.word	1036134956
 6294 00a0 417DCB3D 		.word	1036746049
 6295 00a4 F4FDD43D 		.word	1037368820
 6296 00a8 BDABDE3D 		.word	1038003133
 6297 00ac 0A85E83D 		.word	1038648586
 6298 00b0 618AF23D 		.word	1039305313
 6299 00b4 30BAFC3D 		.word	1039972912
 6300 00b8 F889033E 		.word	1040419320
 6301 00bc 8ECB083E 		.word	1040763790
 6302 00c0 96210E3E 		.word	1041113494
 6303 00c4 488B133E 		.word	1041468232
 6304 00c8 5F08193E 		.word	1041827935
 6305 00cc DD981E3E 		.word	1042192605
 6306 00d0 3A3C243E 		.word	1042562106
 6307 00d4 F1F1293E 		.word	1042936305
 6308 00d8 BFB92F3E 		.word	1043315135
 6309 00dc 1D93353E 		.word	1043698461
 6310 00e0 0B7E3B3E 		.word	1044086283
 6311 00e4 C079413E 		.word	1044478400
 6312 00e8 3C86473E 		.word	1044874812
 6313 00ec B6A24D3E 		.word	1045275318
 6314 00f0 70CF533E 		.word	1045679984
 6315 00f4 5F0B5A3E 		.word	1046088543
 6316 00f8 8256603E 		.word	1046500994
 6317 00fc 96B0663E 		.word	1046917270
 6318 0100 15196D3E 		.word	1047337237
 6319 0104 7A8F733E 		.word	1047760762
 6320 0108 C2137A3E 		.word	1048187842
 6321 010c 9352803E 		.word	1048597139
 6322 0110 D3A1833E 		.word	1048814035
 6323 0114 5EF7863E 		.word	1049032542
 6324 0118 F0528A3E 		.word	1049252592
 6325 011c 89B48D3E 		.word	1049474185
 6326 0120 E71B913E 		.word	1049697255
 6327 0124 C688943E 		.word	1049921734
 6328 0128 26FB973E 		.word	1050147622
 6329 012c 82729B3E 		.word	1050374786
 6330 0130 1CEF9E3E 		.word	1050603292
 6331 0134 6D70A23E 		.word	1050833005
 6332 0138 77F6A53E 		.word	1051063927
 6333 013c F580A93E 		.word	1051295989
 6334 0140 A60FAD3E 		.word	1051529126
 6335 0144 87A2B03E 		.word	1051763335
 6336 0148 5839B43E 		.word	1051998552
 6337 014c D4D3B73E 		.word	1052234708
 6338 0150 FC71BB3E 		.word	1052471804
 6339 0154 6A13BF3E 		.word	1052709738
 6340 0158 20B8C23E 		.word	1052948512
 6341 015c D95FC63E 		.word	1053188057
 6342 0160 520ACA3E 		.word	1053428306
 6343 0164 8DB7CD3E 		.word	1053669261
 6344 0168 2367D13E 		.word	1053910819
ARM GAS  /tmp/ccYdlVIk.s 			page 114


 6345 016c 1519D53E 		.word	1054152981
 6346 0170 FFCCD83E 		.word	1054395647
 6347 0174 0283DC3E 		.word	1054638850
 6348 0178 973AE03E 		.word	1054882455
 6349 017c E0F3E33E 		.word	1055126496
 6350 0180 79AEE73E 		.word	1055370873
 6351 0184 406AEB3E 		.word	1055615552
 6352 0188 F226EF3E 		.word	1055860466
 6353 018c 8FE4F23E 		.word	1056105615
 6354 0190 D3A2F63E 		.word	1056350931
 6355 0194 7C61FA3E 		.word	1056596348
 6356 0198 6820FE3E 		.word	1056841832
 6357 019c CCEF003F 		.word	1057025996
 6358 01a0 42CF023F 		.word	1057148738
 6359 01a4 97AE043F 		.word	1057271447
 6360 01a8 B98D063F 		.word	1057394105
 6361 01ac 876C083F 		.word	1057516679
 6362 01b0 E04A0A3F 		.word	1057639136
 6363 01b4 C3280C3F 		.word	1057761475
 6364 01b8 10060E3F 		.word	1057883664
 6365 01bc B5E20F3F 		.word	1058005685
 6366 01c0 7FBE113F 		.word	1058127487
 6367 01c4 7099133F 		.word	1058249072
 6368 01c8 7573153F 		.word	1058370421
 6369 01cc 6E4C173F 		.word	1058491502
 6370 01d0 3A24193F 		.word	1058612282
 6371 01d4 D7FA1A3F 		.word	1058732759
 6372 01d8 14D01C3F 		.word	1058852884
 6373 01dc F0A31E3F 		.word	1058972656
 6374 01e0 4B76203F 		.word	1059092043
 6375 01e4 0247223F 		.word	1059211010
 6376 01e8 1616243F 		.word	1059329558
 6377 01ec 54E3253F 		.word	1059447636
 6378 01f0 BCAE273F 		.word	1059565244
 6379 01f4 2D78293F 		.word	1059682349
 6380 01f8 853F2B3F 		.word	1059798917
 6381 01fc C5042D3F 		.word	1059914949
 6382 0200 C9C72E3F 		.word	1060030409
 6383 0204 7288303F 		.word	1060145266
 6384 0208 BF46323F 		.word	1060259519
 6385 020c 7E02343F 		.word	1060373118
 6386 0210 9DBB353F 		.word	1060486045
 6387 0214 0D72373F 		.word	1060598285
 6388 0218 BB25393F 		.word	1060709819
 6389 021c 88D63A3F 		.word	1060820616
 6390 0220 51843C3F 		.word	1060930641
 6391 0224 162F3E3F 		.word	1061039894
 6392 0228 B6D63F3F 		.word	1061148342
 6393 022c 0F7B413F 		.word	1061255951
 6394 0230 221C433F 		.word	1061362722
 6395 0234 BBB9443F 		.word	1061468603
 6396 0238 DA53463F 		.word	1061573594
 6397 023c 60EA473F 		.word	1061677664
 6398 0240 287D493F 		.word	1061780776
 6399 0244 240C4B3F 		.word	1061882916
 6400 0248 53974C3F 		.word	1061984083
 6401 024c 711E4E3F 		.word	1062084209
ARM GAS  /tmp/ccYdlVIk.s 			page 115


 6402 0250 90A14F3F 		.word	1062183312
 6403 0254 7D20513F 		.word	1062281341
 6404 0258 399B523F 		.word	1062378297
 6405 025c 9011543F 		.word	1062474128
 6406 0260 8483553F 		.word	1062568836
 6407 0264 F1F0563F 		.word	1062662385
 6408 0268 C959583F 		.word	1062754761
 6409 026c E8BD593F 		.word	1062845928
 6410 0270 2E1D5B3F 		.word	1062935854
 6411 0274 9A775C3F 		.word	1063024538
 6412 0278 1CCD5D3F 		.word	1063111964
 6413 027c 821D5F3F 		.word	1063198082
 6414 0280 BA68603F 		.word	1063282874
 6415 0284 B4AE613F 		.word	1063366324
 6416 0288 5FEF623F 		.word	1063448415
 6417 028c 882A643F 		.word	1063529096
 6418 0290 4260653F 		.word	1063608386
 6419 0294 5890663F 		.word	1063686232
 6420 0298 BABA673F 		.word	1063762618
 6421 029c 48DF683F 		.word	1063837512
 6422 02a0 00FE693F 		.word	1063910912
 6423 02a4 B1166B3F 		.word	1063982769
 6424 02a8 4A296C3F 		.word	1064053066
 6425 02ac CA356D3F 		.word	1064121802
 6426 02b0 003C6E3F 		.word	1064188928
 6427 02b4 EB3B6F3F 		.word	1064254443
 6428 02b8 5935703F 		.word	1064318297
 6429 02bc 4A28713F 		.word	1064380490
 6430 02c0 8C14723F 		.word	1064440972
 6431 02c4 1EFA723F 		.word	1064499742
 6432 02c8 F1D8733F 		.word	1064556785
 6433 02cc D1B0743F 		.word	1064612049
 6434 02d0 BF81753F 		.word	1064665535
 6435 02d4 994B763F 		.word	1064717209
 6436 02d8 3D0E773F 		.word	1064767037
 6437 02dc ACC9773F 		.word	1064815020
 6438 02e0 C37D783F 		.word	1064861123
 6439 02e4 632A793F 		.word	1064905315
 6440 02e8 78CF793F 		.word	1064947576
 6441 02ec F46C7A3F 		.word	1064987892
 6442 02f0 B4027B3F 		.word	1065026228
 6443 02f4 A8907B3F 		.word	1065062568
 6444 02f8 BE167C3F 		.word	1065096894
 6445 02fc C4947C3F 		.word	1065129156
 6446 0300 CC0A7D3F 		.word	1065159372
 6447 0304 A3787D3F 		.word	1065187491
 6448 0308 27DE7D3F 		.word	1065213479
 6449 030c 583B7E3F 		.word	1065237336
 6450 0310 25907E3F 		.word	1065259045
 6451 0314 5DDC7E3F 		.word	1065278557
 6452 0318 FF1F7F3F 		.word	1065295871
 6453 031c D95A7F3F 		.word	1065310937
 6454 0320 EB8C7F3F 		.word	1065323755
 6455 0324 24B67F3F 		.word	1065334308
 6456 0328 52D67F3F 		.word	1065342546
 6457 032c 63ED7F3F 		.word	1065348451
 6458 0330 59FB7F3F 		.word	1065352025
ARM GAS  /tmp/ccYdlVIk.s 			page 116


 6459 0334 0000803F 		.word	1065353216
 6460 0338 B5F97F3F 		.word	1065351605
 6461 033c D6E67F3F 		.word	1065346774
 6462 0340 50C77F3F 		.word	1065338704
 6463 0344 359B7F3F 		.word	1065327413
 6464 0348 84627F3F 		.word	1065312900
 6465 034c 3F1D7F3F 		.word	1065295167
 6466 0350 53CB7E3F 		.word	1065274195
 6467 0354 E36C7E3F 		.word	1065250019
 6468 0358 CD017E3F 		.word	1065222605
 6469 035c 118A7D3F 		.word	1065191953
 6470 0360 D1057D3F 		.word	1065158097
 6471 0364 EB747C3F 		.word	1065121003
 6472 0368 6FD77B3F 		.word	1065080687
 6473 036c 5E2D7B3F 		.word	1065037150
 6474 0370 B8767A3F 		.word	1064990392
 6475 0374 6CB3793F 		.word	1064940396
 6476 0378 8AE3783F 		.word	1064887178
 6477 037c 1407783F 		.word	1064830740
 6478 0380 081E773F 		.word	1064771080
 6479 0384 5628763F 		.word	1064708182
 6480 0388 0F26753F 		.word	1064642063
 6481 038c 3317743F 		.word	1064572723
 6482 0390 C2FB723F 		.word	1064500162
 6483 0394 BBD3713F 		.word	1064424379
 6484 0398 0E9F703F 		.word	1064345358
 6485 039c CC5D6F3F 		.word	1064263116
 6486 03a0 F50F6E3F 		.word	1064177653
 6487 03a4 78B56C3F 		.word	1064088952
 6488 03a8 774E6B3F 		.word	1063997047
 6489 03ac CFDA693F 		.word	1063901903
 6490 03b0 925A683F 		.word	1063803538
 6491 03b4 AFCD663F 		.word	1063701935
 6492 03b8 4834653F 		.word	1063597128
 6493 03bc 3B8E633F 		.word	1063489083
 6494 03c0 98DB613F 		.word	1063377816
 6495 03c4 501C603F 		.word	1063263312
 6496 03c8 83505E3F 		.word	1063145603
 6497 03cc 10785C3F 		.word	1063024656
 6498 03d0 08935A3F 		.word	1062900488
 6499 03d4 6AA1583F 		.word	1062773098
 6500 03d8 38A3563F 		.word	1062642488
 6501 03dc 5F98543F 		.word	1062508639
 6502 03e0 F180523F 		.word	1062371569
 6503 03e4 EE5C503F 		.word	1062231278
 6504 03e8 452C4E3F 		.word	1062087749
 6505 03ec 17EF4B3F 		.word	1061941015
 6506 03f0 44A5493F 		.word	1061791044
 6507 03f4 DB4E473F 		.word	1061637851
 6508 03f8 CCEB443F 		.word	1061481420
 6509 03fc 397C423F 		.word	1061321785
 6510 0400 0000403F 		.word	1061158912
 6511 0404 32773D3F 		.word	1060992818
 6512 0408 CEE13A3F 		.word	1060823502
 6513 040c C43F383F 		.word	1060650948
 6514 0410 2591353F 		.word	1060475173
 6515 0414 F1D5323F 		.word	1060296177
ARM GAS  /tmp/ccYdlVIk.s 			page 117


 6516 0418 280E303F 		.word	1060113960
 6517 041c C9392D3F 		.word	1059928521
 6518 0420 C5582A3F 		.word	1059739845
 6519 0424 2B6B273F 		.word	1059547947
 6520 0428 FC70243F 		.word	1059352828
 6521 042c 386A213F 		.word	1059154488
 6522 0430 CD561E3F 		.word	1058952909
 6523 0434 CE361B3F 		.word	1058748110
 6524 0438 390A183F 		.word	1058540089
 6525 043c 0FD1143F 		.word	1058328847
 6526 0440 3F8B113F 		.word	1058114367
 6527 0444 EB380E3F 		.word	1057896683
 6528 0448 F1D90A3F 		.word	1057675761
 6529 044c 506E073F 		.word	1057451600
 6530 0450 2BF6033F 		.word	1057224235
 6531 0454 6171003F 		.word	1056993633
 6532 0458 01C0F93E 		.word	1056555009
 6533 045c 1684F23E 		.word	1056080918
 6534 0460 012FEB3E 		.word	1055600385
 6535 0464 A0C0E33E 		.word	1055113376
 6536 0468 1539DC3E 		.word	1054619925
 6537 046c 5F98D43E 		.word	1054120031
 6538 0470 7FDECC3E 		.word	1053613695
 6539 0474 520BC53E 		.word	1053100882
 6540 0478 FB1EBD3E 		.word	1052581627
 6541 047c 7A19B53E 		.word	1052055930
 6542 0480 CEFAAC3E 		.word	1051523790
 6543 0484 D7C2A43E 		.word	1050985175
 6544 0488 D6719C3E 		.word	1050440150
 6545 048c 8907943E 		.word	1049888649
 6546 0490 F1838B3E 		.word	1049330673
 6547 0494 4FE7823E 		.word	1048766287
 6548 0498 C362743E 		.word	1047814851
 6549 049c 93C4623E 		.word	1046660243
 6550 04a0 0EF4503E 		.word	1045492750
 6551 04a4 35F13E3E 		.word	1044312373
 6552 04a8 C3BB2C3E 		.word	1043119043
 6553 04ac FC531A3E 		.word	1041912828
 6554 04b0 E0B9073E 		.word	1040693728
 6555 04b4 E0DAE93D 		.word	1038736096
 6556 04b8 CFDCC33D 		.word	1036246223
 6557 04bc 9A7A9D3D 		.word	1033730714
 6558 04c0 6B666D3D 		.word	1030579819
 6559 04c4 410D1F3D 		.word	1025445185
 6560 04c8 A1D79F3C 		.word	1017108385
 6561 04cc 00000000 		.word	0
 6562 04d0 00000000 		.word	0
 6563 04d4 00000000 		.word	0
 6564 04d8 00000000 		.word	0
 6565 04dc 00000000 		.word	0
 6566 04e0 00000000 		.word	0
 6567 04e4 00000000 		.word	0
 6568 04e8 00000000 		.word	0
 6569 04ec 00000000 		.word	0
 6570 04f0 00000000 		.word	0
 6571 04f4 00000000 		.word	0
 6572 04f8 00000000 		.word	0
ARM GAS  /tmp/ccYdlVIk.s 			page 118


 6573 04fc 00000000 		.word	0
 6574 0500 00000000 		.word	0
 6575 0504 00000000 		.word	0
 6576 0508 00000000 		.word	0
 6577 050c 00000000 		.word	0
 6578 0510 00000000 		.word	0
 6579 0514 00000000 		.word	0
 6580 0518 00000000 		.word	0
 6581 051c 00000000 		.word	0
 6582 0520 00000000 		.word	0
 6583 0524 00000000 		.word	0
 6584 0528 00000000 		.word	0
 6585 052c 00000000 		.word	0
 6586 0530 00000000 		.word	0
 6587 0534 00000000 		.word	0
 6588 0538 00000000 		.word	0
 6589 053c 00000000 		.word	0
 6590 0540 00000000 		.word	0
 6591 0544 00000000 		.word	0
 6592 0548 00000000 		.word	0
 6593 054c 00000000 		.word	0
 6594 0550 00000000 		.word	0
 6595 0554 00000000 		.word	0
 6596 0558 00000000 		.word	0
 6597 055c 00000000 		.word	0
 6598 0560 00000000 		.word	0
 6599 0564 00000000 		.word	0
 6600 0568 00000000 		.word	0
 6601 056c 00000000 		.word	0
 6602 0570 00000000 		.word	0
 6603 0574 00000000 		.word	0
 6604 0578 00000000 		.word	0
 6605 057c 00000000 		.word	0
 6606 0580 00000000 		.word	0
 6607 0584 00000000 		.word	0
 6608 0588 00000000 		.word	0
 6609 058c 00000000 		.word	0
 6610 0590 00000000 		.word	0
 6611 0594 00000000 		.word	0
 6612 0598 00000000 		.word	0
 6613 059c 00000000 		.word	0
 6614 05a0 00000000 		.word	0
 6615 05a4 00000000 		.word	0
 6616 05a8 00000000 		.word	0
 6617 05ac 00000000 		.word	0
 6618 05b0 00000000 		.word	0
 6619 05b4 00000000 		.word	0
 6620 05b8 00000000 		.word	0
 6621 05bc 00000000 		.word	0
 6622 05c0 00000000 		.word	0
 6623 05c4 00000000 		.word	0
 6624 05c8 00000000 		.word	0
 6625 05cc 00000000 		.word	0
 6626 05d0 00000000 		.word	0
 6627 05d4 00000000 		.word	0
 6628 05d8 00000000 		.word	0
 6629 05dc 00000000 		.word	0
ARM GAS  /tmp/ccYdlVIk.s 			page 119


 6630 05e0 00000000 		.word	0
 6631 05e4 00000000 		.word	0
 6632 05e8 00000000 		.word	0
 6633 05ec 00000000 		.word	0
 6634 05f0 00000000 		.word	0
 6635 05f4 00000000 		.word	0
 6636 05f8 00000000 		.word	0
 6637 05fc 00000000 		.word	0
 6638 0600 00000000 		.word	0
 6639 0604 00000000 		.word	0
 6640 0608 00000000 		.word	0
 6641 060c 00000000 		.word	0
 6642 0610 00000000 		.word	0
 6643 0614 00000000 		.word	0
 6644 0618 00000000 		.word	0
 6645 061c 00000000 		.word	0
 6646 0620 00000000 		.word	0
 6647 0624 00000000 		.word	0
 6648 0628 00000000 		.word	0
 6649 062c 00000000 		.word	0
 6650 0630 00000000 		.word	0
 6651 0634 00000000 		.word	0
 6652 0638 00000000 		.word	0
 6653 063c 00000000 		.word	0
 6654 0640 00000000 		.word	0
 6655 0644 00000000 		.word	0
 6656 0648 00000000 		.word	0
 6657 064c 00000000 		.word	0
 6658 0650 00000000 		.word	0
 6659 0654 00000000 		.word	0
 6660 0658 00000000 		.word	0
 6661 065c 00000000 		.word	0
 6662 0660 00000000 		.word	0
 6663 0664 00000000 		.word	0
 6664 0668 00000000 		.word	0
 6665 066c 00000000 		.word	0
 6666 0670 00000000 		.word	0
 6667 0674 00000000 		.word	0
 6668 0678 00000000 		.word	0
 6669 067c 00000000 		.word	0
 6670 0680 00000000 		.word	0
 6671 0684 00000000 		.word	0
 6672 0688 00000000 		.word	0
 6673 068c 00000000 		.word	0
 6674 0690 00000000 		.word	0
 6675 0694 00000000 		.word	0
 6676 0698 00000000 		.word	0
 6677 069c 00000000 		.word	0
 6678 06a0 00000000 		.word	0
 6679 06a4 00000000 		.word	0
 6680 06a8 00000000 		.word	0
 6681 06ac 00000000 		.word	0
 6682 06b0 00000000 		.word	0
 6683 06b4 00000000 		.word	0
 6684 06b8 00000000 		.word	0
 6685 06bc 00000000 		.word	0
 6686 06c0 00000000 		.word	0
ARM GAS  /tmp/ccYdlVIk.s 			page 120


 6687 06c4 00000000 		.word	0
 6688 06c8 00000000 		.word	0
 6689 06cc 00000000 		.word	0
 6690 06d0 00000000 		.word	0
 6691 06d4 00000000 		.word	0
 6692 06d8 00000000 		.word	0
 6693 06dc 00000000 		.word	0
 6694 06e0 00000000 		.word	0
 6695 06e4 00000000 		.word	0
 6696 06e8 00000000 		.word	0
 6697 06ec 00000000 		.word	0
 6698 06f0 00000000 		.word	0
 6699 06f4 00000000 		.word	0
 6700 06f8 00000000 		.word	0
 6701 06fc 00000000 		.word	0
 6702 0700 00000000 		.word	0
 6703 0704 00000000 		.word	0
 6704 0708 00000000 		.word	0
 6705 070c 00000000 		.word	0
 6706 0710 00000000 		.word	0
 6707 0714 00000000 		.word	0
 6708 0718 00000000 		.word	0
 6709 071c 00000000 		.word	0
 6710 0720 00000000 		.word	0
 6711 0724 00000000 		.word	0
 6712 0728 00000000 		.word	0
 6713 072c 00000000 		.word	0
 6714 0730 00000000 		.word	0
 6715 0734 00000000 		.word	0
 6716 0738 00000000 		.word	0
 6717 073c 00000000 		.word	0
 6718 0740 00000000 		.word	0
 6719 0744 00000000 		.word	0
 6720 0748 00000000 		.word	0
 6721 074c 00000000 		.word	0
 6722 0750 00000000 		.word	0
 6723 0754 00000000 		.word	0
 6724 0758 00000000 		.word	0
 6725 075c 00000000 		.word	0
 6726 0760 00000000 		.word	0
 6727 0764 00000000 		.word	0
 6728 0768 00000000 		.word	0
 6729 076c 00000000 		.word	0
 6730 0770 00000000 		.word	0
 6731 0774 00000000 		.word	0
 6732 0778 00000000 		.word	0
 6733 077c 00000000 		.word	0
 6734 0780 00000000 		.word	0
 6735 0784 00000000 		.word	0
 6736 0788 00000000 		.word	0
 6737 078c 00000000 		.word	0
 6738 0790 00000000 		.word	0
 6739 0794 00000000 		.word	0
 6740 0798 00000000 		.word	0
 6741 079c 00000000 		.word	0
 6742 07a0 00000000 		.word	0
 6743 07a4 00000000 		.word	0
ARM GAS  /tmp/ccYdlVIk.s 			page 121


 6744 07a8 00000000 		.word	0
 6745 07ac 00000000 		.word	0
 6746 07b0 00000000 		.word	0
 6747 07b4 00000000 		.word	0
 6748 07b8 00000000 		.word	0
 6749 07bc 00000000 		.word	0
 6750 07c0 00000000 		.word	0
 6751 07c4 00000000 		.word	0
 6752 07c8 00000000 		.word	0
 6753 07cc 00000000 		.word	0
 6754 07d0 00000000 		.word	0
 6755 07d4 00000000 		.word	0
 6756 07d8 00000000 		.word	0
 6757 07dc 00000000 		.word	0
 6758 07e0 00000000 		.word	0
 6759 07e4 00000000 		.word	0
 6760 07e8 00000000 		.word	0
 6761 07ec 00000000 		.word	0
 6762 07f0 00000000 		.word	0
 6763 07f4 00000000 		.word	0
 6764 07f8 00000000 		.word	0
 6765 07fc 00000000 		.word	0
 6766              		.section	.rodata.pulsetable010,"a"
 6767              		.align	2
 6768              		.type	pulsetable010, %object
 6769              		.size	pulsetable010, 2048
 6770              	pulsetable010:
 6771 0000 00000000 		.word	0
 6772 0004 20F04038 		.word	943779872
 6773 0008 41D73E39 		.word	960419649
 6774 000c 0D6FD639 		.word	970354445
 6775 0010 ED0D3E3A 		.word	977145325
 6776 0014 821C943A 		.word	982785154
 6777 0018 4A99D43A 		.word	987011402
 6778 001c 6E4F103B 		.word	990924654
 6779 0020 D5053C3B 		.word	993789397
 6780 0024 4D4E6D3B 		.word	997019213
 6781 0028 6A14923B 		.word	999429226
 6782 002c B64AB03B 		.word	1001409206
 6783 0030 A741D13B 		.word	1003569575
 6784 0034 75E8F43B 		.word	1005906037
 6785 0038 C2A30D3C 		.word	1007526850
 6786 003c 0727223C 		.word	1008871175
 6787 0040 09FE373C 		.word	1010302473
 6788 0044 C8284F3C 		.word	1011820744
 6789 0048 AE9A673C 		.word	1013422766
 6790 004c 10AE803C 		.word	1015066128
 6791 0050 44308E3C 		.word	1015951428
 6792 0054 F4539C3C 		.word	1016878068
 6793 0058 1E19AB3C 		.word	1017846046
 6794 005c AA7DBA3C 		.word	1018854826
 6795 0060 807FCA3C 		.word	1019903872
 6796 0064 9F1EDB3C 		.word	1020993183
 6797 0068 D656EC3C 		.word	1022121686
 6798 006c 2428FE3C 		.word	1023289380
 6799 0070 3848083D 		.word	1023952952
 6800 0074 DEC7113D 		.word	1024575454
ARM GAS  /tmp/ccYdlVIk.s 			page 122


 6801 0078 EB901B3D 		.word	1025216747
 6802 007c 6AA4253D 		.word	1025877098
 6803 0080 4300303D 		.word	1026555971
 6804 0084 6AA33A3D 		.word	1027253098
 6805 0088 EB8E453D 		.word	1027968747
 6806 008c ADC0503D 		.word	1028702381
 6807 0090 A4375C3D 		.word	1029453732
 6808 0094 DCF4673D 		.word	1030223068
 6809 0098 30F5733D 		.word	1031009584
 6810 009c 501C803D 		.word	1031806032
 6811 00a0 1C60863D 		.word	1032216604
 6812 00a4 69C48C3D 		.word	1032635497
 6813 00a8 BF49933D 		.word	1033062847
 6814 00ac 0FEF993D 		.word	1033498383
 6815 00b0 D5B3A03D 		.word	1033941973
 6816 00b4 9698A73D 		.word	1034393750
 6817 00b8 459CAE3D 		.word	1034853445
 6818 00bc E4BEB53D 		.word	1035321060
 6819 00c0 EBFFBC3D 		.word	1035796459
 6820 00c4 D55EC43D 		.word	1036279509
 6821 00c8 A1DBCB3D 		.word	1036770209
 6822 00cc 4375D33D 		.word	1037268291
 6823 00d0 412CDB3D 		.word	1037773889
 6824 00d4 09FFE23D 		.word	1038286601
 6825 00d8 A6EEEA3D 		.word	1038806694
 6826 00dc 87F9F23D 		.word	1039333767
 6827 00e0 3220FB3D 		.word	1039867954
 6828 00e4 CDB0013E 		.word	1040298189
 6829 00e8 DFDE053E 		.word	1040572127
 6830 00ec CA190A3E 		.word	1040849354
 6831 00f0 13620E3E 		.word	1041130003
 6832 00f4 F2B6123E 		.word	1041413874
 6833 00f8 2218173E 		.word	1041700898
 6834 00fc E8851B3E 		.word	1041991144
 6835 0100 0000203E 		.word	1042284544
 6836 0104 E485243E 		.word	1042580964
 6837 0108 D717293E 		.word	1042880471
 6838 010c 0FB52D3E 		.word	1043182863
 6839 0110 145E323E 		.word	1043488276
 6840 0114 1B12373E 		.word	1043796507
 6841 0118 24D13B3E 		.word	1044107556
 6842 011c 309B403E 		.word	1044421424
 6843 0120 FC6F453E 		.word	1044738044
 6844 0124 444F4A3E 		.word	1045057348
 6845 0128 C5384F3E 		.word	1045379269
 6846 012c 802C543E 		.word	1045703808
 6847 0130 ED29593E 		.word	1046030829
 6848 0134 51315E3E 		.word	1046360401
 6849 0138 2442633E 		.word	1046692388
 6850 013c 685C683E 		.word	1047026792
 6851 0140 1B806D3E 		.word	1047363611
 6852 0144 75AC723E 		.word	1047702645
 6853 0148 B9E1773E 		.word	1048043961
 6854 014c A31F7D3E 		.word	1048387491
 6855 0150 F832813E 		.word	1048654584
 6856 0154 51DA833E 		.word	1048828497
 6857 0158 9885863E 		.word	1049003416
ARM GAS  /tmp/ccYdlVIk.s 			page 123


 6858 015c F034893E 		.word	1049179376
 6859 0160 F3E78B3E 		.word	1049356275
 6860 0164 E49E8E3E 		.word	1049534180
 6861 0168 6059913E 		.word	1049712992
 6862 016c 6517943E 		.word	1049892709
 6863 0170 F5D8963E 		.word	1050073333
 6864 0174 ED9D993E 		.word	1050254829
 6865 0178 2C669C3E 		.word	1050437164
 6866 017c 90319F3E 		.word	1050620304
 6867 0180 F8FFA13E 		.word	1050804216
 6868 0184 85D1A43E 		.word	1050988933
 6869 0188 D3A5A73E 		.word	1051174355
 6870 018c 247DAA3E 		.word	1051360548
 6871 0190 F356AD3E 		.word	1051547379
 6872 0194 8333B03E 		.word	1051734915
 6873 0198 9012B33E 		.word	1051923088
 6874 019c 1BF4B53E 		.word	1052111899
 6875 01a0 02D8B83E 		.word	1052301314
 6876 01a4 23BEBB3E 		.word	1052491299
 6877 01a8 5DA6BE3E 		.word	1052681821
 6878 01ac B090C13E 		.word	1052872880
 6879 01b0 FA7CC43E 		.word	1053064442
 6880 01b4 3C6BC73E 		.word	1053256508
 6881 01b8 105BCA3E 		.word	1053448976
 6882 01bc BA4CCD3E 		.word	1053641914
 6883 01c0 F73FD03E 		.word	1053835255
 6884 01c4 C634D33E 		.word	1054028998
 6885 01c8 E52AD63E 		.word	1054223077
 6886 01cc 5322D93E 		.word	1054417491
 6887 01d0 EF1ADC3E 		.word	1054612207
 6888 01d4 DB14DF3E 		.word	1054807259
 6889 01d8 910FE23E 		.word	1055002513
 6890 01dc 740BE53E 		.word	1055198068
 6891 01e0 FF07E83E 		.word	1055393791
 6892 01e4 5305EB3E 		.word	1055589715
 6893 01e8 4F03EE3E 		.word	1055785807
 6894 01ec F301F13E 		.word	1055982067
 6895 01f0 FC00F43E 		.word	1056178428
 6896 01f4 6900F73E 		.word	1056374889
 6897 01f8 1900FA3E 		.word	1056571417
 6898 01fc 0D00FD3E 		.word	1056768013
 6899 0200 0000003F 		.word	1056964608
 6900 0204 FA7F013F 		.word	1057062906
 6901 0208 F3FF023F 		.word	1057161203
 6902 020c CC7F043F 		.word	1057259468
 6903 0210 82FF053F 		.word	1057357698
 6904 0214 067F073F 		.word	1057455878
 6905 0218 58FE083F 		.word	1057554008
 6906 021c 567D0A3F 		.word	1057652054
 6907 0220 01FC0B3F 		.word	1057750017
 6908 0224 467A0D3F 		.word	1057847878
 6909 0228 38F80E3F 		.word	1057945656
 6910 022c 9275103F 		.word	1058043282
 6911 0230 88F2113F 		.word	1058140808
 6912 0234 D66E133F 		.word	1058238166
 6913 0238 8EEA143F 		.word	1058335374
 6914 023c 9D65163F 		.word	1058432413
ARM GAS  /tmp/ccYdlVIk.s 			page 124


 6915 0240 05E0173F 		.word	1058529285
 6916 0244 A359193F 		.word	1058625955
 6917 0248 78D21A3F 		.word	1058722424
 6918 024c 624A1C3F 		.word	1058818658
 6919 0250 83C11D3F 		.word	1058914691
 6920 0254 A8371F3F 		.word	1059010472
 6921 0258 D2AC203F 		.word	1059106002
 6922 025c EF20223F 		.word	1059201263
 6923 0260 FF93233F 		.word	1059296255
 6924 0264 F305253F 		.word	1059390963
 6925 0268 B876263F 		.word	1059485368
 6926 026c 3FE6273F 		.word	1059579455
 6927 0270 8654293F 		.word	1059673222
 6928 0274 6EC12A3F 		.word	1059766638
 6929 0278 172D2C3F 		.word	1059859735
 6930 027c 3E972D3F 		.word	1059952446
 6931 0280 04002F3F 		.word	1060044804
 6932 0284 3867303F 		.word	1060136760
 6933 0288 EACC313F 		.word	1060228330
 6934 028c 0A31333F 		.word	1060319498
 6935 0290 8693343F 		.word	1060410246
 6936 0294 4DF4353F 		.word	1060500557
 6937 0298 5053373F 		.word	1060590416
 6938 029c 8EB0383F 		.word	1060679822
 6939 02a0 070C3A3F 		.word	1060768775
 6940 02a4 88653B3F 		.word	1060857224
 6941 02a8 34BD3C3F 		.word	1060945204
 6942 02ac D7123E3F 		.word	1061032663
 6943 02b0 84663F3F 		.word	1061119620
 6944 02b4 17B8403F 		.word	1061206039
 6945 02b8 9207423F 		.word	1061291922
 6946 02bc E354433F 		.word	1061377251
 6947 02c0 F99F443F 		.word	1061462009
 6948 02c4 E6E8453F 		.word	1061546214
 6949 02c8 772F473F 		.word	1061629815
 6950 02cc AC73483F 		.word	1061712812
 6951 02d0 85B5493F 		.word	1061795205
 6952 02d4 E0F44A3F 		.word	1061876960
 6953 02d8 CF314C3F 		.word	1061958095
 6954 02dc 2F6C4D3F 		.word	1062038575
 6955 02e0 01A44E3F 		.word	1062118401
 6956 02e4 34D94F3F 		.word	1062197556
 6957 02e8 B70B513F 		.word	1062276023
 6958 02ec 793B523F 		.word	1062353785
 6959 02f0 7B68533F 		.word	1062430843
 6960 02f4 BC92543F 		.word	1062507196
 6961 02f8 0ABA553F 		.word	1062582794
 6962 02fc 87DE563F 		.word	1062657671
 6963 0300 0000583F 		.word	1062731776
 6964 0304 861E593F 		.word	1062805126
 6965 0308 F7395A3F 		.word	1062877687
 6966 030c 44525B3F 		.word	1062949444
 6967 0310 7B675C3F 		.word	1063020411
 6968 0314 8E795D3F 		.word	1063090574
 6969 0318 48885E3F 		.word	1063159880
 6970 031c CD935F3F 		.word	1063228365
 6971 0320 FA9B603F 		.word	1063295994
ARM GAS  /tmp/ccYdlVIk.s 			page 125


 6972 0324 CFA0613F 		.word	1063362767
 6973 0328 2BA2623F 		.word	1063428651
 6974 032c 1FA0633F 		.word	1063493663
 6975 0330 789A643F 		.word	1063557752
 6976 0334 5891653F 		.word	1063620952
 6977 0338 8C84663F 		.word	1063683212
 6978 033c 2574673F 		.word	1063744549
 6979 0340 0360683F 		.word	1063804931
 6980 0344 2448693F 		.word	1063864356
 6981 0348 772C6A3F 		.word	1063922807
 6982 034c ED0C6B3F 		.word	1063980269
 6983 0350 85E96B3F 		.word	1064036741
 6984 0354 1EC26C3F 		.word	1064092190
 6985 0358 C8966D3F 		.word	1064146632
 6986 035c 73676E3F 		.word	1064200051
 6987 0360 FD336F3F 		.word	1064252413
 6988 0364 76FC6F3F 		.word	1064303734
 6989 0368 ADC0703F 		.word	1064353965
 6990 036c B280713F 		.word	1064403122
 6991 0370 863C723F 		.word	1064451206
 6992 0374 F5F3723F 		.word	1064498165
 6993 0378 11A7733F 		.word	1064544017
 6994 037c C955743F 		.word	1064588745
 6995 0380 FCFF743F 		.word	1064632316
 6996 0384 B9A5753F 		.word	1064674745
 6997 0388 F146763F 		.word	1064716017
 6998 038c 82E3763F 		.word	1064756098
 6999 0390 7C7B773F 		.word	1064795004
 7000 0394 BF0E783F 		.word	1064832703
 7001 0398 499D783F 		.word	1064869193
 7002 039c 0B27793F 		.word	1064904459
 7003 03a0 04AC793F 		.word	1064938500
 7004 03a4 132C7A3F 		.word	1064971283
 7005 03a8 37A77A3F 		.word	1065002807
 7006 03ac 601D7B3F 		.word	1065033056
 7007 03b0 7E8E7B3F 		.word	1065062014
 7008 03b4 8FFA7B3F 		.word	1065089679
 7009 03b8 95617C3F 		.word	1065116053
 7010 03bc 5DC37C3F 		.word	1065141085
 7011 03c0 08207D3F 		.word	1065164808
 7012 03c4 64777D3F 		.word	1065187172
 7013 03c8 71C97D3F 		.word	1065208177
 7014 03cc 2F167E3F 		.word	1065227823
 7015 03d0 7D5D7E3F 		.word	1065246077
 7016 03d4 6B9F7E3F 		.word	1065262955
 7017 03d8 D7DB7E3F 		.word	1065278423
 7018 03dc B2127F3F 		.word	1065292466
 7019 03e0 FA437F3F 		.word	1065305082
 7020 03e4 B16F7F3F 		.word	1065316273
 7021 03e8 B3957F3F 		.word	1065326003
 7022 03ec F2B57F3F 		.word	1065334258
 7023 03f0 7DD07F3F 		.word	1065341053
 7024 03f4 32E57F3F 		.word	1065346354
 7025 03f8 13F47F3F 		.word	1065350163
 7026 03fc FCFC7F3F 		.word	1065352444
 7027 0400 0000803F 		.word	1065353216
 7028 0404 D6E67F3F 		.word	1065346774
ARM GAS  /tmp/ccYdlVIk.s 			page 126


 7029 0408 359B7F3F 		.word	1065327413
 7030 040c 3F1D7F3F 		.word	1065295167
 7031 0410 E36C7E3F 		.word	1065250019
 7032 0414 118A7D3F 		.word	1065191953
 7033 0418 EB747C3F 		.word	1065121003
 7034 041c 5E2D7B3F 		.word	1065037150
 7035 0420 6CB3793F 		.word	1064940396
 7036 0424 1407783F 		.word	1064830740
 7037 0428 5628763F 		.word	1064708182
 7038 042c 3317743F 		.word	1064572723
 7039 0430 BBD3713F 		.word	1064424379
 7040 0434 CC5D6F3F 		.word	1064263116
 7041 0438 78B56C3F 		.word	1064088952
 7042 043c CFDA693F 		.word	1063901903
 7043 0440 AFCD663F 		.word	1063701935
 7044 0444 3B8E633F 		.word	1063489083
 7045 0448 501C603F 		.word	1063263312
 7046 044c 10785C3F 		.word	1063024656
 7047 0450 6AA1583F 		.word	1062773098
 7048 0454 5F98543F 		.word	1062508639
 7049 0458 EE5C503F 		.word	1062231278
 7050 045c 17EF4B3F 		.word	1061941015
 7051 0460 DB4E473F 		.word	1061637851
 7052 0464 397C423F 		.word	1061321785
 7053 0468 32773D3F 		.word	1060992818
 7054 046c C43F383F 		.word	1060650948
 7055 0470 F1D5323F 		.word	1060296177
 7056 0474 C9392D3F 		.word	1059928521
 7057 0478 2B6B273F 		.word	1059547947
 7058 047c 386A213F 		.word	1059154488
 7059 0480 CE361B3F 		.word	1058748110
 7060 0484 0FD1143F 		.word	1058328847
 7061 0488 EB380E3F 		.word	1057896683
 7062 048c 506E073F 		.word	1057451600
 7063 0490 6171003F 		.word	1056993633
 7064 0494 1684F23E 		.word	1056080918
 7065 0498 A0C0E33E 		.word	1055113376
 7066 049c 5F98D43E 		.word	1054120031
 7067 04a0 520BC53E 		.word	1053100882
 7068 04a4 7A19B53E 		.word	1052055930
 7069 04a8 D7C2A43E 		.word	1050985175
 7070 04ac 8907943E 		.word	1049888649
 7071 04b0 4FE7823E 		.word	1048766287
 7072 04b4 93C4623E 		.word	1046660243
 7073 04b8 35F13E3E 		.word	1044312373
 7074 04bc FC531A3E 		.word	1041912828
 7075 04c0 E0DAE93D 		.word	1038736096
 7076 04c4 9A7A9D3D 		.word	1033730714
 7077 04c8 410D1F3D 		.word	1025445185
 7078 04cc 00000000 		.word	0
 7079 04d0 00000000 		.word	0
 7080 04d4 00000000 		.word	0
 7081 04d8 00000000 		.word	0
 7082 04dc 00000000 		.word	0
 7083 04e0 00000000 		.word	0
 7084 04e4 00000000 		.word	0
 7085 04e8 00000000 		.word	0
ARM GAS  /tmp/ccYdlVIk.s 			page 127


 7086 04ec 00000000 		.word	0
 7087 04f0 00000000 		.word	0
 7088 04f4 00000000 		.word	0
 7089 04f8 00000000 		.word	0
 7090 04fc 00000000 		.word	0
 7091 0500 00000000 		.word	0
 7092 0504 00000000 		.word	0
 7093 0508 00000000 		.word	0
 7094 050c 00000000 		.word	0
 7095 0510 00000000 		.word	0
 7096 0514 00000000 		.word	0
 7097 0518 00000000 		.word	0
 7098 051c 00000000 		.word	0
 7099 0520 00000000 		.word	0
 7100 0524 00000000 		.word	0
 7101 0528 00000000 		.word	0
 7102 052c 00000000 		.word	0
 7103 0530 00000000 		.word	0
 7104 0534 00000000 		.word	0
 7105 0538 00000000 		.word	0
 7106 053c 00000000 		.word	0
 7107 0540 00000000 		.word	0
 7108 0544 00000000 		.word	0
 7109 0548 00000000 		.word	0
 7110 054c 00000000 		.word	0
 7111 0550 00000000 		.word	0
 7112 0554 00000000 		.word	0
 7113 0558 00000000 		.word	0
 7114 055c 00000000 		.word	0
 7115 0560 00000000 		.word	0
 7116 0564 00000000 		.word	0
 7117 0568 00000000 		.word	0
 7118 056c 00000000 		.word	0
 7119 0570 00000000 		.word	0
 7120 0574 00000000 		.word	0
 7121 0578 00000000 		.word	0
 7122 057c 00000000 		.word	0
 7123 0580 00000000 		.word	0
 7124 0584 00000000 		.word	0
 7125 0588 00000000 		.word	0
 7126 058c 00000000 		.word	0
 7127 0590 00000000 		.word	0
 7128 0594 00000000 		.word	0
 7129 0598 00000000 		.word	0
 7130 059c 00000000 		.word	0
 7131 05a0 00000000 		.word	0
 7132 05a4 00000000 		.word	0
 7133 05a8 00000000 		.word	0
 7134 05ac 00000000 		.word	0
 7135 05b0 00000000 		.word	0
 7136 05b4 00000000 		.word	0
 7137 05b8 00000000 		.word	0
 7138 05bc 00000000 		.word	0
 7139 05c0 00000000 		.word	0
 7140 05c4 00000000 		.word	0
 7141 05c8 00000000 		.word	0
 7142 05cc 00000000 		.word	0
ARM GAS  /tmp/ccYdlVIk.s 			page 128


 7143 05d0 00000000 		.word	0
 7144 05d4 00000000 		.word	0
 7145 05d8 00000000 		.word	0
 7146 05dc 00000000 		.word	0
 7147 05e0 00000000 		.word	0
 7148 05e4 00000000 		.word	0
 7149 05e8 00000000 		.word	0
 7150 05ec 00000000 		.word	0
 7151 05f0 00000000 		.word	0
 7152 05f4 00000000 		.word	0
 7153 05f8 00000000 		.word	0
 7154 05fc 00000000 		.word	0
 7155 0600 00000000 		.word	0
 7156 0604 00000000 		.word	0
 7157 0608 00000000 		.word	0
 7158 060c 00000000 		.word	0
 7159 0610 00000000 		.word	0
 7160 0614 00000000 		.word	0
 7161 0618 00000000 		.word	0
 7162 061c 00000000 		.word	0
 7163 0620 00000000 		.word	0
 7164 0624 00000000 		.word	0
 7165 0628 00000000 		.word	0
 7166 062c 00000000 		.word	0
 7167 0630 00000000 		.word	0
 7168 0634 00000000 		.word	0
 7169 0638 00000000 		.word	0
 7170 063c 00000000 		.word	0
 7171 0640 00000000 		.word	0
 7172 0644 00000000 		.word	0
 7173 0648 00000000 		.word	0
 7174 064c 00000000 		.word	0
 7175 0650 00000000 		.word	0
 7176 0654 00000000 		.word	0
 7177 0658 00000000 		.word	0
 7178 065c 00000000 		.word	0
 7179 0660 00000000 		.word	0
 7180 0664 00000000 		.word	0
 7181 0668 00000000 		.word	0
 7182 066c 00000000 		.word	0
 7183 0670 00000000 		.word	0
 7184 0674 00000000 		.word	0
 7185 0678 00000000 		.word	0
 7186 067c 00000000 		.word	0
 7187 0680 00000000 		.word	0
 7188 0684 00000000 		.word	0
 7189 0688 00000000 		.word	0
 7190 068c 00000000 		.word	0
 7191 0690 00000000 		.word	0
 7192 0694 00000000 		.word	0
 7193 0698 00000000 		.word	0
 7194 069c 00000000 		.word	0
 7195 06a0 00000000 		.word	0
 7196 06a4 00000000 		.word	0
 7197 06a8 00000000 		.word	0
 7198 06ac 00000000 		.word	0
 7199 06b0 00000000 		.word	0
ARM GAS  /tmp/ccYdlVIk.s 			page 129


 7200 06b4 00000000 		.word	0
 7201 06b8 00000000 		.word	0
 7202 06bc 00000000 		.word	0
 7203 06c0 00000000 		.word	0
 7204 06c4 00000000 		.word	0
 7205 06c8 00000000 		.word	0
 7206 06cc 00000000 		.word	0
 7207 06d0 00000000 		.word	0
 7208 06d4 00000000 		.word	0
 7209 06d8 00000000 		.word	0
 7210 06dc 00000000 		.word	0
 7211 06e0 00000000 		.word	0
 7212 06e4 00000000 		.word	0
 7213 06e8 00000000 		.word	0
 7214 06ec 00000000 		.word	0
 7215 06f0 00000000 		.word	0
 7216 06f4 00000000 		.word	0
 7217 06f8 00000000 		.word	0
 7218 06fc 00000000 		.word	0
 7219 0700 00000000 		.word	0
 7220 0704 00000000 		.word	0
 7221 0708 00000000 		.word	0
 7222 070c 00000000 		.word	0
 7223 0710 00000000 		.word	0
 7224 0714 00000000 		.word	0
 7225 0718 00000000 		.word	0
 7226 071c 00000000 		.word	0
 7227 0720 00000000 		.word	0
 7228 0724 00000000 		.word	0
 7229 0728 00000000 		.word	0
 7230 072c 00000000 		.word	0
 7231 0730 00000000 		.word	0
 7232 0734 00000000 		.word	0
 7233 0738 00000000 		.word	0
 7234 073c 00000000 		.word	0
 7235 0740 00000000 		.word	0
 7236 0744 00000000 		.word	0
 7237 0748 00000000 		.word	0
 7238 074c 00000000 		.word	0
 7239 0750 00000000 		.word	0
 7240 0754 00000000 		.word	0
 7241 0758 00000000 		.word	0
 7242 075c 00000000 		.word	0
 7243 0760 00000000 		.word	0
 7244 0764 00000000 		.word	0
 7245 0768 00000000 		.word	0
 7246 076c 00000000 		.word	0
 7247 0770 00000000 		.word	0
 7248 0774 00000000 		.word	0
 7249 0778 00000000 		.word	0
 7250 077c 00000000 		.word	0
 7251 0780 00000000 		.word	0
 7252 0784 00000000 		.word	0
 7253 0788 00000000 		.word	0
 7254 078c 00000000 		.word	0
 7255 0790 00000000 		.word	0
 7256 0794 00000000 		.word	0
ARM GAS  /tmp/ccYdlVIk.s 			page 130


 7257 0798 00000000 		.word	0
 7258 079c 00000000 		.word	0
 7259 07a0 00000000 		.word	0
 7260 07a4 00000000 		.word	0
 7261 07a8 00000000 		.word	0
 7262 07ac 00000000 		.word	0
 7263 07b0 00000000 		.word	0
 7264 07b4 00000000 		.word	0
 7265 07b8 00000000 		.word	0
 7266 07bc 00000000 		.word	0
 7267 07c0 00000000 		.word	0
 7268 07c4 00000000 		.word	0
 7269 07c8 00000000 		.word	0
 7270 07cc 00000000 		.word	0
 7271 07d0 00000000 		.word	0
 7272 07d4 00000000 		.word	0
 7273 07d8 00000000 		.word	0
 7274 07dc 00000000 		.word	0
 7275 07e0 00000000 		.word	0
 7276 07e4 00000000 		.word	0
 7277 07e8 00000000 		.word	0
 7278 07ec 00000000 		.word	0
 7279 07f0 00000000 		.word	0
 7280 07f4 00000000 		.word	0
 7281 07f8 00000000 		.word	0
 7282 07fc 00000000 		.word	0
 7283              		.section	.rodata.pulsetable009,"a"
 7284              		.align	2
 7285              		.type	pulsetable009, %object
 7286              		.size	pulsetable009, 2048
 7287              	pulsetable009:
 7288 0000 00000000 		.word	0
 7289 0004 20F04038 		.word	943779872
 7290 0008 41D73E39 		.word	960419649
 7291 000c 0D6FD639 		.word	970354445
 7292 0010 ED0D3E3A 		.word	977145325
 7293 0014 821C943A 		.word	982785154
 7294 0018 4A99D43A 		.word	987011402
 7295 001c 6E4F103B 		.word	990924654
 7296 0020 D5053C3B 		.word	993789397
 7297 0024 4D4E6D3B 		.word	997019213
 7298 0028 6A14923B 		.word	999429226
 7299 002c B64AB03B 		.word	1001409206
 7300 0030 A741D13B 		.word	1003569575
 7301 0034 75E8F43B 		.word	1005906037
 7302 0038 C2A30D3C 		.word	1007526850
 7303 003c 0727223C 		.word	1008871175
 7304 0040 09FE373C 		.word	1010302473
 7305 0044 C8284F3C 		.word	1011820744
 7306 0048 AE9A673C 		.word	1013422766
 7307 004c 10AE803C 		.word	1015066128
 7308 0050 44308E3C 		.word	1015951428
 7309 0054 F4539C3C 		.word	1016878068
 7310 0058 1E19AB3C 		.word	1017846046
 7311 005c AA7DBA3C 		.word	1018854826
 7312 0060 807FCA3C 		.word	1019903872
 7313 0064 9F1EDB3C 		.word	1020993183
ARM GAS  /tmp/ccYdlVIk.s 			page 131


 7314 0068 D656EC3C 		.word	1022121686
 7315 006c 2428FE3C 		.word	1023289380
 7316 0070 3848083D 		.word	1023952952
 7317 0074 DEC7113D 		.word	1024575454
 7318 0078 EB901B3D 		.word	1025216747
 7319 007c 6AA4253D 		.word	1025877098
 7320 0080 4300303D 		.word	1026555971
 7321 0084 6AA33A3D 		.word	1027253098
 7322 0088 EB8E453D 		.word	1027968747
 7323 008c ADC0503D 		.word	1028702381
 7324 0090 A4375C3D 		.word	1029453732
 7325 0094 DCF4673D 		.word	1030223068
 7326 0098 30F5733D 		.word	1031009584
 7327 009c 501C803D 		.word	1031806032
 7328 00a0 1C60863D 		.word	1032216604
 7329 00a4 69C48C3D 		.word	1032635497
 7330 00a8 BF49933D 		.word	1033062847
 7331 00ac 0FEF993D 		.word	1033498383
 7332 00b0 D5B3A03D 		.word	1033941973
 7333 00b4 9698A73D 		.word	1034393750
 7334 00b8 459CAE3D 		.word	1034853445
 7335 00bc E4BEB53D 		.word	1035321060
 7336 00c0 EBFFBC3D 		.word	1035796459
 7337 00c4 D55EC43D 		.word	1036279509
 7338 00c8 A1DBCB3D 		.word	1036770209
 7339 00cc 4375D33D 		.word	1037268291
 7340 00d0 412CDB3D 		.word	1037773889
 7341 00d4 09FFE23D 		.word	1038286601
 7342 00d8 A6EEEA3D 		.word	1038806694
 7343 00dc 87F9F23D 		.word	1039333767
 7344 00e0 3220FB3D 		.word	1039867954
 7345 00e4 CDB0013E 		.word	1040298189
 7346 00e8 DFDE053E 		.word	1040572127
 7347 00ec CA190A3E 		.word	1040849354
 7348 00f0 13620E3E 		.word	1041130003
 7349 00f4 F2B6123E 		.word	1041413874
 7350 00f8 2218173E 		.word	1041700898
 7351 00fc E8851B3E 		.word	1041991144
 7352 0100 0000203E 		.word	1042284544
 7353 0104 E485243E 		.word	1042580964
 7354 0108 D717293E 		.word	1042880471
 7355 010c 0FB52D3E 		.word	1043182863
 7356 0110 145E323E 		.word	1043488276
 7357 0114 1B12373E 		.word	1043796507
 7358 0118 24D13B3E 		.word	1044107556
 7359 011c 309B403E 		.word	1044421424
 7360 0120 FC6F453E 		.word	1044738044
 7361 0124 444F4A3E 		.word	1045057348
 7362 0128 C5384F3E 		.word	1045379269
 7363 012c 802C543E 		.word	1045703808
 7364 0130 ED29593E 		.word	1046030829
 7365 0134 51315E3E 		.word	1046360401
 7366 0138 2442633E 		.word	1046692388
 7367 013c 685C683E 		.word	1047026792
 7368 0140 1B806D3E 		.word	1047363611
 7369 0144 75AC723E 		.word	1047702645
 7370 0148 B9E1773E 		.word	1048043961
ARM GAS  /tmp/ccYdlVIk.s 			page 132


 7371 014c A31F7D3E 		.word	1048387491
 7372 0150 F832813E 		.word	1048654584
 7373 0154 51DA833E 		.word	1048828497
 7374 0158 9885863E 		.word	1049003416
 7375 015c F034893E 		.word	1049179376
 7376 0160 F3E78B3E 		.word	1049356275
 7377 0164 E49E8E3E 		.word	1049534180
 7378 0168 6059913E 		.word	1049712992
 7379 016c 6517943E 		.word	1049892709
 7380 0170 F5D8963E 		.word	1050073333
 7381 0174 ED9D993E 		.word	1050254829
 7382 0178 2C669C3E 		.word	1050437164
 7383 017c 90319F3E 		.word	1050620304
 7384 0180 F8FFA13E 		.word	1050804216
 7385 0184 85D1A43E 		.word	1050988933
 7386 0188 D3A5A73E 		.word	1051174355
 7387 018c 247DAA3E 		.word	1051360548
 7388 0190 F356AD3E 		.word	1051547379
 7389 0194 8333B03E 		.word	1051734915
 7390 0198 9012B33E 		.word	1051923088
 7391 019c 1BF4B53E 		.word	1052111899
 7392 01a0 02D8B83E 		.word	1052301314
 7393 01a4 23BEBB3E 		.word	1052491299
 7394 01a8 5DA6BE3E 		.word	1052681821
 7395 01ac B090C13E 		.word	1052872880
 7396 01b0 FA7CC43E 		.word	1053064442
 7397 01b4 3C6BC73E 		.word	1053256508
 7398 01b8 105BCA3E 		.word	1053448976
 7399 01bc BA4CCD3E 		.word	1053641914
 7400 01c0 F73FD03E 		.word	1053835255
 7401 01c4 C634D33E 		.word	1054028998
 7402 01c8 E52AD63E 		.word	1054223077
 7403 01cc 5322D93E 		.word	1054417491
 7404 01d0 EF1ADC3E 		.word	1054612207
 7405 01d4 DB14DF3E 		.word	1054807259
 7406 01d8 910FE23E 		.word	1055002513
 7407 01dc 740BE53E 		.word	1055198068
 7408 01e0 FF07E83E 		.word	1055393791
 7409 01e4 5305EB3E 		.word	1055589715
 7410 01e8 4F03EE3E 		.word	1055785807
 7411 01ec F301F13E 		.word	1055982067
 7412 01f0 FC00F43E 		.word	1056178428
 7413 01f4 6900F73E 		.word	1056374889
 7414 01f8 1900FA3E 		.word	1056571417
 7415 01fc 0D00FD3E 		.word	1056768013
 7416 0200 0000003F 		.word	1056964608
 7417 0204 FA7F013F 		.word	1057062906
 7418 0208 F3FF023F 		.word	1057161203
 7419 020c CC7F043F 		.word	1057259468
 7420 0210 82FF053F 		.word	1057357698
 7421 0214 067F073F 		.word	1057455878
 7422 0218 58FE083F 		.word	1057554008
 7423 021c 567D0A3F 		.word	1057652054
 7424 0220 01FC0B3F 		.word	1057750017
 7425 0224 467A0D3F 		.word	1057847878
 7426 0228 38F80E3F 		.word	1057945656
 7427 022c 9275103F 		.word	1058043282
ARM GAS  /tmp/ccYdlVIk.s 			page 133


 7428 0230 88F2113F 		.word	1058140808
 7429 0234 D66E133F 		.word	1058238166
 7430 0238 8EEA143F 		.word	1058335374
 7431 023c 9D65163F 		.word	1058432413
 7432 0240 05E0173F 		.word	1058529285
 7433 0244 A359193F 		.word	1058625955
 7434 0248 78D21A3F 		.word	1058722424
 7435 024c 624A1C3F 		.word	1058818658
 7436 0250 83C11D3F 		.word	1058914691
 7437 0254 A8371F3F 		.word	1059010472
 7438 0258 D2AC203F 		.word	1059106002
 7439 025c EF20223F 		.word	1059201263
 7440 0260 FF93233F 		.word	1059296255
 7441 0264 F305253F 		.word	1059390963
 7442 0268 B876263F 		.word	1059485368
 7443 026c 3FE6273F 		.word	1059579455
 7444 0270 8654293F 		.word	1059673222
 7445 0274 6EC12A3F 		.word	1059766638
 7446 0278 172D2C3F 		.word	1059859735
 7447 027c 3E972D3F 		.word	1059952446
 7448 0280 04002F3F 		.word	1060044804
 7449 0284 3867303F 		.word	1060136760
 7450 0288 EACC313F 		.word	1060228330
 7451 028c 0A31333F 		.word	1060319498
 7452 0290 8693343F 		.word	1060410246
 7453 0294 4DF4353F 		.word	1060500557
 7454 0298 5053373F 		.word	1060590416
 7455 029c 8EB0383F 		.word	1060679822
 7456 02a0 070C3A3F 		.word	1060768775
 7457 02a4 88653B3F 		.word	1060857224
 7458 02a8 34BD3C3F 		.word	1060945204
 7459 02ac D7123E3F 		.word	1061032663
 7460 02b0 84663F3F 		.word	1061119620
 7461 02b4 17B8403F 		.word	1061206039
 7462 02b8 9207423F 		.word	1061291922
 7463 02bc E354433F 		.word	1061377251
 7464 02c0 F99F443F 		.word	1061462009
 7465 02c4 E6E8453F 		.word	1061546214
 7466 02c8 772F473F 		.word	1061629815
 7467 02cc AC73483F 		.word	1061712812
 7468 02d0 85B5493F 		.word	1061795205
 7469 02d4 E0F44A3F 		.word	1061876960
 7470 02d8 CF314C3F 		.word	1061958095
 7471 02dc 2F6C4D3F 		.word	1062038575
 7472 02e0 01A44E3F 		.word	1062118401
 7473 02e4 34D94F3F 		.word	1062197556
 7474 02e8 B70B513F 		.word	1062276023
 7475 02ec 793B523F 		.word	1062353785
 7476 02f0 7B68533F 		.word	1062430843
 7477 02f4 BC92543F 		.word	1062507196
 7478 02f8 0ABA553F 		.word	1062582794
 7479 02fc 87DE563F 		.word	1062657671
 7480 0300 0000583F 		.word	1062731776
 7481 0304 861E593F 		.word	1062805126
 7482 0308 F7395A3F 		.word	1062877687
 7483 030c 44525B3F 		.word	1062949444
 7484 0310 7B675C3F 		.word	1063020411
ARM GAS  /tmp/ccYdlVIk.s 			page 134


 7485 0314 8E795D3F 		.word	1063090574
 7486 0318 48885E3F 		.word	1063159880
 7487 031c CD935F3F 		.word	1063228365
 7488 0320 FA9B603F 		.word	1063295994
 7489 0324 CFA0613F 		.word	1063362767
 7490 0328 2BA2623F 		.word	1063428651
 7491 032c 1FA0633F 		.word	1063493663
 7492 0330 789A643F 		.word	1063557752
 7493 0334 5891653F 		.word	1063620952
 7494 0338 8C84663F 		.word	1063683212
 7495 033c 2574673F 		.word	1063744549
 7496 0340 0360683F 		.word	1063804931
 7497 0344 2448693F 		.word	1063864356
 7498 0348 772C6A3F 		.word	1063922807
 7499 034c ED0C6B3F 		.word	1063980269
 7500 0350 85E96B3F 		.word	1064036741
 7501 0354 1EC26C3F 		.word	1064092190
 7502 0358 C8966D3F 		.word	1064146632
 7503 035c 73676E3F 		.word	1064200051
 7504 0360 FD336F3F 		.word	1064252413
 7505 0364 76FC6F3F 		.word	1064303734
 7506 0368 ADC0703F 		.word	1064353965
 7507 036c B280713F 		.word	1064403122
 7508 0370 863C723F 		.word	1064451206
 7509 0374 F5F3723F 		.word	1064498165
 7510 0378 11A7733F 		.word	1064544017
 7511 037c C955743F 		.word	1064588745
 7512 0380 FCFF743F 		.word	1064632316
 7513 0384 B9A5753F 		.word	1064674745
 7514 0388 F146763F 		.word	1064716017
 7515 038c 82E3763F 		.word	1064756098
 7516 0390 7C7B773F 		.word	1064795004
 7517 0394 BF0E783F 		.word	1064832703
 7518 0398 499D783F 		.word	1064869193
 7519 039c 0B27793F 		.word	1064904459
 7520 03a0 04AC793F 		.word	1064938500
 7521 03a4 132C7A3F 		.word	1064971283
 7522 03a8 37A77A3F 		.word	1065002807
 7523 03ac 601D7B3F 		.word	1065033056
 7524 03b0 7E8E7B3F 		.word	1065062014
 7525 03b4 8FFA7B3F 		.word	1065089679
 7526 03b8 95617C3F 		.word	1065116053
 7527 03bc 5DC37C3F 		.word	1065141085
 7528 03c0 08207D3F 		.word	1065164808
 7529 03c4 64777D3F 		.word	1065187172
 7530 03c8 71C97D3F 		.word	1065208177
 7531 03cc 2F167E3F 		.word	1065227823
 7532 03d0 7D5D7E3F 		.word	1065246077
 7533 03d4 6B9F7E3F 		.word	1065262955
 7534 03d8 D7DB7E3F 		.word	1065278423
 7535 03dc B2127F3F 		.word	1065292466
 7536 03e0 FA437F3F 		.word	1065305082
 7537 03e4 B16F7F3F 		.word	1065316273
 7538 03e8 B3957F3F 		.word	1065326003
 7539 03ec F2B57F3F 		.word	1065334258
 7540 03f0 7DD07F3F 		.word	1065341053
 7541 03f4 32E57F3F 		.word	1065346354
ARM GAS  /tmp/ccYdlVIk.s 			page 135


 7542 03f8 13F47F3F 		.word	1065350163
 7543 03fc FCFC7F3F 		.word	1065352444
 7544 0400 0000803F 		.word	1065353216
 7545 0404 EDF47F3F 		.word	1065350381
 7546 0408 C3D37F3F 		.word	1065341891
 7547 040c 849C7F3F 		.word	1065327748
 7548 0410 1E4F7F3F 		.word	1065307934
 7549 0414 A2EB7E3F 		.word	1065282466
 7550 0418 11727E3F 		.word	1065251345
 7551 041c 69E27D3F 		.word	1065214569
 7552 0420 9B3C7D3F 		.word	1065172123
 7553 0424 A6807C3F 		.word	1065124006
 7554 0428 ABAE7B3F 		.word	1065070251
 7555 042c 8BC67A3F 		.word	1065010827
 7556 0430 54C8793F 		.word	1064945748
 7557 0434 F6B3783F 		.word	1064874998
 7558 0438 8389773F 		.word	1064798595
 7559 043c F948763F 		.word	1064716537
 7560 0440 49F2743F 		.word	1064628809
 7561 0444 9485733F 		.word	1064535444
 7562 0448 A702723F 		.word	1064436391
 7563 044c B669703F 		.word	1064331702
 7564 0450 9DBA6E3F 		.word	1064221341
 7565 0454 6FF56C3F 		.word	1064105327
 7566 0458 1A1A6B3F 		.word	1063983642
 7567 045c BF28693F 		.word	1063856319
 7568 0460 2D21673F 		.word	1063723309
 7569 0464 9703653F 		.word	1063584663
 7570 0468 D9CF623F 		.word	1063440345
 7571 046c 0586603F 		.word	1063290373
 7572 0470 1C265E3F 		.word	1063134748
 7573 0474 0CB05B3F 		.word	1062973452
 7574 0478 E623593F 		.word	1062806502
 7575 047c 9981563F 		.word	1062633881
 7576 0480 47C9533F 		.word	1062455623
 7577 0484 BEFA503F 		.word	1062271678
 7578 0488 2F164E3F 		.word	1062082095
 7579 048c 7A1B4B3F 		.word	1061886842
 7580 0490 AF0A483F 		.word	1061685935
 7581 0494 CEE3443F 		.word	1061479374
 7582 0498 C6A6413F 		.word	1061267142
 7583 049c A8533E3F 		.word	1061049256
 7584 04a0 74EA3A3F 		.word	1060825716
 7585 04a4 1A6B373F 		.word	1060596506
 7586 04a8 AAD5333F 		.word	1060361642
 7587 04ac 242A303F 		.word	1060121124
 7588 04b0 77682C3F 		.word	1059874935
 7589 04b4 B490283F 		.word	1059623092
 7590 04b8 DBA2243F 		.word	1059365595
 7591 04bc ED9E203F 		.word	1059102445
 7592 04c0 D7841C3F 		.word	1058833623
 7593 04c4 9B54183F 		.word	1058559131
 7594 04c8 5A0E143F 		.word	1058279002
 7595 04cc F2B10F3F 		.word	1057993202
 7596 04d0 753F0B3F 		.word	1057701749
 7597 04d4 D0B6063F 		.word	1057404624
 7598 04d8 1618023F 		.word	1057101846
ARM GAS  /tmp/ccYdlVIk.s 			page 136


 7599 04dc 8BC6FA3E 		.word	1056622219
 7600 04e0 9C30F13E 		.word	1055994012
 7601 04e4 836EE73E 		.word	1055354499
 7602 04e8 3D80DD3E 		.word	1054703677
 7603 04ec CB65D33E 		.word	1054041547
 7604 04f0 0C1FC93E 		.word	1053368076
 7605 04f4 21ACBE3E 		.word	1052683297
 7606 04f8 E90CB43E 		.word	1051987177
 7607 04fc A741A93E 		.word	1051279783
 7608 0500 F5499E3E 		.word	1050561013
 7609 0504 3926933E 		.word	1049830969
 7610 0508 30D6873E 		.word	1049089584
 7611 050c F6B3783E 		.word	1048097782
 7612 0510 3563613E 		.word	1046569781
 7613 0514 D8B9493E 		.word	1045019096
 7614 0518 24B8313E 		.word	1043445796
 7615 051c D55D193E 		.word	1041849813
 7616 0520 71AB003E 		.word	1040231281
 7617 0524 E640CF3D 		.word	1036992742
 7618 0528 B3799C3D 		.word	1033664947
 7619 052c A303523D 		.word	1028785059
 7620 0530 0265D33C 		.word	1020486914
 7621 0534 00000000 		.word	0
 7622 0538 00000000 		.word	0
 7623 053c 00000000 		.word	0
 7624 0540 00000000 		.word	0
 7625 0544 00000000 		.word	0
 7626 0548 00000000 		.word	0
 7627 054c 00000000 		.word	0
 7628 0550 00000000 		.word	0
 7629 0554 00000000 		.word	0
 7630 0558 00000000 		.word	0
 7631 055c 00000000 		.word	0
 7632 0560 00000000 		.word	0
 7633 0564 00000000 		.word	0
 7634 0568 00000000 		.word	0
 7635 056c 00000000 		.word	0
 7636 0570 00000000 		.word	0
 7637 0574 00000000 		.word	0
 7638 0578 00000000 		.word	0
 7639 057c 00000000 		.word	0
 7640 0580 00000000 		.word	0
 7641 0584 00000000 		.word	0
 7642 0588 00000000 		.word	0
 7643 058c 00000000 		.word	0
 7644 0590 00000000 		.word	0
 7645 0594 00000000 		.word	0
 7646 0598 00000000 		.word	0
 7647 059c 00000000 		.word	0
 7648 05a0 00000000 		.word	0
 7649 05a4 00000000 		.word	0
 7650 05a8 00000000 		.word	0
 7651 05ac 00000000 		.word	0
 7652 05b0 00000000 		.word	0
 7653 05b4 00000000 		.word	0
 7654 05b8 00000000 		.word	0
 7655 05bc 00000000 		.word	0
ARM GAS  /tmp/ccYdlVIk.s 			page 137


 7656 05c0 00000000 		.word	0
 7657 05c4 00000000 		.word	0
 7658 05c8 00000000 		.word	0
 7659 05cc 00000000 		.word	0
 7660 05d0 00000000 		.word	0
 7661 05d4 00000000 		.word	0
 7662 05d8 00000000 		.word	0
 7663 05dc 00000000 		.word	0
 7664 05e0 00000000 		.word	0
 7665 05e4 00000000 		.word	0
 7666 05e8 00000000 		.word	0
 7667 05ec 00000000 		.word	0
 7668 05f0 00000000 		.word	0
 7669 05f4 00000000 		.word	0
 7670 05f8 00000000 		.word	0
 7671 05fc 00000000 		.word	0
 7672 0600 00000000 		.word	0
 7673 0604 00000000 		.word	0
 7674 0608 00000000 		.word	0
 7675 060c 00000000 		.word	0
 7676 0610 00000000 		.word	0
 7677 0614 00000000 		.word	0
 7678 0618 00000000 		.word	0
 7679 061c 00000000 		.word	0
 7680 0620 00000000 		.word	0
 7681 0624 00000000 		.word	0
 7682 0628 00000000 		.word	0
 7683 062c 00000000 		.word	0
 7684 0630 00000000 		.word	0
 7685 0634 00000000 		.word	0
 7686 0638 00000000 		.word	0
 7687 063c 00000000 		.word	0
 7688 0640 00000000 		.word	0
 7689 0644 00000000 		.word	0
 7690 0648 00000000 		.word	0
 7691 064c 00000000 		.word	0
 7692 0650 00000000 		.word	0
 7693 0654 00000000 		.word	0
 7694 0658 00000000 		.word	0
 7695 065c 00000000 		.word	0
 7696 0660 00000000 		.word	0
 7697 0664 00000000 		.word	0
 7698 0668 00000000 		.word	0
 7699 066c 00000000 		.word	0
 7700 0670 00000000 		.word	0
 7701 0674 00000000 		.word	0
 7702 0678 00000000 		.word	0
 7703 067c 00000000 		.word	0
 7704 0680 00000000 		.word	0
 7705 0684 00000000 		.word	0
 7706 0688 00000000 		.word	0
 7707 068c 00000000 		.word	0
 7708 0690 00000000 		.word	0
 7709 0694 00000000 		.word	0
 7710 0698 00000000 		.word	0
 7711 069c 00000000 		.word	0
 7712 06a0 00000000 		.word	0
ARM GAS  /tmp/ccYdlVIk.s 			page 138


 7713 06a4 00000000 		.word	0
 7714 06a8 00000000 		.word	0
 7715 06ac 00000000 		.word	0
 7716 06b0 00000000 		.word	0
 7717 06b4 00000000 		.word	0
 7718 06b8 00000000 		.word	0
 7719 06bc 00000000 		.word	0
 7720 06c0 00000000 		.word	0
 7721 06c4 00000000 		.word	0
 7722 06c8 00000000 		.word	0
 7723 06cc 00000000 		.word	0
 7724 06d0 00000000 		.word	0
 7725 06d4 00000000 		.word	0
 7726 06d8 00000000 		.word	0
 7727 06dc 00000000 		.word	0
 7728 06e0 00000000 		.word	0
 7729 06e4 00000000 		.word	0
 7730 06e8 00000000 		.word	0
 7731 06ec 00000000 		.word	0
 7732 06f0 00000000 		.word	0
 7733 06f4 00000000 		.word	0
 7734 06f8 00000000 		.word	0
 7735 06fc 00000000 		.word	0
 7736 0700 00000000 		.word	0
 7737 0704 00000000 		.word	0
 7738 0708 00000000 		.word	0
 7739 070c 00000000 		.word	0
 7740 0710 00000000 		.word	0
 7741 0714 00000000 		.word	0
 7742 0718 00000000 		.word	0
 7743 071c 00000000 		.word	0
 7744 0720 00000000 		.word	0
 7745 0724 00000000 		.word	0
 7746 0728 00000000 		.word	0
 7747 072c 00000000 		.word	0
 7748 0730 00000000 		.word	0
 7749 0734 00000000 		.word	0
 7750 0738 00000000 		.word	0
 7751 073c 00000000 		.word	0
 7752 0740 00000000 		.word	0
 7753 0744 00000000 		.word	0
 7754 0748 00000000 		.word	0
 7755 074c 00000000 		.word	0
 7756 0750 00000000 		.word	0
 7757 0754 00000000 		.word	0
 7758 0758 00000000 		.word	0
 7759 075c 00000000 		.word	0
 7760 0760 00000000 		.word	0
 7761 0764 00000000 		.word	0
 7762 0768 00000000 		.word	0
 7763 076c 00000000 		.word	0
 7764 0770 00000000 		.word	0
 7765 0774 00000000 		.word	0
 7766 0778 00000000 		.word	0
 7767 077c 00000000 		.word	0
 7768 0780 00000000 		.word	0
 7769 0784 00000000 		.word	0
ARM GAS  /tmp/ccYdlVIk.s 			page 139


 7770 0788 00000000 		.word	0
 7771 078c 00000000 		.word	0
 7772 0790 00000000 		.word	0
 7773 0794 00000000 		.word	0
 7774 0798 00000000 		.word	0
 7775 079c 00000000 		.word	0
 7776 07a0 00000000 		.word	0
 7777 07a4 00000000 		.word	0
 7778 07a8 00000000 		.word	0
 7779 07ac 00000000 		.word	0
 7780 07b0 00000000 		.word	0
 7781 07b4 00000000 		.word	0
 7782 07b8 00000000 		.word	0
 7783 07bc 00000000 		.word	0
 7784 07c0 00000000 		.word	0
 7785 07c4 00000000 		.word	0
 7786 07c8 00000000 		.word	0
 7787 07cc 00000000 		.word	0
 7788 07d0 00000000 		.word	0
 7789 07d4 00000000 		.word	0
 7790 07d8 00000000 		.word	0
 7791 07dc 00000000 		.word	0
 7792 07e0 00000000 		.word	0
 7793 07e4 00000000 		.word	0
 7794 07e8 00000000 		.word	0
 7795 07ec 00000000 		.word	0
 7796 07f0 00000000 		.word	0
 7797 07f4 00000000 		.word	0
 7798 07f8 00000000 		.word	0
 7799 07fc 00000000 		.word	0
 7800              		.section	.rodata.pulsetable008,"a"
 7801              		.align	2
 7802              		.type	pulsetable008, %object
 7803              		.size	pulsetable008, 2048
 7804              	pulsetable008:
 7805 0000 00000000 		.word	0
 7806 0004 D6E59438 		.word	949282262
 7807 0008 D6E59439 		.word	966059478
 7808 000c 3DB9263A 		.word	975616317
 7809 0010 D8B7933A 		.word	982759384
 7810 0014 9529E63A 		.word	988162453
 7811 0018 9626253B 		.word	992290454
 7812 001c 8600603B 		.word	996147334
 7813 0020 4ED1913B 		.word	999412046
 7814 0024 42EDB73B 		.word	1001909570
 7815 0028 BA4BE23B 		.word	1004686266
 7816 002c 5C76083C 		.word	1007187548
 7817 0030 56D7213C 		.word	1008850774
 7818 0034 FD4C3D3C 		.word	1010650365
 7819 0038 EECE5A3C 		.word	1012584174
 7820 003c 94507A3C 		.word	1014648980
 7821 0040 10EB8D3C 		.word	1015933712
 7822 0044 7EA99F3C 		.word	1017096574
 7823 0048 7C61B23C 		.word	1018323324
 7824 004c F110C63C 		.word	1019613425
 7825 0050 ABB3DA3C 		.word	1020965803
 7826 0054 9147F03C 		.word	1022379921
ARM GAS  /tmp/ccYdlVIk.s 			page 140


 7827 0058 4565033D 		.word	1023632709
 7828 005c 321C0F3D 		.word	1024400434
 7829 0060 78461B3D 		.word	1025197688
 7830 0064 15E4273D 		.word	1026024469
 7831 0068 F1F2343D 		.word	1026880241
 7832 006c F470423D 		.word	1027764468
 7833 0070 1C5E503D 		.word	1028677148
 7834 0074 45B75E3D 		.word	1029617477
 7835 0078 637B6D3D 		.word	1030585187
 7836 007c 76AA7C3D 		.word	1031580278
 7837 0080 AB20863D 		.word	1032200363
 7838 0084 04208E3D 		.word	1032724484
 7839 0088 B151963D 		.word	1033261489
 7840 008c B3B59E3D 		.word	1033811379
 7841 0090 774AA73D 		.word	1034373751
 7842 0094 FE0FB03D 		.word	1034948606
 7843 0098 C005B93D 		.word	1035535808
 7844 009c 2C2AC23D 		.word	1036134956
 7845 00a0 417DCB3D 		.word	1036746049
 7846 00a4 F4FDD43D 		.word	1037368820
 7847 00a8 BDABDE3D 		.word	1038003133
 7848 00ac 0A85E83D 		.word	1038648586
 7849 00b0 618AF23D 		.word	1039305313
 7850 00b4 30BAFC3D 		.word	1039972912
 7851 00b8 F889033E 		.word	1040419320
 7852 00bc 8ECB083E 		.word	1040763790
 7853 00c0 96210E3E 		.word	1041113494
 7854 00c4 488B133E 		.word	1041468232
 7855 00c8 5F08193E 		.word	1041827935
 7856 00cc DD981E3E 		.word	1042192605
 7857 00d0 3A3C243E 		.word	1042562106
 7858 00d4 F1F1293E 		.word	1042936305
 7859 00d8 BFB92F3E 		.word	1043315135
 7860 00dc 1D93353E 		.word	1043698461
 7861 00e0 0B7E3B3E 		.word	1044086283
 7862 00e4 C079413E 		.word	1044478400
 7863 00e8 3C86473E 		.word	1044874812
 7864 00ec B6A24D3E 		.word	1045275318
 7865 00f0 70CF533E 		.word	1045679984
 7866 00f4 5F0B5A3E 		.word	1046088543
 7867 00f8 8256603E 		.word	1046500994
 7868 00fc 96B0663E 		.word	1046917270
 7869 0100 15196D3E 		.word	1047337237
 7870 0104 7A8F733E 		.word	1047760762
 7871 0108 C2137A3E 		.word	1048187842
 7872 010c 9352803E 		.word	1048597139
 7873 0110 D3A1833E 		.word	1048814035
 7874 0114 5EF7863E 		.word	1049032542
 7875 0118 F0528A3E 		.word	1049252592
 7876 011c 89B48D3E 		.word	1049474185
 7877 0120 E71B913E 		.word	1049697255
 7878 0124 C688943E 		.word	1049921734
 7879 0128 26FB973E 		.word	1050147622
 7880 012c 82729B3E 		.word	1050374786
 7881 0130 1CEF9E3E 		.word	1050603292
 7882 0134 6D70A23E 		.word	1050833005
 7883 0138 77F6A53E 		.word	1051063927
ARM GAS  /tmp/ccYdlVIk.s 			page 141


 7884 013c F580A93E 		.word	1051295989
 7885 0140 A60FAD3E 		.word	1051529126
 7886 0144 87A2B03E 		.word	1051763335
 7887 0148 5839B43E 		.word	1051998552
 7888 014c D4D3B73E 		.word	1052234708
 7889 0150 FC71BB3E 		.word	1052471804
 7890 0154 6A13BF3E 		.word	1052709738
 7891 0158 20B8C23E 		.word	1052948512
 7892 015c D95FC63E 		.word	1053188057
 7893 0160 520ACA3E 		.word	1053428306
 7894 0164 8DB7CD3E 		.word	1053669261
 7895 0168 2367D13E 		.word	1053910819
 7896 016c 1519D53E 		.word	1054152981
 7897 0170 FFCCD83E 		.word	1054395647
 7898 0174 0283DC3E 		.word	1054638850
 7899 0178 973AE03E 		.word	1054882455
 7900 017c E0F3E33E 		.word	1055126496
 7901 0180 79AEE73E 		.word	1055370873
 7902 0184 406AEB3E 		.word	1055615552
 7903 0188 F226EF3E 		.word	1055860466
 7904 018c 8FE4F23E 		.word	1056105615
 7905 0190 D3A2F63E 		.word	1056350931
 7906 0194 7C61FA3E 		.word	1056596348
 7907 0198 6820FE3E 		.word	1056841832
 7908 019c CCEF003F 		.word	1057025996
 7909 01a0 42CF023F 		.word	1057148738
 7910 01a4 97AE043F 		.word	1057271447
 7911 01a8 B98D063F 		.word	1057394105
 7912 01ac 876C083F 		.word	1057516679
 7913 01b0 E04A0A3F 		.word	1057639136
 7914 01b4 C3280C3F 		.word	1057761475
 7915 01b8 10060E3F 		.word	1057883664
 7916 01bc B5E20F3F 		.word	1058005685
 7917 01c0 7FBE113F 		.word	1058127487
 7918 01c4 7099133F 		.word	1058249072
 7919 01c8 7573153F 		.word	1058370421
 7920 01cc 6E4C173F 		.word	1058491502
 7921 01d0 3A24193F 		.word	1058612282
 7922 01d4 D7FA1A3F 		.word	1058732759
 7923 01d8 14D01C3F 		.word	1058852884
 7924 01dc F0A31E3F 		.word	1058972656
 7925 01e0 4B76203F 		.word	1059092043
 7926 01e4 0247223F 		.word	1059211010
 7927 01e8 1616243F 		.word	1059329558
 7928 01ec 54E3253F 		.word	1059447636
 7929 01f0 BCAE273F 		.word	1059565244
 7930 01f4 2D78293F 		.word	1059682349
 7931 01f8 853F2B3F 		.word	1059798917
 7932 01fc C5042D3F 		.word	1059914949
 7933 0200 C9C72E3F 		.word	1060030409
 7934 0204 7288303F 		.word	1060145266
 7935 0208 BF46323F 		.word	1060259519
 7936 020c 7E02343F 		.word	1060373118
 7937 0210 9DBB353F 		.word	1060486045
 7938 0214 0D72373F 		.word	1060598285
 7939 0218 BB25393F 		.word	1060709819
 7940 021c 88D63A3F 		.word	1060820616
ARM GAS  /tmp/ccYdlVIk.s 			page 142


 7941 0220 51843C3F 		.word	1060930641
 7942 0224 162F3E3F 		.word	1061039894
 7943 0228 B6D63F3F 		.word	1061148342
 7944 022c 0F7B413F 		.word	1061255951
 7945 0230 221C433F 		.word	1061362722
 7946 0234 BBB9443F 		.word	1061468603
 7947 0238 DA53463F 		.word	1061573594
 7948 023c 60EA473F 		.word	1061677664
 7949 0240 287D493F 		.word	1061780776
 7950 0244 240C4B3F 		.word	1061882916
 7951 0248 53974C3F 		.word	1061984083
 7952 024c 711E4E3F 		.word	1062084209
 7953 0250 90A14F3F 		.word	1062183312
 7954 0254 7D20513F 		.word	1062281341
 7955 0258 399B523F 		.word	1062378297
 7956 025c 9011543F 		.word	1062474128
 7957 0260 8483553F 		.word	1062568836
 7958 0264 F1F0563F 		.word	1062662385
 7959 0268 C959583F 		.word	1062754761
 7960 026c E8BD593F 		.word	1062845928
 7961 0270 2E1D5B3F 		.word	1062935854
 7962 0274 9A775C3F 		.word	1063024538
 7963 0278 1CCD5D3F 		.word	1063111964
 7964 027c 821D5F3F 		.word	1063198082
 7965 0280 BA68603F 		.word	1063282874
 7966 0284 B4AE613F 		.word	1063366324
 7967 0288 5FEF623F 		.word	1063448415
 7968 028c 882A643F 		.word	1063529096
 7969 0290 4260653F 		.word	1063608386
 7970 0294 5890663F 		.word	1063686232
 7971 0298 BABA673F 		.word	1063762618
 7972 029c 48DF683F 		.word	1063837512
 7973 02a0 00FE693F 		.word	1063910912
 7974 02a4 B1166B3F 		.word	1063982769
 7975 02a8 4A296C3F 		.word	1064053066
 7976 02ac CA356D3F 		.word	1064121802
 7977 02b0 003C6E3F 		.word	1064188928
 7978 02b4 EB3B6F3F 		.word	1064254443
 7979 02b8 5935703F 		.word	1064318297
 7980 02bc 4A28713F 		.word	1064380490
 7981 02c0 8C14723F 		.word	1064440972
 7982 02c4 1EFA723F 		.word	1064499742
 7983 02c8 F1D8733F 		.word	1064556785
 7984 02cc D1B0743F 		.word	1064612049
 7985 02d0 BF81753F 		.word	1064665535
 7986 02d4 994B763F 		.word	1064717209
 7987 02d8 3D0E773F 		.word	1064767037
 7988 02dc ACC9773F 		.word	1064815020
 7989 02e0 C37D783F 		.word	1064861123
 7990 02e4 632A793F 		.word	1064905315
 7991 02e8 78CF793F 		.word	1064947576
 7992 02ec F46C7A3F 		.word	1064987892
 7993 02f0 B4027B3F 		.word	1065026228
 7994 02f4 A8907B3F 		.word	1065062568
 7995 02f8 BE167C3F 		.word	1065096894
 7996 02fc C4947C3F 		.word	1065129156
 7997 0300 CC0A7D3F 		.word	1065159372
ARM GAS  /tmp/ccYdlVIk.s 			page 143


 7998 0304 A3787D3F 		.word	1065187491
 7999 0308 27DE7D3F 		.word	1065213479
 8000 030c 583B7E3F 		.word	1065237336
 8001 0310 25907E3F 		.word	1065259045
 8002 0314 5DDC7E3F 		.word	1065278557
 8003 0318 FF1F7F3F 		.word	1065295871
 8004 031c D95A7F3F 		.word	1065310937
 8005 0320 EB8C7F3F 		.word	1065323755
 8006 0324 24B67F3F 		.word	1065334308
 8007 0328 52D67F3F 		.word	1065342546
 8008 032c 63ED7F3F 		.word	1065348451
 8009 0330 59FB7F3F 		.word	1065352025
 8010 0334 0000803F 		.word	1065353216
 8011 0338 EDF47F3F 		.word	1065350381
 8012 033c C3D37F3F 		.word	1065341891
 8013 0340 849C7F3F 		.word	1065327748
 8014 0344 1E4F7F3F 		.word	1065307934
 8015 0348 A2EB7E3F 		.word	1065282466
 8016 034c 11727E3F 		.word	1065251345
 8017 0350 69E27D3F 		.word	1065214569
 8018 0354 9B3C7D3F 		.word	1065172123
 8019 0358 A6807C3F 		.word	1065124006
 8020 035c ABAE7B3F 		.word	1065070251
 8021 0360 8BC67A3F 		.word	1065010827
 8022 0364 54C8793F 		.word	1064945748
 8023 0368 F6B3783F 		.word	1064874998
 8024 036c 8389773F 		.word	1064798595
 8025 0370 F948763F 		.word	1064716537
 8026 0374 49F2743F 		.word	1064628809
 8027 0378 9485733F 		.word	1064535444
 8028 037c A702723F 		.word	1064436391
 8029 0380 B669703F 		.word	1064331702
 8030 0384 9DBA6E3F 		.word	1064221341
 8031 0388 6FF56C3F 		.word	1064105327
 8032 038c 1A1A6B3F 		.word	1063983642
 8033 0390 BF28693F 		.word	1063856319
 8034 0394 2D21673F 		.word	1063723309
 8035 0398 9703653F 		.word	1063584663
 8036 039c D9CF623F 		.word	1063440345
 8037 03a0 0586603F 		.word	1063290373
 8038 03a4 1C265E3F 		.word	1063134748
 8039 03a8 0CB05B3F 		.word	1062973452
 8040 03ac E623593F 		.word	1062806502
 8041 03b0 9981563F 		.word	1062633881
 8042 03b4 47C9533F 		.word	1062455623
 8043 03b8 BEFA503F 		.word	1062271678
 8044 03bc 2F164E3F 		.word	1062082095
 8045 03c0 7A1B4B3F 		.word	1061886842
 8046 03c4 AF0A483F 		.word	1061685935
 8047 03c8 CEE3443F 		.word	1061479374
 8048 03cc C6A6413F 		.word	1061267142
 8049 03d0 A8533E3F 		.word	1061049256
 8050 03d4 74EA3A3F 		.word	1060825716
 8051 03d8 1A6B373F 		.word	1060596506
 8052 03dc AAD5333F 		.word	1060361642
 8053 03e0 242A303F 		.word	1060121124
 8054 03e4 77682C3F 		.word	1059874935
ARM GAS  /tmp/ccYdlVIk.s 			page 144


 8055 03e8 B490283F 		.word	1059623092
 8056 03ec DBA2243F 		.word	1059365595
 8057 03f0 ED9E203F 		.word	1059102445
 8058 03f4 D7841C3F 		.word	1058833623
 8059 03f8 9B54183F 		.word	1058559131
 8060 03fc 5A0E143F 		.word	1058279002
 8061 0400 F2B10F3F 		.word	1057993202
 8062 0404 753F0B3F 		.word	1057701749
 8063 0408 D0B6063F 		.word	1057404624
 8064 040c 1618023F 		.word	1057101846
 8065 0410 8BC6FA3E 		.word	1056622219
 8066 0414 9C30F13E 		.word	1055994012
 8067 0418 836EE73E 		.word	1055354499
 8068 041c 3D80DD3E 		.word	1054703677
 8069 0420 CB65D33E 		.word	1054041547
 8070 0424 0C1FC93E 		.word	1053368076
 8071 0428 21ACBE3E 		.word	1052683297
 8072 042c E90CB43E 		.word	1051987177
 8073 0430 A741A93E 		.word	1051279783
 8074 0434 F5499E3E 		.word	1050561013
 8075 0438 3926933E 		.word	1049830969
 8076 043c 30D6873E 		.word	1049089584
 8077 0440 F6B3783E 		.word	1048097782
 8078 0444 3563613E 		.word	1046569781
 8079 0448 D8B9493E 		.word	1045019096
 8080 044c 24B8313E 		.word	1043445796
 8081 0450 D55D193E 		.word	1041849813
 8082 0454 71AB003E 		.word	1040231281
 8083 0458 E640CF3D 		.word	1036992742
 8084 045c B3799C3D 		.word	1033664947
 8085 0460 A303523D 		.word	1028785059
 8086 0464 0265D33C 		.word	1020486914
 8087 0468 00000000 		.word	0
 8088 046c 00000000 		.word	0
 8089 0470 00000000 		.word	0
 8090 0474 00000000 		.word	0
 8091 0478 00000000 		.word	0
 8092 047c 00000000 		.word	0
 8093 0480 00000000 		.word	0
 8094 0484 00000000 		.word	0
 8095 0488 00000000 		.word	0
 8096 048c 00000000 		.word	0
 8097 0490 00000000 		.word	0
 8098 0494 00000000 		.word	0
 8099 0498 00000000 		.word	0
 8100 049c 00000000 		.word	0
 8101 04a0 00000000 		.word	0
 8102 04a4 00000000 		.word	0
 8103 04a8 00000000 		.word	0
 8104 04ac 00000000 		.word	0
 8105 04b0 00000000 		.word	0
 8106 04b4 00000000 		.word	0
 8107 04b8 00000000 		.word	0
 8108 04bc 00000000 		.word	0
 8109 04c0 00000000 		.word	0
 8110 04c4 00000000 		.word	0
 8111 04c8 00000000 		.word	0
ARM GAS  /tmp/ccYdlVIk.s 			page 145


 8112 04cc 00000000 		.word	0
 8113 04d0 00000000 		.word	0
 8114 04d4 00000000 		.word	0
 8115 04d8 00000000 		.word	0
 8116 04dc 00000000 		.word	0
 8117 04e0 00000000 		.word	0
 8118 04e4 00000000 		.word	0
 8119 04e8 00000000 		.word	0
 8120 04ec 00000000 		.word	0
 8121 04f0 00000000 		.word	0
 8122 04f4 00000000 		.word	0
 8123 04f8 00000000 		.word	0
 8124 04fc 00000000 		.word	0
 8125 0500 00000000 		.word	0
 8126 0504 00000000 		.word	0
 8127 0508 00000000 		.word	0
 8128 050c 00000000 		.word	0
 8129 0510 00000000 		.word	0
 8130 0514 00000000 		.word	0
 8131 0518 00000000 		.word	0
 8132 051c 00000000 		.word	0
 8133 0520 00000000 		.word	0
 8134 0524 00000000 		.word	0
 8135 0528 00000000 		.word	0
 8136 052c 00000000 		.word	0
 8137 0530 00000000 		.word	0
 8138 0534 00000000 		.word	0
 8139 0538 00000000 		.word	0
 8140 053c 00000000 		.word	0
 8141 0540 00000000 		.word	0
 8142 0544 00000000 		.word	0
 8143 0548 00000000 		.word	0
 8144 054c 00000000 		.word	0
 8145 0550 00000000 		.word	0
 8146 0554 00000000 		.word	0
 8147 0558 00000000 		.word	0
 8148 055c 00000000 		.word	0
 8149 0560 00000000 		.word	0
 8150 0564 00000000 		.word	0
 8151 0568 00000000 		.word	0
 8152 056c 00000000 		.word	0
 8153 0570 00000000 		.word	0
 8154 0574 00000000 		.word	0
 8155 0578 00000000 		.word	0
 8156 057c 00000000 		.word	0
 8157 0580 00000000 		.word	0
 8158 0584 00000000 		.word	0
 8159 0588 00000000 		.word	0
 8160 058c 00000000 		.word	0
 8161 0590 00000000 		.word	0
 8162 0594 00000000 		.word	0
 8163 0598 00000000 		.word	0
 8164 059c 00000000 		.word	0
 8165 05a0 00000000 		.word	0
 8166 05a4 00000000 		.word	0
 8167 05a8 00000000 		.word	0
 8168 05ac 00000000 		.word	0
ARM GAS  /tmp/ccYdlVIk.s 			page 146


 8169 05b0 00000000 		.word	0
 8170 05b4 00000000 		.word	0
 8171 05b8 00000000 		.word	0
 8172 05bc 00000000 		.word	0
 8173 05c0 00000000 		.word	0
 8174 05c4 00000000 		.word	0
 8175 05c8 00000000 		.word	0
 8176 05cc 00000000 		.word	0
 8177 05d0 00000000 		.word	0
 8178 05d4 00000000 		.word	0
 8179 05d8 00000000 		.word	0
 8180 05dc 00000000 		.word	0
 8181 05e0 00000000 		.word	0
 8182 05e4 00000000 		.word	0
 8183 05e8 00000000 		.word	0
 8184 05ec 00000000 		.word	0
 8185 05f0 00000000 		.word	0
 8186 05f4 00000000 		.word	0
 8187 05f8 00000000 		.word	0
 8188 05fc 00000000 		.word	0
 8189 0600 00000000 		.word	0
 8190 0604 00000000 		.word	0
 8191 0608 00000000 		.word	0
 8192 060c 00000000 		.word	0
 8193 0610 00000000 		.word	0
 8194 0614 00000000 		.word	0
 8195 0618 00000000 		.word	0
 8196 061c 00000000 		.word	0
 8197 0620 00000000 		.word	0
 8198 0624 00000000 		.word	0
 8199 0628 00000000 		.word	0
 8200 062c 00000000 		.word	0
 8201 0630 00000000 		.word	0
 8202 0634 00000000 		.word	0
 8203 0638 00000000 		.word	0
 8204 063c 00000000 		.word	0
 8205 0640 00000000 		.word	0
 8206 0644 00000000 		.word	0
 8207 0648 00000000 		.word	0
 8208 064c 00000000 		.word	0
 8209 0650 00000000 		.word	0
 8210 0654 00000000 		.word	0
 8211 0658 00000000 		.word	0
 8212 065c 00000000 		.word	0
 8213 0660 00000000 		.word	0
 8214 0664 00000000 		.word	0
 8215 0668 00000000 		.word	0
 8216 066c 00000000 		.word	0
 8217 0670 00000000 		.word	0
 8218 0674 00000000 		.word	0
 8219 0678 00000000 		.word	0
 8220 067c 00000000 		.word	0
 8221 0680 00000000 		.word	0
 8222 0684 00000000 		.word	0
 8223 0688 00000000 		.word	0
 8224 068c 00000000 		.word	0
 8225 0690 00000000 		.word	0
ARM GAS  /tmp/ccYdlVIk.s 			page 147


 8226 0694 00000000 		.word	0
 8227 0698 00000000 		.word	0
 8228 069c 00000000 		.word	0
 8229 06a0 00000000 		.word	0
 8230 06a4 00000000 		.word	0
 8231 06a8 00000000 		.word	0
 8232 06ac 00000000 		.word	0
 8233 06b0 00000000 		.word	0
 8234 06b4 00000000 		.word	0
 8235 06b8 00000000 		.word	0
 8236 06bc 00000000 		.word	0
 8237 06c0 00000000 		.word	0
 8238 06c4 00000000 		.word	0
 8239 06c8 00000000 		.word	0
 8240 06cc 00000000 		.word	0
 8241 06d0 00000000 		.word	0
 8242 06d4 00000000 		.word	0
 8243 06d8 00000000 		.word	0
 8244 06dc 00000000 		.word	0
 8245 06e0 00000000 		.word	0
 8246 06e4 00000000 		.word	0
 8247 06e8 00000000 		.word	0
 8248 06ec 00000000 		.word	0
 8249 06f0 00000000 		.word	0
 8250 06f4 00000000 		.word	0
 8251 06f8 00000000 		.word	0
 8252 06fc 00000000 		.word	0
 8253 0700 00000000 		.word	0
 8254 0704 00000000 		.word	0
 8255 0708 00000000 		.word	0
 8256 070c 00000000 		.word	0
 8257 0710 00000000 		.word	0
 8258 0714 00000000 		.word	0
 8259 0718 00000000 		.word	0
 8260 071c 00000000 		.word	0
 8261 0720 00000000 		.word	0
 8262 0724 00000000 		.word	0
 8263 0728 00000000 		.word	0
 8264 072c 00000000 		.word	0
 8265 0730 00000000 		.word	0
 8266 0734 00000000 		.word	0
 8267 0738 00000000 		.word	0
 8268 073c 00000000 		.word	0
 8269 0740 00000000 		.word	0
 8270 0744 00000000 		.word	0
 8271 0748 00000000 		.word	0
 8272 074c 00000000 		.word	0
 8273 0750 00000000 		.word	0
 8274 0754 00000000 		.word	0
 8275 0758 00000000 		.word	0
 8276 075c 00000000 		.word	0
 8277 0760 00000000 		.word	0
 8278 0764 00000000 		.word	0
 8279 0768 00000000 		.word	0
 8280 076c 00000000 		.word	0
 8281 0770 00000000 		.word	0
 8282 0774 00000000 		.word	0
ARM GAS  /tmp/ccYdlVIk.s 			page 148


 8283 0778 00000000 		.word	0
 8284 077c 00000000 		.word	0
 8285 0780 00000000 		.word	0
 8286 0784 00000000 		.word	0
 8287 0788 00000000 		.word	0
 8288 078c 00000000 		.word	0
 8289 0790 00000000 		.word	0
 8290 0794 00000000 		.word	0
 8291 0798 00000000 		.word	0
 8292 079c 00000000 		.word	0
 8293 07a0 00000000 		.word	0
 8294 07a4 00000000 		.word	0
 8295 07a8 00000000 		.word	0
 8296 07ac 00000000 		.word	0
 8297 07b0 00000000 		.word	0
 8298 07b4 00000000 		.word	0
 8299 07b8 00000000 		.word	0
 8300 07bc 00000000 		.word	0
 8301 07c0 00000000 		.word	0
 8302 07c4 00000000 		.word	0
 8303 07c8 00000000 		.word	0
 8304 07cc 00000000 		.word	0
 8305 07d0 00000000 		.word	0
 8306 07d4 00000000 		.word	0
 8307 07d8 00000000 		.word	0
 8308 07dc 00000000 		.word	0
 8309 07e0 00000000 		.word	0
 8310 07e4 00000000 		.word	0
 8311 07e8 00000000 		.word	0
 8312 07ec 00000000 		.word	0
 8313 07f0 00000000 		.word	0
 8314 07f4 00000000 		.word	0
 8315 07f8 00000000 		.word	0
 8316 07fc 00000000 		.word	0
 8317              		.section	.rodata.pulsetable007,"a"
 8318              		.align	2
 8319              		.type	pulsetable007, %object
 8320              		.size	pulsetable007, 2048
 8321              	pulsetable007:
 8322 0000 00000000 		.word	0
 8323 0004 DE1E0439 		.word	956571358
 8324 0008 A698033A 		.word	973314214
 8325 000c 2E53933A 		.word	982733614
 8326 0010 E259023B 		.word	990009826
 8327 0014 B5C44A3B 		.word	994755765
 8328 0018 DD5B913B 		.word	999381981
 8329 001c ECF7C43B 		.word	1002764268
 8330 0020 7C0A003C 		.word	1006635644
 8331 0024 5055213C 		.word	1008817488
 8332 0028 7847463C 		.word	1011238776
 8333 002c 5FD46E3C 		.word	1013896287
 8334 0030 B8778D3C 		.word	1015904184
 8335 0034 0B46A53C 		.word	1017464331
 8336 0038 C4CCBE3C 		.word	1019137220
 8337 003c 9A05DA3C 		.word	1020921242
 8338 0040 29E8F63C 		.word	1022814249
 8339 0044 20B80A3D 		.word	1024112672
ARM GAS  /tmp/ccYdlVIk.s 			page 149


 8340 0048 BCCA1A3D 		.word	1025166012
 8341 004c C6A82B3D 		.word	1026271430
 8342 0050 164F3D3D 		.word	1027428118
 8343 0054 7CB94F3D 		.word	1028635004
 8344 0058 D2E4623D 		.word	1029891282
 8345 005c E6CC763D 		.word	1031195878
 8346 0060 D0B7853D 		.word	1032173520
 8347 0064 6764903D 		.word	1032873063
 8348 0068 A56A9B3D 		.word	1033595557
 8349 006c F7C8A63D 		.word	1034340599
 8350 0070 467DB23D 		.word	1035107654
 8351 0074 7785BE3D 		.word	1035896183
 8352 0078 05E1CA3D 		.word	1036706053
 8353 007c 508DD73D 		.word	1037536592
 8354 0080 C688E43D 		.word	1038387398
 8355 0084 D4D1F13D 		.word	1039258068
 8356 0088 6266FF3D 		.word	1040148066
 8357 008c B1A2063E 		.word	1040622257
 8358 0090 5FB60D3E 		.word	1041086047
 8359 0094 2DED143E 		.word	1041558829
 8360 0098 95461C3E 		.word	1042040469
 8361 009c 8BC1233E 		.word	1042530699
 8362 00a0 465D2B3E 		.word	1043029318
 8363 00a4 FC18333E 		.word	1043536124
 8364 00a8 A1F33A3E 		.word	1044050849
 8365 00ac 29EC423E 		.word	1044573225
 8366 00b0 4F024B3E 		.word	1045103183
 8367 00b4 C634533E 		.word	1045640390
 8368 00b8 C3825B3E 		.word	1046184643
 8369 00bc 7DEB633E 		.word	1046735741
 8370 00c0 E76D6C3E 		.word	1047293415
 8371 00c4 7D09753E 		.word	1047857533
 8372 00c8 EDBC7D3E 		.word	1048427757
 8373 00cc FA43833E 		.word	1048790010
 8374 00d0 A2B4873E 		.word	1049080994
 8375 00d4 0A308C3E 		.word	1049374730
 8376 00d8 CCB5903E 		.word	1049671116
 8377 00dc 6345953E 		.word	1049970019
 8378 00e0 8BDE993E 		.word	1050271371
 8379 00e4 BF809E3E 		.word	1050575039
 8380 00e8 772BA33E 		.word	1050880887
 8381 00ec 72DEA73E 		.word	1051188850
 8382 00f0 2899AC3E 		.word	1051498792
 8383 00f4 365BB13E 		.word	1051810614
 8384 00f8 1424B63E 		.word	1052124180
 8385 00fc 80F3BA3E 		.word	1052439424
 8386 0100 F3C8BF3E 		.word	1052756211
 8387 0104 E8A3C43E 		.word	1053074408
 8388 0108 1B84C93E 		.word	1053393947
 8389 010c 0569CE3E 		.word	1053714693
 8390 0110 4452D33E 		.word	1054036548
 8391 0114 4F3FD83E 		.word	1054359375
 8392 0118 E42FDD3E 		.word	1054683108
 8393 011c 7D23E23E 		.word	1055007613
 8394 0120 9319E73E 		.word	1055332755
 8395 0124 E411EC3E 		.word	1055658468
 8396 0128 E90BF13E 		.word	1055984617
ARM GAS  /tmp/ccYdlVIk.s 			page 150


 8397 012c 3E07F63E 		.word	1056311102
 8398 0130 5C03FB3E 		.word	1056637788
 8399 0134 0000003F 		.word	1056964608
 8400 0138 527E023F 		.word	1057128018
 8401 013c 61FC043F 		.word	1057291361
 8402 0140 0B7A073F 		.word	1057454603
 8403 0144 0EF7093F 		.word	1057617678
 8404 0148 36730C3F 		.word	1057780534
 8405 014c 42EE0E3F 		.word	1057943106
 8406 0150 0E68113F 		.word	1058105358
 8407 0154 59E0133F 		.word	1058267225
 8408 0158 DE56163F 		.word	1058428638
 8409 015c 7DCB183F 		.word	1058589565
 8410 0160 F33D1B3F 		.word	1058749939
 8411 0164 0CAE1D3F 		.word	1058909708
 8412 0168 861B203F 		.word	1059068806
 8413 016c 4086223F 		.word	1059227200
 8414 0170 F6ED243F 		.word	1059384822
 8415 0174 6552273F 		.word	1059541605
 8416 0178 6CB3293F 		.word	1059697516
 8417 017c C7102C3F 		.word	1059852487
 8418 0180 446A2E3F 		.word	1060006468
 8419 0184 A1BF303F 		.word	1060159393
 8420 0188 BA10333F 		.word	1060311226
 8421 018c 4F5D353F 		.word	1060461903
 8422 0190 1AA5373F 		.word	1060611354
 8423 0194 FBE7393F 		.word	1060759547
 8424 0198 AF253C3F 		.word	1060906415
 8425 019c 035E3E3F 		.word	1061051907
 8426 01a0 B490403F 		.word	1061195956
 8427 01a4 A1BD423F 		.word	1061338529
 8428 01a8 86E4443F 		.word	1061479558
 8429 01ac 2105473F 		.word	1061618977
 8430 01b0 4F1F493F 		.word	1061756751
 8431 01b4 CF324B3F 		.word	1061892815
 8432 01b8 6C3F4D3F 		.word	1062027116
 8433 01bc F6444F3F 		.word	1062159606
 8434 01c0 2843513F 		.word	1062290216
 8435 01c4 C139533F 		.word	1062418881
 8436 01c8 AE28553F 		.word	1062545582
 8437 01cc 9D0F573F 		.word	1062670237
 8438 01d0 5BEE583F 		.word	1062792795
 8439 01d4 B5C45A3F 		.word	1062913205
 8440 01d8 68925C3F 		.word	1063031400
 8441 01dc 54575E3F 		.word	1063147348
 8442 01e0 3413603F 		.word	1063260980
 8443 01e4 C5C5613F 		.word	1063372229
 8444 01e8 E76E633F 		.word	1063481063
 8445 01ec 560E653F 		.word	1063587414
 8446 01f0 DFA3663F 		.word	1063691231
 8447 01f4 512F683F 		.word	1063792465
 8448 01f8 57B0693F 		.word	1063891031
 8449 01fc E1266B3F 		.word	1063986913
 8450 0200 AB926C3F 		.word	1064080043
 8451 0204 73F36D3F 		.word	1064170355
 8452 0208 06496F3F 		.word	1064257798
 8453 020c 3293703F 		.word	1064342322
ARM GAS  /tmp/ccYdlVIk.s 			page 151


 8454 0210 B3D1713F 		.word	1064423859
 8455 0214 6804733F 		.word	1064502376
 8456 0218 0F2B743F 		.word	1064577807
 8457 021c 7445753F 		.word	1064650100
 8458 0220 5453763F 		.word	1064719188
 8459 0224 7E54773F 		.word	1064785022
 8460 0228 BF48783F 		.word	1064847551
 8461 022c D32F793F 		.word	1064906707
 8462 0230 9A097A3F 		.word	1064962458
 8463 0234 D0D57A3F 		.word	1065014736
 8464 0238 42947B3F 		.word	1065063490
 8465 023c AF447C3F 		.word	1065108655
 8466 0240 E2E67C3F 		.word	1065150178
 8467 0244 AB7A7D3F 		.word	1065188011
 8468 0248 D6FF7D3F 		.word	1065222102
 8469 024c 10767E3F 		.word	1065252368
 8470 0250 48DD7E3F 		.word	1065278792
 8471 0254 3B357F3F 		.word	1065301307
 8472 0258 A67D7F3F 		.word	1065319846
 8473 025c 56B67F3F 		.word	1065334358
 8474 0260 1ADF7F3F 		.word	1065344794
 8475 0264 BEF77F3F 		.word	1065351102
 8476 0268 0000803F 		.word	1065353216
 8477 026c AAF47F3F 		.word	1065350314
 8478 0270 95D27F3F 		.word	1065341589
 8479 0274 E5997F3F 		.word	1065327077
 8480 0278 774A7F3F 		.word	1065306743
 8481 027c 5CE47E3F 		.word	1065280604
 8482 0280 84677E3F 		.word	1065248644
 8483 0284 0FD47D3F 		.word	1065210895
 8484 0288 DC297D3F 		.word	1065167324
 8485 028c EC687C3F 		.word	1065117932
 8486 0290 60917B3F 		.word	1065062752
 8487 0294 16A37A3F 		.word	1065001750
 8488 0298 1F9E793F 		.word	1064934943
 8489 029c 7B82783F 		.word	1064862331
 8490 02a0 1A50773F 		.word	1064783898
 8491 02a4 1C07763F 		.word	1064699676
 8492 02a8 61A7743F 		.word	1064609633
 8493 02ac E830733F 		.word	1064513768
 8494 02b0 D3A3713F 		.word	1064412115
 8495 02b4 0000703F 		.word	1064304640
 8496 02b8 80456E3F 		.word	1064191360
 8497 02bc 54746C3F 		.word	1064072276
 8498 02c0 698C6A3F 		.word	1063947369
 8499 02c4 D28D683F 		.word	1063816658
 8500 02c8 8E78663F 		.word	1063680142
 8501 02cc 9D4C643F 		.word	1063537821
 8502 02d0 EE09623F 		.word	1063389678
 8503 02d4 92B05F3F 		.word	1063235730
 8504 02d8 89405D3F 		.word	1063075977
 8505 02dc C3B95A3F 		.word	1062910403
 8506 02e0 611C583F 		.word	1062739041
 8507 02e4 4068553F 		.word	1062561856
 8508 02e8 739D523F 		.word	1062378867
 8509 02ec E8BB4F3F 		.word	1062190056
 8510 02f0 B1C34C3F 		.word	1061995441
ARM GAS  /tmp/ccYdlVIk.s 			page 152


 8511 02f4 DDB4493F 		.word	1061795037
 8512 02f8 3B8F463F 		.word	1061588795
 8513 02fc FC52433F 		.word	1061376764
 8514 0300 0000403F 		.word	1061158912
 8515 0304 57963C3F 		.word	1060935255
 8516 0308 0116393F 		.word	1060705793
 8517 030c ED7E353F 		.word	1060470509
 8518 0310 2DD1313F 		.word	1060229421
 8519 0314 BF0C2E3F 		.word	1059982527
 8520 0318 A5312A3F 		.word	1059729829
 8521 031c CD3F263F 		.word	1059471309
 8522 0320 5837223F 		.word	1059207000
 8523 0324 16181E3F 		.word	1058936854
 8524 0328 37E2193F 		.word	1058660919
 8525 032c 9A95153F 		.word	1058379162
 8526 0330 5132113F 		.word	1058091601
 8527 0334 5AB80C3F 		.word	1057798234
 8528 0338 B727083F 		.word	1057499063
 8529 033c 5680033F 		.word	1057194070
 8530 0340 9084FD3E 		.word	1056801936
 8531 0344 1ADBF33E 		.word	1056168730
 8532 0348 4B04EA3E 		.word	1055523915
 8533 034c 0000E03E 		.word	1054867456
 8534 0350 5BCED53E 		.word	1054199387
 8535 0354 5D6FCB3E 		.word	1053519709
 8536 0358 E3E2C03E 		.word	1052828387
 8537 035c 3029B63E 		.word	1052125488
 8538 0360 0342AB3E 		.word	1051410947
 8539 0364 5A2DA03E 		.word	1050684762
 8540 0368 79EB943E 		.word	1049947001
 8541 036c 1C7C893E 		.word	1049197596
 8542 0370 CBBE7B3E 		.word	1048297163
 8543 0374 AA2A643E 		.word	1046751914
 8544 0378 923B4C3E 		.word	1045183378
 8545 037c C7F1333E 		.word	1043591623
 8546 0380 494D1B3E 		.word	1041976649
 8547 0384 164E023E 		.word	1040338454
 8548 0388 DAE7D13D 		.word	1037166554
 8549 038c 207E9E3D 		.word	1033797152
 8550 0390 FDBD543D 		.word	1028963837
 8551 0394 D829D63C 		.word	1020668376
 8552 0398 00000000 		.word	0
 8553 039c 00000000 		.word	0
 8554 03a0 00000000 		.word	0
 8555 03a4 00000000 		.word	0
 8556 03a8 00000000 		.word	0
 8557 03ac 00000000 		.word	0
 8558 03b0 00000000 		.word	0
 8559 03b4 00000000 		.word	0
 8560 03b8 00000000 		.word	0
 8561 03bc 00000000 		.word	0
 8562 03c0 00000000 		.word	0
 8563 03c4 00000000 		.word	0
 8564 03c8 00000000 		.word	0
 8565 03cc 00000000 		.word	0
 8566 03d0 00000000 		.word	0
 8567 03d4 00000000 		.word	0
ARM GAS  /tmp/ccYdlVIk.s 			page 153


 8568 03d8 00000000 		.word	0
 8569 03dc 00000000 		.word	0
 8570 03e0 00000000 		.word	0
 8571 03e4 00000000 		.word	0
 8572 03e8 00000000 		.word	0
 8573 03ec 00000000 		.word	0
 8574 03f0 00000000 		.word	0
 8575 03f4 00000000 		.word	0
 8576 03f8 00000000 		.word	0
 8577 03fc 00000000 		.word	0
 8578 0400 00000000 		.word	0
 8579 0404 00000000 		.word	0
 8580 0408 00000000 		.word	0
 8581 040c 00000000 		.word	0
 8582 0410 00000000 		.word	0
 8583 0414 00000000 		.word	0
 8584 0418 00000000 		.word	0
 8585 041c 00000000 		.word	0
 8586 0420 00000000 		.word	0
 8587 0424 00000000 		.word	0
 8588 0428 00000000 		.word	0
 8589 042c 00000000 		.word	0
 8590 0430 00000000 		.word	0
 8591 0434 00000000 		.word	0
 8592 0438 00000000 		.word	0
 8593 043c 00000000 		.word	0
 8594 0440 00000000 		.word	0
 8595 0444 00000000 		.word	0
 8596 0448 00000000 		.word	0
 8597 044c 00000000 		.word	0
 8598 0450 00000000 		.word	0
 8599 0454 00000000 		.word	0
 8600 0458 00000000 		.word	0
 8601 045c 00000000 		.word	0
 8602 0460 00000000 		.word	0
 8603 0464 00000000 		.word	0
 8604 0468 00000000 		.word	0
 8605 046c 00000000 		.word	0
 8606 0470 00000000 		.word	0
 8607 0474 00000000 		.word	0
 8608 0478 00000000 		.word	0
 8609 047c 00000000 		.word	0
 8610 0480 00000000 		.word	0
 8611 0484 00000000 		.word	0
 8612 0488 00000000 		.word	0
 8613 048c 00000000 		.word	0
 8614 0490 00000000 		.word	0
 8615 0494 00000000 		.word	0
 8616 0498 00000000 		.word	0
 8617 049c 00000000 		.word	0
 8618 04a0 00000000 		.word	0
 8619 04a4 00000000 		.word	0
 8620 04a8 00000000 		.word	0
 8621 04ac 00000000 		.word	0
 8622 04b0 00000000 		.word	0
 8623 04b4 00000000 		.word	0
 8624 04b8 00000000 		.word	0
ARM GAS  /tmp/ccYdlVIk.s 			page 154


 8625 04bc 00000000 		.word	0
 8626 04c0 00000000 		.word	0
 8627 04c4 00000000 		.word	0
 8628 04c8 00000000 		.word	0
 8629 04cc 00000000 		.word	0
 8630 04d0 00000000 		.word	0
 8631 04d4 00000000 		.word	0
 8632 04d8 00000000 		.word	0
 8633 04dc 00000000 		.word	0
 8634 04e0 00000000 		.word	0
 8635 04e4 00000000 		.word	0
 8636 04e8 00000000 		.word	0
 8637 04ec 00000000 		.word	0
 8638 04f0 00000000 		.word	0
 8639 04f4 00000000 		.word	0
 8640 04f8 00000000 		.word	0
 8641 04fc 00000000 		.word	0
 8642 0500 00000000 		.word	0
 8643 0504 00000000 		.word	0
 8644 0508 00000000 		.word	0
 8645 050c 00000000 		.word	0
 8646 0510 00000000 		.word	0
 8647 0514 00000000 		.word	0
 8648 0518 00000000 		.word	0
 8649 051c 00000000 		.word	0
 8650 0520 00000000 		.word	0
 8651 0524 00000000 		.word	0
 8652 0528 00000000 		.word	0
 8653 052c 00000000 		.word	0
 8654 0530 00000000 		.word	0
 8655 0534 00000000 		.word	0
 8656 0538 00000000 		.word	0
 8657 053c 00000000 		.word	0
 8658 0540 00000000 		.word	0
 8659 0544 00000000 		.word	0
 8660 0548 00000000 		.word	0
 8661 054c 00000000 		.word	0
 8662 0550 00000000 		.word	0
 8663 0554 00000000 		.word	0
 8664 0558 00000000 		.word	0
 8665 055c 00000000 		.word	0
 8666 0560 00000000 		.word	0
 8667 0564 00000000 		.word	0
 8668 0568 00000000 		.word	0
 8669 056c 00000000 		.word	0
 8670 0570 00000000 		.word	0
 8671 0574 00000000 		.word	0
 8672 0578 00000000 		.word	0
 8673 057c 00000000 		.word	0
 8674 0580 00000000 		.word	0
 8675 0584 00000000 		.word	0
 8676 0588 00000000 		.word	0
 8677 058c 00000000 		.word	0
 8678 0590 00000000 		.word	0
 8679 0594 00000000 		.word	0
 8680 0598 00000000 		.word	0
 8681 059c 00000000 		.word	0
ARM GAS  /tmp/ccYdlVIk.s 			page 155


 8682 05a0 00000000 		.word	0
 8683 05a4 00000000 		.word	0
 8684 05a8 00000000 		.word	0
 8685 05ac 00000000 		.word	0
 8686 05b0 00000000 		.word	0
 8687 05b4 00000000 		.word	0
 8688 05b8 00000000 		.word	0
 8689 05bc 00000000 		.word	0
 8690 05c0 00000000 		.word	0
 8691 05c4 00000000 		.word	0
 8692 05c8 00000000 		.word	0
 8693 05cc 00000000 		.word	0
 8694 05d0 00000000 		.word	0
 8695 05d4 00000000 		.word	0
 8696 05d8 00000000 		.word	0
 8697 05dc 00000000 		.word	0
 8698 05e0 00000000 		.word	0
 8699 05e4 00000000 		.word	0
 8700 05e8 00000000 		.word	0
 8701 05ec 00000000 		.word	0
 8702 05f0 00000000 		.word	0
 8703 05f4 00000000 		.word	0
 8704 05f8 00000000 		.word	0
 8705 05fc 00000000 		.word	0
 8706 0600 00000000 		.word	0
 8707 0604 00000000 		.word	0
 8708 0608 00000000 		.word	0
 8709 060c 00000000 		.word	0
 8710 0610 00000000 		.word	0
 8711 0614 00000000 		.word	0
 8712 0618 00000000 		.word	0
 8713 061c 00000000 		.word	0
 8714 0620 00000000 		.word	0
 8715 0624 00000000 		.word	0
 8716 0628 00000000 		.word	0
 8717 062c 00000000 		.word	0
 8718 0630 00000000 		.word	0
 8719 0634 00000000 		.word	0
 8720 0638 00000000 		.word	0
 8721 063c 00000000 		.word	0
 8722 0640 00000000 		.word	0
 8723 0644 00000000 		.word	0
 8724 0648 00000000 		.word	0
 8725 064c 00000000 		.word	0
 8726 0650 00000000 		.word	0
 8727 0654 00000000 		.word	0
 8728 0658 00000000 		.word	0
 8729 065c 00000000 		.word	0
 8730 0660 00000000 		.word	0
 8731 0664 00000000 		.word	0
 8732 0668 00000000 		.word	0
 8733 066c 00000000 		.word	0
 8734 0670 00000000 		.word	0
 8735 0674 00000000 		.word	0
 8736 0678 00000000 		.word	0
 8737 067c 00000000 		.word	0
 8738 0680 00000000 		.word	0
ARM GAS  /tmp/ccYdlVIk.s 			page 156


 8739 0684 00000000 		.word	0
 8740 0688 00000000 		.word	0
 8741 068c 00000000 		.word	0
 8742 0690 00000000 		.word	0
 8743 0694 00000000 		.word	0
 8744 0698 00000000 		.word	0
 8745 069c 00000000 		.word	0
 8746 06a0 00000000 		.word	0
 8747 06a4 00000000 		.word	0
 8748 06a8 00000000 		.word	0
 8749 06ac 00000000 		.word	0
 8750 06b0 00000000 		.word	0
 8751 06b4 00000000 		.word	0
 8752 06b8 00000000 		.word	0
 8753 06bc 00000000 		.word	0
 8754 06c0 00000000 		.word	0
 8755 06c4 00000000 		.word	0
 8756 06c8 00000000 		.word	0
 8757 06cc 00000000 		.word	0
 8758 06d0 00000000 		.word	0
 8759 06d4 00000000 		.word	0
 8760 06d8 00000000 		.word	0
 8761 06dc 00000000 		.word	0
 8762 06e0 00000000 		.word	0
 8763 06e4 00000000 		.word	0
 8764 06e8 00000000 		.word	0
 8765 06ec 00000000 		.word	0
 8766 06f0 00000000 		.word	0
 8767 06f4 00000000 		.word	0
 8768 06f8 00000000 		.word	0
 8769 06fc 00000000 		.word	0
 8770 0700 00000000 		.word	0
 8771 0704 00000000 		.word	0
 8772 0708 00000000 		.word	0
 8773 070c 00000000 		.word	0
 8774 0710 00000000 		.word	0
 8775 0714 00000000 		.word	0
 8776 0718 00000000 		.word	0
 8777 071c 00000000 		.word	0
 8778 0720 00000000 		.word	0
 8779 0724 00000000 		.word	0
 8780 0728 00000000 		.word	0
 8781 072c 00000000 		.word	0
 8782 0730 00000000 		.word	0
 8783 0734 00000000 		.word	0
 8784 0738 00000000 		.word	0
 8785 073c 00000000 		.word	0
 8786 0740 00000000 		.word	0
 8787 0744 00000000 		.word	0
 8788 0748 00000000 		.word	0
 8789 074c 00000000 		.word	0
 8790 0750 00000000 		.word	0
 8791 0754 00000000 		.word	0
 8792 0758 00000000 		.word	0
 8793 075c 00000000 		.word	0
 8794 0760 00000000 		.word	0
 8795 0764 00000000 		.word	0
ARM GAS  /tmp/ccYdlVIk.s 			page 157


 8796 0768 00000000 		.word	0
 8797 076c 00000000 		.word	0
 8798 0770 00000000 		.word	0
 8799 0774 00000000 		.word	0
 8800 0778 00000000 		.word	0
 8801 077c 00000000 		.word	0
 8802 0780 00000000 		.word	0
 8803 0784 00000000 		.word	0
 8804 0788 00000000 		.word	0
 8805 078c 00000000 		.word	0
 8806 0790 00000000 		.word	0
 8807 0794 00000000 		.word	0
 8808 0798 00000000 		.word	0
 8809 079c 00000000 		.word	0
 8810 07a0 00000000 		.word	0
 8811 07a4 00000000 		.word	0
 8812 07a8 00000000 		.word	0
 8813 07ac 00000000 		.word	0
 8814 07b0 00000000 		.word	0
 8815 07b4 00000000 		.word	0
 8816 07b8 00000000 		.word	0
 8817 07bc 00000000 		.word	0
 8818 07c0 00000000 		.word	0
 8819 07c4 00000000 		.word	0
 8820 07c8 00000000 		.word	0
 8821 07cc 00000000 		.word	0
 8822 07d0 00000000 		.word	0
 8823 07d4 00000000 		.word	0
 8824 07d8 00000000 		.word	0
 8825 07dc 00000000 		.word	0
 8826 07e0 00000000 		.word	0
 8827 07e4 00000000 		.word	0
 8828 07e8 00000000 		.word	0
 8829 07ec 00000000 		.word	0
 8830 07f0 00000000 		.word	0
 8831 07f4 00000000 		.word	0
 8832 07f8 00000000 		.word	0
 8833 07fc 00000000 		.word	0
 8834              		.section	.rodata.pulsetable006,"a"
 8835              		.align	2
 8836              		.type	pulsetable006, %object
 8837              		.size	pulsetable006, 2048
 8838              	pulsetable006:
 8839 0000 00000000 		.word	0
 8840 0004 45F29539 		.word	966128197
 8841 0008 F228953A 		.word	982853874
 8842 000c 3DB9263B 		.word	992393533
 8843 0010 043A933B 		.word	999504388
 8844 0014 C37DE43B 		.word	1004830147
 8845 0018 FD69233C 		.word	1008953853
 8846 001c CDE75C3C 		.word	1012721613
 8847 0020 30478F3C 		.word	1016022832
 8848 0024 9813B43C 		.word	1018434456
 8849 0028 3FC6DC3C 		.word	1021101631
 8850 002c FDA2043D 		.word	1023714045
 8851 0030 CFBC1C3D 		.word	1025293519
 8852 0034 0DA5363D 		.word	1026991373
ARM GAS  /tmp/ccYdlVIk.s 			page 158


 8853 0038 224F523D 		.word	1028804386
 8854 003c 92B06F3D 		.word	1030729874
 8855 0040 635E873D 		.word	1032281699
 8856 0044 1CB4973D 		.word	1033352220
 8857 0048 28D3A83D 		.word	1034474280
 8858 004c 4AB6BA3D 		.word	1035646538
 8859 0050 B056CD3D 		.word	1036867248
 8860 0054 1DAFE03D 		.word	1038135069
 8861 0058 45B9F43D 		.word	1039448389
 8862 005c B3B7043E 		.word	1040496563
 8863 0060 DC650F3E 		.word	1041196508
 8864 0064 FA631A3E 		.word	1041916922
 8865 0068 29AF253E 		.word	1042657065
 8866 006c 4644313E 		.word	1043416134
 8867 0070 B0203D3E 		.word	1044193456
 8868 0074 4241493E 		.word	1044988226
 8869 0078 1AA3553E 		.word	1045799706
 8870 007c 5743623E 		.word	1046627159
 8871 0080 8E1E6F3E 		.word	1047469710
 8872 0084 23327C3E 		.word	1048326691
 8873 0088 98BD843E 		.word	1048886680
 8874 008c 4A7B8B3E 		.word	1049328458
 8875 0090 B550923E 		.word	1049776309
 8876 0094 683C993E 		.word	1050229864
 8877 0098 D13CA03E 		.word	1050688721
 8878 009c 7F50A73E 		.word	1051152511
 8879 00a0 FF75AE3E 		.word	1051620863
 8880 00a4 C1ABB53E 		.word	1052093377
 8881 00a8 52F0BC3E 		.word	1052569682
 8882 00ac 4242C43E 		.word	1053049410
 8883 00b0 FD9FCB3E 		.word	1053532157
 8884 00b4 3508D33E 		.word	1054017589
 8885 00b8 3579DA3E 		.word	1054505269
 8886 00bc AEF1E13E 		.word	1054994862
 8887 00c0 0D70E93E 		.word	1055485965
 8888 00c4 E0F2F03E 		.word	1055978208
 8889 00c8 B878F83E 		.word	1056471224
 8890 00cc 0000003F 		.word	1056964608
 8891 00d0 A4C3033F 		.word	1057211300
 8892 00d4 9086073F 		.word	1057457808
 8893 00d8 FA470B3F 		.word	1057703930
 8894 00dc 29070F3F 		.word	1057949481
 8895 00e0 65C3123F 		.word	1058194277
 8896 00e4 E57B163F 		.word	1058438117
 8897 00e8 01301A3F 		.word	1058680833
 8898 00ec DFDE1D3F 		.word	1058922207
 8899 00f0 D787213F 		.word	1059162071
 8900 00f4 202A253F 		.word	1059400224
 8901 00f8 00C5283F 		.word	1059636480
 8902 00fc C1572C3F 		.word	1059870657
 8903 0100 97E12F3F 		.word	1060102551
 8904 0104 CC61333F 		.word	1060331980
 8905 0108 A5D7363F 		.word	1060558757
 8906 010c 5B423A3F 		.word	1060782683
 8907 0110 34A13D3F 		.word	1061003572
 8908 0114 77F3403F 		.word	1061221239
 8909 0118 5C38443F 		.word	1061435484
ARM GAS  /tmp/ccYdlVIk.s 			page 159


 8910 011c 2A6F473F 		.word	1061646122
 8911 0120 39974A3F 		.word	1061852985
 8912 0124 B0AF4D3F 		.word	1062055856
 8913 0128 D4B7503F 		.word	1062254548
 8914 012c EFAE533F 		.word	1062448879
 8915 0130 4694563F 		.word	1062638662
 8916 0134 0267593F 		.word	1062823682
 8917 0138 89265C3F 		.word	1063003785
 8918 013c 13D25E3F 		.word	1063178771
 8919 0140 D768613F 		.word	1063348439
 8920 0144 1CEA633F 		.word	1063512604
 8921 0148 2A55663F 		.word	1063671082
 8922 014c 37A9683F 		.word	1063823671
 8923 0150 9BE56A3F 		.word	1063970203
 8924 0154 7D096D3F 		.word	1064110461
 8925 0158 34146F3F 		.word	1064244276
 8926 015c F704713F 		.word	1064371447
 8927 0160 0EDB723F 		.word	1064491790
 8928 0164 AF95743F 		.word	1064605103
 8929 0168 3334763F 		.word	1064711219
 8930 016c D0B5773F 		.word	1064809936
 8931 0170 CE19793F 		.word	1064901070
 8932 0174 635F7A3F 		.word	1064984419
 8933 0178 D7857B3F 		.word	1065059799
 8934 017c 618C7C3F 		.word	1065127009
 8935 0180 69727D3F 		.word	1065185897
 8936 0184 04377E3F 		.word	1065236228
 8937 0188 8CD97E3F 		.word	1065277836
 8938 018c 47597F3F 		.word	1065310535
 8939 0190 6CB57F3F 		.word	1065334124
 8940 0194 42ED7F3F 		.word	1065348418
 8941 0198 0000803F 		.word	1065353216
 8942 019c EDF47F3F 		.word	1065350381
 8943 01a0 C3D37F3F 		.word	1065341891
 8944 01a4 849C7F3F 		.word	1065327748
 8945 01a8 1E4F7F3F 		.word	1065307934
 8946 01ac A2EB7E3F 		.word	1065282466
 8947 01b0 11727E3F 		.word	1065251345
 8948 01b4 69E27D3F 		.word	1065214569
 8949 01b8 9B3C7D3F 		.word	1065172123
 8950 01bc A6807C3F 		.word	1065124006
 8951 01c0 ABAE7B3F 		.word	1065070251
 8952 01c4 8BC67A3F 		.word	1065010827
 8953 01c8 54C8793F 		.word	1064945748
 8954 01cc F6B3783F 		.word	1064874998
 8955 01d0 8389773F 		.word	1064798595
 8956 01d4 F948763F 		.word	1064716537
 8957 01d8 49F2743F 		.word	1064628809
 8958 01dc 9485733F 		.word	1064535444
 8959 01e0 A702723F 		.word	1064436391
 8960 01e4 B669703F 		.word	1064331702
 8961 01e8 9DBA6E3F 		.word	1064221341
 8962 01ec 6FF56C3F 		.word	1064105327
 8963 01f0 1A1A6B3F 		.word	1063983642
 8964 01f4 BF28693F 		.word	1063856319
 8965 01f8 2D21673F 		.word	1063723309
 8966 01fc 9703653F 		.word	1063584663
ARM GAS  /tmp/ccYdlVIk.s 			page 160


 8967 0200 D9CF623F 		.word	1063440345
 8968 0204 0586603F 		.word	1063290373
 8969 0208 1C265E3F 		.word	1063134748
 8970 020c 0CB05B3F 		.word	1062973452
 8971 0210 E623593F 		.word	1062806502
 8972 0214 9981563F 		.word	1062633881
 8973 0218 47C9533F 		.word	1062455623
 8974 021c BEFA503F 		.word	1062271678
 8975 0220 2F164E3F 		.word	1062082095
 8976 0224 7A1B4B3F 		.word	1061886842
 8977 0228 AF0A483F 		.word	1061685935
 8978 022c CEE3443F 		.word	1061479374
 8979 0230 C6A6413F 		.word	1061267142
 8980 0234 A8533E3F 		.word	1061049256
 8981 0238 74EA3A3F 		.word	1060825716
 8982 023c 1A6B373F 		.word	1060596506
 8983 0240 AAD5333F 		.word	1060361642
 8984 0244 242A303F 		.word	1060121124
 8985 0248 77682C3F 		.word	1059874935
 8986 024c B490283F 		.word	1059623092
 8987 0250 DBA2243F 		.word	1059365595
 8988 0254 ED9E203F 		.word	1059102445
 8989 0258 D7841C3F 		.word	1058833623
 8990 025c 9B54183F 		.word	1058559131
 8991 0260 5A0E143F 		.word	1058279002
 8992 0264 F2B10F3F 		.word	1057993202
 8993 0268 753F0B3F 		.word	1057701749
 8994 026c D0B6063F 		.word	1057404624
 8995 0270 1618023F 		.word	1057101846
 8996 0274 8BC6FA3E 		.word	1056622219
 8997 0278 9C30F13E 		.word	1055994012
 8998 027c 836EE73E 		.word	1055354499
 8999 0280 3D80DD3E 		.word	1054703677
 9000 0284 CB65D33E 		.word	1054041547
 9001 0288 0C1FC93E 		.word	1053368076
 9002 028c 21ACBE3E 		.word	1052683297
 9003 0290 E90CB43E 		.word	1051987177
 9004 0294 A741A93E 		.word	1051279783
 9005 0298 F5499E3E 		.word	1050561013
 9006 029c 3926933E 		.word	1049830969
 9007 02a0 30D6873E 		.word	1049089584
 9008 02a4 F6B3783E 		.word	1048097782
 9009 02a8 3563613E 		.word	1046569781
 9010 02ac D8B9493E 		.word	1045019096
 9011 02b0 24B8313E 		.word	1043445796
 9012 02b4 D55D193E 		.word	1041849813
 9013 02b8 71AB003E 		.word	1040231281
 9014 02bc E640CF3D 		.word	1036992742
 9015 02c0 B3799C3D 		.word	1033664947
 9016 02c4 A303523D 		.word	1028785059
 9017 02c8 0265D33C 		.word	1020486914
 9018 02cc 00000000 		.word	0
 9019 02d0 00000000 		.word	0
 9020 02d4 00000000 		.word	0
 9021 02d8 00000000 		.word	0
 9022 02dc 00000000 		.word	0
 9023 02e0 00000000 		.word	0
ARM GAS  /tmp/ccYdlVIk.s 			page 161


 9024 02e4 00000000 		.word	0
 9025 02e8 00000000 		.word	0
 9026 02ec 00000000 		.word	0
 9027 02f0 00000000 		.word	0
 9028 02f4 00000000 		.word	0
 9029 02f8 00000000 		.word	0
 9030 02fc 00000000 		.word	0
 9031 0300 00000000 		.word	0
 9032 0304 00000000 		.word	0
 9033 0308 00000000 		.word	0
 9034 030c 00000000 		.word	0
 9035 0310 00000000 		.word	0
 9036 0314 00000000 		.word	0
 9037 0318 00000000 		.word	0
 9038 031c 00000000 		.word	0
 9039 0320 00000000 		.word	0
 9040 0324 00000000 		.word	0
 9041 0328 00000000 		.word	0
 9042 032c 00000000 		.word	0
 9043 0330 00000000 		.word	0
 9044 0334 00000000 		.word	0
 9045 0338 00000000 		.word	0
 9046 033c 00000000 		.word	0
 9047 0340 00000000 		.word	0
 9048 0344 00000000 		.word	0
 9049 0348 00000000 		.word	0
 9050 034c 00000000 		.word	0
 9051 0350 00000000 		.word	0
 9052 0354 00000000 		.word	0
 9053 0358 00000000 		.word	0
 9054 035c 00000000 		.word	0
 9055 0360 00000000 		.word	0
 9056 0364 00000000 		.word	0
 9057 0368 00000000 		.word	0
 9058 036c 00000000 		.word	0
 9059 0370 00000000 		.word	0
 9060 0374 00000000 		.word	0
 9061 0378 00000000 		.word	0
 9062 037c 00000000 		.word	0
 9063 0380 00000000 		.word	0
 9064 0384 00000000 		.word	0
 9065 0388 00000000 		.word	0
 9066 038c 00000000 		.word	0
 9067 0390 00000000 		.word	0
 9068 0394 00000000 		.word	0
 9069 0398 00000000 		.word	0
 9070 039c 00000000 		.word	0
 9071 03a0 00000000 		.word	0
 9072 03a4 00000000 		.word	0
 9073 03a8 00000000 		.word	0
 9074 03ac 00000000 		.word	0
 9075 03b0 00000000 		.word	0
 9076 03b4 00000000 		.word	0
 9077 03b8 00000000 		.word	0
 9078 03bc 00000000 		.word	0
 9079 03c0 00000000 		.word	0
 9080 03c4 00000000 		.word	0
ARM GAS  /tmp/ccYdlVIk.s 			page 162


 9081 03c8 00000000 		.word	0
 9082 03cc 00000000 		.word	0
 9083 03d0 00000000 		.word	0
 9084 03d4 00000000 		.word	0
 9085 03d8 00000000 		.word	0
 9086 03dc 00000000 		.word	0
 9087 03e0 00000000 		.word	0
 9088 03e4 00000000 		.word	0
 9089 03e8 00000000 		.word	0
 9090 03ec 00000000 		.word	0
 9091 03f0 00000000 		.word	0
 9092 03f4 00000000 		.word	0
 9093 03f8 00000000 		.word	0
 9094 03fc 00000000 		.word	0
 9095 0400 00000000 		.word	0
 9096 0404 00000000 		.word	0
 9097 0408 00000000 		.word	0
 9098 040c 00000000 		.word	0
 9099 0410 00000000 		.word	0
 9100 0414 00000000 		.word	0
 9101 0418 00000000 		.word	0
 9102 041c 00000000 		.word	0
 9103 0420 00000000 		.word	0
 9104 0424 00000000 		.word	0
 9105 0428 00000000 		.word	0
 9106 042c 00000000 		.word	0
 9107 0430 00000000 		.word	0
 9108 0434 00000000 		.word	0
 9109 0438 00000000 		.word	0
 9110 043c 00000000 		.word	0
 9111 0440 00000000 		.word	0
 9112 0444 00000000 		.word	0
 9113 0448 00000000 		.word	0
 9114 044c 00000000 		.word	0
 9115 0450 00000000 		.word	0
 9116 0454 00000000 		.word	0
 9117 0458 00000000 		.word	0
 9118 045c 00000000 		.word	0
 9119 0460 00000000 		.word	0
 9120 0464 00000000 		.word	0
 9121 0468 00000000 		.word	0
 9122 046c 00000000 		.word	0
 9123 0470 00000000 		.word	0
 9124 0474 00000000 		.word	0
 9125 0478 00000000 		.word	0
 9126 047c 00000000 		.word	0
 9127 0480 00000000 		.word	0
 9128 0484 00000000 		.word	0
 9129 0488 00000000 		.word	0
 9130 048c 00000000 		.word	0
 9131 0490 00000000 		.word	0
 9132 0494 00000000 		.word	0
 9133 0498 00000000 		.word	0
 9134 049c 00000000 		.word	0
 9135 04a0 00000000 		.word	0
 9136 04a4 00000000 		.word	0
 9137 04a8 00000000 		.word	0
ARM GAS  /tmp/ccYdlVIk.s 			page 163


 9138 04ac 00000000 		.word	0
 9139 04b0 00000000 		.word	0
 9140 04b4 00000000 		.word	0
 9141 04b8 00000000 		.word	0
 9142 04bc 00000000 		.word	0
 9143 04c0 00000000 		.word	0
 9144 04c4 00000000 		.word	0
 9145 04c8 00000000 		.word	0
 9146 04cc 00000000 		.word	0
 9147 04d0 00000000 		.word	0
 9148 04d4 00000000 		.word	0
 9149 04d8 00000000 		.word	0
 9150 04dc 00000000 		.word	0
 9151 04e0 00000000 		.word	0
 9152 04e4 00000000 		.word	0
 9153 04e8 00000000 		.word	0
 9154 04ec 00000000 		.word	0
 9155 04f0 00000000 		.word	0
 9156 04f4 00000000 		.word	0
 9157 04f8 00000000 		.word	0
 9158 04fc 00000000 		.word	0
 9159 0500 00000000 		.word	0
 9160 0504 00000000 		.word	0
 9161 0508 00000000 		.word	0
 9162 050c 00000000 		.word	0
 9163 0510 00000000 		.word	0
 9164 0514 00000000 		.word	0
 9165 0518 00000000 		.word	0
 9166 051c 00000000 		.word	0
 9167 0520 00000000 		.word	0
 9168 0524 00000000 		.word	0
 9169 0528 00000000 		.word	0
 9170 052c 00000000 		.word	0
 9171 0530 00000000 		.word	0
 9172 0534 00000000 		.word	0
 9173 0538 00000000 		.word	0
 9174 053c 00000000 		.word	0
 9175 0540 00000000 		.word	0
 9176 0544 00000000 		.word	0
 9177 0548 00000000 		.word	0
 9178 054c 00000000 		.word	0
 9179 0550 00000000 		.word	0
 9180 0554 00000000 		.word	0
 9181 0558 00000000 		.word	0
 9182 055c 00000000 		.word	0
 9183 0560 00000000 		.word	0
 9184 0564 00000000 		.word	0
 9185 0568 00000000 		.word	0
 9186 056c 00000000 		.word	0
 9187 0570 00000000 		.word	0
 9188 0574 00000000 		.word	0
 9189 0578 00000000 		.word	0
 9190 057c 00000000 		.word	0
 9191 0580 00000000 		.word	0
 9192 0584 00000000 		.word	0
 9193 0588 00000000 		.word	0
 9194 058c 00000000 		.word	0
ARM GAS  /tmp/ccYdlVIk.s 			page 164


 9195 0590 00000000 		.word	0
 9196 0594 00000000 		.word	0
 9197 0598 00000000 		.word	0
 9198 059c 00000000 		.word	0
 9199 05a0 00000000 		.word	0
 9200 05a4 00000000 		.word	0
 9201 05a8 00000000 		.word	0
 9202 05ac 00000000 		.word	0
 9203 05b0 00000000 		.word	0
 9204 05b4 00000000 		.word	0
 9205 05b8 00000000 		.word	0
 9206 05bc 00000000 		.word	0
 9207 05c0 00000000 		.word	0
 9208 05c4 00000000 		.word	0
 9209 05c8 00000000 		.word	0
 9210 05cc 00000000 		.word	0
 9211 05d0 00000000 		.word	0
 9212 05d4 00000000 		.word	0
 9213 05d8 00000000 		.word	0
 9214 05dc 00000000 		.word	0
 9215 05e0 00000000 		.word	0
 9216 05e4 00000000 		.word	0
 9217 05e8 00000000 		.word	0
 9218 05ec 00000000 		.word	0
 9219 05f0 00000000 		.word	0
 9220 05f4 00000000 		.word	0
 9221 05f8 00000000 		.word	0
 9222 05fc 00000000 		.word	0
 9223 0600 00000000 		.word	0
 9224 0604 00000000 		.word	0
 9225 0608 00000000 		.word	0
 9226 060c 00000000 		.word	0
 9227 0610 00000000 		.word	0
 9228 0614 00000000 		.word	0
 9229 0618 00000000 		.word	0
 9230 061c 00000000 		.word	0
 9231 0620 00000000 		.word	0
 9232 0624 00000000 		.word	0
 9233 0628 00000000 		.word	0
 9234 062c 00000000 		.word	0
 9235 0630 00000000 		.word	0
 9236 0634 00000000 		.word	0
 9237 0638 00000000 		.word	0
 9238 063c 00000000 		.word	0
 9239 0640 00000000 		.word	0
 9240 0644 00000000 		.word	0
 9241 0648 00000000 		.word	0
 9242 064c 00000000 		.word	0
 9243 0650 00000000 		.word	0
 9244 0654 00000000 		.word	0
 9245 0658 00000000 		.word	0
 9246 065c 00000000 		.word	0
 9247 0660 00000000 		.word	0
 9248 0664 00000000 		.word	0
 9249 0668 00000000 		.word	0
 9250 066c 00000000 		.word	0
 9251 0670 00000000 		.word	0
ARM GAS  /tmp/ccYdlVIk.s 			page 165


 9252 0674 00000000 		.word	0
 9253 0678 00000000 		.word	0
 9254 067c 00000000 		.word	0
 9255 0680 00000000 		.word	0
 9256 0684 00000000 		.word	0
 9257 0688 00000000 		.word	0
 9258 068c 00000000 		.word	0
 9259 0690 00000000 		.word	0
 9260 0694 00000000 		.word	0
 9261 0698 00000000 		.word	0
 9262 069c 00000000 		.word	0
 9263 06a0 00000000 		.word	0
 9264 06a4 00000000 		.word	0
 9265 06a8 00000000 		.word	0
 9266 06ac 00000000 		.word	0
 9267 06b0 00000000 		.word	0
 9268 06b4 00000000 		.word	0
 9269 06b8 00000000 		.word	0
 9270 06bc 00000000 		.word	0
 9271 06c0 00000000 		.word	0
 9272 06c4 00000000 		.word	0
 9273 06c8 00000000 		.word	0
 9274 06cc 00000000 		.word	0
 9275 06d0 00000000 		.word	0
 9276 06d4 00000000 		.word	0
 9277 06d8 00000000 		.word	0
 9278 06dc 00000000 		.word	0
 9279 06e0 00000000 		.word	0
 9280 06e4 00000000 		.word	0
 9281 06e8 00000000 		.word	0
 9282 06ec 00000000 		.word	0
 9283 06f0 00000000 		.word	0
 9284 06f4 00000000 		.word	0
 9285 06f8 00000000 		.word	0
 9286 06fc 00000000 		.word	0
 9287 0700 00000000 		.word	0
 9288 0704 00000000 		.word	0
 9289 0708 00000000 		.word	0
 9290 070c 00000000 		.word	0
 9291 0710 00000000 		.word	0
 9292 0714 00000000 		.word	0
 9293 0718 00000000 		.word	0
 9294 071c 00000000 		.word	0
 9295 0720 00000000 		.word	0
 9296 0724 00000000 		.word	0
 9297 0728 00000000 		.word	0
 9298 072c 00000000 		.word	0
 9299 0730 00000000 		.word	0
 9300 0734 00000000 		.word	0
 9301 0738 00000000 		.word	0
 9302 073c 00000000 		.word	0
 9303 0740 00000000 		.word	0
 9304 0744 00000000 		.word	0
 9305 0748 00000000 		.word	0
 9306 074c 00000000 		.word	0
 9307 0750 00000000 		.word	0
 9308 0754 00000000 		.word	0
ARM GAS  /tmp/ccYdlVIk.s 			page 166


 9309 0758 00000000 		.word	0
 9310 075c 00000000 		.word	0
 9311 0760 00000000 		.word	0
 9312 0764 00000000 		.word	0
 9313 0768 00000000 		.word	0
 9314 076c 00000000 		.word	0
 9315 0770 00000000 		.word	0
 9316 0774 00000000 		.word	0
 9317 0778 00000000 		.word	0
 9318 077c 00000000 		.word	0
 9319 0780 00000000 		.word	0
 9320 0784 00000000 		.word	0
 9321 0788 00000000 		.word	0
 9322 078c 00000000 		.word	0
 9323 0790 00000000 		.word	0
 9324 0794 00000000 		.word	0
 9325 0798 00000000 		.word	0
 9326 079c 00000000 		.word	0
 9327 07a0 00000000 		.word	0
 9328 07a4 00000000 		.word	0
 9329 07a8 00000000 		.word	0
 9330 07ac 00000000 		.word	0
 9331 07b0 00000000 		.word	0
 9332 07b4 00000000 		.word	0
 9333 07b8 00000000 		.word	0
 9334 07bc 00000000 		.word	0
 9335 07c0 00000000 		.word	0
 9336 07c4 00000000 		.word	0
 9337 07c8 00000000 		.word	0
 9338 07cc 00000000 		.word	0
 9339 07d0 00000000 		.word	0
 9340 07d4 00000000 		.word	0
 9341 07d8 00000000 		.word	0
 9342 07dc 00000000 		.word	0
 9343 07e0 00000000 		.word	0
 9344 07e4 00000000 		.word	0
 9345 07e8 00000000 		.word	0
 9346 07ec 00000000 		.word	0
 9347 07f0 00000000 		.word	0
 9348 07f4 00000000 		.word	0
 9349 07f8 00000000 		.word	0
 9350 07fc 00000000 		.word	0
 9351              		.section	.rodata.pulsetable005,"a"
 9352              		.align	2
 9353              		.type	pulsetable005, %object
 9354              		.size	pulsetable005, 2048
 9355              	pulsetable005:
 9356 0000 00000000 		.word	0
 9357 0004 F228953A 		.word	982853874
 9358 0008 043A933B 		.word	999504388
 9359 000c FD69233C 		.word	1008953853
 9360 0010 30478F3C 		.word	1016022832
 9361 0014 3FC6DC3C 		.word	1021101631
 9362 0018 CFBC1C3D 		.word	1025293519
 9363 001c 224F523D 		.word	1028804386
 9364 0020 635E873D 		.word	1032281699
 9365 0024 28D3A83D 		.word	1034474280
ARM GAS  /tmp/ccYdlVIk.s 			page 167


 9366 0028 B056CD3D 		.word	1036867248
 9367 002c 45B9F43D 		.word	1039448389
 9368 0030 DC650F3E 		.word	1041196508
 9369 0034 29AF253E 		.word	1042657065
 9370 0038 B0203D3E 		.word	1044193456
 9371 003c 1AA3553E 		.word	1045799706
 9372 0040 8E1E6F3E 		.word	1047469710
 9373 0044 98BD843E 		.word	1048886680
 9374 0048 B550923E 		.word	1049776309
 9375 004c D13CA03E 		.word	1050688721
 9376 0050 FF75AE3E 		.word	1051620863
 9377 0054 52F0BC3E 		.word	1052569682
 9378 0058 FD9FCB3E 		.word	1053532157
 9379 005c 3579DA3E 		.word	1054505269
 9380 0060 0D70E93E 		.word	1055485965
 9381 0064 B878F83E 		.word	1056471224
 9382 0068 A4C3033F 		.word	1057211300
 9383 006c FA470B3F 		.word	1057703930
 9384 0070 65C3123F 		.word	1058194277
 9385 0074 01301A3F 		.word	1058680833
 9386 0078 D787213F 		.word	1059162071
 9387 007c 00C5283F 		.word	1059636480
 9388 0080 97E12F3F 		.word	1060102551
 9389 0084 A5D7363F 		.word	1060558757
 9390 0088 34A13D3F 		.word	1061003572
 9391 008c 5C38443F 		.word	1061435484
 9392 0090 39974A3F 		.word	1061852985
 9393 0094 D4B7503F 		.word	1062254548
 9394 0098 4694563F 		.word	1062638662
 9395 009c 89265C3F 		.word	1063003785
 9396 00a0 D768613F 		.word	1063348439
 9397 00a4 2A55663F 		.word	1063671082
 9398 00a8 9BE56A3F 		.word	1063970203
 9399 00ac 34146F3F 		.word	1064244276
 9400 00b0 0EDB723F 		.word	1064491790
 9401 00b4 3334763F 		.word	1064711219
 9402 00b8 CE19793F 		.word	1064901070
 9403 00bc D7857B3F 		.word	1065059799
 9404 00c0 69727D3F 		.word	1065185897
 9405 00c4 8CD97E3F 		.word	1065277836
 9406 00c8 6CB57F3F 		.word	1065334124
 9407 00cc 0000803F 		.word	1065353216
 9408 00d0 EDF47F3F 		.word	1065350381
 9409 00d4 C3D37F3F 		.word	1065341891
 9410 00d8 849C7F3F 		.word	1065327748
 9411 00dc 1E4F7F3F 		.word	1065307934
 9412 00e0 A2EB7E3F 		.word	1065282466
 9413 00e4 11727E3F 		.word	1065251345
 9414 00e8 69E27D3F 		.word	1065214569
 9415 00ec 9B3C7D3F 		.word	1065172123
 9416 00f0 A6807C3F 		.word	1065124006
 9417 00f4 ABAE7B3F 		.word	1065070251
 9418 00f8 8BC67A3F 		.word	1065010827
 9419 00fc 54C8793F 		.word	1064945748
 9420 0100 F6B3783F 		.word	1064874998
 9421 0104 8389773F 		.word	1064798595
 9422 0108 F948763F 		.word	1064716537
ARM GAS  /tmp/ccYdlVIk.s 			page 168


 9423 010c 49F2743F 		.word	1064628809
 9424 0110 9485733F 		.word	1064535444
 9425 0114 A702723F 		.word	1064436391
 9426 0118 B669703F 		.word	1064331702
 9427 011c 9DBA6E3F 		.word	1064221341
 9428 0120 6FF56C3F 		.word	1064105327
 9429 0124 1A1A6B3F 		.word	1063983642
 9430 0128 BF28693F 		.word	1063856319
 9431 012c 2D21673F 		.word	1063723309
 9432 0130 9703653F 		.word	1063584663
 9433 0134 D9CF623F 		.word	1063440345
 9434 0138 0586603F 		.word	1063290373
 9435 013c 1C265E3F 		.word	1063134748
 9436 0140 0CB05B3F 		.word	1062973452
 9437 0144 E623593F 		.word	1062806502
 9438 0148 9981563F 		.word	1062633881
 9439 014c 47C9533F 		.word	1062455623
 9440 0150 BEFA503F 		.word	1062271678
 9441 0154 2F164E3F 		.word	1062082095
 9442 0158 7A1B4B3F 		.word	1061886842
 9443 015c AF0A483F 		.word	1061685935
 9444 0160 CEE3443F 		.word	1061479374
 9445 0164 C6A6413F 		.word	1061267142
 9446 0168 A8533E3F 		.word	1061049256
 9447 016c 74EA3A3F 		.word	1060825716
 9448 0170 1A6B373F 		.word	1060596506
 9449 0174 AAD5333F 		.word	1060361642
 9450 0178 242A303F 		.word	1060121124
 9451 017c 77682C3F 		.word	1059874935
 9452 0180 B490283F 		.word	1059623092
 9453 0184 DBA2243F 		.word	1059365595
 9454 0188 ED9E203F 		.word	1059102445
 9455 018c D7841C3F 		.word	1058833623
 9456 0190 9B54183F 		.word	1058559131
 9457 0194 5A0E143F 		.word	1058279002
 9458 0198 F2B10F3F 		.word	1057993202
 9459 019c 753F0B3F 		.word	1057701749
 9460 01a0 D0B6063F 		.word	1057404624
 9461 01a4 1618023F 		.word	1057101846
 9462 01a8 8BC6FA3E 		.word	1056622219
 9463 01ac 9C30F13E 		.word	1055994012
 9464 01b0 836EE73E 		.word	1055354499
 9465 01b4 3D80DD3E 		.word	1054703677
 9466 01b8 CB65D33E 		.word	1054041547
 9467 01bc 0C1FC93E 		.word	1053368076
 9468 01c0 21ACBE3E 		.word	1052683297
 9469 01c4 E90CB43E 		.word	1051987177
 9470 01c8 A741A93E 		.word	1051279783
 9471 01cc F5499E3E 		.word	1050561013
 9472 01d0 3926933E 		.word	1049830969
 9473 01d4 30D6873E 		.word	1049089584
 9474 01d8 F6B3783E 		.word	1048097782
 9475 01dc 3563613E 		.word	1046569781
 9476 01e0 D8B9493E 		.word	1045019096
 9477 01e4 24B8313E 		.word	1043445796
 9478 01e8 D55D193E 		.word	1041849813
 9479 01ec 71AB003E 		.word	1040231281
ARM GAS  /tmp/ccYdlVIk.s 			page 169


 9480 01f0 E640CF3D 		.word	1036992742
 9481 01f4 B3799C3D 		.word	1033664947
 9482 01f8 A303523D 		.word	1028785059
 9483 01fc 0265D33C 		.word	1020486914
 9484 0200 00000000 		.word	0
 9485 0204 00000000 		.word	0
 9486 0208 00000000 		.word	0
 9487 020c 00000000 		.word	0
 9488 0210 00000000 		.word	0
 9489 0214 00000000 		.word	0
 9490 0218 00000000 		.word	0
 9491 021c 00000000 		.word	0
 9492 0220 00000000 		.word	0
 9493 0224 00000000 		.word	0
 9494 0228 00000000 		.word	0
 9495 022c 00000000 		.word	0
 9496 0230 00000000 		.word	0
 9497 0234 00000000 		.word	0
 9498 0238 00000000 		.word	0
 9499 023c 00000000 		.word	0
 9500 0240 00000000 		.word	0
 9501 0244 00000000 		.word	0
 9502 0248 00000000 		.word	0
 9503 024c 00000000 		.word	0
 9504 0250 00000000 		.word	0
 9505 0254 00000000 		.word	0
 9506 0258 00000000 		.word	0
 9507 025c 00000000 		.word	0
 9508 0260 00000000 		.word	0
 9509 0264 00000000 		.word	0
 9510 0268 00000000 		.word	0
 9511 026c 00000000 		.word	0
 9512 0270 00000000 		.word	0
 9513 0274 00000000 		.word	0
 9514 0278 00000000 		.word	0
 9515 027c 00000000 		.word	0
 9516 0280 00000000 		.word	0
 9517 0284 00000000 		.word	0
 9518 0288 00000000 		.word	0
 9519 028c 00000000 		.word	0
 9520 0290 00000000 		.word	0
 9521 0294 00000000 		.word	0
 9522 0298 00000000 		.word	0
 9523 029c 00000000 		.word	0
 9524 02a0 00000000 		.word	0
 9525 02a4 00000000 		.word	0
 9526 02a8 00000000 		.word	0
 9527 02ac 00000000 		.word	0
 9528 02b0 00000000 		.word	0
 9529 02b4 00000000 		.word	0
 9530 02b8 00000000 		.word	0
 9531 02bc 00000000 		.word	0
 9532 02c0 00000000 		.word	0
 9533 02c4 00000000 		.word	0
 9534 02c8 00000000 		.word	0
 9535 02cc 00000000 		.word	0
 9536 02d0 00000000 		.word	0
ARM GAS  /tmp/ccYdlVIk.s 			page 170


 9537 02d4 00000000 		.word	0
 9538 02d8 00000000 		.word	0
 9539 02dc 00000000 		.word	0
 9540 02e0 00000000 		.word	0
 9541 02e4 00000000 		.word	0
 9542 02e8 00000000 		.word	0
 9543 02ec 00000000 		.word	0
 9544 02f0 00000000 		.word	0
 9545 02f4 00000000 		.word	0
 9546 02f8 00000000 		.word	0
 9547 02fc 00000000 		.word	0
 9548 0300 00000000 		.word	0
 9549 0304 00000000 		.word	0
 9550 0308 00000000 		.word	0
 9551 030c 00000000 		.word	0
 9552 0310 00000000 		.word	0
 9553 0314 00000000 		.word	0
 9554 0318 00000000 		.word	0
 9555 031c 00000000 		.word	0
 9556 0320 00000000 		.word	0
 9557 0324 00000000 		.word	0
 9558 0328 00000000 		.word	0
 9559 032c 00000000 		.word	0
 9560 0330 00000000 		.word	0
 9561 0334 00000000 		.word	0
 9562 0338 00000000 		.word	0
 9563 033c 00000000 		.word	0
 9564 0340 00000000 		.word	0
 9565 0344 00000000 		.word	0
 9566 0348 00000000 		.word	0
 9567 034c 00000000 		.word	0
 9568 0350 00000000 		.word	0
 9569 0354 00000000 		.word	0
 9570 0358 00000000 		.word	0
 9571 035c 00000000 		.word	0
 9572 0360 00000000 		.word	0
 9573 0364 00000000 		.word	0
 9574 0368 00000000 		.word	0
 9575 036c 00000000 		.word	0
 9576 0370 00000000 		.word	0
 9577 0374 00000000 		.word	0
 9578 0378 00000000 		.word	0
 9579 037c 00000000 		.word	0
 9580 0380 00000000 		.word	0
 9581 0384 00000000 		.word	0
 9582 0388 00000000 		.word	0
 9583 038c 00000000 		.word	0
 9584 0390 00000000 		.word	0
 9585 0394 00000000 		.word	0
 9586 0398 00000000 		.word	0
 9587 039c 00000000 		.word	0
 9588 03a0 00000000 		.word	0
 9589 03a4 00000000 		.word	0
 9590 03a8 00000000 		.word	0
 9591 03ac 00000000 		.word	0
 9592 03b0 00000000 		.word	0
 9593 03b4 00000000 		.word	0
ARM GAS  /tmp/ccYdlVIk.s 			page 171


 9594 03b8 00000000 		.word	0
 9595 03bc 00000000 		.word	0
 9596 03c0 00000000 		.word	0
 9597 03c4 00000000 		.word	0
 9598 03c8 00000000 		.word	0
 9599 03cc 00000000 		.word	0
 9600 03d0 00000000 		.word	0
 9601 03d4 00000000 		.word	0
 9602 03d8 00000000 		.word	0
 9603 03dc 00000000 		.word	0
 9604 03e0 00000000 		.word	0
 9605 03e4 00000000 		.word	0
 9606 03e8 00000000 		.word	0
 9607 03ec 00000000 		.word	0
 9608 03f0 00000000 		.word	0
 9609 03f4 00000000 		.word	0
 9610 03f8 00000000 		.word	0
 9611 03fc 00000000 		.word	0
 9612 0400 00000000 		.word	0
 9613 0404 00000000 		.word	0
 9614 0408 00000000 		.word	0
 9615 040c 00000000 		.word	0
 9616 0410 00000000 		.word	0
 9617 0414 00000000 		.word	0
 9618 0418 00000000 		.word	0
 9619 041c 00000000 		.word	0
 9620 0420 00000000 		.word	0
 9621 0424 00000000 		.word	0
 9622 0428 00000000 		.word	0
 9623 042c 00000000 		.word	0
 9624 0430 00000000 		.word	0
 9625 0434 00000000 		.word	0
 9626 0438 00000000 		.word	0
 9627 043c 00000000 		.word	0
 9628 0440 00000000 		.word	0
 9629 0444 00000000 		.word	0
 9630 0448 00000000 		.word	0
 9631 044c 00000000 		.word	0
 9632 0450 00000000 		.word	0
 9633 0454 00000000 		.word	0
 9634 0458 00000000 		.word	0
 9635 045c 00000000 		.word	0
 9636 0460 00000000 		.word	0
 9637 0464 00000000 		.word	0
 9638 0468 00000000 		.word	0
 9639 046c 00000000 		.word	0
 9640 0470 00000000 		.word	0
 9641 0474 00000000 		.word	0
 9642 0478 00000000 		.word	0
 9643 047c 00000000 		.word	0
 9644 0480 00000000 		.word	0
 9645 0484 00000000 		.word	0
 9646 0488 00000000 		.word	0
 9647 048c 00000000 		.word	0
 9648 0490 00000000 		.word	0
 9649 0494 00000000 		.word	0
 9650 0498 00000000 		.word	0
ARM GAS  /tmp/ccYdlVIk.s 			page 172


 9651 049c 00000000 		.word	0
 9652 04a0 00000000 		.word	0
 9653 04a4 00000000 		.word	0
 9654 04a8 00000000 		.word	0
 9655 04ac 00000000 		.word	0
 9656 04b0 00000000 		.word	0
 9657 04b4 00000000 		.word	0
 9658 04b8 00000000 		.word	0
 9659 04bc 00000000 		.word	0
 9660 04c0 00000000 		.word	0
 9661 04c4 00000000 		.word	0
 9662 04c8 00000000 		.word	0
 9663 04cc 00000000 		.word	0
 9664 04d0 00000000 		.word	0
 9665 04d4 00000000 		.word	0
 9666 04d8 00000000 		.word	0
 9667 04dc 00000000 		.word	0
 9668 04e0 00000000 		.word	0
 9669 04e4 00000000 		.word	0
 9670 04e8 00000000 		.word	0
 9671 04ec 00000000 		.word	0
 9672 04f0 00000000 		.word	0
 9673 04f4 00000000 		.word	0
 9674 04f8 00000000 		.word	0
 9675 04fc 00000000 		.word	0
 9676 0500 00000000 		.word	0
 9677 0504 00000000 		.word	0
 9678 0508 00000000 		.word	0
 9679 050c 00000000 		.word	0
 9680 0510 00000000 		.word	0
 9681 0514 00000000 		.word	0
 9682 0518 00000000 		.word	0
 9683 051c 00000000 		.word	0
 9684 0520 00000000 		.word	0
 9685 0524 00000000 		.word	0
 9686 0528 00000000 		.word	0
 9687 052c 00000000 		.word	0
 9688 0530 00000000 		.word	0
 9689 0534 00000000 		.word	0
 9690 0538 00000000 		.word	0
 9691 053c 00000000 		.word	0
 9692 0540 00000000 		.word	0
 9693 0544 00000000 		.word	0
 9694 0548 00000000 		.word	0
 9695 054c 00000000 		.word	0
 9696 0550 00000000 		.word	0
 9697 0554 00000000 		.word	0
 9698 0558 00000000 		.word	0
 9699 055c 00000000 		.word	0
 9700 0560 00000000 		.word	0
 9701 0564 00000000 		.word	0
 9702 0568 00000000 		.word	0
 9703 056c 00000000 		.word	0
 9704 0570 00000000 		.word	0
 9705 0574 00000000 		.word	0
 9706 0578 00000000 		.word	0
 9707 057c 00000000 		.word	0
ARM GAS  /tmp/ccYdlVIk.s 			page 173


 9708 0580 00000000 		.word	0
 9709 0584 00000000 		.word	0
 9710 0588 00000000 		.word	0
 9711 058c 00000000 		.word	0
 9712 0590 00000000 		.word	0
 9713 0594 00000000 		.word	0
 9714 0598 00000000 		.word	0
 9715 059c 00000000 		.word	0
 9716 05a0 00000000 		.word	0
 9717 05a4 00000000 		.word	0
 9718 05a8 00000000 		.word	0
 9719 05ac 00000000 		.word	0
 9720 05b0 00000000 		.word	0
 9721 05b4 00000000 		.word	0
 9722 05b8 00000000 		.word	0
 9723 05bc 00000000 		.word	0
 9724 05c0 00000000 		.word	0
 9725 05c4 00000000 		.word	0
 9726 05c8 00000000 		.word	0
 9727 05cc 00000000 		.word	0
 9728 05d0 00000000 		.word	0
 9729 05d4 00000000 		.word	0
 9730 05d8 00000000 		.word	0
 9731 05dc 00000000 		.word	0
 9732 05e0 00000000 		.word	0
 9733 05e4 00000000 		.word	0
 9734 05e8 00000000 		.word	0
 9735 05ec 00000000 		.word	0
 9736 05f0 00000000 		.word	0
 9737 05f4 00000000 		.word	0
 9738 05f8 00000000 		.word	0
 9739 05fc 00000000 		.word	0
 9740 0600 00000000 		.word	0
 9741 0604 00000000 		.word	0
 9742 0608 00000000 		.word	0
 9743 060c 00000000 		.word	0
 9744 0610 00000000 		.word	0
 9745 0614 00000000 		.word	0
 9746 0618 00000000 		.word	0
 9747 061c 00000000 		.word	0
 9748 0620 00000000 		.word	0
 9749 0624 00000000 		.word	0
 9750 0628 00000000 		.word	0
 9751 062c 00000000 		.word	0
 9752 0630 00000000 		.word	0
 9753 0634 00000000 		.word	0
 9754 0638 00000000 		.word	0
 9755 063c 00000000 		.word	0
 9756 0640 00000000 		.word	0
 9757 0644 00000000 		.word	0
 9758 0648 00000000 		.word	0
 9759 064c 00000000 		.word	0
 9760 0650 00000000 		.word	0
 9761 0654 00000000 		.word	0
 9762 0658 00000000 		.word	0
 9763 065c 00000000 		.word	0
 9764 0660 00000000 		.word	0
ARM GAS  /tmp/ccYdlVIk.s 			page 174


 9765 0664 00000000 		.word	0
 9766 0668 00000000 		.word	0
 9767 066c 00000000 		.word	0
 9768 0670 00000000 		.word	0
 9769 0674 00000000 		.word	0
 9770 0678 00000000 		.word	0
 9771 067c 00000000 		.word	0
 9772 0680 00000000 		.word	0
 9773 0684 00000000 		.word	0
 9774 0688 00000000 		.word	0
 9775 068c 00000000 		.word	0
 9776 0690 00000000 		.word	0
 9777 0694 00000000 		.word	0
 9778 0698 00000000 		.word	0
 9779 069c 00000000 		.word	0
 9780 06a0 00000000 		.word	0
 9781 06a4 00000000 		.word	0
 9782 06a8 00000000 		.word	0
 9783 06ac 00000000 		.word	0
 9784 06b0 00000000 		.word	0
 9785 06b4 00000000 		.word	0
 9786 06b8 00000000 		.word	0
 9787 06bc 00000000 		.word	0
 9788 06c0 00000000 		.word	0
 9789 06c4 00000000 		.word	0
 9790 06c8 00000000 		.word	0
 9791 06cc 00000000 		.word	0
 9792 06d0 00000000 		.word	0
 9793 06d4 00000000 		.word	0
 9794 06d8 00000000 		.word	0
 9795 06dc 00000000 		.word	0
 9796 06e0 00000000 		.word	0
 9797 06e4 00000000 		.word	0
 9798 06e8 00000000 		.word	0
 9799 06ec 00000000 		.word	0
 9800 06f0 00000000 		.word	0
 9801 06f4 00000000 		.word	0
 9802 06f8 00000000 		.word	0
 9803 06fc 00000000 		.word	0
 9804 0700 00000000 		.word	0
 9805 0704 00000000 		.word	0
 9806 0708 00000000 		.word	0
 9807 070c 00000000 		.word	0
 9808 0710 00000000 		.word	0
 9809 0714 00000000 		.word	0
 9810 0718 00000000 		.word	0
 9811 071c 00000000 		.word	0
 9812 0720 00000000 		.word	0
 9813 0724 00000000 		.word	0
 9814 0728 00000000 		.word	0
 9815 072c 00000000 		.word	0
 9816 0730 00000000 		.word	0
 9817 0734 00000000 		.word	0
 9818 0738 00000000 		.word	0
 9819 073c 00000000 		.word	0
 9820 0740 00000000 		.word	0
 9821 0744 00000000 		.word	0
ARM GAS  /tmp/ccYdlVIk.s 			page 175


 9822 0748 00000000 		.word	0
 9823 074c 00000000 		.word	0
 9824 0750 00000000 		.word	0
 9825 0754 00000000 		.word	0
 9826 0758 00000000 		.word	0
 9827 075c 00000000 		.word	0
 9828 0760 00000000 		.word	0
 9829 0764 00000000 		.word	0
 9830 0768 00000000 		.word	0
 9831 076c 00000000 		.word	0
 9832 0770 00000000 		.word	0
 9833 0774 00000000 		.word	0
 9834 0778 00000000 		.word	0
 9835 077c 00000000 		.word	0
 9836 0780 00000000 		.word	0
 9837 0784 00000000 		.word	0
 9838 0788 00000000 		.word	0
 9839 078c 00000000 		.word	0
 9840 0790 00000000 		.word	0
 9841 0794 00000000 		.word	0
 9842 0798 00000000 		.word	0
 9843 079c 00000000 		.word	0
 9844 07a0 00000000 		.word	0
 9845 07a4 00000000 		.word	0
 9846 07a8 00000000 		.word	0
 9847 07ac 00000000 		.word	0
 9848 07b0 00000000 		.word	0
 9849 07b4 00000000 		.word	0
 9850 07b8 00000000 		.word	0
 9851 07bc 00000000 		.word	0
 9852 07c0 00000000 		.word	0
 9853 07c4 00000000 		.word	0
 9854 07c8 00000000 		.word	0
 9855 07cc 00000000 		.word	0
 9856 07d0 00000000 		.word	0
 9857 07d4 00000000 		.word	0
 9858 07d8 00000000 		.word	0
 9859 07dc 00000000 		.word	0
 9860 07e0 00000000 		.word	0
 9861 07e4 00000000 		.word	0
 9862 07e8 00000000 		.word	0
 9863 07ec 00000000 		.word	0
 9864 07f0 00000000 		.word	0
 9865 07f4 00000000 		.word	0
 9866 07f8 00000000 		.word	0
 9867 07fc 00000000 		.word	0
 9868              		.section	.rodata.pulsetable004,"a"
 9869              		.align	2
 9870              		.type	pulsetable004, %object
 9871              		.size	pulsetable004, 2048
 9872              	pulsetable004:
 9873 0000 00000000 		.word	0
 9874 0004 57B08D3B 		.word	999141463
 9875 0008 23F6893C 		.word	1015674403
 9876 000c E602173D 		.word	1024918246
 9877 0010 3481823D 		.word	1031962932
 9878 0014 B516C63D 		.word	1036392117
ARM GAS  /tmp/ccYdlVIk.s 			page 176


 9879 0018 AD6D0A3E 		.word	1040870829
 9880 001c 0BB5363E 		.word	1043772683
 9881 0020 272E673E 		.word	1046949415
 9882 0024 1D938D3E 		.word	1049465629
 9883 0028 1BF5A83E 		.word	1051260187
 9884 002c AA63C53E 		.word	1053123498
 9885 0030 0185E23E 		.word	1055032577
 9886 0034 0000003F 		.word	1056964608
 9887 0038 7FBD0E3F 		.word	1057930623
 9888 003c 2B4E1D3F 		.word	1058885163
 9889 0040 73852B3F 		.word	1059816819
 9890 0044 7236393F 		.word	1060714098
 9891 0048 7634463F 		.word	1061565558
 9892 004c BD52523F 		.word	1062359741
 9893 0050 95645D3F 		.word	1063085205
 9894 0054 293D673F 		.word	1063730473
 9895 0058 D9AF6F3F 		.word	1064284121
 9896 005c C18F763F 		.word	1064734657
 9897 0060 4FB07B3F 		.word	1065070671
 9898 0064 9FE47E3F 		.word	1065280671
 9899 0068 0000803F 		.word	1065353216
 9900 006c D6E67F3F 		.word	1065346774
 9901 0070 359B7F3F 		.word	1065327413
 9902 0074 3F1D7F3F 		.word	1065295167
 9903 0078 E36C7E3F 		.word	1065250019
 9904 007c 118A7D3F 		.word	1065191953
 9905 0080 EB747C3F 		.word	1065121003
 9906 0084 5E2D7B3F 		.word	1065037150
 9907 0088 6CB3793F 		.word	1064940396
 9908 008c 1407783F 		.word	1064830740
 9909 0090 5628763F 		.word	1064708182
 9910 0094 3317743F 		.word	1064572723
 9911 0098 BBD3713F 		.word	1064424379
 9912 009c CC5D6F3F 		.word	1064263116
 9913 00a0 78B56C3F 		.word	1064088952
 9914 00a4 CFDA693F 		.word	1063901903
 9915 00a8 AFCD663F 		.word	1063701935
 9916 00ac 3B8E633F 		.word	1063489083
 9917 00b0 501C603F 		.word	1063263312
 9918 00b4 10785C3F 		.word	1063024656
 9919 00b8 6AA1583F 		.word	1062773098
 9920 00bc 5F98543F 		.word	1062508639
 9921 00c0 EE5C503F 		.word	1062231278
 9922 00c4 17EF4B3F 		.word	1061941015
 9923 00c8 DB4E473F 		.word	1061637851
 9924 00cc 397C423F 		.word	1061321785
 9925 00d0 32773D3F 		.word	1060992818
 9926 00d4 C43F383F 		.word	1060650948
 9927 00d8 F1D5323F 		.word	1060296177
 9928 00dc C9392D3F 		.word	1059928521
 9929 00e0 2B6B273F 		.word	1059547947
 9930 00e4 386A213F 		.word	1059154488
 9931 00e8 CE361B3F 		.word	1058748110
 9932 00ec 0FD1143F 		.word	1058328847
 9933 00f0 EB380E3F 		.word	1057896683
 9934 00f4 506E073F 		.word	1057451600
 9935 00f8 6171003F 		.word	1056993633
ARM GAS  /tmp/ccYdlVIk.s 			page 177


 9936 00fc 1684F23E 		.word	1056080918
 9937 0100 A0C0E33E 		.word	1055113376
 9938 0104 5F98D43E 		.word	1054120031
 9939 0108 520BC53E 		.word	1053100882
 9940 010c 7A19B53E 		.word	1052055930
 9941 0110 D7C2A43E 		.word	1050985175
 9942 0114 8907943E 		.word	1049888649
 9943 0118 4FE7823E 		.word	1048766287
 9944 011c 93C4623E 		.word	1046660243
 9945 0120 35F13E3E 		.word	1044312373
 9946 0124 FC531A3E 		.word	1041912828
 9947 0128 E0DAE93D 		.word	1038736096
 9948 012c 9A7A9D3D 		.word	1033730714
 9949 0130 410D1F3D 		.word	1025445185
 9950 0134 00000000 		.word	0
 9951 0138 00000000 		.word	0
 9952 013c 00000000 		.word	0
 9953 0140 00000000 		.word	0
 9954 0144 00000000 		.word	0
 9955 0148 00000000 		.word	0
 9956 014c 00000000 		.word	0
 9957 0150 00000000 		.word	0
 9958 0154 00000000 		.word	0
 9959 0158 00000000 		.word	0
 9960 015c 00000000 		.word	0
 9961 0160 00000000 		.word	0
 9962 0164 00000000 		.word	0
 9963 0168 00000000 		.word	0
 9964 016c 00000000 		.word	0
 9965 0170 00000000 		.word	0
 9966 0174 00000000 		.word	0
 9967 0178 00000000 		.word	0
 9968 017c 00000000 		.word	0
 9969 0180 00000000 		.word	0
 9970 0184 00000000 		.word	0
 9971 0188 00000000 		.word	0
 9972 018c 00000000 		.word	0
 9973 0190 00000000 		.word	0
 9974 0194 00000000 		.word	0
 9975 0198 00000000 		.word	0
 9976 019c 00000000 		.word	0
 9977 01a0 00000000 		.word	0
 9978 01a4 00000000 		.word	0
 9979 01a8 00000000 		.word	0
 9980 01ac 00000000 		.word	0
 9981 01b0 00000000 		.word	0
 9982 01b4 00000000 		.word	0
 9983 01b8 00000000 		.word	0
 9984 01bc 00000000 		.word	0
 9985 01c0 00000000 		.word	0
 9986 01c4 00000000 		.word	0
 9987 01c8 00000000 		.word	0
 9988 01cc 00000000 		.word	0
 9989 01d0 00000000 		.word	0
 9990 01d4 00000000 		.word	0
 9991 01d8 00000000 		.word	0
 9992 01dc 00000000 		.word	0
ARM GAS  /tmp/ccYdlVIk.s 			page 178


 9993 01e0 00000000 		.word	0
 9994 01e4 00000000 		.word	0
 9995 01e8 00000000 		.word	0
 9996 01ec 00000000 		.word	0
 9997 01f0 00000000 		.word	0
 9998 01f4 00000000 		.word	0
 9999 01f8 00000000 		.word	0
 10000 01fc 00000000 		.word	0
 10001 0200 00000000 		.word	0
 10002 0204 00000000 		.word	0
 10003 0208 00000000 		.word	0
 10004 020c 00000000 		.word	0
 10005 0210 00000000 		.word	0
 10006 0214 00000000 		.word	0
 10007 0218 00000000 		.word	0
 10008 021c 00000000 		.word	0
 10009 0220 00000000 		.word	0
 10010 0224 00000000 		.word	0
 10011 0228 00000000 		.word	0
 10012 022c 00000000 		.word	0
 10013 0230 00000000 		.word	0
 10014 0234 00000000 		.word	0
 10015 0238 00000000 		.word	0
 10016 023c 00000000 		.word	0
 10017 0240 00000000 		.word	0
 10018 0244 00000000 		.word	0
 10019 0248 00000000 		.word	0
 10020 024c 00000000 		.word	0
 10021 0250 00000000 		.word	0
 10022 0254 00000000 		.word	0
 10023 0258 00000000 		.word	0
 10024 025c 00000000 		.word	0
 10025 0260 00000000 		.word	0
 10026 0264 00000000 		.word	0
 10027 0268 00000000 		.word	0
 10028 026c 00000000 		.word	0
 10029 0270 00000000 		.word	0
 10030 0274 00000000 		.word	0
 10031 0278 00000000 		.word	0
 10032 027c 00000000 		.word	0
 10033 0280 00000000 		.word	0
 10034 0284 00000000 		.word	0
 10035 0288 00000000 		.word	0
 10036 028c 00000000 		.word	0
 10037 0290 00000000 		.word	0
 10038 0294 00000000 		.word	0
 10039 0298 00000000 		.word	0
 10040 029c 00000000 		.word	0
 10041 02a0 00000000 		.word	0
 10042 02a4 00000000 		.word	0
 10043 02a8 00000000 		.word	0
 10044 02ac 00000000 		.word	0
 10045 02b0 00000000 		.word	0
 10046 02b4 00000000 		.word	0
 10047 02b8 00000000 		.word	0
 10048 02bc 00000000 		.word	0
 10049 02c0 00000000 		.word	0
ARM GAS  /tmp/ccYdlVIk.s 			page 179


 10050 02c4 00000000 		.word	0
 10051 02c8 00000000 		.word	0
 10052 02cc 00000000 		.word	0
 10053 02d0 00000000 		.word	0
 10054 02d4 00000000 		.word	0
 10055 02d8 00000000 		.word	0
 10056 02dc 00000000 		.word	0
 10057 02e0 00000000 		.word	0
 10058 02e4 00000000 		.word	0
 10059 02e8 00000000 		.word	0
 10060 02ec 00000000 		.word	0
 10061 02f0 00000000 		.word	0
 10062 02f4 00000000 		.word	0
 10063 02f8 00000000 		.word	0
 10064 02fc 00000000 		.word	0
 10065 0300 00000000 		.word	0
 10066 0304 00000000 		.word	0
 10067 0308 00000000 		.word	0
 10068 030c 00000000 		.word	0
 10069 0310 00000000 		.word	0
 10070 0314 00000000 		.word	0
 10071 0318 00000000 		.word	0
 10072 031c 00000000 		.word	0
 10073 0320 00000000 		.word	0
 10074 0324 00000000 		.word	0
 10075 0328 00000000 		.word	0
 10076 032c 00000000 		.word	0
 10077 0330 00000000 		.word	0
 10078 0334 00000000 		.word	0
 10079 0338 00000000 		.word	0
 10080 033c 00000000 		.word	0
 10081 0340 00000000 		.word	0
 10082 0344 00000000 		.word	0
 10083 0348 00000000 		.word	0
 10084 034c 00000000 		.word	0
 10085 0350 00000000 		.word	0
 10086 0354 00000000 		.word	0
 10087 0358 00000000 		.word	0
 10088 035c 00000000 		.word	0
 10089 0360 00000000 		.word	0
 10090 0364 00000000 		.word	0
 10091 0368 00000000 		.word	0
 10092 036c 00000000 		.word	0
 10093 0370 00000000 		.word	0
 10094 0374 00000000 		.word	0
 10095 0378 00000000 		.word	0
 10096 037c 00000000 		.word	0
 10097 0380 00000000 		.word	0
 10098 0384 00000000 		.word	0
 10099 0388 00000000 		.word	0
 10100 038c 00000000 		.word	0
 10101 0390 00000000 		.word	0
 10102 0394 00000000 		.word	0
 10103 0398 00000000 		.word	0
 10104 039c 00000000 		.word	0
 10105 03a0 00000000 		.word	0
 10106 03a4 00000000 		.word	0
ARM GAS  /tmp/ccYdlVIk.s 			page 180


 10107 03a8 00000000 		.word	0
 10108 03ac 00000000 		.word	0
 10109 03b0 00000000 		.word	0
 10110 03b4 00000000 		.word	0
 10111 03b8 00000000 		.word	0
 10112 03bc 00000000 		.word	0
 10113 03c0 00000000 		.word	0
 10114 03c4 00000000 		.word	0
 10115 03c8 00000000 		.word	0
 10116 03cc 00000000 		.word	0
 10117 03d0 00000000 		.word	0
 10118 03d4 00000000 		.word	0
 10119 03d8 00000000 		.word	0
 10120 03dc 00000000 		.word	0
 10121 03e0 00000000 		.word	0
 10122 03e4 00000000 		.word	0
 10123 03e8 00000000 		.word	0
 10124 03ec 00000000 		.word	0
 10125 03f0 00000000 		.word	0
 10126 03f4 00000000 		.word	0
 10127 03f8 00000000 		.word	0
 10128 03fc 00000000 		.word	0
 10129 0400 00000000 		.word	0
 10130 0404 00000000 		.word	0
 10131 0408 00000000 		.word	0
 10132 040c 00000000 		.word	0
 10133 0410 00000000 		.word	0
 10134 0414 00000000 		.word	0
 10135 0418 00000000 		.word	0
 10136 041c 00000000 		.word	0
 10137 0420 00000000 		.word	0
 10138 0424 00000000 		.word	0
 10139 0428 00000000 		.word	0
 10140 042c 00000000 		.word	0
 10141 0430 00000000 		.word	0
 10142 0434 00000000 		.word	0
 10143 0438 00000000 		.word	0
 10144 043c 00000000 		.word	0
 10145 0440 00000000 		.word	0
 10146 0444 00000000 		.word	0
 10147 0448 00000000 		.word	0
 10148 044c 00000000 		.word	0
 10149 0450 00000000 		.word	0
 10150 0454 00000000 		.word	0
 10151 0458 00000000 		.word	0
 10152 045c 00000000 		.word	0
 10153 0460 00000000 		.word	0
 10154 0464 00000000 		.word	0
 10155 0468 00000000 		.word	0
 10156 046c 00000000 		.word	0
 10157 0470 00000000 		.word	0
 10158 0474 00000000 		.word	0
 10159 0478 00000000 		.word	0
 10160 047c 00000000 		.word	0
 10161 0480 00000000 		.word	0
 10162 0484 00000000 		.word	0
 10163 0488 00000000 		.word	0
ARM GAS  /tmp/ccYdlVIk.s 			page 181


 10164 048c 00000000 		.word	0
 10165 0490 00000000 		.word	0
 10166 0494 00000000 		.word	0
 10167 0498 00000000 		.word	0
 10168 049c 00000000 		.word	0
 10169 04a0 00000000 		.word	0
 10170 04a4 00000000 		.word	0
 10171 04a8 00000000 		.word	0
 10172 04ac 00000000 		.word	0
 10173 04b0 00000000 		.word	0
 10174 04b4 00000000 		.word	0
 10175 04b8 00000000 		.word	0
 10176 04bc 00000000 		.word	0
 10177 04c0 00000000 		.word	0
 10178 04c4 00000000 		.word	0
 10179 04c8 00000000 		.word	0
 10180 04cc 00000000 		.word	0
 10181 04d0 00000000 		.word	0
 10182 04d4 00000000 		.word	0
 10183 04d8 00000000 		.word	0
 10184 04dc 00000000 		.word	0
 10185 04e0 00000000 		.word	0
 10186 04e4 00000000 		.word	0
 10187 04e8 00000000 		.word	0
 10188 04ec 00000000 		.word	0
 10189 04f0 00000000 		.word	0
 10190 04f4 00000000 		.word	0
 10191 04f8 00000000 		.word	0
 10192 04fc 00000000 		.word	0
 10193 0500 00000000 		.word	0
 10194 0504 00000000 		.word	0
 10195 0508 00000000 		.word	0
 10196 050c 00000000 		.word	0
 10197 0510 00000000 		.word	0
 10198 0514 00000000 		.word	0
 10199 0518 00000000 		.word	0
 10200 051c 00000000 		.word	0
 10201 0520 00000000 		.word	0
 10202 0524 00000000 		.word	0
 10203 0528 00000000 		.word	0
 10204 052c 00000000 		.word	0
 10205 0530 00000000 		.word	0
 10206 0534 00000000 		.word	0
 10207 0538 00000000 		.word	0
 10208 053c 00000000 		.word	0
 10209 0540 00000000 		.word	0
 10210 0544 00000000 		.word	0
 10211 0548 00000000 		.word	0
 10212 054c 00000000 		.word	0
 10213 0550 00000000 		.word	0
 10214 0554 00000000 		.word	0
 10215 0558 00000000 		.word	0
 10216 055c 00000000 		.word	0
 10217 0560 00000000 		.word	0
 10218 0564 00000000 		.word	0
 10219 0568 00000000 		.word	0
 10220 056c 00000000 		.word	0
ARM GAS  /tmp/ccYdlVIk.s 			page 182


 10221 0570 00000000 		.word	0
 10222 0574 00000000 		.word	0
 10223 0578 00000000 		.word	0
 10224 057c 00000000 		.word	0
 10225 0580 00000000 		.word	0
 10226 0584 00000000 		.word	0
 10227 0588 00000000 		.word	0
 10228 058c 00000000 		.word	0
 10229 0590 00000000 		.word	0
 10230 0594 00000000 		.word	0
 10231 0598 00000000 		.word	0
 10232 059c 00000000 		.word	0
 10233 05a0 00000000 		.word	0
 10234 05a4 00000000 		.word	0
 10235 05a8 00000000 		.word	0
 10236 05ac 00000000 		.word	0
 10237 05b0 00000000 		.word	0
 10238 05b4 00000000 		.word	0
 10239 05b8 00000000 		.word	0
 10240 05bc 00000000 		.word	0
 10241 05c0 00000000 		.word	0
 10242 05c4 00000000 		.word	0
 10243 05c8 00000000 		.word	0
 10244 05cc 00000000 		.word	0
 10245 05d0 00000000 		.word	0
 10246 05d4 00000000 		.word	0
 10247 05d8 00000000 		.word	0
 10248 05dc 00000000 		.word	0
 10249 05e0 00000000 		.word	0
 10250 05e4 00000000 		.word	0
 10251 05e8 00000000 		.word	0
 10252 05ec 00000000 		.word	0
 10253 05f0 00000000 		.word	0
 10254 05f4 00000000 		.word	0
 10255 05f8 00000000 		.word	0
 10256 05fc 00000000 		.word	0
 10257 0600 00000000 		.word	0
 10258 0604 00000000 		.word	0
 10259 0608 00000000 		.word	0
 10260 060c 00000000 		.word	0
 10261 0610 00000000 		.word	0
 10262 0614 00000000 		.word	0
 10263 0618 00000000 		.word	0
 10264 061c 00000000 		.word	0
 10265 0620 00000000 		.word	0
 10266 0624 00000000 		.word	0
 10267 0628 00000000 		.word	0
 10268 062c 00000000 		.word	0
 10269 0630 00000000 		.word	0
 10270 0634 00000000 		.word	0
 10271 0638 00000000 		.word	0
 10272 063c 00000000 		.word	0
 10273 0640 00000000 		.word	0
 10274 0644 00000000 		.word	0
 10275 0648 00000000 		.word	0
 10276 064c 00000000 		.word	0
 10277 0650 00000000 		.word	0
ARM GAS  /tmp/ccYdlVIk.s 			page 183


 10278 0654 00000000 		.word	0
 10279 0658 00000000 		.word	0
 10280 065c 00000000 		.word	0
 10281 0660 00000000 		.word	0
 10282 0664 00000000 		.word	0
 10283 0668 00000000 		.word	0
 10284 066c 00000000 		.word	0
 10285 0670 00000000 		.word	0
 10286 0674 00000000 		.word	0
 10287 0678 00000000 		.word	0
 10288 067c 00000000 		.word	0
 10289 0680 00000000 		.word	0
 10290 0684 00000000 		.word	0
 10291 0688 00000000 		.word	0
 10292 068c 00000000 		.word	0
 10293 0690 00000000 		.word	0
 10294 0694 00000000 		.word	0
 10295 0698 00000000 		.word	0
 10296 069c 00000000 		.word	0
 10297 06a0 00000000 		.word	0
 10298 06a4 00000000 		.word	0
 10299 06a8 00000000 		.word	0
 10300 06ac 00000000 		.word	0
 10301 06b0 00000000 		.word	0
 10302 06b4 00000000 		.word	0
 10303 06b8 00000000 		.word	0
 10304 06bc 00000000 		.word	0
 10305 06c0 00000000 		.word	0
 10306 06c4 00000000 		.word	0
 10307 06c8 00000000 		.word	0
 10308 06cc 00000000 		.word	0
 10309 06d0 00000000 		.word	0
 10310 06d4 00000000 		.word	0
 10311 06d8 00000000 		.word	0
 10312 06dc 00000000 		.word	0
 10313 06e0 00000000 		.word	0
 10314 06e4 00000000 		.word	0
 10315 06e8 00000000 		.word	0
 10316 06ec 00000000 		.word	0
 10317 06f0 00000000 		.word	0
 10318 06f4 00000000 		.word	0
 10319 06f8 00000000 		.word	0
 10320 06fc 00000000 		.word	0
 10321 0700 00000000 		.word	0
 10322 0704 00000000 		.word	0
 10323 0708 00000000 		.word	0
 10324 070c 00000000 		.word	0
 10325 0710 00000000 		.word	0
 10326 0714 00000000 		.word	0
 10327 0718 00000000 		.word	0
 10328 071c 00000000 		.word	0
 10329 0720 00000000 		.word	0
 10330 0724 00000000 		.word	0
 10331 0728 00000000 		.word	0
 10332 072c 00000000 		.word	0
 10333 0730 00000000 		.word	0
 10334 0734 00000000 		.word	0
ARM GAS  /tmp/ccYdlVIk.s 			page 184


 10335 0738 00000000 		.word	0
 10336 073c 00000000 		.word	0
 10337 0740 00000000 		.word	0
 10338 0744 00000000 		.word	0
 10339 0748 00000000 		.word	0
 10340 074c 00000000 		.word	0
 10341 0750 00000000 		.word	0
 10342 0754 00000000 		.word	0
 10343 0758 00000000 		.word	0
 10344 075c 00000000 		.word	0
 10345 0760 00000000 		.word	0
 10346 0764 00000000 		.word	0
 10347 0768 00000000 		.word	0
 10348 076c 00000000 		.word	0
 10349 0770 00000000 		.word	0
 10350 0774 00000000 		.word	0
 10351 0778 00000000 		.word	0
 10352 077c 00000000 		.word	0
 10353 0780 00000000 		.word	0
 10354 0784 00000000 		.word	0
 10355 0788 00000000 		.word	0
 10356 078c 00000000 		.word	0
 10357 0790 00000000 		.word	0
 10358 0794 00000000 		.word	0
 10359 0798 00000000 		.word	0
 10360 079c 00000000 		.word	0
 10361 07a0 00000000 		.word	0
 10362 07a4 00000000 		.word	0
 10363 07a8 00000000 		.word	0
 10364 07ac 00000000 		.word	0
 10365 07b0 00000000 		.word	0
 10366 07b4 00000000 		.word	0
 10367 07b8 00000000 		.word	0
 10368 07bc 00000000 		.word	0
 10369 07c0 00000000 		.word	0
 10370 07c4 00000000 		.word	0
 10371 07c8 00000000 		.word	0
 10372 07cc 00000000 		.word	0
 10373 07d0 00000000 		.word	0
 10374 07d4 00000000 		.word	0
 10375 07d8 00000000 		.word	0
 10376 07dc 00000000 		.word	0
 10377 07e0 00000000 		.word	0
 10378 07e4 00000000 		.word	0
 10379 07e8 00000000 		.word	0
 10380 07ec 00000000 		.word	0
 10381 07f0 00000000 		.word	0
 10382 07f4 00000000 		.word	0
 10383 07f8 00000000 		.word	0
 10384 07fc 00000000 		.word	0
 10385              		.section	.rodata.pulsetable003,"a"
 10386              		.align	2
 10387              		.type	pulsetable003, %object
 10388              		.size	pulsetable003, 2048
 10389              	pulsetable003:
 10390 0000 00000000 		.word	0
 10391 0004 FF08C338 		.word	952305919
ARM GAS  /tmp/ccYdlVIk.s 			page 185


 10392 0008 FF08C339 		.word	969083135
 10393 000c AF5D5A3A 		.word	979000751
 10394 0010 5776C13A 		.word	985757271
 10395 0014 4489163B 		.word	991332676
 10396 0018 EDF0573B 		.word	995619053
 10397 001c 4D68923B 		.word	999450701
 10398 0020 5E83BE3B 		.word	1002341214
 10399 0024 7F30F03B 		.word	1005596799
 10400 0028 75AF133C 		.word	1007923061
 10401 002c 1D03323C 		.word	1009910557
 10402 0030 A306533C 		.word	1012074147
 10403 0034 A3B1763C 		.word	1014411683
 10404 0038 F67F8E3C 		.word	1015971830
 10405 003c 5AF0A23C 		.word	1017311322
 10406 0040 E7A7B83C 		.word	1018734567
 10407 0044 6AA2CF3C 		.word	1020240490
 10408 0048 99D9E73C 		.word	1021827481
 10409 004c B9A6003D 		.word	1023452857
 10410 0050 BEF90D3D 		.word	1024326078
 10411 0054 DAE51B3D 		.word	1025238490
 10412 0058 F5682A3D 		.word	1026189557
 10413 005c DC7E393D 		.word	1027178204
 10414 0060 9127493D 		.word	1028204433
 10415 0064 EE5F593D 		.word	1029267438
 10416 0068 D9256A3D 		.word	1030366681
 10417 006c 3A777B3D 		.word	1031501626
 10418 0070 76A8863D 		.word	1032235126
 10419 0074 F1D88F3D 		.word	1032837361
 10420 0078 014C993D 		.word	1033456641
 10421 007c 1500A33D 		.word	1034092565
 10422 0080 1FF4AC3D 		.word	1034744863
 10423 0084 9A27B73D 		.word	1035413402
 10424 0088 F298C13D 		.word	1036097778
 10425 008c A147CC3D 		.word	1036797857
 10426 0090 9031D73D 		.word	1037513104
 10427 0094 3656E23D 		.word	1038243382
 10428 0098 89B4ED3D 		.word	1038988425
 10429 009c 7B4BF93D 		.word	1039747963
 10430 00a0 BD8C023E 		.word	1040354493
 10431 00a4 008F083E 		.word	1040748288
 10432 00a8 00AC0E3E 		.word	1041148928
 10433 00ac F3E2143E 		.word	1041556211
 10434 00b0 55331B3E 		.word	1041970005
 10435 00b4 9D9C213E 		.word	1042390173
 10436 00b8 8A1E283E 		.word	1042816650
 10437 00bc 0FB82E3E 		.word	1043249167
 10438 00c0 2B69353E 		.word	1043687723
 10439 00c4 D3303C3E 		.word	1044132051
 10440 00c8 C30E433E 		.word	1044582083
 10441 00cc 32024A3E 		.word	1045037618
 10442 00d0 DD0A513E 		.word	1045498589
 10443 00d4 3D28583E 		.word	1045964861
 10444 00d8 8A595F3E 		.word	1046436234
 10445 00dc 3D9E663E 		.word	1046912573
 10446 00e0 12F66D3E 		.word	1047393810
 10447 00e4 FE5F753E 		.word	1047879678
 10448 00e8 01DC7C3E 		.word	1048370177
ARM GAS  /tmp/ccYdlVIk.s 			page 186


 10449 00ec 8734823E 		.word	1048720519
 10450 00f0 9203863E 		.word	1048970130
 10451 00f4 9DDA893E 		.word	1049221789
 10452 00f8 63B98D3E 		.word	1049475427
 10453 00fc C39F913E 		.word	1049731011
 10454 0100 7A8D953E 		.word	1049988474
 10455 0104 2382993E 		.word	1050247715
 10456 0108 7C7D9D3E 		.word	1050508668
 10457 010c 637FA13E 		.word	1050771299
 10458 0110 5187A53E 		.word	1051035473
 10459 0114 4695A93E 		.word	1051301190
 10460 0118 BDA8AD3E 		.word	1051568317
 10461 011c 94C1B13E 		.word	1051836820
 10462 0120 87DFB53E 		.word	1052106631
 10463 0124 3202BA3E 		.word	1052377650
 10464 0128 7429BE3E 		.word	1052649844
 10465 012c 0855C23E 		.word	1052923144
 10466 0130 6A84C63E 		.word	1053197418
 10467 0134 99B7CA3E 		.word	1053472665
 10468 0138 52EECE3E 		.word	1053748818
 10469 013c 0F28D33E 		.word	1054025743
 10470 0140 AE64D73E 		.word	1054303406
 10471 0144 ECA3DB3E 		.word	1054581740
 10472 0148 86E5DF3E 		.word	1054860678
 10473 014c 1729E43E 		.word	1055140119
 10474 0150 A06EE83E 		.word	1055420064
 10475 0154 78B5EC3E 		.word	1055700344
 10476 0158 A0FDF03E 		.word	1055980960
 10477 015c D446F53E 		.word	1056261844
 10478 0160 8E90F93E 		.word	1056542862
 10479 0164 CFDAFD3E 		.word	1056824015
 10480 0168 9912013F 		.word	1057034905
 10481 016c B937033F 		.word	1057175481
 10482 0170 965C053F 		.word	1057315990
 10483 0174 3081073F 		.word	1057456432
 10484 0178 44A5093F 		.word	1057596740
 10485 017c B0C80B3F 		.word	1057736880
 10486 0180 74EB0D3F 		.word	1057876852
 10487 0184 3D0D103F 		.word	1058016573
 10488 0188 0A2E123F 		.word	1058156042
 10489 018c A94D143F 		.word	1058295209
 10490 0190 F86B163F 		.word	1058434040
 10491 0194 D788183F 		.word	1058572503
 10492 0198 23A41A3F 		.word	1058710563
 10493 019c CBBD1C3F 		.word	1058848203
 10494 01a0 7CD51E3F 		.word	1058985340
 10495 01a4 46EB203F 		.word	1059121990
 10496 01a8 E7FE223F 		.word	1059258087
 10497 01ac 3D10253F 		.word	1059393597
 10498 01b0 361F273F 		.word	1059528502
 10499 01b4 A12B293F 		.word	1059662753
 10500 01b8 5D352B3F 		.word	1059796317
 10501 01bc 583C2D3F 		.word	1059929176
 10502 01c0 4F402F3F 		.word	1060061263
 10503 01c4 4241313F 		.word	1060192578
 10504 01c8 EE3E333F 		.word	1060323054
 10505 01cc 4339353F 		.word	1060452675
ARM GAS  /tmp/ccYdlVIk.s 			page 187


 10506 01d0 1F30373F 		.word	1060581407
 10507 01d4 4F23393F 		.word	1060709199
 10508 01d8 B2123B3F 		.word	1060836018
 10509 01dc 37FE3C3F 		.word	1060961847
 10510 01e0 BDE53E3F 		.word	1061086653
 10511 01e4 00C9403F 		.word	1061210368
 10512 01e8 00A8423F 		.word	1061332992
 10513 01ec 7B82443F 		.word	1061454459
 10514 01f0 7158463F 		.word	1061574769
 10515 01f4 9E29483F 		.word	1061693854
 10516 01f8 F1F5493F 		.word	1061811697
 10517 01fc 49BD4B3F 		.word	1061928265
 10518 0200 737F4D3F 		.word	1062043507
 10519 0204 4F3C4F3F 		.word	1062157391
 10520 0208 CBF3503F 		.word	1062269899
 10521 020c C6A5523F 		.word	1062380998
 10522 0210 FC51543F 		.word	1062490620
 10523 0214 5DF8553F 		.word	1062598749
 10524 0218 D998573F 		.word	1062705369
 10525 021c 2B33593F 		.word	1062810411
 10526 0220 43C75A3F 		.word	1062913859
 10527 0224 00555C3F 		.word	1063015680
 10528 0228 40DC5D3F 		.word	1063115840
 10529 022c D15C5F3F 		.word	1063214289
 10530 0230 91D6603F 		.word	1063310993
 10531 0234 6F49623F 		.word	1063405935
 10532 0238 39B5633F 		.word	1063499065
 10533 023c CE19653F 		.word	1063590350
 10534 0240 0C77663F 		.word	1063679756
 10535 0244 D1CC673F 		.word	1063767249
 10536 0248 0D1B693F 		.word	1063852813
 10537 024c 7C616A3F 		.word	1063936380
 10538 0250 FD9F6B3F 		.word	1064017917
 10539 0254 80D66C3F 		.word	1064097408
 10540 0258 E2046E3F 		.word	1064174818
 10541 025c F12A6F3F 		.word	1064250097
 10542 0260 8C48703F 		.word	1064323212
 10543 0264 A25D713F 		.word	1064394146
 10544 0268 016A723F 		.word	1064462849
 10545 026c 876D733F 		.word	1064529287
 10546 0270 1268743F 		.word	1064593426
 10547 0274 7159753F 		.word	1064655217
 10548 0278 A241763F 		.word	1064714658
 10549 027c 6420773F 		.word	1064771684
 10550 0280 94F5773F 		.word	1064826260
 10551 0284 33C1783F 		.word	1064878387
 10552 0288 ED82793F 		.word	1064927981
 10553 028c C13A7A3F 		.word	1064975041
 10554 0290 7DE87A3F 		.word	1065019517
 10555 0294 008C7B3F 		.word	1065061376
 10556 0298 39257C3F 		.word	1065100601
 10557 029c E5B37C3F 		.word	1065137125
 10558 02a0 F4377D3F 		.word	1065170932
 10559 02a4 42B17D3F 		.word	1065201986
 10560 02a8 9F1F7E3F 		.word	1065230239
 10561 02ac F9827E3F 		.word	1065255673
 10562 02b0 2FDB7E3F 		.word	1065278255
ARM GAS  /tmp/ccYdlVIk.s 			page 188


 10563 02b4 0F287F3F 		.word	1065297935
 10564 02b8 77697F3F 		.word	1065314679
 10565 02bc 459F7F3F 		.word	1065328453
 10566 02c0 69C97F3F 		.word	1065339241
 10567 02c4 9FE77F3F 		.word	1065346975
 10568 02c8 E8F97F3F 		.word	1065351656
 10569 02cc 0000803F 		.word	1065353216
 10570 02d0 6DFE7F3F 		.word	1065352813
 10571 02d4 C6F97F3F 		.word	1065351622
 10572 02d8 FAF17F3F 		.word	1065349626
 10573 02dc 08E77F3F 		.word	1065346824
 10574 02e0 02D97F3F 		.word	1065343234
 10575 02e4 D6C77F3F 		.word	1065338838
 10576 02e8 96B37F3F 		.word	1065333654
 10577 02ec 309C7F3F 		.word	1065327664
 10578 02f0 B6817F3F 		.word	1065320886
 10579 02f4 06647F3F 		.word	1065313286
 10580 02f8 52437F3F 		.word	1065304914
 10581 02fc 681F7F3F 		.word	1065295720
 10582 0300 7BF87E3F 		.word	1065285755
 10583 0304 57CE7E3F 		.word	1065274967
 10584 0308 1FA17E3F 		.word	1065263391
 10585 030c C1707E3F 		.word	1065251009
 10586 0310 4F3D7E3F 		.word	1065237839
 10587 0314 B8067E3F 		.word	1065223864
 10588 0318 0CCD7D3F 		.word	1065209100
 10589 031c 3A907D3F 		.word	1065193530
 10590 0320 44507D3F 		.word	1065177156
 10591 0324 390D7D3F 		.word	1065159993
 10592 0328 08C77C3F 		.word	1065142024
 10593 032c C37D7C3F 		.word	1065123267
 10594 0330 59317C3F 		.word	1065103705
 10595 0334 CAE17B3F 		.word	1065083338
 10596 0338 268F7B3F 		.word	1065062182
 10597 033c 5C397B3F 		.word	1065040220
 10598 0340 7EE07A3F 		.word	1065017470
 10599 0344 7B847A3F 		.word	1064993915
 10600 0348 63257A3F 		.word	1064969571
 10601 034c 26C3793F 		.word	1064944422
 10602 0350 C45D793F 		.word	1064918468
 10603 0354 4DF5783F 		.word	1064891725
 10604 0358 B189783F 		.word	1064864177
 10605 035c EF1A783F 		.word	1064835823
 10606 0360 19A9773F 		.word	1064806681
 10607 0364 1E34773F 		.word	1064776734
 10608 0368 0EBC763F 		.word	1064745998
 10609 036c D940763F 		.word	1064714457
 10610 0370 8FC2753F 		.word	1064682127
 10611 0374 2041753F 		.word	1064648992
 10612 0378 8CBC743F 		.word	1064615052
 10613 037c E334743F 		.word	1064580323
 10614 0380 15AA733F 		.word	1064544789
 10615 0384 321C733F 		.word	1064508466
 10616 0388 2A8B723F 		.word	1064471338
 10617 038c FDF6713F 		.word	1064433405
 10618 0390 BB5F713F 		.word	1064394683
 10619 0394 65C5703F 		.word	1064355173
ARM GAS  /tmp/ccYdlVIk.s 			page 189


 10620 0398 D927703F 		.word	1064314841
 10621 039c 38876F3F 		.word	1064273720
 10622 03a0 82E36E3F 		.word	1064231810
 10623 03a4 A73C6E3F 		.word	1064189095
 10624 03a8 A7926D3F 		.word	1064145575
 10625 03ac 93E56C3F 		.word	1064101267
 10626 03b0 59356C3F 		.word	1064056153
 10627 03b4 F9816B3F 		.word	1064010233
 10628 03b8 86CB6A3F 		.word	1063963526
 10629 03bc FD116A3F 		.word	1063916029
 10630 03c0 3F55693F 		.word	1063867711
 10631 03c4 7D95683F 		.word	1063818621
 10632 03c8 85D2673F 		.word	1063768709
 10633 03cc 780C673F 		.word	1063718008
 10634 03d0 5743663F 		.word	1063666519
 10635 03d4 FF76653F 		.word	1063614207
 10636 03d8 A4A7643F 		.word	1063561124
 10637 03dc 13D5633F 		.word	1063507219
 10638 03e0 6DFF623F 		.word	1063452525
 10639 03e4 B326623F 		.word	1063397043
 10640 03e8 D34A613F 		.word	1063340755
 10641 03ec CF6B603F 		.word	1063283663
 10642 03f0 B5895F3F 		.word	1063225781
 10643 03f4 76A45E3F 		.word	1063167094
 10644 03f8 12BC5D3F 		.word	1063107602
 10645 03fc 9AD05C3F 		.word	1063047322
 10646 0400 FCE15B3F 		.word	1062986236
 10647 0404 4AF05A3F 		.word	1062924362
 10648 0408 72FB593F 		.word	1062861682
 10649 040c 8603593F 		.word	1062798214
 10650 0410 7408583F 		.word	1062733940
 10651 0414 3D0A573F 		.word	1062668861
 10652 0418 F208563F 		.word	1062602994
 10653 041c 8104553F 		.word	1062536321
 10654 0420 FCFC533F 		.word	1062468860
 10655 0424 52F2523F 		.word	1062400594
 10656 0428 82E4513F 		.word	1062331522
 10657 042c 9ED3503F 		.word	1062261662
 10658 0430 94BF4F3F 		.word	1062190996
 10659 0434 76A84E3F 		.word	1062119542
 10660 0438 328E4D3F 		.word	1062047282
 10661 043c CA704C3F 		.word	1061974218
 10662 0440 4C504B3F 		.word	1061900364
 10663 0444 AA2C4A3F 		.word	1061825706
 10664 0448 F305493F 		.word	1061750259
 10665 044c 16DC473F 		.word	1061674006
 10666 0450 14AF463F 		.word	1061596948
 10667 0454 FE7E453F 		.word	1061519102
 10668 0458 D34B443F 		.word	1061440467
 10669 045c 7215433F 		.word	1061361010
 10670 0460 0EDC413F 		.word	1061280782
 10671 0464 739F403F 		.word	1061199731
 10672 0468 C45F3F3F 		.word	1061117892
 10673 046c EF1C3E3F 		.word	1061035247
 10674 0470 06D73C3F 		.word	1060951814
 10675 0474 F88D3B3F 		.word	1060867576
 10676 0478 D5413A3F 		.word	1060782549
ARM GAS  /tmp/ccYdlVIk.s 			page 190


 10677 047c 8CF2383F 		.word	1060696716
 10678 0480 1FA0373F 		.word	1060610079
 10679 0484 9D4A363F 		.word	1060522653
 10680 0488 F5F1343F 		.word	1060434421
 10681 048c 3A96333F 		.word	1060345402
 10682 0490 5837323F 		.word	1060255576
 10683 0494 52D5303F 		.word	1060164946
 10684 0498 37702F3F 		.word	1060073527
 10685 049c 07082E3F 		.word	1059981319
 10686 04a0 A29C2C3F 		.word	1059888290
 10687 04a4 272E2B3F 		.word	1059794471
 10688 04a8 99BC293F 		.word	1059699865
 10689 04ac E547283F 		.word	1059604453
 10690 04b0 0BD0263F 		.word	1059508235
 10691 04b4 1D55253F 		.word	1059411229
 10692 04b8 0AD7233F 		.word	1059313418
 10693 04bc E355223F 		.word	1059214819
 10694 04c0 85D1203F 		.word	1059115397
 10695 04c4 234A1F3F 		.word	1059015203
 10696 04c8 9CBF1D3F 		.word	1058914204
 10697 04cc F0311C3F 		.word	1058812400
 10698 04d0 1FA11A3F 		.word	1058709791
 10699 04d4 390D193F 		.word	1058606393
 10700 04d8 3E76173F 		.word	1058502206
 10701 04dc 1EDC153F 		.word	1058397214
 10702 04e0 D93E143F 		.word	1058291417
 10703 04e4 809E123F 		.word	1058184832
 10704 04e8 01FB103F 		.word	1058077441
 10705 04ec 5C540F3F 		.word	1057969244
 10706 04f0 A4AA0D3F 		.word	1057860260
 10707 04f4 C6FD0B3F 		.word	1057750470
 10708 04f8 D34D0A3F 		.word	1057639891
 10709 04fc BB9A083F 		.word	1057528507
 10710 0500 7EE4063F 		.word	1057416318
 10711 0504 2C2B053F 		.word	1057303340
 10712 0508 C66E033F 		.word	1057189574
 10713 050c 29AF013F 		.word	1057074985
 10714 0510 12D9FF3E 		.word	1056954642
 10715 0514 664DFC3E 		.word	1056722278
 10716 0518 90BBF83E 		.word	1056488336
 10717 051c 7023F53E 		.word	1056252784
 10718 0520 2785F13E 		.word	1056015655
 10719 0524 93E0ED3E 		.word	1055776915
 10720 0528 D635EA3E 		.word	1055536598
 10721 052c CF84E63E 		.word	1055294671
 10722 0530 7DCDE23E 		.word	1055051133
 10723 0534 0210DF3E 		.word	1054806018
 10724 0538 3C4CDB3E 		.word	1054559292
 10725 053c 4D82D73E 		.word	1054310989
 10726 0540 14B2D33E 		.word	1054061076
 10727 0544 B1DBCF3E 		.word	1053809585
 10728 0548 04FFCB3E 		.word	1053556484
 10729 054c 0D1CC83E 		.word	1053301773
 10730 0550 CA32C43E 		.word	1053045450
 10731 0554 8143C03E 		.word	1052787585
 10732 0558 CB4DBC3E 		.word	1052528075
 10733 055c EC51B83E 		.word	1052266988
ARM GAS  /tmp/ccYdlVIk.s 			page 191


 10734 0560 C24FB43E 		.word	1052004290
 10735 0564 6F47B03E 		.word	1051740015
 10736 0568 D238AC3E 		.word	1051474130
 10737 056c 0B24A83E 		.word	1051206667
 10738 0570 FA08A43E 		.word	1050937594
 10739 0574 9FE79F3E 		.word	1050666911
 10740 0578 1AC09B3E 		.word	1050394650
 10741 057c 4B92973E 		.word	1050120779
 10742 0580 535E933E 		.word	1049845331
 10743 0584 10248F3E 		.word	1049568272
 10744 0588 82E38A3E 		.word	1049289602
 10745 058c CB9C863E 		.word	1049009355
 10746 0590 CA4F823E 		.word	1048727498
 10747 0594 40F97B3E 		.word	1048312128
 10748 0598 5646733E 		.word	1047742038
 10749 059c D7866A3E 		.word	1047168727
 10750 05a0 06BB613E 		.word	1046592262
 10751 05a4 E3E2583E 		.word	1046012643
 10752 05a8 E7FD4F3E 		.word	1045429735
 10753 05ac 990C473E 		.word	1044843673
 10754 05b0 FA0E3E3E 		.word	1044254458
 10755 05b4 C504353E 		.word	1043662021
 10756 05b8 FAED2B3E 		.word	1043066362
 10757 05bc DECA223E 		.word	1042467550
 10758 05c0 2C9B193E 		.word	1041865516
 10759 05c4 E55E103E 		.word	1041260261
 10760 05c8 4C16073E 		.word	1040651852
 10761 05cc C382FB3D 		.word	1039893187
 10762 05d0 C2BFE83D 		.word	1038663618
 10763 05d4 97E3D53D 		.word	1037427607
 10764 05d8 42EEC23D 		.word	1036185154
 10765 05dc 48E0AF3D 		.word	1034936392
 10766 05e0 AAB99C3D 		.word	1033681322
 10767 05e4 E179893D 		.word	1032419809
 10768 05e8 DD416C3D 		.word	1030504925
 10769 05ec AF5E453D 		.word	1027956399
 10770 05f0 2C491E3D 		.word	1025394988
 10771 05f4 A702EE3C 		.word	1022231207
 10772 05f8 66109F3C 		.word	1017057382
 10773 05fc F7721F3C 		.word	1008694007
 10774 0600 00000000 		.word	0
 10775 0604 00000000 		.word	0
 10776 0608 00000000 		.word	0
 10777 060c 00000000 		.word	0
 10778 0610 00000000 		.word	0
 10779 0614 00000000 		.word	0
 10780 0618 00000000 		.word	0
 10781 061c 00000000 		.word	0
 10782 0620 00000000 		.word	0
 10783 0624 00000000 		.word	0
 10784 0628 00000000 		.word	0
 10785 062c 00000000 		.word	0
 10786 0630 00000000 		.word	0
 10787 0634 00000000 		.word	0
 10788 0638 00000000 		.word	0
 10789 063c 00000000 		.word	0
 10790 0640 00000000 		.word	0
ARM GAS  /tmp/ccYdlVIk.s 			page 192


 10791 0644 00000000 		.word	0
 10792 0648 00000000 		.word	0
 10793 064c 00000000 		.word	0
 10794 0650 00000000 		.word	0
 10795 0654 00000000 		.word	0
 10796 0658 00000000 		.word	0
 10797 065c 00000000 		.word	0
 10798 0660 00000000 		.word	0
 10799 0664 00000000 		.word	0
 10800 0668 00000000 		.word	0
 10801 066c 00000000 		.word	0
 10802 0670 00000000 		.word	0
 10803 0674 00000000 		.word	0
 10804 0678 00000000 		.word	0
 10805 067c 00000000 		.word	0
 10806 0680 00000000 		.word	0
 10807 0684 00000000 		.word	0
 10808 0688 00000000 		.word	0
 10809 068c 00000000 		.word	0
 10810 0690 00000000 		.word	0
 10811 0694 00000000 		.word	0
 10812 0698 00000000 		.word	0
 10813 069c 00000000 		.word	0
 10814 06a0 00000000 		.word	0
 10815 06a4 00000000 		.word	0
 10816 06a8 00000000 		.word	0
 10817 06ac 00000000 		.word	0
 10818 06b0 00000000 		.word	0
 10819 06b4 00000000 		.word	0
 10820 06b8 00000000 		.word	0
 10821 06bc 00000000 		.word	0
 10822 06c0 00000000 		.word	0
 10823 06c4 00000000 		.word	0
 10824 06c8 00000000 		.word	0
 10825 06cc 00000000 		.word	0
 10826 06d0 00000000 		.word	0
 10827 06d4 00000000 		.word	0
 10828 06d8 00000000 		.word	0
 10829 06dc 00000000 		.word	0
 10830 06e0 00000000 		.word	0
 10831 06e4 00000000 		.word	0
 10832 06e8 00000000 		.word	0
 10833 06ec 00000000 		.word	0
 10834 06f0 00000000 		.word	0
 10835 06f4 00000000 		.word	0
 10836 06f8 00000000 		.word	0
 10837 06fc 00000000 		.word	0
 10838 0700 00000000 		.word	0
 10839 0704 00000000 		.word	0
 10840 0708 00000000 		.word	0
 10841 070c 00000000 		.word	0
 10842 0710 00000000 		.word	0
 10843 0714 00000000 		.word	0
 10844 0718 00000000 		.word	0
 10845 071c 00000000 		.word	0
 10846 0720 00000000 		.word	0
 10847 0724 00000000 		.word	0
ARM GAS  /tmp/ccYdlVIk.s 			page 193


 10848 0728 00000000 		.word	0
 10849 072c 00000000 		.word	0
 10850 0730 00000000 		.word	0
 10851 0734 00000000 		.word	0
 10852 0738 00000000 		.word	0
 10853 073c 00000000 		.word	0
 10854 0740 00000000 		.word	0
 10855 0744 00000000 		.word	0
 10856 0748 00000000 		.word	0
 10857 074c 00000000 		.word	0
 10858 0750 00000000 		.word	0
 10859 0754 00000000 		.word	0
 10860 0758 00000000 		.word	0
 10861 075c 00000000 		.word	0
 10862 0760 00000000 		.word	0
 10863 0764 00000000 		.word	0
 10864 0768 00000000 		.word	0
 10865 076c 00000000 		.word	0
 10866 0770 00000000 		.word	0
 10867 0774 00000000 		.word	0
 10868 0778 00000000 		.word	0
 10869 077c 00000000 		.word	0
 10870 0780 00000000 		.word	0
 10871 0784 00000000 		.word	0
 10872 0788 00000000 		.word	0
 10873 078c 00000000 		.word	0
 10874 0790 00000000 		.word	0
 10875 0794 00000000 		.word	0
 10876 0798 00000000 		.word	0
 10877 079c 00000000 		.word	0
 10878 07a0 00000000 		.word	0
 10879 07a4 00000000 		.word	0
 10880 07a8 00000000 		.word	0
 10881 07ac 00000000 		.word	0
 10882 07b0 00000000 		.word	0
 10883 07b4 00000000 		.word	0
 10884 07b8 00000000 		.word	0
 10885 07bc 00000000 		.word	0
 10886 07c0 00000000 		.word	0
 10887 07c4 00000000 		.word	0
 10888 07c8 00000000 		.word	0
 10889 07cc 00000000 		.word	0
 10890 07d0 00000000 		.word	0
 10891 07d4 00000000 		.word	0
 10892 07d8 00000000 		.word	0
 10893 07dc 00000000 		.word	0
 10894 07e0 00000000 		.word	0
 10895 07e4 00000000 		.word	0
 10896 07e8 00000000 		.word	0
 10897 07ec 00000000 		.word	0
 10898 07f0 00000000 		.word	0
 10899 07f4 00000000 		.word	0
 10900 07f8 00000000 		.word	0
 10901 07fc 00000000 		.word	0
 10902              		.section	.rodata.pulsetable002,"a"
 10903              		.align	2
 10904              		.type	pulsetable002, %object
ARM GAS  /tmp/ccYdlVIk.s 			page 194


 10905              		.size	pulsetable002, 2048
 10906              	pulsetable002:
 10907 0000 00000000 		.word	0
 10908 0004 D6E59438 		.word	949282262
 10909 0008 D6E59439 		.word	966059478
 10910 000c 3DB9263A 		.word	975616317
 10911 0010 D8B7933A 		.word	982759384
 10912 0014 9529E63A 		.word	988162453
 10913 0018 9626253B 		.word	992290454
 10914 001c 8600603B 		.word	996147334
 10915 0020 4ED1913B 		.word	999412046
 10916 0024 42EDB73B 		.word	1001909570
 10917 0028 BA4BE23B 		.word	1004686266
 10918 002c 5C76083C 		.word	1007187548
 10919 0030 56D7213C 		.word	1008850774
 10920 0034 FD4C3D3C 		.word	1010650365
 10921 0038 EECE5A3C 		.word	1012584174
 10922 003c 94507A3C 		.word	1014648980
 10923 0040 10EB8D3C 		.word	1015933712
 10924 0044 7EA99F3C 		.word	1017096574
 10925 0048 7C61B23C 		.word	1018323324
 10926 004c F110C63C 		.word	1019613425
 10927 0050 ABB3DA3C 		.word	1020965803
 10928 0054 9147F03C 		.word	1022379921
 10929 0058 4565033D 		.word	1023632709
 10930 005c 321C0F3D 		.word	1024400434
 10931 0060 78461B3D 		.word	1025197688
 10932 0064 15E4273D 		.word	1026024469
 10933 0068 F1F2343D 		.word	1026880241
 10934 006c F470423D 		.word	1027764468
 10935 0070 1C5E503D 		.word	1028677148
 10936 0074 45B75E3D 		.word	1029617477
 10937 0078 637B6D3D 		.word	1030585187
 10938 007c 76AA7C3D 		.word	1031580278
 10939 0080 AB20863D 		.word	1032200363
 10940 0084 04208E3D 		.word	1032724484
 10941 0088 B151963D 		.word	1033261489
 10942 008c B3B59E3D 		.word	1033811379
 10943 0090 774AA73D 		.word	1034373751
 10944 0094 FE0FB03D 		.word	1034948606
 10945 0098 C005B93D 		.word	1035535808
 10946 009c 2C2AC23D 		.word	1036134956
 10947 00a0 417DCB3D 		.word	1036746049
 10948 00a4 F4FDD43D 		.word	1037368820
 10949 00a8 BDABDE3D 		.word	1038003133
 10950 00ac 0A85E83D 		.word	1038648586
 10951 00b0 618AF23D 		.word	1039305313
 10952 00b4 30BAFC3D 		.word	1039972912
 10953 00b8 F889033E 		.word	1040419320
 10954 00bc 8ECB083E 		.word	1040763790
 10955 00c0 96210E3E 		.word	1041113494
 10956 00c4 488B133E 		.word	1041468232
 10957 00c8 5F08193E 		.word	1041827935
 10958 00cc DD981E3E 		.word	1042192605
 10959 00d0 3A3C243E 		.word	1042562106
 10960 00d4 F1F1293E 		.word	1042936305
 10961 00d8 BFB92F3E 		.word	1043315135
ARM GAS  /tmp/ccYdlVIk.s 			page 195


 10962 00dc 1D93353E 		.word	1043698461
 10963 00e0 0B7E3B3E 		.word	1044086283
 10964 00e4 C079413E 		.word	1044478400
 10965 00e8 3C86473E 		.word	1044874812
 10966 00ec B6A24D3E 		.word	1045275318
 10967 00f0 70CF533E 		.word	1045679984
 10968 00f4 5F0B5A3E 		.word	1046088543
 10969 00f8 8256603E 		.word	1046500994
 10970 00fc 96B0663E 		.word	1046917270
 10971 0100 15196D3E 		.word	1047337237
 10972 0104 7A8F733E 		.word	1047760762
 10973 0108 C2137A3E 		.word	1048187842
 10974 010c 9352803E 		.word	1048597139
 10975 0110 D3A1833E 		.word	1048814035
 10976 0114 5EF7863E 		.word	1049032542
 10977 0118 F0528A3E 		.word	1049252592
 10978 011c 89B48D3E 		.word	1049474185
 10979 0120 E71B913E 		.word	1049697255
 10980 0124 C688943E 		.word	1049921734
 10981 0128 26FB973E 		.word	1050147622
 10982 012c 82729B3E 		.word	1050374786
 10983 0130 1CEF9E3E 		.word	1050603292
 10984 0134 6D70A23E 		.word	1050833005
 10985 0138 77F6A53E 		.word	1051063927
 10986 013c F580A93E 		.word	1051295989
 10987 0140 A60FAD3E 		.word	1051529126
 10988 0144 87A2B03E 		.word	1051763335
 10989 0148 5839B43E 		.word	1051998552
 10990 014c D4D3B73E 		.word	1052234708
 10991 0150 FC71BB3E 		.word	1052471804
 10992 0154 6A13BF3E 		.word	1052709738
 10993 0158 20B8C23E 		.word	1052948512
 10994 015c D95FC63E 		.word	1053188057
 10995 0160 520ACA3E 		.word	1053428306
 10996 0164 8DB7CD3E 		.word	1053669261
 10997 0168 2367D13E 		.word	1053910819
 10998 016c 1519D53E 		.word	1054152981
 10999 0170 FFCCD83E 		.word	1054395647
 11000 0174 0283DC3E 		.word	1054638850
 11001 0178 973AE03E 		.word	1054882455
 11002 017c E0F3E33E 		.word	1055126496
 11003 0180 79AEE73E 		.word	1055370873
 11004 0184 406AEB3E 		.word	1055615552
 11005 0188 F226EF3E 		.word	1055860466
 11006 018c 8FE4F23E 		.word	1056105615
 11007 0190 D3A2F63E 		.word	1056350931
 11008 0194 7C61FA3E 		.word	1056596348
 11009 0198 6820FE3E 		.word	1056841832
 11010 019c CCEF003F 		.word	1057025996
 11011 01a0 42CF023F 		.word	1057148738
 11012 01a4 97AE043F 		.word	1057271447
 11013 01a8 B98D063F 		.word	1057394105
 11014 01ac 876C083F 		.word	1057516679
 11015 01b0 E04A0A3F 		.word	1057639136
 11016 01b4 C3280C3F 		.word	1057761475
 11017 01b8 10060E3F 		.word	1057883664
 11018 01bc B5E20F3F 		.word	1058005685
ARM GAS  /tmp/ccYdlVIk.s 			page 196


 11019 01c0 7FBE113F 		.word	1058127487
 11020 01c4 7099133F 		.word	1058249072
 11021 01c8 7573153F 		.word	1058370421
 11022 01cc 6E4C173F 		.word	1058491502
 11023 01d0 3A24193F 		.word	1058612282
 11024 01d4 D7FA1A3F 		.word	1058732759
 11025 01d8 14D01C3F 		.word	1058852884
 11026 01dc F0A31E3F 		.word	1058972656
 11027 01e0 4B76203F 		.word	1059092043
 11028 01e4 0247223F 		.word	1059211010
 11029 01e8 1616243F 		.word	1059329558
 11030 01ec 54E3253F 		.word	1059447636
 11031 01f0 BCAE273F 		.word	1059565244
 11032 01f4 2D78293F 		.word	1059682349
 11033 01f8 853F2B3F 		.word	1059798917
 11034 01fc C5042D3F 		.word	1059914949
 11035 0200 C9C72E3F 		.word	1060030409
 11036 0204 7288303F 		.word	1060145266
 11037 0208 BF46323F 		.word	1060259519
 11038 020c 7E02343F 		.word	1060373118
 11039 0210 9DBB353F 		.word	1060486045
 11040 0214 0D72373F 		.word	1060598285
 11041 0218 BB25393F 		.word	1060709819
 11042 021c 88D63A3F 		.word	1060820616
 11043 0220 51843C3F 		.word	1060930641
 11044 0224 162F3E3F 		.word	1061039894
 11045 0228 B6D63F3F 		.word	1061148342
 11046 022c 0F7B413F 		.word	1061255951
 11047 0230 221C433F 		.word	1061362722
 11048 0234 BBB9443F 		.word	1061468603
 11049 0238 DA53463F 		.word	1061573594
 11050 023c 60EA473F 		.word	1061677664
 11051 0240 287D493F 		.word	1061780776
 11052 0244 240C4B3F 		.word	1061882916
 11053 0248 53974C3F 		.word	1061984083
 11054 024c 711E4E3F 		.word	1062084209
 11055 0250 90A14F3F 		.word	1062183312
 11056 0254 7D20513F 		.word	1062281341
 11057 0258 399B523F 		.word	1062378297
 11058 025c 9011543F 		.word	1062474128
 11059 0260 8483553F 		.word	1062568836
 11060 0264 F1F0563F 		.word	1062662385
 11061 0268 C959583F 		.word	1062754761
 11062 026c E8BD593F 		.word	1062845928
 11063 0270 2E1D5B3F 		.word	1062935854
 11064 0274 9A775C3F 		.word	1063024538
 11065 0278 1CCD5D3F 		.word	1063111964
 11066 027c 821D5F3F 		.word	1063198082
 11067 0280 BA68603F 		.word	1063282874
 11068 0284 B4AE613F 		.word	1063366324
 11069 0288 5FEF623F 		.word	1063448415
 11070 028c 882A643F 		.word	1063529096
 11071 0290 4260653F 		.word	1063608386
 11072 0294 5890663F 		.word	1063686232
 11073 0298 BABA673F 		.word	1063762618
 11074 029c 48DF683F 		.word	1063837512
 11075 02a0 00FE693F 		.word	1063910912
ARM GAS  /tmp/ccYdlVIk.s 			page 197


 11076 02a4 B1166B3F 		.word	1063982769
 11077 02a8 4A296C3F 		.word	1064053066
 11078 02ac CA356D3F 		.word	1064121802
 11079 02b0 003C6E3F 		.word	1064188928
 11080 02b4 EB3B6F3F 		.word	1064254443
 11081 02b8 5935703F 		.word	1064318297
 11082 02bc 4A28713F 		.word	1064380490
 11083 02c0 8C14723F 		.word	1064440972
 11084 02c4 1EFA723F 		.word	1064499742
 11085 02c8 F1D8733F 		.word	1064556785
 11086 02cc D1B0743F 		.word	1064612049
 11087 02d0 BF81753F 		.word	1064665535
 11088 02d4 994B763F 		.word	1064717209
 11089 02d8 3D0E773F 		.word	1064767037
 11090 02dc ACC9773F 		.word	1064815020
 11091 02e0 C37D783F 		.word	1064861123
 11092 02e4 632A793F 		.word	1064905315
 11093 02e8 78CF793F 		.word	1064947576
 11094 02ec F46C7A3F 		.word	1064987892
 11095 02f0 B4027B3F 		.word	1065026228
 11096 02f4 A8907B3F 		.word	1065062568
 11097 02f8 BE167C3F 		.word	1065096894
 11098 02fc C4947C3F 		.word	1065129156
 11099 0300 CC0A7D3F 		.word	1065159372
 11100 0304 A3787D3F 		.word	1065187491
 11101 0308 27DE7D3F 		.word	1065213479
 11102 030c 583B7E3F 		.word	1065237336
 11103 0310 25907E3F 		.word	1065259045
 11104 0314 5DDC7E3F 		.word	1065278557
 11105 0318 FF1F7F3F 		.word	1065295871
 11106 031c D95A7F3F 		.word	1065310937
 11107 0320 EB8C7F3F 		.word	1065323755
 11108 0324 24B67F3F 		.word	1065334308
 11109 0328 52D67F3F 		.word	1065342546
 11110 032c 63ED7F3F 		.word	1065348451
 11111 0330 59FB7F3F 		.word	1065352025
 11112 0334 0000803F 		.word	1065353216
 11113 0338 C2FA7F3F 		.word	1065351874
 11114 033c 18EB7F3F 		.word	1065347864
 11115 0340 03D17F3F 		.word	1065341187
 11116 0344 60AC7F3F 		.word	1065331808
 11117 0348 637D7F3F 		.word	1065319779
 11118 034c E9437F3F 		.word	1065305065
 11119 0350 04007F3F 		.word	1065287684
 11120 0354 A3B17E3F 		.word	1065267619
 11121 0358 D6587E3F 		.word	1065244886
 11122 035c 8CF57D3F 		.word	1065219468
 11123 0360 D7877D3F 		.word	1065191383
 11124 0364 A60F7D3F 		.word	1065160614
 11125 0368 098D7C3F 		.word	1065127177
 11126 036c 00007C3F 		.word	1065091072
 11127 0370 7B687B3F 		.word	1065052283
 11128 0374 8BC67A3F 		.word	1065010827
 11129 0378 1E1A7A3F 		.word	1064966686
 11130 037c 4563793F 		.word	1064919877
 11131 0380 F1A1783F 		.word	1064870385
 11132 0384 30D6773F 		.word	1064818224
ARM GAS  /tmp/ccYdlVIk.s 			page 198


 11133 0388 0400773F 		.word	1064763396
 11134 038c 5C1F763F 		.word	1064705884
 11135 0390 3734753F 		.word	1064645687
 11136 0394 B83E743F 		.word	1064582840
 11137 0398 AB3E733F 		.word	1064517291
 11138 039c 4434723F 		.word	1064449092
 11139 03a0 601F713F 		.word	1064378208
 11140 03a4 0000703F 		.word	1064304640
 11141 03a8 34D66E3F 		.word	1064228404
 11142 03ac FDA16D3F 		.word	1064149501
 11143 03b0 49636C3F 		.word	1064067913
 11144 03b4 1A1A6B3F 		.word	1063983642
 11145 03b8 8FC6693F 		.word	1063896719
 11146 03bc 7768683F 		.word	1063807095
 11147 03c0 0400673F 		.word	1063714820
 11148 03c4 158D653F 		.word	1063619861
 11149 03c8 AA0F643F 		.word	1063522218
 11150 03cc D387623F 		.word	1063421907
 11151 03d0 90F5603F 		.word	1063318928
 11152 03d4 D1585F3F 		.word	1063213265
 11153 03d8 A7B15D3F 		.word	1063104935
 11154 03dc 00005C3F 		.word	1062993920
 11155 03e0 EE435A3F 		.word	1062880238
 11156 03e4 5F7D583F 		.word	1062763871
 11157 03e8 64AC563F 		.word	1062644836
 11158 03ec FFD0543F 		.word	1062523135
 11159 03f0 1CEB523F 		.word	1062398748
 11160 03f4 BEFA503F 		.word	1062271678
 11161 03f8 04004F3F 		.word	1062141956
 11162 03fc CEFA4C3F 		.word	1062009550
 11163 0400 1CEB4A3F 		.word	1061874460
 11164 0404 FFD0483F 		.word	1061736703
 11165 0408 64AC463F 		.word	1061596260
 11166 040c 5F7D443F 		.word	1061453151
 11167 0410 EE43423F 		.word	1061307374
 11168 0414 0000403F 		.word	1061158912
 11169 0418 A7B13D3F 		.word	1061007783
 11170 041c D1583B3F 		.word	1060853969
 11171 0420 90F5383F 		.word	1060697488
 11172 0424 D387363F 		.word	1060538323
 11173 0428 AA0F343F 		.word	1060376490
 11174 042c 158D313F 		.word	1060211989
 11175 0430 04002F3F 		.word	1060044804
 11176 0434 77682C3F 		.word	1059874935
 11177 0438 8FC6293F 		.word	1059702415
 11178 043c 1A1A273F 		.word	1059527194
 11179 0440 4963243F 		.word	1059349321
 11180 0444 FDA1213F 		.word	1059168765
 11181 0448 34D61E3F 		.word	1058985524
 11182 044c 00001C3F 		.word	1058799616
 11183 0450 601F193F 		.word	1058611040
 11184 0454 4434163F 		.word	1058419780
 11185 0458 AB3E133F 		.word	1058225835
 11186 045c B83E103F 		.word	1058029240
 11187 0460 37340D3F 		.word	1057829943
 11188 0464 5C1F0A3F 		.word	1057627996
 11189 0468 0400073F 		.word	1057423364
ARM GAS  /tmp/ccYdlVIk.s 			page 199


 11190 046c 30D6033F 		.word	1057216048
 11191 0470 F1A1003F 		.word	1057006065
 11192 0474 8BC6FA3E 		.word	1056622219
 11193 0478 3B34F43E 		.word	1056191547
 11194 047c 158DED3E 		.word	1055755541
 11195 0480 F6D0E63E 		.word	1055314166
 11196 0484 0000E03E 		.word	1054867456
 11197 0488 111AD93E 		.word	1054415377
 11198 048c 4B1FD23E 		.word	1053957963
 11199 0490 AE0FCB3E 		.word	1053495214
 11200 0494 18EBC33E 		.word	1053027096
 11201 0498 ABB1BC3E 		.word	1052553643
 11202 049c 4563B53E 		.word	1052074821
 11203 04a0 0800AE3E 		.word	1051590664
 11204 04a4 D387A63E 		.word	1051101139
 11205 04a8 C6FA9E3E 		.word	1050606278
 11206 04ac C158973E 		.word	1050106049
 11207 04b0 05A28F3E 		.word	1049600517
 11208 04b4 30D6873E 		.word	1049089584
 11209 04b8 07EB7F3E 		.word	1048570631
 11210 04bc 0000703E 		.word	1047527424
 11211 04c0 07EB5F3E 		.word	1046473479
 11212 04c4 60AC4F3E 		.word	1045408864
 11213 04c8 C8433F3E 		.word	1044333512
 11214 04cc C4B12E3E 		.word	1043247556
 11215 04d0 8CF51D3E 		.word	1042150796
 11216 04d4 A60F0D3E 		.word	1041043366
 11217 04d8 2200F83D 		.word	1039663138
 11218 04dc 158DD53D 		.word	1037405461
 11219 04e0 ACC6B23D 		.word	1035126444
 11220 04e4 60AC8F3D 		.word	1032825952
 11221 04e8 707D583D 		.word	1029209456
 11222 04ec 59FA103D 		.word	1024522841
 11223 04f0 12A1913C 		.word	1016176914
 11224 04f4 00000000 		.word	0
 11225 04f8 00000000 		.word	0
 11226 04fc 00000000 		.word	0
 11227 0500 00000000 		.word	0
 11228 0504 00000000 		.word	0
 11229 0508 00000000 		.word	0
 11230 050c 00000000 		.word	0
 11231 0510 00000000 		.word	0
 11232 0514 00000000 		.word	0
 11233 0518 00000000 		.word	0
 11234 051c 00000000 		.word	0
 11235 0520 00000000 		.word	0
 11236 0524 00000000 		.word	0
 11237 0528 00000000 		.word	0
 11238 052c 00000000 		.word	0
 11239 0530 00000000 		.word	0
 11240 0534 00000000 		.word	0
 11241 0538 00000000 		.word	0
 11242 053c 00000000 		.word	0
 11243 0540 00000000 		.word	0
 11244 0544 00000000 		.word	0
 11245 0548 00000000 		.word	0
 11246 054c 00000000 		.word	0
ARM GAS  /tmp/ccYdlVIk.s 			page 200


 11247 0550 00000000 		.word	0
 11248 0554 00000000 		.word	0
 11249 0558 00000000 		.word	0
 11250 055c 00000000 		.word	0
 11251 0560 00000000 		.word	0
 11252 0564 00000000 		.word	0
 11253 0568 00000000 		.word	0
 11254 056c 00000000 		.word	0
 11255 0570 00000000 		.word	0
 11256 0574 00000000 		.word	0
 11257 0578 00000000 		.word	0
 11258 057c 00000000 		.word	0
 11259 0580 00000000 		.word	0
 11260 0584 00000000 		.word	0
 11261 0588 00000000 		.word	0
 11262 058c 00000000 		.word	0
 11263 0590 00000000 		.word	0
 11264 0594 00000000 		.word	0
 11265 0598 00000000 		.word	0
 11266 059c 00000000 		.word	0
 11267 05a0 00000000 		.word	0
 11268 05a4 00000000 		.word	0
 11269 05a8 00000000 		.word	0
 11270 05ac 00000000 		.word	0
 11271 05b0 00000000 		.word	0
 11272 05b4 00000000 		.word	0
 11273 05b8 00000000 		.word	0
 11274 05bc 00000000 		.word	0
 11275 05c0 00000000 		.word	0
 11276 05c4 00000000 		.word	0
 11277 05c8 00000000 		.word	0
 11278 05cc 00000000 		.word	0
 11279 05d0 00000000 		.word	0
 11280 05d4 00000000 		.word	0
 11281 05d8 00000000 		.word	0
 11282 05dc 00000000 		.word	0
 11283 05e0 00000000 		.word	0
 11284 05e4 00000000 		.word	0
 11285 05e8 00000000 		.word	0
 11286 05ec 00000000 		.word	0
 11287 05f0 00000000 		.word	0
 11288 05f4 00000000 		.word	0
 11289 05f8 00000000 		.word	0
 11290 05fc 00000000 		.word	0
 11291 0600 00000000 		.word	0
 11292 0604 00000000 		.word	0
 11293 0608 00000000 		.word	0
 11294 060c 00000000 		.word	0
 11295 0610 00000000 		.word	0
 11296 0614 00000000 		.word	0
 11297 0618 00000000 		.word	0
 11298 061c 00000000 		.word	0
 11299 0620 00000000 		.word	0
 11300 0624 00000000 		.word	0
 11301 0628 00000000 		.word	0
 11302 062c 00000000 		.word	0
 11303 0630 00000000 		.word	0
ARM GAS  /tmp/ccYdlVIk.s 			page 201


 11304 0634 00000000 		.word	0
 11305 0638 00000000 		.word	0
 11306 063c 00000000 		.word	0
 11307 0640 00000000 		.word	0
 11308 0644 00000000 		.word	0
 11309 0648 00000000 		.word	0
 11310 064c 00000000 		.word	0
 11311 0650 00000000 		.word	0
 11312 0654 00000000 		.word	0
 11313 0658 00000000 		.word	0
 11314 065c 00000000 		.word	0
 11315 0660 00000000 		.word	0
 11316 0664 00000000 		.word	0
 11317 0668 00000000 		.word	0
 11318 066c 00000000 		.word	0
 11319 0670 00000000 		.word	0
 11320 0674 00000000 		.word	0
 11321 0678 00000000 		.word	0
 11322 067c 00000000 		.word	0
 11323 0680 00000000 		.word	0
 11324 0684 00000000 		.word	0
 11325 0688 00000000 		.word	0
 11326 068c 00000000 		.word	0
 11327 0690 00000000 		.word	0
 11328 0694 00000000 		.word	0
 11329 0698 00000000 		.word	0
 11330 069c 00000000 		.word	0
 11331 06a0 00000000 		.word	0
 11332 06a4 00000000 		.word	0
 11333 06a8 00000000 		.word	0
 11334 06ac 00000000 		.word	0
 11335 06b0 00000000 		.word	0
 11336 06b4 00000000 		.word	0
 11337 06b8 00000000 		.word	0
 11338 06bc 00000000 		.word	0
 11339 06c0 00000000 		.word	0
 11340 06c4 00000000 		.word	0
 11341 06c8 00000000 		.word	0
 11342 06cc 00000000 		.word	0
 11343 06d0 00000000 		.word	0
 11344 06d4 00000000 		.word	0
 11345 06d8 00000000 		.word	0
 11346 06dc 00000000 		.word	0
 11347 06e0 00000000 		.word	0
 11348 06e4 00000000 		.word	0
 11349 06e8 00000000 		.word	0
 11350 06ec 00000000 		.word	0
 11351 06f0 00000000 		.word	0
 11352 06f4 00000000 		.word	0
 11353 06f8 00000000 		.word	0
 11354 06fc 00000000 		.word	0
 11355 0700 00000000 		.word	0
 11356 0704 00000000 		.word	0
 11357 0708 00000000 		.word	0
 11358 070c 00000000 		.word	0
 11359 0710 00000000 		.word	0
 11360 0714 00000000 		.word	0
ARM GAS  /tmp/ccYdlVIk.s 			page 202


 11361 0718 00000000 		.word	0
 11362 071c 00000000 		.word	0
 11363 0720 00000000 		.word	0
 11364 0724 00000000 		.word	0
 11365 0728 00000000 		.word	0
 11366 072c 00000000 		.word	0
 11367 0730 00000000 		.word	0
 11368 0734 00000000 		.word	0
 11369 0738 00000000 		.word	0
 11370 073c 00000000 		.word	0
 11371 0740 00000000 		.word	0
 11372 0744 00000000 		.word	0
 11373 0748 00000000 		.word	0
 11374 074c 00000000 		.word	0
 11375 0750 00000000 		.word	0
 11376 0754 00000000 		.word	0
 11377 0758 00000000 		.word	0
 11378 075c 00000000 		.word	0
 11379 0760 00000000 		.word	0
 11380 0764 00000000 		.word	0
 11381 0768 00000000 		.word	0
 11382 076c 00000000 		.word	0
 11383 0770 00000000 		.word	0
 11384 0774 00000000 		.word	0
 11385 0778 00000000 		.word	0
 11386 077c 00000000 		.word	0
 11387 0780 00000000 		.word	0
 11388 0784 00000000 		.word	0
 11389 0788 00000000 		.word	0
 11390 078c 00000000 		.word	0
 11391 0790 00000000 		.word	0
 11392 0794 00000000 		.word	0
 11393 0798 00000000 		.word	0
 11394 079c 00000000 		.word	0
 11395 07a0 00000000 		.word	0
 11396 07a4 00000000 		.word	0
 11397 07a8 00000000 		.word	0
 11398 07ac 00000000 		.word	0
 11399 07b0 00000000 		.word	0
 11400 07b4 00000000 		.word	0
 11401 07b8 00000000 		.word	0
 11402 07bc 00000000 		.word	0
 11403 07c0 00000000 		.word	0
 11404 07c4 00000000 		.word	0
 11405 07c8 00000000 		.word	0
 11406 07cc 00000000 		.word	0
 11407 07d0 00000000 		.word	0
 11408 07d4 00000000 		.word	0
 11409 07d8 00000000 		.word	0
 11410 07dc 00000000 		.word	0
 11411 07e0 00000000 		.word	0
 11412 07e4 00000000 		.word	0
 11413 07e8 00000000 		.word	0
 11414 07ec 00000000 		.word	0
 11415 07f0 00000000 		.word	0
 11416 07f4 00000000 		.word	0
 11417 07f8 00000000 		.word	0
ARM GAS  /tmp/ccYdlVIk.s 			page 203


 11418 07fc 00000000 		.word	0
 11419              		.section	.rodata.pulsetable001,"a"
 11420              		.align	2
 11421              		.type	pulsetable001, %object
 11422              		.size	pulsetable001, 2048
 11423              	pulsetable001:
 11424 0000 00000000 		.word	0
 11425 0004 D6E59438 		.word	949282262
 11426 0008 D6E59439 		.word	966059478
 11427 000c 3DB9263A 		.word	975616317
 11428 0010 D8B7933A 		.word	982759384
 11429 0014 9529E63A 		.word	988162453
 11430 0018 9626253B 		.word	992290454
 11431 001c 8600603B 		.word	996147334
 11432 0020 4ED1913B 		.word	999412046
 11433 0024 42EDB73B 		.word	1001909570
 11434 0028 BA4BE23B 		.word	1004686266
 11435 002c 5C76083C 		.word	1007187548
 11436 0030 56D7213C 		.word	1008850774
 11437 0034 FD4C3D3C 		.word	1010650365
 11438 0038 EECE5A3C 		.word	1012584174
 11439 003c 94507A3C 		.word	1014648980
 11440 0040 10EB8D3C 		.word	1015933712
 11441 0044 7EA99F3C 		.word	1017096574
 11442 0048 7C61B23C 		.word	1018323324
 11443 004c F110C63C 		.word	1019613425
 11444 0050 ABB3DA3C 		.word	1020965803
 11445 0054 9147F03C 		.word	1022379921
 11446 0058 4565033D 		.word	1023632709
 11447 005c 321C0F3D 		.word	1024400434
 11448 0060 78461B3D 		.word	1025197688
 11449 0064 15E4273D 		.word	1026024469
 11450 0068 F1F2343D 		.word	1026880241
 11451 006c F470423D 		.word	1027764468
 11452 0070 1C5E503D 		.word	1028677148
 11453 0074 45B75E3D 		.word	1029617477
 11454 0078 637B6D3D 		.word	1030585187
 11455 007c 76AA7C3D 		.word	1031580278
 11456 0080 AB20863D 		.word	1032200363
 11457 0084 04208E3D 		.word	1032724484
 11458 0088 B151963D 		.word	1033261489
 11459 008c B3B59E3D 		.word	1033811379
 11460 0090 774AA73D 		.word	1034373751
 11461 0094 FE0FB03D 		.word	1034948606
 11462 0098 C005B93D 		.word	1035535808
 11463 009c 2C2AC23D 		.word	1036134956
 11464 00a0 417DCB3D 		.word	1036746049
 11465 00a4 F4FDD43D 		.word	1037368820
 11466 00a8 BDABDE3D 		.word	1038003133
 11467 00ac 0A85E83D 		.word	1038648586
 11468 00b0 618AF23D 		.word	1039305313
 11469 00b4 30BAFC3D 		.word	1039972912
 11470 00b8 F889033E 		.word	1040419320
 11471 00bc 8ECB083E 		.word	1040763790
 11472 00c0 96210E3E 		.word	1041113494
 11473 00c4 488B133E 		.word	1041468232
 11474 00c8 5F08193E 		.word	1041827935
ARM GAS  /tmp/ccYdlVIk.s 			page 204


 11475 00cc DD981E3E 		.word	1042192605
 11476 00d0 3A3C243E 		.word	1042562106
 11477 00d4 F1F1293E 		.word	1042936305
 11478 00d8 BFB92F3E 		.word	1043315135
 11479 00dc 1D93353E 		.word	1043698461
 11480 00e0 0B7E3B3E 		.word	1044086283
 11481 00e4 C079413E 		.word	1044478400
 11482 00e8 3C86473E 		.word	1044874812
 11483 00ec B6A24D3E 		.word	1045275318
 11484 00f0 70CF533E 		.word	1045679984
 11485 00f4 5F0B5A3E 		.word	1046088543
 11486 00f8 8256603E 		.word	1046500994
 11487 00fc 96B0663E 		.word	1046917270
 11488 0100 15196D3E 		.word	1047337237
 11489 0104 7A8F733E 		.word	1047760762
 11490 0108 C2137A3E 		.word	1048187842
 11491 010c 9352803E 		.word	1048597139
 11492 0110 D3A1833E 		.word	1048814035
 11493 0114 5EF7863E 		.word	1049032542
 11494 0118 F0528A3E 		.word	1049252592
 11495 011c 89B48D3E 		.word	1049474185
 11496 0120 E71B913E 		.word	1049697255
 11497 0124 C688943E 		.word	1049921734
 11498 0128 26FB973E 		.word	1050147622
 11499 012c 82729B3E 		.word	1050374786
 11500 0130 1CEF9E3E 		.word	1050603292
 11501 0134 6D70A23E 		.word	1050833005
 11502 0138 77F6A53E 		.word	1051063927
 11503 013c F580A93E 		.word	1051295989
 11504 0140 A60FAD3E 		.word	1051529126
 11505 0144 87A2B03E 		.word	1051763335
 11506 0148 5839B43E 		.word	1051998552
 11507 014c D4D3B73E 		.word	1052234708
 11508 0150 FC71BB3E 		.word	1052471804
 11509 0154 6A13BF3E 		.word	1052709738
 11510 0158 20B8C23E 		.word	1052948512
 11511 015c D95FC63E 		.word	1053188057
 11512 0160 520ACA3E 		.word	1053428306
 11513 0164 8DB7CD3E 		.word	1053669261
 11514 0168 2367D13E 		.word	1053910819
 11515 016c 1519D53E 		.word	1054152981
 11516 0170 FFCCD83E 		.word	1054395647
 11517 0174 0283DC3E 		.word	1054638850
 11518 0178 973AE03E 		.word	1054882455
 11519 017c E0F3E33E 		.word	1055126496
 11520 0180 79AEE73E 		.word	1055370873
 11521 0184 406AEB3E 		.word	1055615552
 11522 0188 F226EF3E 		.word	1055860466
 11523 018c 8FE4F23E 		.word	1056105615
 11524 0190 D3A2F63E 		.word	1056350931
 11525 0194 7C61FA3E 		.word	1056596348
 11526 0198 6820FE3E 		.word	1056841832
 11527 019c CCEF003F 		.word	1057025996
 11528 01a0 42CF023F 		.word	1057148738
 11529 01a4 97AE043F 		.word	1057271447
 11530 01a8 B98D063F 		.word	1057394105
 11531 01ac 876C083F 		.word	1057516679
ARM GAS  /tmp/ccYdlVIk.s 			page 205


 11532 01b0 E04A0A3F 		.word	1057639136
 11533 01b4 C3280C3F 		.word	1057761475
 11534 01b8 10060E3F 		.word	1057883664
 11535 01bc B5E20F3F 		.word	1058005685
 11536 01c0 7FBE113F 		.word	1058127487
 11537 01c4 7099133F 		.word	1058249072
 11538 01c8 7573153F 		.word	1058370421
 11539 01cc 6E4C173F 		.word	1058491502
 11540 01d0 3A24193F 		.word	1058612282
 11541 01d4 D7FA1A3F 		.word	1058732759
 11542 01d8 14D01C3F 		.word	1058852884
 11543 01dc F0A31E3F 		.word	1058972656
 11544 01e0 4B76203F 		.word	1059092043
 11545 01e4 0247223F 		.word	1059211010
 11546 01e8 1616243F 		.word	1059329558
 11547 01ec 54E3253F 		.word	1059447636
 11548 01f0 BCAE273F 		.word	1059565244
 11549 01f4 2D78293F 		.word	1059682349
 11550 01f8 853F2B3F 		.word	1059798917
 11551 01fc C5042D3F 		.word	1059914949
 11552 0200 C9C72E3F 		.word	1060030409
 11553 0204 7288303F 		.word	1060145266
 11554 0208 BF46323F 		.word	1060259519
 11555 020c 7E02343F 		.word	1060373118
 11556 0210 9DBB353F 		.word	1060486045
 11557 0214 0D72373F 		.word	1060598285
 11558 0218 BB25393F 		.word	1060709819
 11559 021c 88D63A3F 		.word	1060820616
 11560 0220 51843C3F 		.word	1060930641
 11561 0224 162F3E3F 		.word	1061039894
 11562 0228 B6D63F3F 		.word	1061148342
 11563 022c 0F7B413F 		.word	1061255951
 11564 0230 221C433F 		.word	1061362722
 11565 0234 BBB9443F 		.word	1061468603
 11566 0238 DA53463F 		.word	1061573594
 11567 023c 60EA473F 		.word	1061677664
 11568 0240 287D493F 		.word	1061780776
 11569 0244 240C4B3F 		.word	1061882916
 11570 0248 53974C3F 		.word	1061984083
 11571 024c 711E4E3F 		.word	1062084209
 11572 0250 90A14F3F 		.word	1062183312
 11573 0254 7D20513F 		.word	1062281341
 11574 0258 399B523F 		.word	1062378297
 11575 025c 9011543F 		.word	1062474128
 11576 0260 8483553F 		.word	1062568836
 11577 0264 F1F0563F 		.word	1062662385
 11578 0268 C959583F 		.word	1062754761
 11579 026c E8BD593F 		.word	1062845928
 11580 0270 2E1D5B3F 		.word	1062935854
 11581 0274 9A775C3F 		.word	1063024538
 11582 0278 1CCD5D3F 		.word	1063111964
 11583 027c 821D5F3F 		.word	1063198082
 11584 0280 BA68603F 		.word	1063282874
 11585 0284 B4AE613F 		.word	1063366324
 11586 0288 5FEF623F 		.word	1063448415
 11587 028c 882A643F 		.word	1063529096
 11588 0290 4260653F 		.word	1063608386
ARM GAS  /tmp/ccYdlVIk.s 			page 206


 11589 0294 5890663F 		.word	1063686232
 11590 0298 BABA673F 		.word	1063762618
 11591 029c 48DF683F 		.word	1063837512
 11592 02a0 00FE693F 		.word	1063910912
 11593 02a4 B1166B3F 		.word	1063982769
 11594 02a8 4A296C3F 		.word	1064053066
 11595 02ac CA356D3F 		.word	1064121802
 11596 02b0 003C6E3F 		.word	1064188928
 11597 02b4 EB3B6F3F 		.word	1064254443
 11598 02b8 5935703F 		.word	1064318297
 11599 02bc 4A28713F 		.word	1064380490
 11600 02c0 8C14723F 		.word	1064440972
 11601 02c4 1EFA723F 		.word	1064499742
 11602 02c8 F1D8733F 		.word	1064556785
 11603 02cc D1B0743F 		.word	1064612049
 11604 02d0 BF81753F 		.word	1064665535
 11605 02d4 994B763F 		.word	1064717209
 11606 02d8 3D0E773F 		.word	1064767037
 11607 02dc ACC9773F 		.word	1064815020
 11608 02e0 C37D783F 		.word	1064861123
 11609 02e4 632A793F 		.word	1064905315
 11610 02e8 78CF793F 		.word	1064947576
 11611 02ec F46C7A3F 		.word	1064987892
 11612 02f0 B4027B3F 		.word	1065026228
 11613 02f4 A8907B3F 		.word	1065062568
 11614 02f8 BE167C3F 		.word	1065096894
 11615 02fc C4947C3F 		.word	1065129156
 11616 0300 CC0A7D3F 		.word	1065159372
 11617 0304 A3787D3F 		.word	1065187491
 11618 0308 27DE7D3F 		.word	1065213479
 11619 030c 583B7E3F 		.word	1065237336
 11620 0310 25907E3F 		.word	1065259045
 11621 0314 5DDC7E3F 		.word	1065278557
 11622 0318 FF1F7F3F 		.word	1065295871
 11623 031c D95A7F3F 		.word	1065310937
 11624 0320 EB8C7F3F 		.word	1065323755
 11625 0324 24B67F3F 		.word	1065334308
 11626 0328 52D67F3F 		.word	1065342546
 11627 032c 63ED7F3F 		.word	1065348451
 11628 0330 59FB7F3F 		.word	1065352025
 11629 0334 0000803F 		.word	1065353216
 11630 0338 93FD7F3F 		.word	1065352595
 11631 033c 3CF67F3F 		.word	1065350716
 11632 0340 0CEA7F3F 		.word	1065347596
 11633 0344 02D97F3F 		.word	1065343234
 11634 0348 0DC37F3F 		.word	1065337613
 11635 034c 50A87F3F 		.word	1065330768
 11636 0350 98887F3F 		.word	1065322648
 11637 0354 06647F3F 		.word	1065313286
 11638 0358 9B3A7F3F 		.word	1065302683
 11639 035c 560C7F3F 		.word	1065290838
 11640 0360 27D97E3F 		.word	1065277735
 11641 0364 1FA17E3F 		.word	1065263391
 11642 0368 3D647E3F 		.word	1065247805
 11643 036c 70227E3F 		.word	1065230960
 11644 0370 BADB7D3F 		.word	1065212858
 11645 0374 3A907D3F 		.word	1065193530
ARM GAS  /tmp/ccYdlVIk.s 			page 207


 11646 0378 D13F7D3F 		.word	1065172945
 11647 037c 8EEA7C3F 		.word	1065151118
 11648 0380 60907C3F 		.word	1065128032
 11649 0384 59317C3F 		.word	1065103705
 11650 0388 79CD7B3F 		.word	1065078137
 11651 038c AE647B3F 		.word	1065051310
 11652 0390 0AF77A3F 		.word	1065023242
 11653 0394 7B847A3F 		.word	1064993915
 11654 0398 130D7A3F 		.word	1064963347
 11655 039c D190793F 		.word	1064931537
 11656 03a0 B60F793F 		.word	1064898486
 11657 03a4 B189783F 		.word	1064864177
 11658 03a8 C1FE773F 		.word	1064828609
 11659 03ac 096F773F 		.word	1064791817
 11660 03b0 66DA763F 		.word	1064753766
 11661 03b4 D940763F 		.word	1064714457
 11662 03b8 83A2753F 		.word	1064673923
 11663 03bc 43FF743F 		.word	1064632131
 11664 03c0 1957743F 		.word	1064589081
 11665 03c4 15AA733F 		.word	1064544789
 11666 03c8 38F8723F 		.word	1064499256
 11667 03cc 8141723F 		.word	1064452481
 11668 03d0 E085713F 		.word	1064404448
 11669 03d4 65C5703F 		.word	1064355173
 11670 03d8 0000703F 		.word	1064304640
 11671 03dc C2356F3F 		.word	1064252866
 11672 03e0 AA666E3F 		.word	1064199850
 11673 03e4 A7926D3F 		.word	1064145575
 11674 03e8 CBB96C3F 		.word	1064090059
 11675 03ec 16DC6B3F 		.word	1064033302
 11676 03f0 76F96A3F 		.word	1063975286
 11677 03f4 FD116A3F 		.word	1063916029
 11678 03f8 9A25693F 		.word	1063855514
 11679 03fc 5D34683F 		.word	1063793757
 11680 0400 473E673F 		.word	1063730759
 11681 0404 5743663F 		.word	1063666519
 11682 0408 7C43653F 		.word	1063601020
 11683 040c B83E643F 		.word	1063534264
 11684 0410 2B35633F 		.word	1063466283
 11685 0414 B326623F 		.word	1063397043
 11686 0418 5113613F 		.word	1063326545
 11687 041c 26FB5F3F 		.word	1063254822
 11688 0420 12DE5E3F 		.word	1063181842
 11689 0424 12BC5D3F 		.word	1063107602
 11690 0428 3A955C3F 		.word	1063032122
 11691 042c 88695B3F 		.word	1062955400
 11692 0430 FC385A3F 		.word	1062877436
 11693 0434 8603593F 		.word	1062798214
 11694 0438 25C9573F 		.word	1062717733
 11695 043c FC89563F 		.word	1062636028
 11696 0440 E945553F 		.word	1062553065
 11697 0444 FCFC533F 		.word	1062468860
 11698 0448 25AF523F 		.word	1062383397
 11699 044c 745C513F 		.word	1062296692
 11700 0450 DA04503F 		.word	1062208730
 11701 0454 76A84E3F 		.word	1062119542
 11702 0458 17474D3F 		.word	1062029079
ARM GAS  /tmp/ccYdlVIk.s 			page 208


 11703 045c F0E04B3F 		.word	1061937392
 11704 0460 DE754A3F 		.word	1061844446
 11705 0464 F305493F 		.word	1061750259
 11706 0468 1D91473F 		.word	1061654813
 11707 046c 6E17463F 		.word	1061558126
 11708 0470 E598443F 		.word	1061460197
 11709 0474 7215433F 		.word	1061361010
 11710 0478 268D413F 		.word	1061260582
 11711 047c 0000403F 		.word	1061158912
 11712 0480 F06D3E3F 		.word	1061055984
 11713 0484 06D73C3F 		.word	1060951814
 11714 0488 433B3B3F 		.word	1060846403
 11715 048c 959A393F 		.word	1060739733
 11716 0490 0EF5373F 		.word	1060631822
 11717 0494 9D4A363F 		.word	1060522653
 11718 0498 529B343F 		.word	1060412242
 11719 049c 2EE7323F 		.word	1060300590
 11720 04a0 1F2E313F 		.word	1060187679
 11721 04a4 37702F3F 		.word	1060073527
 11722 04a8 75AD2D3F 		.word	1059958133
 11723 04ac C9E52B3F 		.word	1059841481
 11724 04b0 44192A3F 		.word	1059723588
 11725 04b4 E547283F 		.word	1059604453
 11726 04b8 9B71263F 		.word	1059484059
 11727 04bc 7896243F 		.word	1059362424
 11728 04c0 6BB6223F 		.word	1059239531
 11729 04c4 85D1203F 		.word	1059115397
 11730 04c8 C5E71E3F 		.word	1058990021
 11731 04cc 2BF91C3F 		.word	1058863403
 11732 04d0 A7051B3F 		.word	1058735527
 11733 04d4 390D193F 		.word	1058606393
 11734 04d8 0210173F 		.word	1058476034
 11735 04dc E10D153F 		.word	1058344417
 11736 04e0 D506133F 		.word	1058211541
 11737 04e4 01FB103F 		.word	1058077441
 11738 04e8 31EA0E3F 		.word	1057942065
 11739 04ec 99D40C3F 		.word	1057805465
 11740 04f0 17BA0A3F 		.word	1057667607
 11741 04f4 BB9A083F 		.word	1057528507
 11742 04f8 7576063F 		.word	1057388149
 11743 04fc 554D043F 		.word	1057246549
 11744 0500 5C1F023F 		.word	1057103708
 11745 0504 12D9FF3E 		.word	1056954642
 11746 0508 9869FB3E 		.word	1056663960
 11747 050c 4AF0F63E 		.word	1056370762
 11748 0510 486DF23E 		.word	1056075080
 11749 0514 93E0ED3E 		.word	1055776915
 11750 0518 2C4AE93E 		.word	1055476268
 11751 051c EFA9E43E 		.word	1055173103
 11752 0520 0000E03E 		.word	1054867456
 11753 0524 3C4CDB3E 		.word	1054559292
 11754 0528 E78ED63E 		.word	1054248679
 11755 052c 9BC7D13E 		.word	1053935515
 11756 0530 BEF6CC3E 		.word	1053619902
 11757 0534 0D1CC83E 		.word	1053301773
 11758 0538 8637C33E 		.word	1052981126
 11759 053c 6F49BE3E 		.word	1052658031
ARM GAS  /tmp/ccYdlVIk.s 			page 209


 11760 0540 8351B93E 		.word	1052332419
 11761 0544 C24FB43E 		.word	1052004290
 11762 0548 7044AF3E 		.word	1051673712
 11763 054c 272FAA3E 		.word	1051340583
 11764 0550 4D10A53E 		.word	1051005005
 11765 0554 9FE79F3E 		.word	1050666911
 11766 0558 3DB59A3E 		.word	1050326333
 11767 055c 0779953E 		.word	1049983239
 11768 0560 1E33903E 		.word	1049637662
 11769 0564 82E38A3E 		.word	1049289602
 11770 0568 118A853E 		.word	1048939025
 11771 056c EE26803E 		.word	1048585966
 11772 0570 2E74753E 		.word	1047884846
 11773 0574 D7866A3E 		.word	1047168727
 11774 0578 1A865F3E 		.word	1046447642
 11775 057c F871543E 		.word	1045721592
 11776 0580 2C4A493E 		.word	1044990508
 11777 0584 FA0E3E3E 		.word	1044254458
 11778 0588 1EC0323E 		.word	1043513374
 11779 058c DD5D273E 		.word	1042767325
 11780 0590 36E81B3E 		.word	1042016310
 11781 0594 E55E103E 		.word	1041260261
 11782 0598 72C2043E 		.word	1040499314
 11783 059c 2524F23D 		.word	1039279141
 11784 05a0 1F9DDA3D 		.word	1037737247
 11785 05a4 42EEC23D 		.word	1036185154
 11786 05a8 1E19AB3D 		.word	1034623262
 11787 05ac A81C933D 		.word	1033051304
 11788 05b0 CBF2753D 		.word	1031140043
 11789 05b4 AF5E453D 		.word	1027956399
 11790 05b8 EE7B143D 		.word	1024752622
 11791 05bc 1095C63C 		.word	1019647248
 11792 05c0 5932473C 		.word	1011298905
 11793 05c4 00000000 		.word	0
 11794 05c8 00000000 		.word	0
 11795 05cc 00000000 		.word	0
 11796 05d0 00000000 		.word	0
 11797 05d4 00000000 		.word	0
 11798 05d8 00000000 		.word	0
 11799 05dc 00000000 		.word	0
 11800 05e0 00000000 		.word	0
 11801 05e4 00000000 		.word	0
 11802 05e8 00000000 		.word	0
 11803 05ec 00000000 		.word	0
 11804 05f0 00000000 		.word	0
 11805 05f4 00000000 		.word	0
 11806 05f8 00000000 		.word	0
 11807 05fc 00000000 		.word	0
 11808 0600 00000000 		.word	0
 11809 0604 00000000 		.word	0
 11810 0608 00000000 		.word	0
 11811 060c 00000000 		.word	0
 11812 0610 00000000 		.word	0
 11813 0614 00000000 		.word	0
 11814 0618 00000000 		.word	0
 11815 061c 00000000 		.word	0
 11816 0620 00000000 		.word	0
ARM GAS  /tmp/ccYdlVIk.s 			page 210


 11817 0624 00000000 		.word	0
 11818 0628 00000000 		.word	0
 11819 062c 00000000 		.word	0
 11820 0630 00000000 		.word	0
 11821 0634 00000000 		.word	0
 11822 0638 00000000 		.word	0
 11823 063c 00000000 		.word	0
 11824 0640 00000000 		.word	0
 11825 0644 00000000 		.word	0
 11826 0648 00000000 		.word	0
 11827 064c 00000000 		.word	0
 11828 0650 00000000 		.word	0
 11829 0654 00000000 		.word	0
 11830 0658 00000000 		.word	0
 11831 065c 00000000 		.word	0
 11832 0660 00000000 		.word	0
 11833 0664 00000000 		.word	0
 11834 0668 00000000 		.word	0
 11835 066c 00000000 		.word	0
 11836 0670 00000000 		.word	0
 11837 0674 00000000 		.word	0
 11838 0678 00000000 		.word	0
 11839 067c 00000000 		.word	0
 11840 0680 00000000 		.word	0
 11841 0684 00000000 		.word	0
 11842 0688 00000000 		.word	0
 11843 068c 00000000 		.word	0
 11844 0690 00000000 		.word	0
 11845 0694 00000000 		.word	0
 11846 0698 00000000 		.word	0
 11847 069c 00000000 		.word	0
 11848 06a0 00000000 		.word	0
 11849 06a4 00000000 		.word	0
 11850 06a8 00000000 		.word	0
 11851 06ac 00000000 		.word	0
 11852 06b0 00000000 		.word	0
 11853 06b4 00000000 		.word	0
 11854 06b8 00000000 		.word	0
 11855 06bc 00000000 		.word	0
 11856 06c0 00000000 		.word	0
 11857 06c4 00000000 		.word	0
 11858 06c8 00000000 		.word	0
 11859 06cc 00000000 		.word	0
 11860 06d0 00000000 		.word	0
 11861 06d4 00000000 		.word	0
 11862 06d8 00000000 		.word	0
 11863 06dc 00000000 		.word	0
 11864 06e0 00000000 		.word	0
 11865 06e4 00000000 		.word	0
 11866 06e8 00000000 		.word	0
 11867 06ec 00000000 		.word	0
 11868 06f0 00000000 		.word	0
 11869 06f4 00000000 		.word	0
 11870 06f8 00000000 		.word	0
 11871 06fc 00000000 		.word	0
 11872 0700 00000000 		.word	0
 11873 0704 00000000 		.word	0
ARM GAS  /tmp/ccYdlVIk.s 			page 211


 11874 0708 00000000 		.word	0
 11875 070c 00000000 		.word	0
 11876 0710 00000000 		.word	0
 11877 0714 00000000 		.word	0
 11878 0718 00000000 		.word	0
 11879 071c 00000000 		.word	0
 11880 0720 00000000 		.word	0
 11881 0724 00000000 		.word	0
 11882 0728 00000000 		.word	0
 11883 072c 00000000 		.word	0
 11884 0730 00000000 		.word	0
 11885 0734 00000000 		.word	0
 11886 0738 00000000 		.word	0
 11887 073c 00000000 		.word	0
 11888 0740 00000000 		.word	0
 11889 0744 00000000 		.word	0
 11890 0748 00000000 		.word	0
 11891 074c 00000000 		.word	0
 11892 0750 00000000 		.word	0
 11893 0754 00000000 		.word	0
 11894 0758 00000000 		.word	0
 11895 075c 00000000 		.word	0
 11896 0760 00000000 		.word	0
 11897 0764 00000000 		.word	0
 11898 0768 00000000 		.word	0
 11899 076c 00000000 		.word	0
 11900 0770 00000000 		.word	0
 11901 0774 00000000 		.word	0
 11902 0778 00000000 		.word	0
 11903 077c 00000000 		.word	0
 11904 0780 00000000 		.word	0
 11905 0784 00000000 		.word	0
 11906 0788 00000000 		.word	0
 11907 078c 00000000 		.word	0
 11908 0790 00000000 		.word	0
 11909 0794 00000000 		.word	0
 11910 0798 00000000 		.word	0
 11911 079c 00000000 		.word	0
 11912 07a0 00000000 		.word	0
 11913 07a4 00000000 		.word	0
 11914 07a8 00000000 		.word	0
 11915 07ac 00000000 		.word	0
 11916 07b0 00000000 		.word	0
 11917 07b4 00000000 		.word	0
 11918 07b8 00000000 		.word	0
 11919 07bc 00000000 		.word	0
 11920 07c0 00000000 		.word	0
 11921 07c4 00000000 		.word	0
 11922 07c8 00000000 		.word	0
 11923 07cc 00000000 		.word	0
 11924 07d0 00000000 		.word	0
 11925 07d4 00000000 		.word	0
 11926 07d8 00000000 		.word	0
 11927 07dc 00000000 		.word	0
 11928 07e0 00000000 		.word	0
 11929 07e4 00000000 		.word	0
 11930 07e8 00000000 		.word	0
ARM GAS  /tmp/ccYdlVIk.s 			page 212


 11931 07ec 00000000 		.word	0
 11932 07f0 00000000 		.word	0
 11933 07f4 00000000 		.word	0
 11934 07f8 00000000 		.word	0
 11935 07fc 00000000 		.word	0
 11936              		.section	.rodata.pulsetable000,"a"
 11937              		.align	2
 11938              		.type	pulsetable000, %object
 11939              		.size	pulsetable000, 2048
 11940              	pulsetable000:
 11941 0000 00000000 		.word	0
 11942 0004 DE1E0439 		.word	956571358
 11943 0008 A698033A 		.word	973314214
 11944 000c 2E53933A 		.word	982733614
 11945 0010 E259023B 		.word	990009826
 11946 0014 B5C44A3B 		.word	994755765
 11947 0018 DD5B913B 		.word	999381981
 11948 001c ECF7C43B 		.word	1002764268
 11949 0020 7C0A003C 		.word	1006635644
 11950 0024 5055213C 		.word	1008817488
 11951 0028 7847463C 		.word	1011238776
 11952 002c 5FD46E3C 		.word	1013896287
 11953 0030 B8778D3C 		.word	1015904184
 11954 0034 0B46A53C 		.word	1017464331
 11955 0038 C4CCBE3C 		.word	1019137220
 11956 003c 9A05DA3C 		.word	1020921242
 11957 0040 29E8F63C 		.word	1022814249
 11958 0044 20B80A3D 		.word	1024112672
 11959 0048 BCCA1A3D 		.word	1025166012
 11960 004c C6A82B3D 		.word	1026271430
 11961 0050 164F3D3D 		.word	1027428118
 11962 0054 7CB94F3D 		.word	1028635004
 11963 0058 D2E4623D 		.word	1029891282
 11964 005c E6CC763D 		.word	1031195878
 11965 0060 D0B7853D 		.word	1032173520
 11966 0064 6764903D 		.word	1032873063
 11967 0068 A56A9B3D 		.word	1033595557
 11968 006c F7C8A63D 		.word	1034340599
 11969 0070 467DB23D 		.word	1035107654
 11970 0074 7785BE3D 		.word	1035896183
 11971 0078 05E1CA3D 		.word	1036706053
 11972 007c 508DD73D 		.word	1037536592
 11973 0080 C688E43D 		.word	1038387398
 11974 0084 D4D1F13D 		.word	1039258068
 11975 0088 6266FF3D 		.word	1040148066
 11976 008c B1A2063E 		.word	1040622257
 11977 0090 5FB60D3E 		.word	1041086047
 11978 0094 2DED143E 		.word	1041558829
 11979 0098 95461C3E 		.word	1042040469
 11980 009c 8BC1233E 		.word	1042530699
 11981 00a0 465D2B3E 		.word	1043029318
 11982 00a4 FC18333E 		.word	1043536124
 11983 00a8 A1F33A3E 		.word	1044050849
 11984 00ac 29EC423E 		.word	1044573225
 11985 00b0 4F024B3E 		.word	1045103183
 11986 00b4 C634533E 		.word	1045640390
 11987 00b8 C3825B3E 		.word	1046184643
ARM GAS  /tmp/ccYdlVIk.s 			page 213


 11988 00bc 7DEB633E 		.word	1046735741
 11989 00c0 E76D6C3E 		.word	1047293415
 11990 00c4 7D09753E 		.word	1047857533
 11991 00c8 EDBC7D3E 		.word	1048427757
 11992 00cc FA43833E 		.word	1048790010
 11993 00d0 A2B4873E 		.word	1049080994
 11994 00d4 0A308C3E 		.word	1049374730
 11995 00d8 CCB5903E 		.word	1049671116
 11996 00dc 6345953E 		.word	1049970019
 11997 00e0 8BDE993E 		.word	1050271371
 11998 00e4 BF809E3E 		.word	1050575039
 11999 00e8 772BA33E 		.word	1050880887
 12000 00ec 72DEA73E 		.word	1051188850
 12001 00f0 2899AC3E 		.word	1051498792
 12002 00f4 365BB13E 		.word	1051810614
 12003 00f8 1424B63E 		.word	1052124180
 12004 00fc 80F3BA3E 		.word	1052439424
 12005 0100 F3C8BF3E 		.word	1052756211
 12006 0104 E8A3C43E 		.word	1053074408
 12007 0108 1B84C93E 		.word	1053393947
 12008 010c 0569CE3E 		.word	1053714693
 12009 0110 4452D33E 		.word	1054036548
 12010 0114 4F3FD83E 		.word	1054359375
 12011 0118 E42FDD3E 		.word	1054683108
 12012 011c 7D23E23E 		.word	1055007613
 12013 0120 9319E73E 		.word	1055332755
 12014 0124 E411EC3E 		.word	1055658468
 12015 0128 E90BF13E 		.word	1055984617
 12016 012c 3E07F63E 		.word	1056311102
 12017 0130 5C03FB3E 		.word	1056637788
 12018 0134 0000003F 		.word	1056964608
 12019 0138 527E023F 		.word	1057128018
 12020 013c 61FC043F 		.word	1057291361
 12021 0140 0B7A073F 		.word	1057454603
 12022 0144 0EF7093F 		.word	1057617678
 12023 0148 36730C3F 		.word	1057780534
 12024 014c 42EE0E3F 		.word	1057943106
 12025 0150 0E68113F 		.word	1058105358
 12026 0154 59E0133F 		.word	1058267225
 12027 0158 DE56163F 		.word	1058428638
 12028 015c 7DCB183F 		.word	1058589565
 12029 0160 F33D1B3F 		.word	1058749939
 12030 0164 0CAE1D3F 		.word	1058909708
 12031 0168 861B203F 		.word	1059068806
 12032 016c 4086223F 		.word	1059227200
 12033 0170 F6ED243F 		.word	1059384822
 12034 0174 6552273F 		.word	1059541605
 12035 0178 6CB3293F 		.word	1059697516
 12036 017c C7102C3F 		.word	1059852487
 12037 0180 446A2E3F 		.word	1060006468
 12038 0184 A1BF303F 		.word	1060159393
 12039 0188 BA10333F 		.word	1060311226
 12040 018c 4F5D353F 		.word	1060461903
 12041 0190 1AA5373F 		.word	1060611354
 12042 0194 FBE7393F 		.word	1060759547
 12043 0198 AF253C3F 		.word	1060906415
 12044 019c 035E3E3F 		.word	1061051907
ARM GAS  /tmp/ccYdlVIk.s 			page 214


 12045 01a0 B490403F 		.word	1061195956
 12046 01a4 A1BD423F 		.word	1061338529
 12047 01a8 86E4443F 		.word	1061479558
 12048 01ac 2105473F 		.word	1061618977
 12049 01b0 4F1F493F 		.word	1061756751
 12050 01b4 CF324B3F 		.word	1061892815
 12051 01b8 6C3F4D3F 		.word	1062027116
 12052 01bc F6444F3F 		.word	1062159606
 12053 01c0 2843513F 		.word	1062290216
 12054 01c4 C139533F 		.word	1062418881
 12055 01c8 AE28553F 		.word	1062545582
 12056 01cc 9D0F573F 		.word	1062670237
 12057 01d0 5BEE583F 		.word	1062792795
 12058 01d4 B5C45A3F 		.word	1062913205
 12059 01d8 68925C3F 		.word	1063031400
 12060 01dc 54575E3F 		.word	1063147348
 12061 01e0 3413603F 		.word	1063260980
 12062 01e4 C5C5613F 		.word	1063372229
 12063 01e8 E76E633F 		.word	1063481063
 12064 01ec 560E653F 		.word	1063587414
 12065 01f0 DFA3663F 		.word	1063691231
 12066 01f4 512F683F 		.word	1063792465
 12067 01f8 57B0693F 		.word	1063891031
 12068 01fc E1266B3F 		.word	1063986913
 12069 0200 AB926C3F 		.word	1064080043
 12070 0204 73F36D3F 		.word	1064170355
 12071 0208 06496F3F 		.word	1064257798
 12072 020c 3293703F 		.word	1064342322
 12073 0210 B3D1713F 		.word	1064423859
 12074 0214 6804733F 		.word	1064502376
 12075 0218 0F2B743F 		.word	1064577807
 12076 021c 7445753F 		.word	1064650100
 12077 0220 5453763F 		.word	1064719188
 12078 0224 7E54773F 		.word	1064785022
 12079 0228 BF48783F 		.word	1064847551
 12080 022c D32F793F 		.word	1064906707
 12081 0230 9A097A3F 		.word	1064962458
 12082 0234 D0D57A3F 		.word	1065014736
 12083 0238 42947B3F 		.word	1065063490
 12084 023c AF447C3F 		.word	1065108655
 12085 0240 E2E67C3F 		.word	1065150178
 12086 0244 AB7A7D3F 		.word	1065188011
 12087 0248 D6FF7D3F 		.word	1065222102
 12088 024c 10767E3F 		.word	1065252368
 12089 0250 48DD7E3F 		.word	1065278792
 12090 0254 3B357F3F 		.word	1065301307
 12091 0258 A67D7F3F 		.word	1065319846
 12092 025c 56B67F3F 		.word	1065334358
 12093 0260 1ADF7F3F 		.word	1065344794
 12094 0264 BEF77F3F 		.word	1065351102
 12095 0268 0000803F 		.word	1065353216
 12096 026c 82FD7F3F 		.word	1065352578
 12097 0270 1BF67F3F 		.word	1065350683
 12098 0274 C9E97F3F 		.word	1065347529
 12099 0278 8CD87F3F 		.word	1065343116
 12100 027c 55C27F3F 		.word	1065337429
 12101 0280 33A77F3F 		.word	1065330483
ARM GAS  /tmp/ccYdlVIk.s 			page 215


 12102 0284 27877F3F 		.word	1065322279
 12103 0288 20627F3F 		.word	1065312800
 12104 028c 2E387F3F 		.word	1065302062
 12105 0290 53097F3F 		.word	1065290067
 12106 0294 8DD57E3F 		.word	1065276813
 12107 0298 CB9C7E3F 		.word	1065262283
 12108 029c 205F7E3F 		.word	1065246496
 12109 02a0 8A1C7E3F 		.word	1065229450
 12110 02a4 FAD47D3F 		.word	1065211130
 12111 02a8 90887D3F 		.word	1065191568
 12112 02ac 2A377D3F 		.word	1065170730
 12113 02b0 CAE07C3F 		.word	1065148618
 12114 02b4 90857C3F 		.word	1065125264
 12115 02b8 5B257C3F 		.word	1065100635
 12116 02bc 3CC07B3F 		.word	1065074748
 12117 02c0 21567B3F 		.word	1065047585
 12118 02c4 2EE77A3F 		.word	1065019182
 12119 02c8 3F737A3F 		.word	1064989503
 12120 02cc 55FA793F 		.word	1064958549
 12121 02d0 917C793F 		.word	1064926353
 12122 02d4 D3F9783F 		.word	1064892883
 12123 02d8 2A72783F 		.word	1064858154
 12124 02dc 97E5773F 		.word	1064822167
 12125 02e0 0954773F 		.word	1064784905
 12126 02e4 90BD763F 		.word	1064746384
 12127 02e8 2D22763F 		.word	1064706605
 12128 02ec CF81753F 		.word	1064665551
 12129 02f0 98DC743F 		.word	1064623256
 12130 02f4 6632743F 		.word	1064579686
 12131 02f8 3883733F 		.word	1064534840
 12132 02fc 31CF723F 		.word	1064488753
 12133 0300 2F16723F 		.word	1064441391
 12134 0304 4358713F 		.word	1064392771
 12135 0308 5B95703F 		.word	1064342875
 12136 030c 9ACD6F3F 		.word	1064291738
 12137 0310 DE006F3F 		.word	1064239326
 12138 0314 382F6E3F 		.word	1064185656
 12139 0318 97586D3F 		.word	1064130711
 12140 031c 0B7D6C3F 		.word	1064074507
 12141 0320 959C6B3F 		.word	1064017045
 12142 0324 35B76A3F 		.word	1063958325
 12143 0328 D9CC693F 		.word	1063898329
 12144 032c A5DD683F 		.word	1063837093
 12145 0330 64E9673F 		.word	1063774564
 12146 0334 4AF0663F 		.word	1063710794
 12147 0338 34F2653F 		.word	1063645748
 12148 033c 35EF643F 		.word	1063579445
 12149 0340 4BE7633F 		.word	1063511883
 12150 0344 66DA623F 		.word	1063443046
 12151 0348 A8C8613F 		.word	1063372968
 12152 034c EEB1603F 		.word	1063301614
 12153 0350 3A965F3F 		.word	1063228986
 12154 0354 AB755E3F 		.word	1063155115
 12155 0358 22505D3F 		.word	1063079970
 12156 035c AF255C3F 		.word	1063003567
 12157 0360 40F65A3F 		.word	1062925888
 12158 0364 E8C1593F 		.word	1062846952
ARM GAS  /tmp/ccYdlVIk.s 			page 216


 12159 0368 A488583F 		.word	1062766756
 12160 036c 774A573F 		.word	1062685303
 12161 0370 5F07563F 		.word	1062602591
 12162 0374 4DBF543F 		.word	1062518605
 12163 0378 5072533F 		.word	1062433360
 12164 037c 5820523F 		.word	1062346840
 12165 0380 86C9503F 		.word	1062259078
 12166 0384 B96D4F3F 		.word	1062170041
 12167 0388 F20C4E3F 		.word	1062079730
 12168 038c 50A74C3F 		.word	1061988176
 12169 0390 B43C4B3F 		.word	1061895348
 12170 0394 2DCD493F 		.word	1061801261
 12171 0398 BC58483F 		.word	1061705916
 12172 039c 50DF463F 		.word	1061609296
 12173 03a0 FA60453F 		.word	1061511418
 12174 03a4 BADD433F 		.word	1061412282
 12175 03a8 8F55423F 		.word	1061311887
 12176 03ac 69C8403F 		.word	1061210217
 12177 03b0 59363F3F 		.word	1061107289
 12178 03b4 5E9F3D3F 		.word	1061003102
 12179 03b8 68033C3F 		.word	1060897640
 12180 03bc 99623A3F 		.word	1060790937
 12181 03c0 BEBC383F 		.word	1060682942
 12182 03c4 0A12373F 		.word	1060573706
 12183 03c8 6B62353F 		.word	1060463211
 12184 03cc D1AD333F 		.word	1060351441
 12185 03d0 3CF4313F 		.word	1060238396
 12186 03d4 CE35303F 		.word	1060124110
 12187 03d8 65722E3F 		.word	1060008549
 12188 03dc 11AA2C3F 		.word	1059891729
 12189 03e0 D3DC2A3F 		.word	1059773651
 12190 03e4 9A0A293F 		.word	1059654298
 12191 03e8 8733273F 		.word	1059533703
 12192 03ec 6957253F 		.word	1059411817
 12193 03f0 7176233F 		.word	1059288689
 12194 03f4 7E90213F 		.word	1059164286
 12195 03f8 A0A51F3F 		.word	1059038624
 12196 03fc D9B51D3F 		.word	1058911705
 12197 0400 27C11B3F 		.word	1058783527
 12198 0404 7AC7193F 		.word	1058654074
 12199 0408 E2C8173F 		.word	1058523362
 12200 040c 61C5153F 		.word	1058391393
 12201 0410 E4BC133F 		.word	1058258148
 12202 0414 7DAF113F 		.word	1058123645
 12203 0418 2C9D0F3F 		.word	1057987884
 12204 041c F0850D3F 		.word	1057850864
 12205 0420 BA690B3F 		.word	1057712570
 12206 0424 9948093F 		.word	1057573017
 12207 0428 8E22073F 		.word	1057432206
 12208 042c 88F7043F 		.word	1057290120
 12209 0430 A8C7023F 		.word	1057146792
 12210 0434 BC92003F 		.word	1057002172
 12211 0438 EEB1FC3E 		.word	1056748014
 12212 043c 6E34F83E 		.word	1056453742
 12213 0440 3AADF33E 		.word	1056156986
 12214 0444 EF1BEF3E 		.word	1055857647
 12215 0448 F180EA3E 		.word	1055555825
ARM GAS  /tmp/ccYdlVIk.s 			page 217


 12216 044c FDDBE53E 		.word	1055251453
 12217 0450 342DE13E 		.word	1054944564
 12218 0454 9774DC3E 		.word	1054635159
 12219 0458 03B2D73E 		.word	1054323203
 12220 045c BDE5D23E 		.word	1054008765
 12221 0460 5E0FCE3E 		.word	1053691742
 12222 0464 4D2FC93E 		.word	1053372237
 12223 0468 6745C43E 		.word	1053050215
 12224 046c 8B51BF3E 		.word	1052725643
 12225 0470 B953BA3E 		.word	1052398521
 12226 0474 344CB53E 		.word	1052068916
 12227 0478 B83AB03E 		.word	1051736760
 12228 047c 681FAB3E 		.word	1051402088
 12229 0480 44FAA53E 		.word	1051064900
 12230 0484 29CBA03E 		.word	1050725161
 12231 0488 3A929B3E 		.word	1050382906
 12232 048c 764F963E 		.word	1050038134
 12233 0490 DE02913E 		.word	1049690846
 12234 0494 4FAC8B3E 		.word	1049341007
 12235 0498 EC4B863E 		.word	1048988652
 12236 049c B5E1803E 		.word	1048633781
 12237 04a0 0EDB763E 		.word	1047976718
 12238 04a4 4CDF6B3E 		.word	1047256908
 12239 04a8 9ECF603E 		.word	1046531998
 12240 04ac 04AC553E 		.word	1045801988
 12241 04b0 04754A3E 		.word	1045067012
 12242 04b4 172A3F3E 		.word	1044326935
 12243 04b8 81CB333E 		.word	1043581825
 12244 04bc FF58283E 		.word	1042831615
 12245 04c0 D4D21C3E 		.word	1042076372
 12246 04c4 0039113E 		.word	1041316096
 12247 04c8 828B053E 		.word	1040550786
 12248 04cc B894F33D 		.word	1039373496
 12249 04d0 92EADB3D 		.word	1037822610
 12250 04d4 1A19C43D 		.word	1036261658
 12251 04d8 C91FAC3D 		.word	1034690505
 12252 04dc ACFF933D 		.word	1033109420
 12253 04e0 6D6F773D 		.word	1031237485
 12254 04e4 DE90463D 		.word	1028034782
 12255 04e8 9E62153D 		.word	1024811678
 12256 04ec 71CBC73C 		.word	1019726705
 12257 04f0 BA68483C 		.word	1011378362
 12258 04f4 00000000 		.word	0
 12259 04f8 00000000 		.word	0
 12260 04fc 00000000 		.word	0
 12261 0500 00000000 		.word	0
 12262 0504 00000000 		.word	0
 12263 0508 00000000 		.word	0
 12264 050c 00000000 		.word	0
 12265 0510 00000000 		.word	0
 12266 0514 00000000 		.word	0
 12267 0518 00000000 		.word	0
 12268 051c 00000000 		.word	0
 12269 0520 00000000 		.word	0
 12270 0524 00000000 		.word	0
 12271 0528 00000000 		.word	0
 12272 052c 00000000 		.word	0
ARM GAS  /tmp/ccYdlVIk.s 			page 218


 12273 0530 00000000 		.word	0
 12274 0534 00000000 		.word	0
 12275 0538 00000000 		.word	0
 12276 053c 00000000 		.word	0
 12277 0540 00000000 		.word	0
 12278 0544 00000000 		.word	0
 12279 0548 00000000 		.word	0
 12280 054c 00000000 		.word	0
 12281 0550 00000000 		.word	0
 12282 0554 00000000 		.word	0
 12283 0558 00000000 		.word	0
 12284 055c 00000000 		.word	0
 12285 0560 00000000 		.word	0
 12286 0564 00000000 		.word	0
 12287 0568 00000000 		.word	0
 12288 056c 00000000 		.word	0
 12289 0570 00000000 		.word	0
 12290 0574 00000000 		.word	0
 12291 0578 00000000 		.word	0
 12292 057c 00000000 		.word	0
 12293 0580 00000000 		.word	0
 12294 0584 00000000 		.word	0
 12295 0588 00000000 		.word	0
 12296 058c 00000000 		.word	0
 12297 0590 00000000 		.word	0
 12298 0594 00000000 		.word	0
 12299 0598 00000000 		.word	0
 12300 059c 00000000 		.word	0
 12301 05a0 00000000 		.word	0
 12302 05a4 00000000 		.word	0
 12303 05a8 00000000 		.word	0
 12304 05ac 00000000 		.word	0
 12305 05b0 00000000 		.word	0
 12306 05b4 00000000 		.word	0
 12307 05b8 00000000 		.word	0
 12308 05bc 00000000 		.word	0
 12309 05c0 00000000 		.word	0
 12310 05c4 00000000 		.word	0
 12311 05c8 00000000 		.word	0
 12312 05cc 00000000 		.word	0
 12313 05d0 00000000 		.word	0
 12314 05d4 00000000 		.word	0
 12315 05d8 00000000 		.word	0
 12316 05dc 00000000 		.word	0
 12317 05e0 00000000 		.word	0
 12318 05e4 00000000 		.word	0
 12319 05e8 00000000 		.word	0
 12320 05ec 00000000 		.word	0
 12321 05f0 00000000 		.word	0
 12322 05f4 00000000 		.word	0
 12323 05f8 00000000 		.word	0
 12324 05fc 00000000 		.word	0
 12325 0600 00000000 		.word	0
 12326 0604 00000000 		.word	0
 12327 0608 00000000 		.word	0
 12328 060c 00000000 		.word	0
 12329 0610 00000000 		.word	0
ARM GAS  /tmp/ccYdlVIk.s 			page 219


 12330 0614 00000000 		.word	0
 12331 0618 00000000 		.word	0
 12332 061c 00000000 		.word	0
 12333 0620 00000000 		.word	0
 12334 0624 00000000 		.word	0
 12335 0628 00000000 		.word	0
 12336 062c 00000000 		.word	0
 12337 0630 00000000 		.word	0
 12338 0634 00000000 		.word	0
 12339 0638 00000000 		.word	0
 12340 063c 00000000 		.word	0
 12341 0640 00000000 		.word	0
 12342 0644 00000000 		.word	0
 12343 0648 00000000 		.word	0
 12344 064c 00000000 		.word	0
 12345 0650 00000000 		.word	0
 12346 0654 00000000 		.word	0
 12347 0658 00000000 		.word	0
 12348 065c 00000000 		.word	0
 12349 0660 00000000 		.word	0
 12350 0664 00000000 		.word	0
 12351 0668 00000000 		.word	0
 12352 066c 00000000 		.word	0
 12353 0670 00000000 		.word	0
 12354 0674 00000000 		.word	0
 12355 0678 00000000 		.word	0
 12356 067c 00000000 		.word	0
 12357 0680 00000000 		.word	0
 12358 0684 00000000 		.word	0
 12359 0688 00000000 		.word	0
 12360 068c 00000000 		.word	0
 12361 0690 00000000 		.word	0
 12362 0694 00000000 		.word	0
 12363 0698 00000000 		.word	0
 12364 069c 00000000 		.word	0
 12365 06a0 00000000 		.word	0
 12366 06a4 00000000 		.word	0
 12367 06a8 00000000 		.word	0
 12368 06ac 00000000 		.word	0
 12369 06b0 00000000 		.word	0
 12370 06b4 00000000 		.word	0
 12371 06b8 00000000 		.word	0
 12372 06bc 00000000 		.word	0
 12373 06c0 00000000 		.word	0
 12374 06c4 00000000 		.word	0
 12375 06c8 00000000 		.word	0
 12376 06cc 00000000 		.word	0
 12377 06d0 00000000 		.word	0
 12378 06d4 00000000 		.word	0
 12379 06d8 00000000 		.word	0
 12380 06dc 00000000 		.word	0
 12381 06e0 00000000 		.word	0
 12382 06e4 00000000 		.word	0
 12383 06e8 00000000 		.word	0
 12384 06ec 00000000 		.word	0
 12385 06f0 00000000 		.word	0
 12386 06f4 00000000 		.word	0
ARM GAS  /tmp/ccYdlVIk.s 			page 220


 12387 06f8 00000000 		.word	0
 12388 06fc 00000000 		.word	0
 12389 0700 00000000 		.word	0
 12390 0704 00000000 		.word	0
 12391 0708 00000000 		.word	0
 12392 070c 00000000 		.word	0
 12393 0710 00000000 		.word	0
 12394 0714 00000000 		.word	0
 12395 0718 00000000 		.word	0
 12396 071c 00000000 		.word	0
 12397 0720 00000000 		.word	0
 12398 0724 00000000 		.word	0
 12399 0728 00000000 		.word	0
 12400 072c 00000000 		.word	0
 12401 0730 00000000 		.word	0
 12402 0734 00000000 		.word	0
 12403 0738 00000000 		.word	0
 12404 073c 00000000 		.word	0
 12405 0740 00000000 		.word	0
 12406 0744 00000000 		.word	0
 12407 0748 00000000 		.word	0
 12408 074c 00000000 		.word	0
 12409 0750 00000000 		.word	0
 12410 0754 00000000 		.word	0
 12411 0758 00000000 		.word	0
 12412 075c 00000000 		.word	0
 12413 0760 00000000 		.word	0
 12414 0764 00000000 		.word	0
 12415 0768 00000000 		.word	0
 12416 076c 00000000 		.word	0
 12417 0770 00000000 		.word	0
 12418 0774 00000000 		.word	0
 12419 0778 00000000 		.word	0
 12420 077c 00000000 		.word	0
 12421 0780 00000000 		.word	0
 12422 0784 00000000 		.word	0
 12423 0788 00000000 		.word	0
 12424 078c 00000000 		.word	0
 12425 0790 00000000 		.word	0
 12426 0794 00000000 		.word	0
 12427 0798 00000000 		.word	0
 12428 079c 00000000 		.word	0
 12429 07a0 00000000 		.word	0
 12430 07a4 00000000 		.word	0
 12431 07a8 00000000 		.word	0
 12432 07ac 00000000 		.word	0
 12433 07b0 00000000 		.word	0
 12434 07b4 00000000 		.word	0
 12435 07b8 00000000 		.word	0
 12436 07bc 00000000 		.word	0
 12437 07c0 00000000 		.word	0
 12438 07c4 00000000 		.word	0
 12439 07c8 00000000 		.word	0
 12440 07cc 00000000 		.word	0
 12441 07d0 00000000 		.word	0
 12442 07d4 00000000 		.word	0
 12443 07d8 00000000 		.word	0
ARM GAS  /tmp/ccYdlVIk.s 			page 221


 12444 07dc 00000000 		.word	0
 12445 07e0 00000000 		.word	0
 12446 07e4 00000000 		.word	0
 12447 07e8 00000000 		.word	0
 12448 07ec 00000000 		.word	0
 12449 07f0 00000000 		.word	0
 12450 07f4 00000000 		.word	0
 12451 07f8 00000000 		.word	0
 12452 07fc 00000000 		.word	0
 12453              		.section	.rodata.sinetable,"a"
 12454              		.align	2
 12455              		.type	sinetable, %object
 12456              		.size	sinetable, 2048
 12457              	sinetable:
 12458 0000 00000000 		.word	0
 12459 0004 8010493C 		.word	1011421312
 12460 0008 350AC93C 		.word	1019808309
 12461 000c F0C2163D 		.word	1024901872
 12462 0010 87FB483D 		.word	1028193159
 12463 0014 BB2B7B3D 		.word	1031482299
 12464 0018 3FA9963D 		.word	1033283903
 12465 001c 56B6AF3D 		.word	1034925654
 12466 0020 23BDC83D 		.word	1036565795
 12467 0024 12BCE13D 		.word	1038203922
 12468 0028 9EB2FA3D 		.word	1039839902
 12469 002c 9ACF093E 		.word	1040830362
 12470 0030 6440163E 		.word	1041645668
 12471 0034 ACAB223E 		.word	1042459564
 12472 0038 AA102F3E 		.word	1043271850
 12473 003c D66E3B3E 		.word	1044082390
 12474 0040 ACC5473E 		.word	1044891052
 12475 0044 E814543E 		.word	1045697768
 12476 0048 035C603E 		.word	1046502403
 12477 004c 789A6C3E 		.word	1047304824
 12478 0050 C0CF783E 		.word	1048104896
 12479 0054 CC7D823E 		.word	1048739276
 12480 0058 9B8E883E 		.word	1049136795
 12481 005c 2C9A8E3E 		.word	1049532972
 12482 0060 3CA0943E 		.word	1049927740
 12483 0064 88A09A3E 		.word	1050321032
 12484 0068 ED9AA03E 		.word	1050712813
 12485 006c 088FA63E 		.word	1051102984
 12486 0070 D97CAC3E 		.word	1051491545
 12487 0074 FA63B23E 		.word	1051878394
 12488 0078 2844B83E 		.word	1052263464
 12489 007c 431DBE3E 		.word	1052646723
 12490 0080 07EFC33E 		.word	1053028103
 12491 0084 52B9C93E 		.word	1053407570
 12492 0088 C07BCF3E 		.word	1053785024
 12493 008c 5036D53E 		.word	1054160464
 12494 0090 7DE8DA3E 		.word	1054533757
 12495 0094 4792E03E 		.word	1054904903
 12496 0098 6A33E63E 		.word	1055273834
 12497 009c C5CBEB3E 		.word	1055640517
 12498 00a0 F35AF13E 		.word	1056004851
 12499 00a4 D2E0F63E 		.word	1056366802
 12500 00a8 205DFC3E 		.word	1056726304
ARM GAS  /tmp/ccYdlVIk.s 			page 222


 12501 00ac DEE7003F 		.word	1057023966
 12502 00b0 419C033F 		.word	1057201217
 12503 00b4 884B063F 		.word	1057377160
 12504 00b8 A1F5083F 		.word	1057551777
 12505 00bc 6B9A0B3F 		.word	1057725035
 12506 00c0 D6390E3F 		.word	1057896918
 12507 00c4 D0D3103F 		.word	1058067408
 12508 00c8 2768133F 		.word	1058236455
 12509 00cc DCF6153F 		.word	1058404060
 12510 00d0 BB7F183F 		.word	1058570171
 12511 00d4 C5021B3F 		.word	1058734789
 12512 00d8 D87F1D3F 		.word	1058897880
 12513 00dc D3F61F3F 		.word	1059059411
 12514 00e0 9467223F 		.word	1059219348
 12515 00e4 2DD2243F 		.word	1059377709
 12516 00e8 5936273F 		.word	1059534425
 12517 00ec 1894293F 		.word	1059689496
 12518 00f0 4AEB2B3F 		.word	1059842890
 12519 00f4 DE3B2E3F 		.word	1059994590
 12520 00f8 C285303F 		.word	1060144578
 12521 00fc C5C8323F 		.word	1060292805
 12522 0100 F704353F 		.word	1060439287
 12523 0104 263A373F 		.word	1060583974
 12524 0108 4068393F 		.word	1060726848
 12525 010c 368F3B3F 		.word	1060867894
 12526 0110 F7AE3D3F 		.word	1061007095
 12527 0114 60C73F3F 		.word	1061144416
 12528 0118 73D8413F 		.word	1061279859
 12529 011c FCE1433F 		.word	1061413372
 12530 0120 FCE3453F 		.word	1061544956
 12531 0124 61DE473F 		.word	1061674593
 12532 0128 0BD1493F 		.word	1061802251
 12533 012c F9BB4B3F 		.word	1061927929
 12534 0130 0A9F4D3F 		.word	1062051594
 12535 0134 1C7A4F3F 		.word	1062173212
 12536 0138 404D513F 		.word	1062292800
 12537 013c 4418533F 		.word	1062410308
 12538 0140 38DB543F 		.word	1062525752
 12539 0144 EA95563F 		.word	1062639082
 12540 0148 5A48583F 		.word	1062750298
 12541 014c 67F2593F 		.word	1062859367
 12542 0150 21945B3F 		.word	1062966305
 12543 0154 562D5D3F 		.word	1063071062
 12544 0158 06BE5E3F 		.word	1063173638
 12545 015c 2046603F 		.word	1063274016
 12546 0160 93C5613F 		.word	1063372179
 12547 0164 603C633F 		.word	1063468128
 12548 0168 54AA643F 		.word	1063561812
 12549 016c 800F663F 		.word	1063653248
 12550 0170 D36B673F 		.word	1063742419
 12551 0174 3CBF683F 		.word	1063829308
 12552 0178 AB096A3F 		.word	1063913899
 12553 017c 0E4B6B3F 		.word	1063996174
 12554 0180 66836C3F 		.word	1064076134
 12555 0184 92B26D3F 		.word	1064153746
 12556 0188 A1D86E3F 		.word	1064229025
 12557 018c 73F56F3F 		.word	1064301939
ARM GAS  /tmp/ccYdlVIk.s 			page 223


 12558 0190 0709713F 		.word	1064372487
 12559 0194 4D13723F 		.word	1064440653
 12560 0198 4414733F 		.word	1064506436
 12561 019c DD0B743F 		.word	1064569821
 12562 01a0 05FA743F 		.word	1064630789
 12563 01a4 CEDE753F 		.word	1064689358
 12564 01a8 06BA763F 		.word	1064745478
 12565 01ac BD8B773F 		.word	1064799165
 12566 01b0 F453783F 		.word	1064850420
 12567 01b4 9912793F 		.word	1064899225
 12568 01b8 9BC7793F 		.word	1064945563
 12569 01bc FC727A3F 		.word	1064989436
 12570 01c0 BA147B3F 		.word	1065030842
 12571 01c4 C5AC7B3F 		.word	1065069765
 12572 01c8 2E3B7C3F 		.word	1065106222
 12573 01cc C2BF7C3F 		.word	1065140162
 12574 01d0 B43A7D3F 		.word	1065171636
 12575 01d4 D2AB7D3F 		.word	1065200594
 12576 01d8 2B137E3F 		.word	1065227051
 12577 01dc B0707E3F 		.word	1065250992
 12578 01e0 72C47E3F 		.word	1065272434
 12579 01e4 5E0E7F3F 		.word	1065291358
 12580 01e8 664E7F3F 		.word	1065307750
 12581 01ec A9847F3F 		.word	1065321641
 12582 01f0 07B17F3F 		.word	1065332999
 12583 01f4 91D37F3F 		.word	1065341841
 12584 01f8 46EC7F3F 		.word	1065348166
 12585 01fc 16FB7F3F 		.word	1065351958
 12586 0200 0000803F 		.word	1065353216
 12587 0204 16FB7F3F 		.word	1065351958
 12588 0208 46EC7F3F 		.word	1065348166
 12589 020c 91D37F3F 		.word	1065341841
 12590 0210 07B17F3F 		.word	1065332999
 12591 0214 A9847F3F 		.word	1065321641
 12592 0218 664E7F3F 		.word	1065307750
 12593 021c 5E0E7F3F 		.word	1065291358
 12594 0220 72C47E3F 		.word	1065272434
 12595 0224 B0707E3F 		.word	1065250992
 12596 0228 2B137E3F 		.word	1065227051
 12597 022c D2AB7D3F 		.word	1065200594
 12598 0230 B43A7D3F 		.word	1065171636
 12599 0234 C2BF7C3F 		.word	1065140162
 12600 0238 2E3B7C3F 		.word	1065106222
 12601 023c C5AC7B3F 		.word	1065069765
 12602 0240 BA147B3F 		.word	1065030842
 12603 0244 FC727A3F 		.word	1064989436
 12604 0248 9BC7793F 		.word	1064945563
 12605 024c 9912793F 		.word	1064899225
 12606 0250 F453783F 		.word	1064850420
 12607 0254 BD8B773F 		.word	1064799165
 12608 0258 06BA763F 		.word	1064745478
 12609 025c CEDE753F 		.word	1064689358
 12610 0260 05FA743F 		.word	1064630789
 12611 0264 DD0B743F 		.word	1064569821
 12612 0268 4414733F 		.word	1064506436
 12613 026c 4D13723F 		.word	1064440653
 12614 0270 0709713F 		.word	1064372487
ARM GAS  /tmp/ccYdlVIk.s 			page 224


 12615 0274 73F56F3F 		.word	1064301939
 12616 0278 A1D86E3F 		.word	1064229025
 12617 027c 92B26D3F 		.word	1064153746
 12618 0280 66836C3F 		.word	1064076134
 12619 0284 0E4B6B3F 		.word	1063996174
 12620 0288 AB096A3F 		.word	1063913899
 12621 028c 3CBF683F 		.word	1063829308
 12622 0290 D36B673F 		.word	1063742419
 12623 0294 800F663F 		.word	1063653248
 12624 0298 54AA643F 		.word	1063561812
 12625 029c 603C633F 		.word	1063468128
 12626 02a0 93C5613F 		.word	1063372179
 12627 02a4 2046603F 		.word	1063274016
 12628 02a8 06BE5E3F 		.word	1063173638
 12629 02ac 562D5D3F 		.word	1063071062
 12630 02b0 21945B3F 		.word	1062966305
 12631 02b4 67F2593F 		.word	1062859367
 12632 02b8 5A48583F 		.word	1062750298
 12633 02bc EA95563F 		.word	1062639082
 12634 02c0 38DB543F 		.word	1062525752
 12635 02c4 4418533F 		.word	1062410308
 12636 02c8 404D513F 		.word	1062292800
 12637 02cc 1C7A4F3F 		.word	1062173212
 12638 02d0 0A9F4D3F 		.word	1062051594
 12639 02d4 F9BB4B3F 		.word	1061927929
 12640 02d8 0BD1493F 		.word	1061802251
 12641 02dc 61DE473F 		.word	1061674593
 12642 02e0 FCE3453F 		.word	1061544956
 12643 02e4 FCE1433F 		.word	1061413372
 12644 02e8 73D8413F 		.word	1061279859
 12645 02ec 60C73F3F 		.word	1061144416
 12646 02f0 F7AE3D3F 		.word	1061007095
 12647 02f4 368F3B3F 		.word	1060867894
 12648 02f8 4068393F 		.word	1060726848
 12649 02fc 263A373F 		.word	1060583974
 12650 0300 F704353F 		.word	1060439287
 12651 0304 C5C8323F 		.word	1060292805
 12652 0308 C285303F 		.word	1060144578
 12653 030c DE3B2E3F 		.word	1059994590
 12654 0310 4AEB2B3F 		.word	1059842890
 12655 0314 1894293F 		.word	1059689496
 12656 0318 5936273F 		.word	1059534425
 12657 031c 2DD2243F 		.word	1059377709
 12658 0320 9467223F 		.word	1059219348
 12659 0324 C2F61F3F 		.word	1059059394
 12660 0328 D87F1D3F 		.word	1058897880
 12661 032c C5021B3F 		.word	1058734789
 12662 0330 BB7F183F 		.word	1058570171
 12663 0334 DCF6153F 		.word	1058404060
 12664 0338 2768133F 		.word	1058236455
 12665 033c D0D3103F 		.word	1058067408
 12666 0340 D6390E3F 		.word	1057896918
 12667 0344 6B9A0B3F 		.word	1057725035
 12668 0348 90F5083F 		.word	1057551760
 12669 034c 884B063F 		.word	1057377160
 12670 0350 419C033F 		.word	1057201217
 12671 0354 DEE7003F 		.word	1057023966
ARM GAS  /tmp/ccYdlVIk.s 			page 225


 12672 0358 205DFC3E 		.word	1056726304
 12673 035c D2E0F63E 		.word	1056366802
 12674 0360 F35AF13E 		.word	1056004851
 12675 0364 C5CBEB3E 		.word	1055640517
 12676 0368 6A33E63E 		.word	1055273834
 12677 036c 4792E03E 		.word	1054904903
 12678 0370 7DE8DA3E 		.word	1054533757
 12679 0374 2F36D53E 		.word	1054160431
 12680 0378 C07BCF3E 		.word	1053785024
 12681 037c 52B9C93E 		.word	1053407570
 12682 0380 07EFC33E 		.word	1053028103
 12683 0384 431DBE3E 		.word	1052646723
 12684 0388 2844B83E 		.word	1052263464
 12685 038c FA63B23E 		.word	1051878394
 12686 0390 D97CAC3E 		.word	1051491545
 12687 0394 088FA63E 		.word	1051102984
 12688 0398 ED9AA03E 		.word	1050712813
 12689 039c 88A09A3E 		.word	1050321032
 12690 03a0 3CA0943E 		.word	1049927740
 12691 03a4 2C9A8E3E 		.word	1049532972
 12692 03a8 9B8E883E 		.word	1049136795
 12693 03ac CC7D823E 		.word	1048739276
 12694 03b0 C0CF783E 		.word	1048104896
 12695 03b4 789A6C3E 		.word	1047304824
 12696 03b8 035C603E 		.word	1046502403
 12697 03bc E814543E 		.word	1045697768
 12698 03c0 ACC5473E 		.word	1044891052
 12699 03c4 D66E3B3E 		.word	1044082390
 12700 03c8 AA102F3E 		.word	1043271850
 12701 03cc ACAB223E 		.word	1042459564
 12702 03d0 6440163E 		.word	1041645668
 12703 03d4 9ACF093E 		.word	1040830362
 12704 03d8 9EB2FA3D 		.word	1039839902
 12705 03dc 12BCE13D 		.word	1038203922
 12706 03e0 23BDC83D 		.word	1036565795
 12707 03e4 56B6AF3D 		.word	1034925654
 12708 03e8 B9A8963D 		.word	1033283769
 12709 03ec BB2B7B3D 		.word	1031482299
 12710 03f0 87FB483D 		.word	1028193159
 12711 03f4 F0C2163D 		.word	1024901872
 12712 03f8 350AC93C 		.word	1019808309
 12713 03fc 4E0C493C 		.word	1011420238
 12714 0400 00000080 		.word	-2147483648
 12715 0404 801049BC 		.word	-1136062336
 12716 0408 350AC9BC 		.word	-1127675339
 12717 040c F0C216BD 		.word	-1122581776
 12718 0410 87FB48BD 		.word	-1119290489
 12719 0414 BB2B7BBD 		.word	-1116001349
 12720 0418 3FA996BD 		.word	-1114199745
 12721 041c 56B6AFBD 		.word	-1112557994
 12722 0420 23BDC8BD 		.word	-1110917853
 12723 0424 12BCE1BD 		.word	-1109279726
 12724 0428 9EB2FABD 		.word	-1107643746
 12725 042c 9ACF09BE 		.word	-1106653286
 12726 0430 644016BE 		.word	-1105837980
 12727 0434 ACAB22BE 		.word	-1105024084
 12728 0438 AA102FBE 		.word	-1104211798
ARM GAS  /tmp/ccYdlVIk.s 			page 226


 12729 043c D66E3BBE 		.word	-1103401258
 12730 0440 ACC547BE 		.word	-1102592596
 12731 0444 E81454BE 		.word	-1101785880
 12732 0448 035C60BE 		.word	-1100981245
 12733 044c 789A6CBE 		.word	-1100178824
 12734 0450 C0CF78BE 		.word	-1099378752
 12735 0454 CC7D82BE 		.word	-1098744372
 12736 0458 9B8E88BE 		.word	-1098346853
 12737 045c 2C9A8EBE 		.word	-1097950676
 12738 0460 3CA094BE 		.word	-1097555908
 12739 0464 88A09ABE 		.word	-1097162616
 12740 0468 ED9AA0BE 		.word	-1096770835
 12741 046c 088FA6BE 		.word	-1096380664
 12742 0470 D97CACBE 		.word	-1095992103
 12743 0474 FA63B2BE 		.word	-1095605254
 12744 0478 2844B8BE 		.word	-1095220184
 12745 047c 431DBEBE 		.word	-1094836925
 12746 0480 07EFC3BE 		.word	-1094455545
 12747 0484 52B9C9BE 		.word	-1094076078
 12748 0488 C07BCFBE 		.word	-1093698624
 12749 048c 5036D5BE 		.word	-1093323184
 12750 0490 7DE8DABE 		.word	-1092949891
 12751 0494 4792E0BE 		.word	-1092578745
 12752 0498 6A33E6BE 		.word	-1092209814
 12753 049c C5CBEBBE 		.word	-1091843131
 12754 04a0 F35AF1BE 		.word	-1091478797
 12755 04a4 D2E0F6BE 		.word	-1091116846
 12756 04a8 205DFCBE 		.word	-1090757344
 12757 04ac DEE700BF 		.word	-1090459682
 12758 04b0 419C03BF 		.word	-1090282431
 12759 04b4 884B06BF 		.word	-1090106488
 12760 04b8 A1F508BF 		.word	-1089931871
 12761 04bc 6B9A0BBF 		.word	-1089758613
 12762 04c0 D6390EBF 		.word	-1089586730
 12763 04c4 D0D310BF 		.word	-1089416240
 12764 04c8 276813BF 		.word	-1089247193
 12765 04cc DCF615BF 		.word	-1089079588
 12766 04d0 BB7F18BF 		.word	-1088913477
 12767 04d4 C5021BBF 		.word	-1088748859
 12768 04d8 D87F1DBF 		.word	-1088585768
 12769 04dc D3F61FBF 		.word	-1088424237
 12770 04e0 946722BF 		.word	-1088264300
 12771 04e4 2DD224BF 		.word	-1088105939
 12772 04e8 593627BF 		.word	-1087949223
 12773 04ec 189429BF 		.word	-1087794152
 12774 04f0 4AEB2BBF 		.word	-1087640758
 12775 04f4 DE3B2EBF 		.word	-1087489058
 12776 04f8 C28530BF 		.word	-1087339070
 12777 04fc C5C832BF 		.word	-1087190843
 12778 0500 F70435BF 		.word	-1087044361
 12779 0504 263A37BF 		.word	-1086899674
 12780 0508 406839BF 		.word	-1086756800
 12781 050c 368F3BBF 		.word	-1086615754
 12782 0510 F7AE3DBF 		.word	-1086476553
 12783 0514 60C73FBF 		.word	-1086339232
 12784 0518 73D841BF 		.word	-1086203789
 12785 051c FCE143BF 		.word	-1086070276
ARM GAS  /tmp/ccYdlVIk.s 			page 227


 12786 0520 FCE345BF 		.word	-1085938692
 12787 0524 61DE47BF 		.word	-1085809055
 12788 0528 0BD149BF 		.word	-1085681397
 12789 052c F9BB4BBF 		.word	-1085555719
 12790 0530 0A9F4DBF 		.word	-1085432054
 12791 0534 1C7A4FBF 		.word	-1085310436
 12792 0538 404D51BF 		.word	-1085190848
 12793 053c 441853BF 		.word	-1085073340
 12794 0540 38DB54BF 		.word	-1084957896
 12795 0544 EA9556BF 		.word	-1084844566
 12796 0548 494858BF 		.word	-1084733367
 12797 054c 67F259BF 		.word	-1084624281
 12798 0550 21945BBF 		.word	-1084517343
 12799 0554 562D5DBF 		.word	-1084412586
 12800 0558 06BE5EBF 		.word	-1084310010
 12801 055c 204660BF 		.word	-1084209632
 12802 0560 93C561BF 		.word	-1084111469
 12803 0564 603C63BF 		.word	-1084015520
 12804 0568 54AA64BF 		.word	-1083921836
 12805 056c 910F66BF 		.word	-1083830383
 12806 0570 D36B67BF 		.word	-1083741229
 12807 0574 3CBF68BF 		.word	-1083654340
 12808 0578 AB096ABF 		.word	-1083569749
 12809 057c 0E4B6BBF 		.word	-1083487474
 12810 0580 66836CBF 		.word	-1083407514
 12811 0584 92B26DBF 		.word	-1083329902
 12812 0588 A1D86EBF 		.word	-1083254623
 12813 058c 73F56FBF 		.word	-1083181709
 12814 0590 070971BF 		.word	-1083111161
 12815 0594 4D1372BF 		.word	-1083042995
 12816 0598 441473BF 		.word	-1082977212
 12817 059c DD0B74BF 		.word	-1082913827
 12818 05a0 05FA74BF 		.word	-1082852859
 12819 05a4 CEDE75BF 		.word	-1082794290
 12820 05a8 06BA76BF 		.word	-1082738170
 12821 05ac CE8B77BF 		.word	-1082684466
 12822 05b0 F45378BF 		.word	-1082633228
 12823 05b4 991279BF 		.word	-1082584423
 12824 05b8 9BC779BF 		.word	-1082538085
 12825 05bc FC727ABF 		.word	-1082494212
 12826 05c0 BA147BBF 		.word	-1082452806
 12827 05c4 C5AC7BBF 		.word	-1082413883
 12828 05c8 2E3B7CBF 		.word	-1082377426
 12829 05cc C2BF7CBF 		.word	-1082343486
 12830 05d0 B43A7DBF 		.word	-1082312012
 12831 05d4 D2AB7DBF 		.word	-1082283054
 12832 05d8 2B137EBF 		.word	-1082256597
 12833 05dc B0707EBF 		.word	-1082232656
 12834 05e0 72C47EBF 		.word	-1082211214
 12835 05e4 5E0E7FBF 		.word	-1082192290
 12836 05e8 664E7FBF 		.word	-1082175898
 12837 05ec A9847FBF 		.word	-1082162007
 12838 05f0 07B17FBF 		.word	-1082150649
 12839 05f4 91D37FBF 		.word	-1082141807
 12840 05f8 46EC7FBF 		.word	-1082135482
 12841 05fc 16FB7FBF 		.word	-1082131690
 12842 0600 000080BF 		.word	-1082130432
ARM GAS  /tmp/ccYdlVIk.s 			page 228


 12843 0604 16FB7FBF 		.word	-1082131690
 12844 0608 46EC7FBF 		.word	-1082135482
 12845 060c 91D37FBF 		.word	-1082141807
 12846 0610 07B17FBF 		.word	-1082150649
 12847 0614 A9847FBF 		.word	-1082162007
 12848 0618 664E7FBF 		.word	-1082175898
 12849 061c 5E0E7FBF 		.word	-1082192290
 12850 0620 72C47EBF 		.word	-1082211214
 12851 0624 B0707EBF 		.word	-1082232656
 12852 0628 2B137EBF 		.word	-1082256597
 12853 062c D2AB7DBF 		.word	-1082283054
 12854 0630 B43A7DBF 		.word	-1082312012
 12855 0634 C2BF7CBF 		.word	-1082343486
 12856 0638 2E3B7CBF 		.word	-1082377426
 12857 063c C5AC7BBF 		.word	-1082413883
 12858 0640 BA147BBF 		.word	-1082452806
 12859 0644 FC727ABF 		.word	-1082494212
 12860 0648 9BC779BF 		.word	-1082538085
 12861 064c 991279BF 		.word	-1082584423
 12862 0650 F45378BF 		.word	-1082633228
 12863 0654 BD8B77BF 		.word	-1082684483
 12864 0658 06BA76BF 		.word	-1082738170
 12865 065c CEDE75BF 		.word	-1082794290
 12866 0660 05FA74BF 		.word	-1082852859
 12867 0664 DD0B74BF 		.word	-1082913827
 12868 0668 441473BF 		.word	-1082977212
 12869 066c 4D1372BF 		.word	-1083042995
 12870 0670 070971BF 		.word	-1083111161
 12871 0674 73F56FBF 		.word	-1083181709
 12872 0678 A1D86EBF 		.word	-1083254623
 12873 067c 92B26DBF 		.word	-1083329902
 12874 0680 56836CBF 		.word	-1083407530
 12875 0684 0E4B6BBF 		.word	-1083487474
 12876 0688 AB096ABF 		.word	-1083569749
 12877 068c 3CBF68BF 		.word	-1083654340
 12878 0690 D36B67BF 		.word	-1083741229
 12879 0694 910F66BF 		.word	-1083830383
 12880 0698 54AA64BF 		.word	-1083921836
 12881 069c 603C63BF 		.word	-1084015520
 12882 06a0 93C561BF 		.word	-1084111469
 12883 06a4 204660BF 		.word	-1084209632
 12884 06a8 06BE5EBF 		.word	-1084310010
 12885 06ac 562D5DBF 		.word	-1084412586
 12886 06b0 21945BBF 		.word	-1084517343
 12887 06b4 67F259BF 		.word	-1084624281
 12888 06b8 494858BF 		.word	-1084733367
 12889 06bc EA9556BF 		.word	-1084844566
 12890 06c0 27DB54BF 		.word	-1084957913
 12891 06c4 441853BF 		.word	-1085073340
 12892 06c8 404D51BF 		.word	-1085190848
 12893 06cc 1C7A4FBF 		.word	-1085310436
 12894 06d0 0A9F4DBF 		.word	-1085432054
 12895 06d4 F9BB4BBF 		.word	-1085555719
 12896 06d8 0BD149BF 		.word	-1085681397
 12897 06dc 61DE47BF 		.word	-1085809055
 12898 06e0 FCE345BF 		.word	-1085938692
 12899 06e4 FCE143BF 		.word	-1086070276
ARM GAS  /tmp/ccYdlVIk.s 			page 229


 12900 06e8 73D841BF 		.word	-1086203789
 12901 06ec 60C73FBF 		.word	-1086339232
 12902 06f0 F7AE3DBF 		.word	-1086476553
 12903 06f4 368F3BBF 		.word	-1086615754
 12904 06f8 406839BF 		.word	-1086756800
 12905 06fc 263A37BF 		.word	-1086899674
 12906 0700 F70435BF 		.word	-1087044361
 12907 0704 C5C832BF 		.word	-1087190843
 12908 0708 C28530BF 		.word	-1087339070
 12909 070c DE3B2EBF 		.word	-1087489058
 12910 0710 4AEB2BBF 		.word	-1087640758
 12911 0714 189429BF 		.word	-1087794152
 12912 0718 593627BF 		.word	-1087949223
 12913 071c 1CD224BF 		.word	-1088105956
 12914 0720 946722BF 		.word	-1088264300
 12915 0724 C2F61FBF 		.word	-1088424254
 12916 0728 C77F1DBF 		.word	-1088585785
 12917 072c C5021BBF 		.word	-1088748859
 12918 0730 BB7F18BF 		.word	-1088913477
 12919 0734 DCF615BF 		.word	-1089079588
 12920 0738 276813BF 		.word	-1089247193
 12921 073c D0D310BF 		.word	-1089416240
 12922 0740 D6390EBF 		.word	-1089586730
 12923 0744 6B9A0BBF 		.word	-1089758613
 12924 0748 A1F508BF 		.word	-1089931871
 12925 074c 884B06BF 		.word	-1090106488
 12926 0750 419C03BF 		.word	-1090282431
 12927 0754 DEE700BF 		.word	-1090459682
 12928 0758 205DFCBE 		.word	-1090757344
 12929 075c D2E0F6BE 		.word	-1091116846
 12930 0760 F35AF1BE 		.word	-1091478797
 12931 0764 A3CBEBBE 		.word	-1091843165
 12932 0768 6A33E6BE 		.word	-1092209814
 12933 076c 4792E0BE 		.word	-1092578745
 12934 0770 7DE8DABE 		.word	-1092949891
 12935 0774 5036D5BE 		.word	-1093323184
 12936 0778 C07BCFBE 		.word	-1093698624
 12937 077c 52B9C9BE 		.word	-1094076078
 12938 0780 07EFC3BE 		.word	-1094455545
 12939 0784 431DBEBE 		.word	-1094836925
 12940 0788 2844B8BE 		.word	-1095220184
 12941 078c FA63B2BE 		.word	-1095605254
 12942 0790 D97CACBE 		.word	-1095992103
 12943 0794 088FA6BE 		.word	-1096380664
 12944 0798 ED9AA0BE 		.word	-1096770835
 12945 079c 88A09ABE 		.word	-1097162616
 12946 07a0 1BA094BE 		.word	-1097555941
 12947 07a4 2C9A8EBE 		.word	-1097950676
 12948 07a8 9B8E88BE 		.word	-1098346853
 12949 07ac CC7D82BE 		.word	-1098744372
 12950 07b0 C0CF78BE 		.word	-1099378752
 12951 07b4 789A6CBE 		.word	-1100178824
 12952 07b8 035C60BE 		.word	-1100981245
 12953 07bc E81454BE 		.word	-1101785880
 12954 07c0 ACC547BE 		.word	-1102592596
 12955 07c4 D66E3BBE 		.word	-1103401258
 12956 07c8 AA102FBE 		.word	-1104211798
ARM GAS  /tmp/ccYdlVIk.s 			page 230


 12957 07cc ACAB22BE 		.word	-1105024084
 12958 07d0 644016BE 		.word	-1105837980
 12959 07d4 57CF09BE 		.word	-1106653353
 12960 07d8 18B2FABD 		.word	-1107643880
 12961 07dc 12BCE1BD 		.word	-1109279726
 12962 07e0 23BDC8BD 		.word	-1110917853
 12963 07e4 56B6AFBD 		.word	-1112557994
 12964 07e8 3FA996BD 		.word	-1114199745
 12965 07ec BB2B7BBD 		.word	-1116001349
 12966 07f0 87FB48BD 		.word	-1119290489
 12967 07f4 F0C216BD 		.word	-1122581776
 12968 07f8 350AC9BC 		.word	-1127675339
 12969 07fc 4E0C49BC 		.word	-1136063410
 12970              		.global	vocablist_posture
 12971              		.section	.data.vocablist_posture,"aw"
 12972              		.align	2
 12973              		.type	vocablist_posture, %object
 12974              		.size	vocablist_posture, 256
 12975              	vocablist_posture:
 12976 0000 00000000 		.word	uhxposture
 12977 0004 00000000 		.word	gsposture
 12978 0008 00000000 		.word	dxxposture
 12979 000c 00000000 		.word	yxposture
 12980 0010 00000000 		.word	kxxposture
 12981 0014 00000000 		.word	txxposture
 12982 0018 00000000 		.word	qxposture
 12983 001c 00000000 		.word	shxposture
 12984 0020 00000000 		.word	eexposture
 12985 0024 00000000 		.word	qzxposture
 12986 0028 00000000 		.word	dhposture
 12987 002c 00000000 		.word	llxposture
 12988 0030 00000000 		.word	qsposture
 12989 0034 00000000 		.word	dposture
 12990 0038 00000000 		.word	hposture
 12991 003c 00000000 		.word	fposture
 12992 0040 00000000 		.word	lposture
 12993 0044 00000000 		.word	qcposture
 12994 0048 00000000 		.word	tposture
 12995 004c 00000000 		.word	zhposture
 12996 0050 00000000 		.word	erposture
 12997 0054 00000000 		.word	rrposture
 12998 0058 00000000 		.word	oxposture
 12999 005c 00000000 		.word	unposture
 13000 0060 00000000 		.word	thposture
 13001 0064 00000000 		.word	onposture
 13002 0068 00000000 		.word	gposture
 13003 006c 00000000 		.word	ohposture
 13004 0070 00000000 		.word	oposture
 13005 0074 00000000 		.word	sposture
 13006 0078 00000000 		.word	chposture
 13007 007c 00000000 		.word	phposture
 13008 0080 00000000 		.word	ahxposture
 13009 0084 00000000 		.word	hvposture
 13010 0088 00000000 		.word	onxposture
 13011 008c 00000000 		.word	hvxposture
 13012 0090 00000000 		.word	hhposture
 13013 0094 00000000 		.word	uxposture
ARM GAS  /tmp/ccYdlVIk.s 			page 231


 13014 0098 00000000 		.word	bposture
 13015 009c 00000000 		.word	uuposture
 13016 00a0 00000000 		.word	jposture
 13017 00a4 00000000 		.word	nposture
 13018 00a8 00000000 		.word	iposture
 13019 00ac 00000000 		.word	rposture
 13020 00b0 00000000 		.word	pxposture
 13021 00b4 00000000 		.word	vposture
 13022 00b8 00000000 		.word	zzposture
 13023 00bc 00000000 		.word	aaposture
 13024 00c0 00000000 		.word	ahposture
 13025 00c4 00000000 		.word	anposture
 13026 00c8 00000000 		.word	arposture
 13027 00cc 00000000 		.word	awposture
 13028 00d0 00000000 		.word	inposture
 13029 00d4 00000000 		.word	ngposture
 13030 00d8 00000000 		.word	thxposture
 13031 00dc 00000000 		.word	vxposture
 13032 00e0 00000000 		.word	hhxposture
 13033 00e4 00000000 		.word	xposture
 13034 00e8 00000000 		.word	ixposture
 13035 00ec 00000000 		.word	aposture
 13036 00f0 00000000 		.word	eposture
 13037 00f4 00000000 		.word	mposture
 13038 00f8 00000000 		.word	nxposture
 13039 00fc 00000000 		.word	uposture
 13040              		.section	.rodata.uposture,"a"
 13041              		.align	2
 13042              		.type	uposture, %object
 13043              		.size	uposture, 72
 13044              	uposture:
 13045 0000 00000000 		.word	0
 13046 0004 00007042 		.word	1114636288
 13047 0008 00000000 		.word	0
 13048 000c 00000000 		.word	0
 13049 0010 0000B040 		.word	1085276160
 13050 0014 00401C45 		.word	1159479296
 13051 0018 0000FA43 		.word	1140457472
 13052 001c CDCC4C3F 		.word	1061997773
 13053 0020 0000203F 		.word	1059061760
 13054 0024 9A99193F 		.word	1058642330
 13055 0028 E17A343F 		.word	1060403937
 13056 002c 295C8F3F 		.word	1066359849
 13057 0030 3D0AF73F 		.word	1073154621
 13058 0034 85EBC13F 		.word	1069673349
 13059 0038 0000203F 		.word	1059061760
 13060 003c CDCCCC3D 		.word	1036831949
 13061 0040 00004C42 		.word	1112276992
 13062 0044 6666DE41 		.word	1105094246
 13063              		.section	.rodata.nxposture,"a"
 13064              		.align	2
 13065              		.type	nxposture, %object
 13066              		.size	nxposture, 72
 13067              	nxposture:
 13068 0000 00000000 		.word	0
 13069 0004 00007042 		.word	1114636288
 13070 0008 00000000 		.word	0
ARM GAS  /tmp/ccYdlVIk.s 			page 232


 13071 000c 00000000 		.word	0
 13072 0010 0000B040 		.word	1085276160
 13073 0014 00401C45 		.word	1159479296
 13074 0018 0000FA43 		.word	1140457472
 13075 001c CDCC4C3F 		.word	1061997773
 13076 0020 14AEA73F 		.word	1067953684
 13077 0024 52B8BE3F 		.word	1069463634
 13078 0028 0000A03F 		.word	1067450368
 13079 002c 0000803F 		.word	1065353216
 13080 0030 CDCC4C3D 		.word	1028443341
 13081 0034 EC51B83F 		.word	1069044204
 13082 0038 14AEA73F 		.word	1067953684
 13083 003c 0000003F 		.word	1056964608
 13084 0040 00008442 		.word	1115947008
 13085 0044 9A99CD41 		.word	1103993242
 13086              		.section	.rodata.mposture,"a"
 13087              		.align	2
 13088              		.type	mposture, %object
 13089              		.size	mposture, 72
 13090              	mposture:
 13091 0000 00000000 		.word	0
 13092 0004 00007042 		.word	1114636288
 13093 0008 00000000 		.word	0
 13094 000c 00000000 		.word	0
 13095 0010 0000B040 		.word	1085276160
 13096 0014 00401C45 		.word	1159479296
 13097 0018 0000FA43 		.word	1140457472
 13098 001c CDCC4C3F 		.word	1061997773
 13099 0020 0AD7633F 		.word	1063507722
 13100 0024 5C8F423F 		.word	1061326684
 13101 0028 0AD7A33F 		.word	1067702026
 13102 002c 6666E63F 		.word	1072064102
 13103 0030 A4707D3F 		.word	1065185444
 13104 0034 3D0A573F 		.word	1062668861
 13105 0038 CDCCCC3D 		.word	1036831949
 13106 003c 0000003F 		.word	1056964608
 13107 0040 33334742 		.word	1111962419
 13108 0044 00008041 		.word	1098907648
 13109              		.section	.rodata.eposture,"a"
 13110              		.align	2
 13111              		.type	eposture, %object
 13112              		.size	eposture, 72
 13113              	eposture:
 13114 0000 00000000 		.word	0
 13115 0004 00007042 		.word	1114636288
 13116 0008 00000000 		.word	0
 13117 000c 00000000 		.word	0
 13118 0010 0000B040 		.word	1085276160
 13119 0014 00401C45 		.word	1159479296
 13120 0018 0000FA43 		.word	1140457472
 13121 001c CDCC4C3F 		.word	1061997773
 13122 0020 7B142E3F 		.word	1059984507
 13123 0024 295C8F3F 		.word	1066359849
 13124 0028 C3F5D83F 		.word	1071183299
 13125 002c AE47B13F 		.word	1068582830
 13126 0030 C3F5883F 		.word	1065940419
 13127 0034 8FC2853F 		.word	1065730703
ARM GAS  /tmp/ccYdlVIk.s 			page 233


 13128 0038 0AD70340 		.word	1073993482
 13129 003c CDCCCC3D 		.word	1036831949
 13130 0040 00007442 		.word	1114898432
 13131 0044 6666DE41 		.word	1105094246
 13132              		.section	.rodata.aposture,"a"
 13133              		.align	2
 13134              		.type	aposture, %object
 13135              		.size	aposture, 72
 13136              	aposture:
 13137 0000 00000000 		.word	0
 13138 0004 00007042 		.word	1114636288
 13139 0008 00000000 		.word	0
 13140 000c 00000000 		.word	0
 13141 0010 0000B040 		.word	1085276160
 13142 0014 00401C45 		.word	1159479296
 13143 0018 0000FA43 		.word	1140457472
 13144 001c CDCC4C3F 		.word	1061997773
 13145 0020 6666263F 		.word	1059481190
 13146 0024 6666263F 		.word	1059481190
 13147 0028 6666263F 		.word	1059481190
 13148 002c 14AEA73F 		.word	1067953684
 13149 0030 A4709D3F 		.word	1067282596
 13150 0034 14AEA73F 		.word	1067953684
 13151 0038 8FC2D53F 		.word	1070973583
 13152 003c CDCCCC3D 		.word	1036831949
 13153 0040 00009A42 		.word	1117388800
 13154 0044 6666DE41 		.word	1105094246
 13155              		.section	.rodata.ixposture,"a"
 13156              		.align	2
 13157              		.type	ixposture, %object
 13158              		.size	ixposture, 72
 13159              	ixposture:
 13160 0000 00000000 		.word	0
 13161 0004 00007042 		.word	1114636288
 13162 0008 00000000 		.word	0
 13163 000c 00000000 		.word	0
 13164 0010 0000B040 		.word	1085276160
 13165 0014 00401C45 		.word	1159479296
 13166 0018 0000FA43 		.word	1140457472
 13167 001c CDCC4C3F 		.word	1061997773
 13168 0020 8FC2853F 		.word	1065730703
 13169 0024 EC51C83F 		.word	1070092780
 13170 0028 0000E03F 		.word	1071644672
 13171 002c D7A3703F 		.word	1064346583
 13172 0030 7B142E3F 		.word	1059984507
 13173 0034 C3F5483F 		.word	1061746115
 13174 0038 295C8F3F 		.word	1066359849
 13175 003c CDCCCC3D 		.word	1036831949
 13176 0040 66669842 		.word	1117283942
 13177 0044 6666DE41 		.word	1105094246
 13178              		.section	.rodata.xposture,"a"
 13179              		.align	2
 13180              		.type	xposture, %object
 13181              		.size	xposture, 72
 13182              	xposture:
 13183 0000 00000000 		.word	0
 13184 0004 00000000 		.word	0
ARM GAS  /tmp/ccYdlVIk.s 			page 234


 13185 0008 00000000 		.word	0
 13186 000c 0000003F 		.word	1056964608
 13187 0010 00000040 		.word	1073741824
 13188 0014 0040DD44 		.word	1155350528
 13189 0018 00006144 		.word	1147207680
 13190 001c CDCC4C3F 		.word	1061997773
 13191 0020 9A99D93F 		.word	1071225242
 13192 0024 6666A63F 		.word	1067869798
 13193 0028 CDCCCC3E 		.word	1053609165
 13194 002c A4707D3F 		.word	1065185444
 13195 0030 C3F5883F 		.word	1065940419
 13196 0034 48E13A3F 		.word	1060823368
 13197 0038 52B8BE3F 		.word	1069463634
 13198 003c CDCCCC3D 		.word	1036831949
 13199 0040 0000C442 		.word	1120141312
 13200 0044 0000F041 		.word	1106247680
 13201              		.section	.rodata.hhxposture,"a"
 13202              		.align	2
 13203              		.type	hhxposture, %object
 13204              		.size	hhxposture, 72
 13205              	hhxposture:
 13206 0000 00000000 		.word	0
 13207 0004 00000000 		.word	0
 13208 0008 00002041 		.word	1092616192
 13209 000c 00000000 		.word	0
 13210 0010 0000803F 		.word	1065353216
 13211 0014 00007A44 		.word	1148846080
 13212 0018 00007A44 		.word	1148846080
 13213 001c CDCC4C3F 		.word	1061997773
 13214 0020 8FC2753E 		.word	1047904911
 13215 0024 CDCCCC3E 		.word	1053609165
 13216 0028 295C4F3F 		.word	1062165545
 13217 002c 5C8F423F 		.word	1061326684
 13218 0030 6666863F 		.word	1065772646
 13219 0034 A4709D3F 		.word	1067282596
 13220 0038 295C8F3F 		.word	1066359849
 13221 003c CDCCCC3D 		.word	1036831949
 13222 0040 6666F842 		.word	1123575398
 13223 0044 9A99C141 		.word	1103206810
 13224              		.section	.rodata.vxposture,"a"
 13225              		.align	2
 13226              		.type	vxposture, %object
 13227              		.size	vxposture, 72
 13228              	vxposture:
 13229 0000 000080BF 		.word	-1082130432
 13230 0004 00005842 		.word	1113063424
 13231 0008 00000000 		.word	0
 13232 000c CDCC4C3E 		.word	1045220557
 13233 0010 0000E040 		.word	1088421888
 13234 0014 00404E45 		.word	1162756096
 13235 0018 00007A44 		.word	1148846080
 13236 001c CDCC4C3F 		.word	1061997773
 13237 0020 0AD7633F 		.word	1063507722
 13238 0024 A4707D3F 		.word	1065185444
 13239 0028 295C4F3F 		.word	1062165545
 13240 002c 5C8F423F 		.word	1061326684
 13241 0030 0AD7633F 		.word	1063507722
ARM GAS  /tmp/ccYdlVIk.s 			page 235


 13242 0034 3D0A573F 		.word	1062668861
 13243 0038 0000003F 		.word	1056964608
 13244 003c CDCCCC3D 		.word	1036831949
 13245 0040 00008C42 		.word	1116471296
 13246 0044 00003042 		.word	1110441984
 13247              		.section	.rodata.thxposture,"a"
 13248              		.align	2
 13249              		.type	thxposture, %object
 13250              		.size	thxposture, 72
 13251              	thxposture:
 13252 0000 00000000 		.word	0
 13253 0004 00000000 		.word	0
 13254 0008 00000000 		.word	0
 13255 000c 0000803E 		.word	1048576000
 13256 0010 0000C040 		.word	1086324736
 13257 0014 00808945 		.word	1166639104
 13258 0018 00A08C45 		.word	1166843904
 13259 001c CDCC4C3F 		.word	1061997773
 13260 0020 9A99993F 		.word	1067030938
 13261 0024 0000C03F 		.word	1069547520
 13262 0028 CDCCAC3F 		.word	1068289229
 13263 002c 9A99993F 		.word	1067030938
 13264 0030 9A99993F 		.word	1067030938
 13265 0034 CDCCCC3E 		.word	1053609165
 13266 0038 0000C03F 		.word	1069547520
 13267 003c CDCCCC3D 		.word	1036831949
 13268 0040 6666E842 		.word	1122526822
 13269 0044 00002042 		.word	1109393408
 13270              		.section	.rodata.ngposture,"a"
 13271              		.align	2
 13272              		.type	ngposture, %object
 13273              		.size	ngposture, 72
 13274              	ngposture:
 13275 0000 00000000 		.word	0
 13276 0004 00007042 		.word	1114636288
 13277 0008 00000000 		.word	0
 13278 000c 00000000 		.word	0
 13279 0010 0000B040 		.word	1085276160
 13280 0014 00401C45 		.word	1159479296
 13281 0018 0000FA43 		.word	1140457472
 13282 001c CDCC4C3F 		.word	1061997773
 13283 0020 9A99D93F 		.word	1071225242
 13284 0024 6666A63F 		.word	1067869798
 13285 0028 A4707D3F 		.word	1065185444
 13286 002c CDCCCC3D 		.word	1036831949
 13287 0030 C3F5883F 		.word	1065940419
 13288 0034 48E13A3F 		.word	1060823368
 13289 0038 52B8BE3F 		.word	1069463634
 13290 003c 0000003F 		.word	1056964608
 13291 0040 00004842 		.word	1112014848
 13292 0044 0000E441 		.word	1105461248
 13293              		.section	.rodata.inposture,"a"
 13294              		.align	2
 13295              		.type	inposture, %object
 13296              		.size	inposture, 72
 13297              	inposture:
 13298 0000 00000000 		.word	0
ARM GAS  /tmp/ccYdlVIk.s 			page 236


 13299 0004 00007042 		.word	1114636288
 13300 0008 00000000 		.word	0
 13301 000c 00000000 		.word	0
 13302 0010 0000B040 		.word	1085276160
 13303 0014 00401C45 		.word	1159479296
 13304 0018 0000FA43 		.word	1140457472
 13305 001c CDCC4C3F 		.word	1061997773
 13306 0020 6666263F 		.word	1059481190
 13307 0024 8FC2553F 		.word	1062584975
 13308 0028 3333933F 		.word	1066611507
 13309 002c 3D0AA73F 		.word	1067911741
 13310 0030 1F85CB3F 		.word	1070302495
 13311 0034 1F85CB3F 		.word	1070302495
 13312 0038 3D0A2740 		.word	1076300349
 13313 003c 0000C03F 		.word	1069547520
 13314 0040 0000A842 		.word	1118306304
 13315 0044 6666DE41 		.word	1105094246
 13316              		.section	.rodata.awposture,"a"
 13317              		.align	2
 13318              		.type	awposture, %object
 13319              		.size	awposture, 72
 13320              	awposture:
 13321 0000 00000000 		.word	0
 13322 0004 00007042 		.word	1114636288
 13323 0008 00000000 		.word	0
 13324 000c 00000000 		.word	0
 13325 0010 0000B040 		.word	1085276160
 13326 0014 00401C45 		.word	1159479296
 13327 0018 0000FA43 		.word	1140457472
 13328 001c CDCC4C3F 		.word	1061997773
 13329 0020 CDCC8C3F 		.word	1066192077
 13330 0024 D7A3703F 		.word	1064346583
 13331 0028 3D0AD73E 		.word	1054280253
 13332 002c 52B8BE3F 		.word	1069463634
 13333 0030 8FC2D53F 		.word	1070973583
 13334 0034 0AD7E33F 		.word	1071896330
 13335 0038 6666863F 		.word	1065772646
 13336 003c CDCCCC3D 		.word	1036831949
 13337 0040 0000E442 		.word	1122238464
 13338 0044 6666DE41 		.word	1105094246
 13339              		.section	.rodata.arposture,"a"
 13340              		.align	2
 13341              		.type	arposture, %object
 13342              		.size	arposture, 72
 13343              	arposture:
 13344 0000 00000000 		.word	0
 13345 0004 00007042 		.word	1114636288
 13346 0008 00000000 		.word	0
 13347 000c 00000000 		.word	0
 13348 0010 0000B040 		.word	1085276160
 13349 0014 00401C45 		.word	1159479296
 13350 0018 0000FA43 		.word	1140457472
 13351 001c CDCC4C3F 		.word	1061997773
 13352 0020 B81E053F 		.word	1057300152
 13353 0024 6666E63E 		.word	1055286886
 13354 0028 713D4A3F 		.word	1061830001
 13355 002c 52B8BE3F 		.word	1069463634
ARM GAS  /tmp/ccYdlVIk.s 			page 237


 13356 0030 8FC2D53F 		.word	1070973583
 13357 0034 5C8F823F 		.word	1065520988
 13358 0038 1F85CB3F 		.word	1070302495
 13359 003c CDCCCC3D 		.word	1036831949
 13360 0040 9A99D542 		.word	1121294746
 13361 0044 6666DE41 		.word	1105094246
 13362              		.section	.rodata.anposture,"a"
 13363              		.align	2
 13364              		.type	anposture, %object
 13365              		.size	anposture, 72
 13366              	anposture:
 13367 0000 00000000 		.word	0
 13368 0004 00007042 		.word	1114636288
 13369 0008 00000000 		.word	0
 13370 000c 00000000 		.word	0
 13371 0010 0000B040 		.word	1085276160
 13372 0014 00401C45 		.word	1159479296
 13373 0018 0000FA43 		.word	1140457472
 13374 001c CDCC4C3F 		.word	1061997773
 13375 0020 B81E053F 		.word	1057300152
 13376 0024 6666E63E 		.word	1055286886
 13377 0028 713D4A3F 		.word	1061830001
 13378 002c 52B8BE3F 		.word	1069463634
 13379 0030 8FC2D53F 		.word	1070973583
 13380 0034 5C8F823F 		.word	1065520988
 13381 0038 1F85CB3F 		.word	1070302495
 13382 003c 0000C03F 		.word	1069547520
 13383 0040 9A99D542 		.word	1121294746
 13384 0044 6666DE41 		.word	1105094246
 13385              		.section	.rodata.ahposture,"a"
 13386              		.align	2
 13387              		.type	ahposture, %object
 13388              		.size	ahposture, 72
 13389              	ahposture:
 13390 0000 00000000 		.word	0
 13391 0004 00007042 		.word	1114636288
 13392 0008 00000000 		.word	0
 13393 000c 00000000 		.word	0
 13394 0010 0000B040 		.word	1085276160
 13395 0014 00401C45 		.word	1159479296
 13396 0018 0000FA43 		.word	1140457472
 13397 001c CDCC4C3F 		.word	1061997773
 13398 0020 6666263F 		.word	1059481190
 13399 0024 6666E63E 		.word	1055286886
 13400 0028 D7A3703F 		.word	1064346583
 13401 002c CDCC8C3F 		.word	1066192077
 13402 0030 5C8FC23F 		.word	1069715292
 13403 0034 48E1BA3F 		.word	1069211976
 13404 0038 CDCC1C40 		.word	1075629261
 13405 003c CDCCCC3D 		.word	1036831949
 13406 0040 CDCC8242 		.word	1115868365
 13407 0044 6666DE41 		.word	1105094246
 13408              		.section	.rodata.aaposture,"a"
 13409              		.align	2
 13410              		.type	aaposture, %object
 13411              		.size	aaposture, 72
 13412              	aaposture:
ARM GAS  /tmp/ccYdlVIk.s 			page 238


 13413 0000 00000000 		.word	0
 13414 0004 00007042 		.word	1114636288
 13415 0008 00000000 		.word	0
 13416 000c 00000000 		.word	0
 13417 0010 0000B040 		.word	1085276160
 13418 0014 00401C45 		.word	1159479296
 13419 0018 0000FA43 		.word	1140457472
 13420 001c CDCC4C3F 		.word	1061997773
 13421 0020 6666263F 		.word	1059481190
 13422 0024 3D0A573F 		.word	1062668861
 13423 0028 3333933F 		.word	1066611507
 13424 002c 14AEA73F 		.word	1067953684
 13425 0030 1F85CB3F 		.word	1070302495
 13426 0034 1F85CB3F 		.word	1070302495
 13427 0038 3D0A2740 		.word	1076300349
 13428 003c CDCCCC3D 		.word	1036831949
 13429 0040 0000A842 		.word	1118306304
 13430 0044 6666DE41 		.word	1105094246
 13431              		.section	.rodata.zzposture,"a"
 13432              		.align	2
 13433              		.type	zzposture, %object
 13434              		.size	zzposture, 72
 13435              	zzposture:
 13436 0000 000080BF 		.word	-1082130432
 13437 0004 00005842 		.word	1113063424
 13438 0008 00000000 		.word	0
 13439 000c CDCC4C3F 		.word	1061997773
 13440 0010 9A99B940 		.word	1085905306
 13441 0014 00E0AB45 		.word	1168891904
 13442 0018 0000FA43 		.word	1140457472
 13443 001c CDCC4C3F 		.word	1061997773
 13444 0020 14AEA73F 		.word	1067953684
 13445 0024 52B8BE3F 		.word	1069463634
 13446 0028 0000A03F 		.word	1067450368
 13447 002c 6666663F 		.word	1063675494
 13448 0030 CDCC4C3E 		.word	1045220557
 13449 0034 9A99193F 		.word	1058642330
 13450 0038 14AEA73F 		.word	1067953684
 13451 003c CDCCCC3D 		.word	1036831949
 13452 0040 66666242 		.word	1113744998
 13453 0044 3333F341 		.word	1106457395
 13454              		.section	.rodata.vposture,"a"
 13455              		.align	2
 13456              		.type	vposture, %object
 13457              		.size	vposture, 72
 13458              	vposture:
 13459 0000 000080BF 		.word	-1082130432
 13460 0004 00005842 		.word	1113063424
 13461 0008 00000000 		.word	0
 13462 000c CDCC4C3E 		.word	1045220557
 13463 0010 0000E040 		.word	1088421888
 13464 0014 00404E45 		.word	1162756096
 13465 0018 00007A44 		.word	1148846080
 13466 001c CDCC4C3F 		.word	1061997773
 13467 0020 0AD7633F 		.word	1063507722
 13468 0024 A4707D3F 		.word	1065185444
 13469 0028 295C4F3F 		.word	1062165545
ARM GAS  /tmp/ccYdlVIk.s 			page 239


 13470 002c 5C8F423F 		.word	1061326684
 13471 0030 0AD7633F 		.word	1063507722
 13472 0034 3D0A573F 		.word	1062668861
 13473 0038 0000003F 		.word	1056964608
 13474 003c CDCCCC3D 		.word	1036831949
 13475 0040 9A994142 		.word	1111595418
 13476 0044 00003042 		.word	1110441984
 13477              		.section	.rodata.pxposture,"a"
 13478              		.align	2
 13479              		.type	pxposture, %object
 13480              		.size	pxposture, 72
 13481              	pxposture:
 13482 0000 000020C1 		.word	-1054867456
 13483 0004 00000000 		.word	0
 13484 0008 00000000 		.word	0
 13485 000c 00000000 		.word	0
 13486 0010 0000E040 		.word	1088421888
 13487 0014 0000FA44 		.word	1157234688
 13488 0018 00002F44 		.word	1143930880
 13489 001c CDCC4C3F 		.word	1061997773
 13490 0020 0AD7633F 		.word	1063507722
 13491 0024 5C8F423F 		.word	1061326684
 13492 0028 0AD7A33F 		.word	1067702026
 13493 002c 6666E63F 		.word	1072064102
 13494 0030 A4707D3F 		.word	1065185444
 13495 0034 3D0A573F 		.word	1062668861
 13496 0038 CDCCCC3D 		.word	1036831949
 13497 003c CDCCCC3D 		.word	1036831949
 13498 0040 3333A342 		.word	1117991731
 13499 0044 66669241 		.word	1100113510
 13500              		.section	.rodata.rposture,"a"
 13501              		.align	2
 13502              		.type	rposture, %object
 13503              		.size	rposture, 72
 13504              	rposture:
 13505 0000 00000000 		.word	0
 13506 0004 00007042 		.word	1114636288
 13507 0008 00000000 		.word	0
 13508 000c 00000000 		.word	0
 13509 0010 0000B040 		.word	1085276160
 13510 0014 00401C45 		.word	1159479296
 13511 0018 0000FA43 		.word	1140457472
 13512 001c CDCC4C3F 		.word	1061997773
 13513 0020 14AEA73F 		.word	1067953684
 13514 0024 48E13A3F 		.word	1060823368
 13515 0028 C3F5883F 		.word	1065940419
 13516 002c 14AE0740 		.word	1074245140
 13517 0030 D7A3F03E 		.word	1055957975
 13518 0034 0AD7E33F 		.word	1071896330
 13519 0038 6666263F 		.word	1059481190
 13520 003c CDCCCC3D 		.word	1036831949
 13521 0040 9A992142 		.word	1109498266
 13522 0044 00002042 		.word	1109393408
 13523              		.section	.rodata.iposture,"a"
 13524              		.align	2
 13525              		.type	iposture, %object
 13526              		.size	iposture, 72
ARM GAS  /tmp/ccYdlVIk.s 			page 240


 13527              	iposture:
 13528 0000 00000000 		.word	0
 13529 0004 00007042 		.word	1114636288
 13530 0008 00000000 		.word	0
 13531 000c 00000000 		.word	0
 13532 0010 0000B040 		.word	1085276160
 13533 0014 00401C45 		.word	1159479296
 13534 0018 0000FA43 		.word	1140457472
 13535 001c CDCC4C3F 		.word	1061997773
 13536 0020 8FC2853F 		.word	1065730703
 13537 0024 EC51C83F 		.word	1070092780
 13538 0028 0000E03F 		.word	1071644672
 13539 002c D7A3703F 		.word	1064346583
 13540 0030 7B142E3F 		.word	1059984507
 13541 0034 C3F5483F 		.word	1061746115
 13542 0038 295C8F3F 		.word	1066359849
 13543 003c CDCCCC3D 		.word	1036831949
 13544 0040 CDCC5442 		.word	1112853709
 13545 0044 6666DE41 		.word	1105094246
 13546              		.section	.rodata.nposture,"a"
 13547              		.align	2
 13548              		.type	nposture, %object
 13549              		.size	nposture, 72
 13550              	nposture:
 13551 0000 00000000 		.word	0
 13552 0004 00007042 		.word	1114636288
 13553 0008 00000000 		.word	0
 13554 000c 00000000 		.word	0
 13555 0010 0000B040 		.word	1085276160
 13556 0014 00401C45 		.word	1159479296
 13557 0018 0000FA43 		.word	1140457472
 13558 001c CDCC4C3F 		.word	1061997773
 13559 0020 14AEA73F 		.word	1067953684
 13560 0024 52B8BE3F 		.word	1069463634
 13561 0028 0000A03F 		.word	1067450368
 13562 002c 0000803F 		.word	1065353216
 13563 0030 CDCC4C3D 		.word	1028443341
 13564 0034 EC51B83F 		.word	1069044204
 13565 0038 14AEA73F 		.word	1067953684
 13566 003c 0000003F 		.word	1056964608
 13567 0040 66664A42 		.word	1112172134
 13568 0044 9A99CD41 		.word	1103993242
 13569              		.section	.rodata.jposture,"a"
 13570              		.align	2
 13571              		.type	jposture, %object
 13572              		.size	jposture, 72
 13573              	jposture:
 13574 0000 000000C0 		.word	-1073741824
 13575 0004 00004042 		.word	1111490560
 13576 0008 00000000 		.word	0
 13577 000c 00000000 		.word	0
 13578 0010 3333B340 		.word	1085485875
 13579 0014 00401C45 		.word	1159479296
 13580 0018 00802245 		.word	1159888896
 13581 001c CDCC4C3F 		.word	1061997773
 13582 0020 7B14AE3F 		.word	1068373115
 13583 0024 52B8DE3F 		.word	1071560786
ARM GAS  /tmp/ccYdlVIk.s 			page 241


 13584 0028 295CEF3F 		.word	1072651305
 13585 002c D7A3703F 		.word	1064346583
 13586 0030 00000000 		.word	0
 13587 0034 713D4A3F 		.word	1061830001
 13588 0038 713D4A3F 		.word	1061830001
 13589 003c CDCCCC3D 		.word	1036831949
 13590 0040 CDCCBA42 		.word	1119538381
 13591 0044 9A99C141 		.word	1103206810
 13592              		.section	.rodata.uuposture,"a"
 13593              		.align	2
 13594              		.type	uuposture, %object
 13595              		.size	uuposture, 72
 13596              	uuposture:
 13597 0000 00000000 		.word	0
 13598 0004 00007042 		.word	1114636288
 13599 0008 00000000 		.word	0
 13600 000c 00000000 		.word	0
 13601 0010 0000B040 		.word	1085276160
 13602 0014 00401C45 		.word	1159479296
 13603 0018 0000FA43 		.word	1140457472
 13604 001c CDCC4C3F 		.word	1061997773
 13605 0020 E17AF43F 		.word	1072986849
 13606 0024 EC51B83F 		.word	1069044204
 13607 0028 9A99193F 		.word	1058642330
 13608 002c 5C8F823F 		.word	1065520988
 13609 0030 713DAA3F 		.word	1068121457
 13610 0034 14AEC73F 		.word	1070050836
 13611 0038 CDCC0C3F 		.word	1057803469
 13612 003c CDCCCC3D 		.word	1036831949
 13613 0040 6666D242 		.word	1121085030
 13614 0044 6666DE41 		.word	1105094246
 13615              		.section	.rodata.bposture,"a"
 13616              		.align	2
 13617              		.type	bposture, %object
 13618              		.size	bposture, 72
 13619              	bposture:
 13620 0000 000000C0 		.word	-1073741824
 13621 0004 00002E42 		.word	1110310912
 13622 0008 00000000 		.word	0
 13623 000c 00000000 		.word	0
 13624 0010 0000E040 		.word	1088421888
 13625 0014 0000FA44 		.word	1157234688
 13626 0018 00002F44 		.word	1143930880
 13627 001c CDCC4C3F 		.word	1061997773
 13628 0020 0AD7633F 		.word	1063507722
 13629 0024 5C8F423F 		.word	1061326684
 13630 0028 0AD7A33F 		.word	1067702026
 13631 002c 6666E63F 		.word	1072064102
 13632 0030 A4707D3F 		.word	1065185444
 13633 0034 3D0A573F 		.word	1062668861
 13634 0038 CDCCCC3D 		.word	1036831949
 13635 003c CDCCCC3D 		.word	1036831949
 13636 0040 00007442 		.word	1114898432
 13637 0044 0000C041 		.word	1103101952
 13638              		.section	.rodata.uxposture,"a"
 13639              		.align	2
 13640              		.type	uxposture, %object
ARM GAS  /tmp/ccYdlVIk.s 			page 242


 13641              		.size	uxposture, 72
 13642              	uxposture:
 13643 0000 00000000 		.word	0
 13644 0004 00007042 		.word	1114636288
 13645 0008 00000000 		.word	0
 13646 000c 00000000 		.word	0
 13647 0010 0000B040 		.word	1085276160
 13648 0014 00401C45 		.word	1159479296
 13649 0018 0000FA43 		.word	1140457472
 13650 001c CDCC4C3F 		.word	1061997773
 13651 0020 0000203F 		.word	1059061760
 13652 0024 9A99193F 		.word	1058642330
 13653 0028 E17A343F 		.word	1060403937
 13654 002c 295C8F3F 		.word	1066359849
 13655 0030 3D0AF73F 		.word	1073154621
 13656 0034 85EBC13F 		.word	1069673349
 13657 0038 0000203F 		.word	1059061760
 13658 003c CDCCCC3D 		.word	1036831949
 13659 0040 9A99D942 		.word	1121556890
 13660 0044 6666DE41 		.word	1105094246
 13661              		.section	.rodata.hhposture,"a"
 13662              		.align	2
 13663              		.type	hhposture, %object
 13664              		.size	hhposture, 72
 13665              	hhposture:
 13666 0000 00000000 		.word	0
 13667 0004 00000000 		.word	0
 13668 0008 00002041 		.word	1092616192
 13669 000c 00000000 		.word	0
 13670 0010 0000803F 		.word	1065353216
 13671 0014 00007A44 		.word	1148846080
 13672 0018 00007A44 		.word	1148846080
 13673 001c CDCC4C3F 		.word	1061997773
 13674 0020 8FC2753E 		.word	1047904911
 13675 0024 CDCCCC3E 		.word	1053609165
 13676 0028 295C4F3F 		.word	1062165545
 13677 002c 5C8F423F 		.word	1061326684
 13678 0030 6666863F 		.word	1065772646
 13679 0034 A4709D3F 		.word	1067282596
 13680 0038 295C8F3F 		.word	1066359849
 13681 003c CDCCCC3D 		.word	1036831949
 13682 0040 33337F42 		.word	1115632435
 13683 0044 CDCC0842 		.word	1107872973
 13684              		.section	.rodata.hvxposture,"a"
 13685              		.align	2
 13686              		.type	hvxposture, %object
 13687              		.size	hvxposture, 72
 13688              	hvxposture:
 13689 0000 00000000 		.word	0
 13690 0004 00002842 		.word	1109917696
 13691 0008 00002041 		.word	1092616192
 13692 000c 00000000 		.word	0
 13693 0010 0000B040 		.word	1085276160
 13694 0014 00401C45 		.word	1159479296
 13695 0018 0000FA43 		.word	1140457472
 13696 001c CDCC4C3F 		.word	1061997773
 13697 0020 CDCC4C3F 		.word	1061997773
ARM GAS  /tmp/ccYdlVIk.s 			page 243


 13698 0024 CDCC4C3F 		.word	1061997773
 13699 0028 CDCC4C3F 		.word	1061997773
 13700 002c CDCC4C3F 		.word	1061997773
 13701 0030 CDCC4C3F 		.word	1061997773
 13702 0034 CDCC4C3F 		.word	1061997773
 13703 0038 CDCC4C3F 		.word	1061997773
 13704 003c CDCCCC3D 		.word	1036831949
 13705 0040 33338542 		.word	1116025651
 13706 0044 6666DE41 		.word	1105094246
 13707              		.section	.rodata.onxposture,"a"
 13708              		.align	2
 13709              		.type	onxposture, %object
 13710              		.size	onxposture, 72
 13711              	onxposture:
 13712 0000 00000000 		.word	0
 13713 0004 00007042 		.word	1114636288
 13714 0008 00000000 		.word	0
 13715 000c 00000000 		.word	0
 13716 0010 0000E040 		.word	1088421888
 13717 0014 0000FA44 		.word	1157234688
 13718 0018 00007A44 		.word	1148846080
 13719 001c CDCC4C3F 		.word	1061997773
 13720 0020 0000803F 		.word	1065353216
 13721 0024 CDCC6C3F 		.word	1064094925
 13722 0028 9A99193F 		.word	1058642330
 13723 002c 85EBA13F 		.word	1067576197
 13724 0030 713DEA3F 		.word	1072315761
 13725 0034 1F85FB3F 		.word	1073448223
 13726 0038 295C8F3F 		.word	1066359849
 13727 003c 0000C03F 		.word	1069547520
 13728 0040 9A99CF42 		.word	1120901530
 13729 0044 6666DE41 		.word	1105094246
 13730              		.section	.rodata.hvposture,"a"
 13731              		.align	2
 13732              		.type	hvposture, %object
 13733              		.size	hvposture, 72
 13734              	hvposture:
 13735 0000 00000000 		.word	0
 13736 0004 00002842 		.word	1109917696
 13737 0008 00002041 		.word	1092616192
 13738 000c 00000000 		.word	0
 13739 0010 0000B040 		.word	1085276160
 13740 0014 00401C45 		.word	1159479296
 13741 0018 0000FA43 		.word	1140457472
 13742 001c CDCC4C3F 		.word	1061997773
 13743 0020 CDCC4C3F 		.word	1061997773
 13744 0024 CDCC4C3F 		.word	1061997773
 13745 0028 CDCC4C3F 		.word	1061997773
 13746 002c CDCC4C3F 		.word	1061997773
 13747 0030 CDCC4C3F 		.word	1061997773
 13748 0034 CDCC4C3F 		.word	1061997773
 13749 0038 CDCC4C3F 		.word	1061997773
 13750 003c CDCCCC3D 		.word	1036831949
 13751 0040 33334742 		.word	1111962419
 13752 0044 6666DE41 		.word	1105094246
 13753              		.section	.rodata.ahxposture,"a"
 13754              		.align	2
ARM GAS  /tmp/ccYdlVIk.s 			page 244


 13755              		.type	ahxposture, %object
 13756              		.size	ahxposture, 72
 13757              	ahxposture:
 13758 0000 00000000 		.word	0
 13759 0004 00007042 		.word	1114636288
 13760 0008 00000000 		.word	0
 13761 000c 00000000 		.word	0
 13762 0010 0000B040 		.word	1085276160
 13763 0014 00401C45 		.word	1159479296
 13764 0018 0000FA43 		.word	1140457472
 13765 001c CDCC4C3F 		.word	1061997773
 13766 0020 6666263F 		.word	1059481190
 13767 0024 6666E63E 		.word	1055286886
 13768 0028 D7A3703F 		.word	1064346583
 13769 002c CDCC8C3F 		.word	1066192077
 13770 0030 5C8FC23F 		.word	1069715292
 13771 0034 48E1BA3F 		.word	1069211976
 13772 0038 CDCC1C40 		.word	1075629261
 13773 003c CDCCCC3D 		.word	1036831949
 13774 0040 0000ED42 		.word	1122828288
 13775 0044 6666DE41 		.word	1105094246
 13776              		.section	.rodata.phposture,"a"
 13777              		.align	2
 13778              		.type	phposture, %object
 13779              		.size	phposture, 72
 13780              	phposture:
 13781 0000 000080BF 		.word	-1082130432
 13782 0004 00000000 		.word	0
 13783 0008 00000000 		.word	0
 13784 000c 0000C041 		.word	1103101952
 13785 0010 0000E040 		.word	1088421888
 13786 0014 00005844 		.word	1146617856
 13787 0018 00306045 		.word	1163931648
 13788 001c CDCC4C3F 		.word	1061997773
 13789 0020 0AD7633F 		.word	1063507722
 13790 0024 A4707D3F 		.word	1065185444
 13791 0028 295C4F3F 		.word	1062165545
 13792 002c 9A99193F 		.word	1058642330
 13793 0030 B81E053F 		.word	1057300152
 13794 0034 8FC2353F 		.word	1060487823
 13795 0038 8FC2753E 		.word	1047904911
 13796 003c CDCCCC3D 		.word	1036831949
 13797 0040 0000C842 		.word	1120403456
 13798 0044 66669241 		.word	1100113510
 13799              		.section	.rodata.chposture,"a"
 13800              		.align	2
 13801              		.type	chposture, %object
 13802              		.size	chposture, 72
 13803              	chposture:
 13804 0000 000000C0 		.word	-1073741824
 13805 0004 00000000 		.word	0
 13806 0008 00000000 		.word	0
 13807 000c 00000000 		.word	0
 13808 0010 3333B340 		.word	1085485875
 13809 0014 00401C45 		.word	1159479296
 13810 0018 00802245 		.word	1159888896
 13811 001c CDCC4C3F 		.word	1061997773
ARM GAS  /tmp/ccYdlVIk.s 			page 245


 13812 0020 7B14AE3F 		.word	1068373115
 13813 0024 52B8DE3F 		.word	1071560786
 13814 0028 295CEF3F 		.word	1072651305
 13815 002c D7A3703F 		.word	1064346583
 13816 0030 00000000 		.word	0
 13817 0034 713D4A3F 		.word	1061830001
 13818 0038 713D4A3F 		.word	1061830001
 13819 003c CDCCCC3D 		.word	1036831949
 13820 0040 3333ED42 		.word	1122841395
 13821 0044 9A99C141 		.word	1103206810
 13822              		.section	.rodata.sposture,"a"
 13823              		.align	2
 13824              		.type	sposture, %object
 13825              		.size	sposture, 72
 13826              	sposture:
 13827 0000 00000000 		.word	0
 13828 0004 00000000 		.word	0
 13829 0008 00000000 		.word	0
 13830 000c CDCC4C3F 		.word	1061997773
 13831 0010 9A99B940 		.word	1085905306
 13832 0014 00E0AB45 		.word	1168891904
 13833 0018 0000FA43 		.word	1140457472
 13834 001c CDCC4C3F 		.word	1061997773
 13835 0020 14AEA73F 		.word	1067953684
 13836 0024 52B8BE3F 		.word	1069463634
 13837 0028 0000A03F 		.word	1067450368
 13838 002c 6666663F 		.word	1063675494
 13839 0030 CDCC4C3E 		.word	1045220557
 13840 0034 CDCCCC3E 		.word	1053609165
 13841 0038 14AEA73F 		.word	1067953684
 13842 003c CDCCCC3D 		.word	1036831949
 13843 0040 66669C42 		.word	1117546086
 13844 0044 CDCCEC41 		.word	1106037965
 13845              		.section	.rodata.oposture,"a"
 13846              		.align	2
 13847              		.type	oposture, %object
 13848              		.size	oposture, 72
 13849              	oposture:
 13850 0000 00000000 		.word	0
 13851 0004 00007042 		.word	1114636288
 13852 0008 00000000 		.word	0
 13853 000c 00000000 		.word	0
 13854 0010 0000B040 		.word	1085276160
 13855 0014 00401C45 		.word	1159479296
 13856 0018 0000FA43 		.word	1140457472
 13857 001c CDCC4C3F 		.word	1061997773
 13858 0020 0000803F 		.word	1065353216
 13859 0024 CDCC6C3F 		.word	1064094925
 13860 0028 9A99193F 		.word	1058642330
 13861 002c 5C8FA23F 		.word	1067618140
 13862 0030 713DEA3F 		.word	1072315761
 13863 0034 F628FC3F 		.word	1073490166
 13864 0038 295C8F3F 		.word	1066359849
 13865 003c CDCCCC3D 		.word	1036831949
 13866 0040 CDCC8C42 		.word	1116523725
 13867 0044 6666DE41 		.word	1105094246
 13868              		.section	.rodata.ohposture,"a"
ARM GAS  /tmp/ccYdlVIk.s 			page 246


 13869              		.align	2
 13870              		.type	ohposture, %object
 13871              		.size	ohposture, 72
 13872              	ohposture:
 13873 0000 00000000 		.word	0
 13874 0004 00000000 		.word	0
 13875 0008 00000000 		.word	0
 13876 000c 00000000 		.word	0
 13877 0010 0000B040 		.word	1085276160
 13878 0014 00401C45 		.word	1159479296
 13879 0018 0000FA43 		.word	1140457472
 13880 001c CDCC4C3F 		.word	1061997773
 13881 0020 5C8F623F 		.word	1063423836
 13882 0024 A4707D3F 		.word	1065185444
 13883 0028 295C4F3F 		.word	1062165545
 13884 002c AE47413F 		.word	1061242798
 13885 0030 8FC2853F 		.word	1065730703
 13886 0034 CDCC9C3F 		.word	1067240653
 13887 0038 295C8F3F 		.word	1066359849
 13888 003c CDCCCC3D 		.word	1036831949
 13889 0040 33331742 		.word	1108816691
 13890 0044 6666DE41 		.word	1105094246
 13891              		.section	.rodata.gposture,"a"
 13892              		.align	2
 13893              		.type	gposture, %object
 13894              		.size	gposture, 72
 13895              	gposture:
 13896 0000 000000C0 		.word	-1073741824
 13897 0004 00002E42 		.word	1110310912
 13898 0008 00000000 		.word	0
 13899 000c 00000000 		.word	0
 13900 0010 66669640 		.word	1083598438
 13901 0014 0000FA44 		.word	1157234688
 13902 0018 0000FA44 		.word	1157234688
 13903 001c CDCC4C3F 		.word	1061997773
 13904 0020 9A99D93F 		.word	1071225242
 13905 0024 6666A63F 		.word	1067869798
 13906 0028 A4707D3F 		.word	1065185444
 13907 002c CDCCCC3D 		.word	1036831949
 13908 0030 C3F5883F 		.word	1065940419
 13909 0034 48E13A3F 		.word	1060823368
 13910 0038 52B8BE3F 		.word	1069463634
 13911 003c CDCCCC3D 		.word	1036831949
 13912 0040 9A995542 		.word	1112906138
 13913 0044 0000B041 		.word	1102053376
 13914              		.section	.rodata.onposture,"a"
 13915              		.align	2
 13916              		.type	onposture, %object
 13917              		.size	onposture, 72
 13918              	onposture:
 13919 0000 00000000 		.word	0
 13920 0004 00007042 		.word	1114636288
 13921 0008 00000000 		.word	0
 13922 000c 00000000 		.word	0
 13923 0010 0000B040 		.word	1085276160
 13924 0014 00401C45 		.word	1159479296
 13925 0018 0000FA43 		.word	1140457472
ARM GAS  /tmp/ccYdlVIk.s 			page 247


 13926 001c CDCC4C3F 		.word	1061997773
 13927 0020 0000803F 		.word	1065353216
 13928 0024 CDCC6C3F 		.word	1064094925
 13929 0028 9A99193F 		.word	1058642330
 13930 002c 85EBA13F 		.word	1067576197
 13931 0030 713DEA3F 		.word	1072315761
 13932 0034 1F85FB3F 		.word	1073448223
 13933 0038 295C8F3F 		.word	1066359849
 13934 003c 0000C03F 		.word	1069547520
 13935 0040 CDCC8C42 		.word	1116523725
 13936 0044 6666DE41 		.word	1105094246
 13937              		.section	.rodata.thposture,"a"
 13938              		.align	2
 13939              		.type	thposture, %object
 13940              		.size	thposture, 72
 13941              	thposture:
 13942 0000 00000000 		.word	0
 13943 0004 00000000 		.word	0
 13944 0008 00000000 		.word	0
 13945 000c 0000803E 		.word	1048576000
 13946 0010 0000C040 		.word	1086324736
 13947 0014 00808945 		.word	1166639104
 13948 0018 00A08C45 		.word	1166843904
 13949 001c CDCC4C3F 		.word	1061997773
 13950 0020 9A99993F 		.word	1067030938
 13951 0024 0000C03F 		.word	1069547520
 13952 0028 CDCCAC3F 		.word	1068289229
 13953 002c 9A99993F 		.word	1067030938
 13954 0030 9A99993F 		.word	1067030938
 13955 0034 CDCCCC3E 		.word	1053609165
 13956 0038 0000803F 		.word	1065353216
 13957 003c CDCCCC3D 		.word	1036831949
 13958 0040 66665A42 		.word	1113220710
 13959 0044 00002042 		.word	1109393408
 13960              		.section	.rodata.unposture,"a"
 13961              		.align	2
 13962              		.type	unposture, %object
 13963              		.size	unposture, 72
 13964              	unposture:
 13965 0000 00000000 		.word	0
 13966 0004 00007042 		.word	1114636288
 13967 0008 00000000 		.word	0
 13968 000c 00000000 		.word	0
 13969 0010 0000B040 		.word	1085276160
 13970 0014 00401C45 		.word	1159479296
 13971 0018 0000FA43 		.word	1140457472
 13972 001c CDCC4C3F 		.word	1061997773
 13973 0020 5C8F623F 		.word	1063423836
 13974 0024 A4707D3F 		.word	1065185444
 13975 0028 295C4F3F 		.word	1062165545
 13976 002c AE47413F 		.word	1061242798
 13977 0030 8FC2853F 		.word	1065730703
 13978 0034 CDCC9C3F 		.word	1067240653
 13979 0038 295C8F3F 		.word	1066359849
 13980 003c 0000C03F 		.word	1069547520
 13981 0040 CDCC3842 		.word	1111018701
 13982 0044 6666DE41 		.word	1105094246
ARM GAS  /tmp/ccYdlVIk.s 			page 248


 13983              		.section	.rodata.oxposture,"a"
 13984              		.align	2
 13985              		.type	oxposture, %object
 13986              		.size	oxposture, 72
 13987              	oxposture:
 13988 0000 00000000 		.word	0
 13989 0004 00007042 		.word	1114636288
 13990 0008 00000000 		.word	0
 13991 000c 00000000 		.word	0
 13992 0010 0000B040 		.word	1085276160
 13993 0014 00401C45 		.word	1159479296
 13994 0018 0000FA43 		.word	1140457472
 13995 001c CDCC4C3F 		.word	1061997773
 13996 0020 0000803F 		.word	1065353216
 13997 0024 7B146E3F 		.word	1064178811
 13998 0028 9A99193F 		.word	1058642330
 13999 002c 5C8FA23F 		.word	1067618140
 14000 0030 713DEA3F 		.word	1072315761
 14001 0034 F628FC3F 		.word	1073490166
 14002 0038 295C8F3F 		.word	1066359849
 14003 003c CDCCCC3D 		.word	1036831949
 14004 0040 9A99CF42 		.word	1120901530
 14005 0044 6666DE41 		.word	1105094246
 14006              		.section	.rodata.rrposture,"a"
 14007              		.align	2
 14008              		.type	rrposture, %object
 14009              		.size	rrposture, 72
 14010              	rrposture:
 14011 0000 00000000 		.word	0
 14012 0004 00007042 		.word	1114636288
 14013 0008 00000000 		.word	0
 14014 000c 00000000 		.word	0
 14015 0010 0000B040 		.word	1085276160
 14016 0014 00401C45 		.word	1159479296
 14017 0018 0000FA43 		.word	1140457472
 14018 001c CDCC4C3F 		.word	1061997773
 14019 0020 14AEA73F 		.word	1067953684
 14020 0024 48E13A3F 		.word	1060823368
 14021 0028 14AEA73F 		.word	1067953684
 14022 002c 14AE0740 		.word	1074245140
 14023 0030 AE47213F 		.word	1059145646
 14024 0034 0AD7E33F 		.word	1071896330
 14025 0038 6666263F 		.word	1059481190
 14026 003c CDCCCC3D 		.word	1036831949
 14027 0040 9A992142 		.word	1109498266
 14028 0044 00002042 		.word	1109393408
 14029              		.section	.rodata.erposture,"a"
 14030              		.align	2
 14031              		.type	erposture, %object
 14032              		.size	erposture, 72
 14033              	erposture:
 14034 0000 00000000 		.word	0
 14035 0004 00007042 		.word	1114636288
 14036 0008 00000000 		.word	0
 14037 000c 00000000 		.word	0
 14038 0010 0000B040 		.word	1085276160
 14039 0014 00401C45 		.word	1159479296
ARM GAS  /tmp/ccYdlVIk.s 			page 249


 14040 0018 0000FA43 		.word	1140457472
 14041 001c CDCC4C3F 		.word	1061997773
 14042 0020 5C8F623F 		.word	1063423836
 14043 0024 A4707D3F 		.word	1065185444
 14044 0028 295C4F3F 		.word	1062165545
 14045 002c AE47413F 		.word	1061242798
 14046 0030 8FC2853F 		.word	1065730703
 14047 0034 CDCC9C3F 		.word	1067240653
 14048 0038 295C8F3F 		.word	1066359849
 14049 003c CDCCCC3D 		.word	1036831949
 14050 0040 33330443 		.word	1124348723
 14051 0044 6666DE41 		.word	1105094246
 14052              		.section	.rodata.zhposture,"a"
 14053              		.align	2
 14054              		.type	zhposture, %object
 14055              		.size	zhposture, 72
 14056              	zhposture:
 14057 0000 000080BF 		.word	-1082130432
 14058 0004 00005842 		.word	1113063424
 14059 0008 00000000 		.word	0
 14060 000c CDCCCC3E 		.word	1053609165
 14061 0010 3333B340 		.word	1085485875
 14062 0014 00401C45 		.word	1159479296
 14063 0018 00802245 		.word	1159888896
 14064 001c CDCC4C3F 		.word	1061997773
 14065 0020 7B14AE3F 		.word	1068373115
 14066 0024 52B8DE3F 		.word	1071560786
 14067 0028 295CEF3F 		.word	1072651305
 14068 002c D7A3703F 		.word	1064346583
 14069 0030 A470BD3E 		.word	1052602532
 14070 0034 713D4A3F 		.word	1061830001
 14071 0038 713D4A3F 		.word	1061830001
 14072 003c CDCCCC3D 		.word	1036831949
 14073 0040 00002042 		.word	1109393408
 14074 0044 CDCCEC41 		.word	1106037965
 14075              		.section	.rodata.tposture,"a"
 14076              		.align	2
 14077              		.type	tposture, %object
 14078              		.size	tposture, 72
 14079              	tposture:
 14080 0000 000020C1 		.word	-1054867456
 14081 0004 00000000 		.word	0
 14082 0008 00000000 		.word	0
 14083 000c 00000000 		.word	0
 14084 0010 0000E040 		.word	1088421888
 14085 0014 00A08C45 		.word	1166843904
 14086 0018 0000FA44 		.word	1157234688
 14087 001c CDCC4C3F 		.word	1061997773
 14088 0020 14AEA73F 		.word	1067953684
 14089 0024 52B8BE3F 		.word	1069463634
 14090 0028 0000A03F 		.word	1067450368
 14091 002c 5C8F423F 		.word	1061326684
 14092 0030 CDCCCC3D 		.word	1036831949
 14093 0034 EC51B83F 		.word	1069044204
 14094 0038 14AEA73F 		.word	1067953684
 14095 003c CDCCCC3D 		.word	1036831949
 14096 0040 33334742 		.word	1111962419
ARM GAS  /tmp/ccYdlVIk.s 			page 250


 14097 0044 9A99C141 		.word	1103206810
 14098              		.section	.rodata.qcposture,"a"
 14099              		.align	2
 14100              		.type	qcposture, %object
 14101              		.size	qcposture, 72
 14102              	qcposture:
 14103 0000 000000C0 		.word	-1073741824
 14104 0004 00000000 		.word	0
 14105 0008 00000000 		.word	0
 14106 000c 00000000 		.word	0
 14107 0010 3333B340 		.word	1085485875
 14108 0014 00401C45 		.word	1159479296
 14109 0018 00802245 		.word	1159888896
 14110 001c CDCC4C3F 		.word	1061997773
 14111 0020 7B14AE3F 		.word	1068373115
 14112 0024 52B8DE3F 		.word	1071560786
 14113 0028 295CEF3F 		.word	1072651305
 14114 002c D7A3703F 		.word	1064346583
 14115 0030 CDCCCC3D 		.word	1036831949
 14116 0034 713D4A3F 		.word	1061830001
 14117 0038 713D4A3F 		.word	1061830001
 14118 003c CDCCCC3D 		.word	1036831949
 14119 0040 0000C040 		.word	1086324736
 14120 0044 00000040 		.word	1073741824
 14121              		.section	.rodata.lposture,"a"
 14122              		.align	2
 14123              		.type	lposture, %object
 14124              		.size	lposture, 72
 14125              	lposture:
 14126 0000 00000000 		.word	0
 14127 0004 00007042 		.word	1114636288
 14128 0008 00000000 		.word	0
 14129 000c 00000000 		.word	0
 14130 0010 0000B040 		.word	1085276160
 14131 0014 00401C45 		.word	1159479296
 14132 0018 0000FA43 		.word	1140457472
 14133 001c CDCC4C3F 		.word	1061997773
 14134 0020 0AD7633F 		.word	1063507722
 14135 0024 CDCC8C3F 		.word	1066192077
 14136 0028 EC51783F 		.word	1064849900
 14137 002c 0AD7633F 		.word	1063507722
 14138 0030 7B14AE3E 		.word	1051595899
 14139 0034 E17A943E 		.word	1049918177
 14140 0038 295C8F3F 		.word	1066359849
 14141 003c CDCCCC3D 		.word	1036831949
 14142 0040 00009042 		.word	1116733440
 14143 0044 CDCCB441 		.word	1102367949
 14144              		.section	.rodata.fposture,"a"
 14145              		.align	2
 14146              		.type	fposture, %object
 14147              		.size	fposture, 72
 14148              	fposture:
 14149 0000 000080BF 		.word	-1082130432
 14150 0004 00000000 		.word	0
 14151 0008 00000000 		.word	0
 14152 000c 0000003F 		.word	1056964608
 14153 0010 0000E040 		.word	1088421888
ARM GAS  /tmp/ccYdlVIk.s 			page 251


 14154 0014 00404E45 		.word	1162756096
 14155 0018 00007A44 		.word	1148846080
 14156 001c CDCC4C3F 		.word	1061997773
 14157 0020 0AD7633F 		.word	1063507722
 14158 0024 A4707D3F 		.word	1065185444
 14159 0028 295C4F3F 		.word	1062165545
 14160 002c 5C8F423F 		.word	1061326684
 14161 0030 0AD7633F 		.word	1063507722
 14162 0034 3D0A573F 		.word	1062668861
 14163 0038 0000003F 		.word	1056964608
 14164 003c CDCCCC3D 		.word	1036831949
 14165 0040 00008C42 		.word	1116471296
 14166 0044 00002042 		.word	1109393408
 14167              		.section	.rodata.hposture,"a"
 14168              		.align	2
 14169              		.type	hposture, %object
 14170              		.size	hposture, 72
 14171              	hposture:
 14172 0000 00000000 		.word	0
 14173 0004 00000000 		.word	0
 14174 0008 00002041 		.word	1092616192
 14175 000c 00000000 		.word	0
 14176 0010 0000B040 		.word	1085276160
 14177 0014 00401C45 		.word	1159479296
 14178 0018 0000FA43 		.word	1140457472
 14179 001c CDCC4C3F 		.word	1061997773
 14180 0020 CDCC4C3F 		.word	1061997773
 14181 0024 CDCC4C3F 		.word	1061997773
 14182 0028 CDCC4C3F 		.word	1061997773
 14183 002c CDCC4C3F 		.word	1061997773
 14184 0030 CDCC4C3F 		.word	1061997773
 14185 0034 CDCC4C3F 		.word	1061997773
 14186 0038 CDCC4C3F 		.word	1061997773
 14187 003c CDCCCC3D 		.word	1036831949
 14188 0040 33334742 		.word	1111962419
 14189 0044 6666DE41 		.word	1105094246
 14190              		.section	.rodata.dposture,"a"
 14191              		.align	2
 14192              		.type	dposture, %object
 14193              		.size	dposture, 72
 14194              	dposture:
 14195 0000 000000C0 		.word	-1073741824
 14196 0004 00002E42 		.word	1110310912
 14197 0008 00000000 		.word	0
 14198 000c 00000000 		.word	0
 14199 0010 6666D640 		.word	1087792742
 14200 0014 00A08C45 		.word	1166843904
 14201 0018 0000FA44 		.word	1157234688
 14202 001c CDCC4C3F 		.word	1061997773
 14203 0020 14AEA73F 		.word	1067953684
 14204 0024 52B8BE3F 		.word	1069463634
 14205 0028 0000A03F 		.word	1067450368
 14206 002c 5C8F423F 		.word	1061326684
 14207 0030 CDCCCC3D 		.word	1036831949
 14208 0034 EC51B83F 		.word	1069044204
 14209 0038 6666A63F 		.word	1067869798
 14210 003c CDCCCC3D 		.word	1036831949
ARM GAS  /tmp/ccYdlVIk.s 			page 252


 14211 0040 66663642 		.word	1110861414
 14212 0044 0000E041 		.word	1105199104
 14213              		.section	.rodata.qsposture,"a"
 14214              		.align	2
 14215              		.type	qsposture, %object
 14216              		.size	qsposture, 72
 14217              	qsposture:
 14218 0000 00000000 		.word	0
 14219 0004 00000000 		.word	0
 14220 0008 00000000 		.word	0
 14221 000c 00000000 		.word	0
 14222 0010 9A99B940 		.word	1085905306
 14223 0014 00E0AB45 		.word	1168891904
 14224 0018 0000FA43 		.word	1140457472
 14225 001c CDCC4C3F 		.word	1061997773
 14226 0020 14AEA73F 		.word	1067953684
 14227 0024 52B8BE3F 		.word	1069463634
 14228 0028 0000A03F 		.word	1067450368
 14229 002c 6666663F 		.word	1063675494
 14230 0030 CDCC4C3E 		.word	1045220557
 14231 0034 CDCCCC3E 		.word	1053609165
 14232 0038 14AEA73F 		.word	1067953684
 14233 003c CDCCCC3D 		.word	1036831949
 14234 0040 0000C040 		.word	1086324736
 14235 0044 00000040 		.word	1073741824
 14236              		.section	.rodata.llxposture,"a"
 14237              		.align	2
 14238              		.type	llxposture, %object
 14239              		.size	llxposture, 72
 14240              	llxposture:
 14241 0000 00000000 		.word	0
 14242 0004 00007042 		.word	1114636288
 14243 0008 00000000 		.word	0
 14244 000c 00000000 		.word	0
 14245 0010 0000B040 		.word	1085276160
 14246 0014 00401C45 		.word	1159479296
 14247 0018 0000FA43 		.word	1140457472
 14248 001c CDCC4C3F 		.word	1061997773
 14249 0020 AE47213F 		.word	1059145646
 14250 0024 D7A3F03E 		.word	1055957975
 14251 0028 6666263F 		.word	1059481190
 14252 002c B81EC53F 		.word	1069883064
 14253 0030 6666E63E 		.word	1055286886
 14254 0034 B81E853E 		.word	1048911544
 14255 0038 6666863F 		.word	1065772646
 14256 003c CDCCCC3D 		.word	1036831949
 14257 0040 0000A842 		.word	1118306304
 14258 0044 CDCCB441 		.word	1102367949
 14259              		.section	.rodata.dhposture,"a"
 14260              		.align	2
 14261              		.type	dhposture, %object
 14262              		.size	dhposture, 72
 14263              	dhposture:
 14264 0000 000080BF 		.word	-1082130432
 14265 0004 00005842 		.word	1113063424
 14266 0008 00000000 		.word	0
 14267 000c 0000803E 		.word	1048576000
ARM GAS  /tmp/ccYdlVIk.s 			page 253


 14268 0010 0000C040 		.word	1086324736
 14269 0014 00808945 		.word	1166639104
 14270 0018 00A08C45 		.word	1166843904
 14271 001c CDCC4C3F 		.word	1061997773
 14272 0020 9A99993F 		.word	1067030938
 14273 0024 0000C03F 		.word	1069547520
 14274 0028 CDCCAC3F 		.word	1068289229
 14275 002c 9A99993F 		.word	1067030938
 14276 0030 9A99993F 		.word	1067030938
 14277 0034 CDCCCC3E 		.word	1053609165
 14278 0038 0000803F 		.word	1065353216
 14279 003c CDCCCC3D 		.word	1036831949
 14280 0040 9A992542 		.word	1109760410
 14281 0044 00003042 		.word	1110441984
 14282              		.section	.rodata.qzxposture,"a"
 14283              		.align	2
 14284              		.type	qzxposture, %object
 14285              		.size	qzxposture, 72
 14286              	qzxposture:
 14287 0000 000080BF 		.word	-1082130432
 14288 0004 00000000 		.word	0
 14289 0008 00000000 		.word	0
 14290 000c 00000000 		.word	0
 14291 0010 9A99B940 		.word	1085905306
 14292 0014 00E0AB45 		.word	1168891904
 14293 0018 0000FA43 		.word	1140457472
 14294 001c CDCC4C3F 		.word	1061997773
 14295 0020 14AEA73F 		.word	1067953684
 14296 0024 52B8BE3F 		.word	1069463634
 14297 0028 0000A03F 		.word	1067450368
 14298 002c 6666663F 		.word	1063675494
 14299 0030 CDCC4C3E 		.word	1045220557
 14300 0034 9A99193F 		.word	1058642330
 14301 0038 14AEA73F 		.word	1067953684
 14302 003c CDCCCC3D 		.word	1036831949
 14303 0040 0000C040 		.word	1086324736
 14304 0044 00000040 		.word	1073741824
 14305              		.section	.rodata.eexposture,"a"
 14306              		.align	2
 14307              		.type	eexposture, %object
 14308              		.size	eexposture, 72
 14309              	eexposture:
 14310 0000 00000000 		.word	0
 14311 0004 00007042 		.word	1114636288
 14312 0008 00000000 		.word	0
 14313 000c 00000000 		.word	0
 14314 0010 0000B040 		.word	1085276160
 14315 0014 00401C45 		.word	1159479296
 14316 0018 0000FA43 		.word	1140457472
 14317 001c CDCC4C3F 		.word	1061997773
 14318 0020 8FC2D53F 		.word	1070973583
 14319 0024 0AD7F33F 		.word	1072944906
 14320 0028 7B14FE3F 		.word	1073615995
 14321 002c 295C4F3F 		.word	1062165545
 14322 0030 A470FD3E 		.word	1056796836
 14323 0034 48E13A3F 		.word	1060823368
 14324 0038 7B14BE3F 		.word	1069421691
ARM GAS  /tmp/ccYdlVIk.s 			page 254


 14325 003c CDCCCC3D 		.word	1036831949
 14326 0040 CDCC0D43 		.word	1124977869
 14327 0044 6666DE41 		.word	1105094246
 14328              		.section	.rodata.shxposture,"a"
 14329              		.align	2
 14330              		.type	shxposture, %object
 14331              		.size	shxposture, 72
 14332              	shxposture:
 14333 0000 00000000 		.word	0
 14334 0004 00000000 		.word	0
 14335 0008 00000000 		.word	0
 14336 000c CDCCCC3E 		.word	1053609165
 14337 0010 3333B340 		.word	1085485875
 14338 0014 00401C45 		.word	1159479296
 14339 0018 00802245 		.word	1159888896
 14340 001c CDCC4C3F 		.word	1061997773
 14341 0020 7B14AE3F 		.word	1068373115
 14342 0024 52B8DE3F 		.word	1071560786
 14343 0028 295CEF3F 		.word	1072651305
 14344 002c D7A3703F 		.word	1064346583
 14345 0030 A470BD3E 		.word	1052602532
 14346 0034 713D4A3F 		.word	1061830001
 14347 0038 713D4A3F 		.word	1061830001
 14348 003c CDCCCC3D 		.word	1036831949
 14349 0040 6666F842 		.word	1123575398
 14350 0044 9A99C141 		.word	1103206810
 14351              		.section	.rodata.qxposture,"a"
 14352              		.align	2
 14353              		.type	qxposture, %object
 14354              		.size	qxposture, 72
 14355              	qxposture:
 14356 0000 00000000 		.word	0
 14357 0004 00000000 		.word	0
 14358 0008 00000000 		.word	0
 14359 000c 00000000 		.word	0
 14360 0010 0000B040 		.word	1085276160
 14361 0014 00401C45 		.word	1159479296
 14362 0018 0000FA43 		.word	1140457472
 14363 001c CDCC4C3F 		.word	1061997773
 14364 0020 0AD7633F 		.word	1063507722
 14365 0024 A4707D3F 		.word	1065185444
 14366 0028 295C4F3F 		.word	1062165545
 14367 002c 5C8F423F 		.word	1061326684
 14368 0030 6666863F 		.word	1065772646
 14369 0034 A4709D3F 		.word	1067282596
 14370 0038 0AD7233C 		.word	1008981770
 14371 003c CDCCCC3D 		.word	1036831949
 14372 0040 0000A841 		.word	1101529088
 14373 0044 0000E040 		.word	1088421888
 14374              		.section	.rodata.txxposture,"a"
 14375              		.align	2
 14376              		.type	txxposture, %object
 14377              		.size	txxposture, 72
 14378              	txxposture:
 14379 0000 000020C1 		.word	-1054867456
 14380 0004 00000000 		.word	0
 14381 0008 00000000 		.word	0
ARM GAS  /tmp/ccYdlVIk.s 			page 255


 14382 000c 00000000 		.word	0
 14383 0010 6666D640 		.word	1087792742
 14384 0014 00A08C45 		.word	1166843904
 14385 0018 0000FA44 		.word	1157234688
 14386 001c CDCC4C3F 		.word	1061997773
 14387 0020 14AEA73F 		.word	1067953684
 14388 0024 52B8BE3F 		.word	1069463634
 14389 0028 0000A03F 		.word	1067450368
 14390 002c 5C8F423F 		.word	1061326684
 14391 0030 CDCCCC3D 		.word	1036831949
 14392 0034 EC51B83F 		.word	1069044204
 14393 0038 14AEA73F 		.word	1067953684
 14394 003c CDCCCC3D 		.word	1036831949
 14395 0040 0000B442 		.word	1119092736
 14396 0044 9A99C141 		.word	1103206810
 14397              		.section	.rodata.kxxposture,"a"
 14398              		.align	2
 14399              		.type	kxxposture, %object
 14400              		.size	kxxposture, 72
 14401              	kxxposture:
 14402 0000 000020C1 		.word	-1054867456
 14403 0004 00000000 		.word	0
 14404 0008 00000000 		.word	0
 14405 000c 00000000 		.word	0
 14406 0010 66669640 		.word	1083598438
 14407 0014 0000FA44 		.word	1157234688
 14408 0018 0000FA44 		.word	1157234688
 14409 001c CDCC4C3F 		.word	1061997773
 14410 0020 9A99D93F 		.word	1071225242
 14411 0024 6666A63F 		.word	1067869798
 14412 0028 A4707D3F 		.word	1065185444
 14413 002c CDCCCC3D 		.word	1036831949
 14414 0030 C3F5883F 		.word	1065940419
 14415 0034 48E13A3F 		.word	1060823368
 14416 0038 52B8BE3F 		.word	1069463634
 14417 003c CDCCCC3D 		.word	1036831949
 14418 0040 3333E542 		.word	1122317107
 14419 0044 0000F041 		.word	1106247680
 14420              		.section	.rodata.yxposture,"a"
 14421              		.align	2
 14422              		.type	yxposture, %object
 14423              		.size	yxposture, 72
 14424              	yxposture:
 14425 0000 00000000 		.word	0
 14426 0004 00007042 		.word	1114636288
 14427 0008 00000000 		.word	0
 14428 000c 00000000 		.word	0
 14429 0010 0000B040 		.word	1085276160
 14430 0014 00401C45 		.word	1159479296
 14431 0018 0000FA43 		.word	1140457472
 14432 001c CDCC4C3F 		.word	1061997773
 14433 0020 8FC2D53F 		.word	1070973583
 14434 0024 E17AF43F 		.word	1072986849
 14435 0028 52B8FE3F 		.word	1073657938
 14436 002c AE47213F 		.word	1059145646
 14437 0030 E17A943E 		.word	1049918177
 14438 0034 E17A143F 		.word	1058306785
ARM GAS  /tmp/ccYdlVIk.s 			page 256


 14439 0038 52B8BE3F 		.word	1069463634
 14440 003c 0000803E 		.word	1048576000
 14441 0040 CDCCA842 		.word	1118358733
 14442 0044 CDCC1642 		.word	1108790477
 14443              		.section	.rodata.dxxposture,"a"
 14444              		.align	2
 14445              		.type	dxxposture, %object
 14446              		.size	dxxposture, 72
 14447              	dxxposture:
 14448 0000 000000C0 		.word	-1073741824
 14449 0004 00002E42 		.word	1110310912
 14450 0008 00000000 		.word	0
 14451 000c 00000000 		.word	0
 14452 0010 6666D640 		.word	1087792742
 14453 0014 00A08C45 		.word	1166843904
 14454 0018 0000FA44 		.word	1157234688
 14455 001c CDCC4C3F 		.word	1061997773
 14456 0020 14AEA73F 		.word	1067953684
 14457 0024 52B8BE3F 		.word	1069463634
 14458 0028 0000A03F 		.word	1067450368
 14459 002c 5C8F423F 		.word	1061326684
 14460 0030 CDCCCC3D 		.word	1036831949
 14461 0034 EC51B83F 		.word	1069044204
 14462 0038 14AEA73F 		.word	1067953684
 14463 003c CDCCCC3D 		.word	1036831949
 14464 0040 66669242 		.word	1116890726
 14465 0044 0000E041 		.word	1105199104
 14466              		.section	.rodata.gsposture,"a"
 14467              		.align	2
 14468              		.type	gsposture, %object
 14469              		.size	gsposture, 72
 14470              	gsposture:
 14471 0000 00000000 		.word	0
 14472 0004 00000000 		.word	0
 14473 0008 00000000 		.word	0
 14474 000c 00000000 		.word	0
 14475 0010 0000B040 		.word	1085276160
 14476 0014 00401C45 		.word	1159479296
 14477 0018 0000FA43 		.word	1140457472
 14478 001c CDCC4C3F 		.word	1061997773
 14479 0020 CDCC4C3F 		.word	1061997773
 14480 0024 CDCC4C3F 		.word	1061997773
 14481 0028 CDCC4C3F 		.word	1061997773
 14482 002c CDCC4C3F 		.word	1061997773
 14483 0030 CDCC4C3F 		.word	1061997773
 14484 0034 CDCC4C3F 		.word	1061997773
 14485 0038 CDCC4C3F 		.word	1061997773
 14486 003c CDCCCC3D 		.word	1036831949
 14487 0040 00008C42 		.word	1116471296
 14488 0044 00009041 		.word	1099956224
 14489              		.section	.rodata.uhxposture,"a"
 14490              		.align	2
 14491              		.type	uhxposture, %object
 14492              		.size	uhxposture, 72
 14493              	uhxposture:
 14494 0000 00000000 		.word	0
 14495 0004 00007042 		.word	1114636288
ARM GAS  /tmp/ccYdlVIk.s 			page 257


 14496 0008 00000000 		.word	0
 14497 000c 00000000 		.word	0
 14498 0010 0000B040 		.word	1085276160
 14499 0014 00401C45 		.word	1159479296
 14500 0018 0000FA43 		.word	1140457472
 14501 001c CDCC4C3F 		.word	1061997773
 14502 0020 0AD7633F 		.word	1063507722
 14503 0024 A4707D3F 		.word	1065185444
 14504 0028 295C4F3F 		.word	1062165545
 14505 002c 5C8F423F 		.word	1061326684
 14506 0030 6666863F 		.word	1065772646
 14507 0034 A4709D3F 		.word	1067282596
 14508 0038 295C8F3F 		.word	1066359849
 14509 003c CDCCCC3D 		.word	1036831949
 14510 0040 00009442 		.word	1116995584
 14511 0044 6666DE41 		.word	1105094246
 14512              		.global	input_frames
 14513              		.section	.flash,"a"
 14514              		.align	2
 14515              		.type	input_frames, %object
 14516              		.size	input_frames, 4096
 14517              	input_frames:
 14518 0000 00000000 		.word	0
 14519 0004 00000000 		.word	0
 14520 0008 00000000 		.word	0
 14521 000c 00000000 		.word	0
 14522 0010 0000B040 		.word	1085276160
 14523 0014 00401C45 		.word	1159479296
 14524 0018 0000FA43 		.word	1140457472
 14525 001c CDCC4C3F 		.word	1061997773
 14526 0020 0AD7633F 		.word	1063507722
 14527 0024 A4707D3F 		.word	1065185444
 14528 0028 295C4F3F 		.word	1062165545
 14529 002c 5C8F423F 		.word	1061326684
 14530 0030 6666863F 		.word	1065772646
 14531 0034 A4709D3F 		.word	1067282596
 14532 0038 0AD7233C 		.word	1008981770
 14533 003c CDCCCC3D 		.word	1036831949
 14534 0040 00000000 		.word	0
 14535 0044 00007042 		.word	1114636288
 14536 0048 00000000 		.word	0
 14537 004c 00000000 		.word	0
 14538 0050 0000B040 		.word	1085276160
 14539 0054 00401C45 		.word	1159479296
 14540 0058 0000FA43 		.word	1140457472
 14541 005c CDCC4C3F 		.word	1061997773
 14542 0060 6666263F 		.word	1059481190
 14543 0064 6666263F 		.word	1059481190
 14544 0068 6666263F 		.word	1059481190
 14545 006c 14AEA73F 		.word	1067953684
 14546 0070 A4709D3F 		.word	1067282596
 14547 0074 14AEA73F 		.word	1067953684
 14548 0078 8FC2D53F 		.word	1070973583
 14549 007c CDCCCC3D 		.word	1036831949
 14550 0080 00000000 		.word	0
 14551 0084 00007042 		.word	1114636288
 14552 0088 00000000 		.word	0
ARM GAS  /tmp/ccYdlVIk.s 			page 258


 14553 008c 00000000 		.word	0
 14554 0090 0000B040 		.word	1085276160
 14555 0094 00401C45 		.word	1159479296
 14556 0098 0000FA43 		.word	1140457472
 14557 009c CDCC4C3F 		.word	1061997773
 14558 00a0 6666263F 		.word	1059481190
 14559 00a4 3D0A573F 		.word	1062668861
 14560 00a8 3333933F 		.word	1066611507
 14561 00ac 14AEA73F 		.word	1067953684
 14562 00b0 1F85CB3F 		.word	1070302495
 14563 00b4 1F85CB3F 		.word	1070302495
 14564 00b8 3D0A2740 		.word	1076300349
 14565 00bc CDCCCC3D 		.word	1036831949
 14566 00c0 00000000 		.word	0
 14567 00c4 00007042 		.word	1114636288
 14568 00c8 00000000 		.word	0
 14569 00cc 00000000 		.word	0
 14570 00d0 0000B040 		.word	1085276160
 14571 00d4 00401C45 		.word	1159479296
 14572 00d8 0000FA43 		.word	1140457472
 14573 00dc CDCC4C3F 		.word	1061997773
 14574 00e0 6666263F 		.word	1059481190
 14575 00e4 6666E63E 		.word	1055286886
 14576 00e8 D7A3703F 		.word	1064346583
 14577 00ec CDCC8C3F 		.word	1066192077
 14578 00f0 5C8FC23F 		.word	1069715292
 14579 00f4 48E1BA3F 		.word	1069211976
 14580 00f8 CDCC1C40 		.word	1075629261
 14581 00fc CDCCCC3D 		.word	1036831949
 14582 0100 00000000 		.word	0
 14583 0104 00007042 		.word	1114636288
 14584 0108 00000000 		.word	0
 14585 010c 00000000 		.word	0
 14586 0110 0000B040 		.word	1085276160
 14587 0114 00401C45 		.word	1159479296
 14588 0118 0000FA43 		.word	1140457472
 14589 011c CDCC4C3F 		.word	1061997773
 14590 0120 B81E053F 		.word	1057300152
 14591 0124 6666E63E 		.word	1055286886
 14592 0128 713D4A3F 		.word	1061830001
 14593 012c 52B8BE3F 		.word	1069463634
 14594 0130 8FC2D53F 		.word	1070973583
 14595 0134 5C8F823F 		.word	1065520988
 14596 0138 1F85CB3F 		.word	1070302495
 14597 013c 0000C03F 		.word	1069547520
 14598 0140 00000000 		.word	0
 14599 0144 00007042 		.word	1114636288
 14600 0148 00000000 		.word	0
 14601 014c 00000000 		.word	0
 14602 0150 0000B040 		.word	1085276160
 14603 0154 00401C45 		.word	1159479296
 14604 0158 0000FA43 		.word	1140457472
 14605 015c CDCC4C3F 		.word	1061997773
 14606 0160 B81E053F 		.word	1057300152
 14607 0164 6666E63E 		.word	1055286886
 14608 0168 713D4A3F 		.word	1061830001
 14609 016c 52B8BE3F 		.word	1069463634
ARM GAS  /tmp/ccYdlVIk.s 			page 259


 14610 0170 8FC2D53F 		.word	1070973583
 14611 0174 5C8F823F 		.word	1065520988
 14612 0178 1F85CB3F 		.word	1070302495
 14613 017c CDCCCC3D 		.word	1036831949
 14614 0180 00000000 		.word	0
 14615 0184 00007042 		.word	1114636288
 14616 0188 00000000 		.word	0
 14617 018c 00000000 		.word	0
 14618 0190 0000B040 		.word	1085276160
 14619 0194 00401C45 		.word	1159479296
 14620 0198 0000FA43 		.word	1140457472
 14621 019c CDCC4C3F 		.word	1061997773
 14622 01a0 CDCC8C3F 		.word	1066192077
 14623 01a4 D7A3703F 		.word	1064346583
 14624 01a8 3D0AD73E 		.word	1054280253
 14625 01ac 52B8BE3F 		.word	1069463634
 14626 01b0 8FC2D53F 		.word	1070973583
 14627 01b4 0AD7E33F 		.word	1071896330
 14628 01b8 6666863F 		.word	1065772646
 14629 01bc CDCCCC3D 		.word	1036831949
 14630 01c0 000000C0 		.word	-1073741824
 14631 01c4 00002E42 		.word	1110310912
 14632 01c8 00000000 		.word	0
 14633 01cc 00000000 		.word	0
 14634 01d0 0000E040 		.word	1088421888
 14635 01d4 0000FA44 		.word	1157234688
 14636 01d8 00002F44 		.word	1143930880
 14637 01dc CDCC4C3F 		.word	1061997773
 14638 01e0 0AD7633F 		.word	1063507722
 14639 01e4 5C8F423F 		.word	1061326684
 14640 01e8 0AD7A33F 		.word	1067702026
 14641 01ec 6666E63F 		.word	1072064102
 14642 01f0 A4707D3F 		.word	1065185444
 14643 01f4 3D0A573F 		.word	1062668861
 14644 01f8 CDCCCC3D 		.word	1036831949
 14645 01fc CDCCCC3D 		.word	1036831949
 14646 0200 000000C0 		.word	-1073741824
 14647 0204 00002E42 		.word	1110310912
 14648 0208 00000000 		.word	0
 14649 020c 00000000 		.word	0
 14650 0210 0000E040 		.word	1088421888
 14651 0214 0000FA44 		.word	1157234688
 14652 0218 00002F44 		.word	1143930880
 14653 021c CDCC4C3F 		.word	1061997773
 14654 0220 0AD7633F 		.word	1063507722
 14655 0224 5C8F423F 		.word	1061326684
 14656 0228 0AD7A33F 		.word	1067702026
 14657 022c 6666E63F 		.word	1072064102
 14658 0230 A4707D3F 		.word	1065185444
 14659 0234 3D0A573F 		.word	1062668861
 14660 0238 CDCCCC3D 		.word	1036831949
 14661 023c CDCCCC3D 		.word	1036831949
 14662 0240 000000C0 		.word	-1073741824
 14663 0244 00000000 		.word	0
 14664 0248 00000000 		.word	0
 14665 024c 00000000 		.word	0
 14666 0250 3333B340 		.word	1085485875
ARM GAS  /tmp/ccYdlVIk.s 			page 260


 14667 0254 00401C45 		.word	1159479296
 14668 0258 00802245 		.word	1159888896
 14669 025c CDCC4C3F 		.word	1061997773
 14670 0260 7B14AE3F 		.word	1068373115
 14671 0264 52B8DE3F 		.word	1071560786
 14672 0268 295CEF3F 		.word	1072651305
 14673 026c D7A3703F 		.word	1064346583
 14674 0270 00000000 		.word	0
 14675 0274 713D4A3F 		.word	1061830001
 14676 0278 713D4A3F 		.word	1061830001
 14677 027c CDCCCC3D 		.word	1036831949
 14678 0280 000000C0 		.word	-1073741824
 14679 0284 00002E42 		.word	1110310912
 14680 0288 00000000 		.word	0
 14681 028c 00000000 		.word	0
 14682 0290 6666D640 		.word	1087792742
 14683 0294 00A08C45 		.word	1166843904
 14684 0298 0000FA44 		.word	1157234688
 14685 029c CDCC4C3F 		.word	1061997773
 14686 02a0 14AEA73F 		.word	1067953684
 14687 02a4 52B8BE3F 		.word	1069463634
 14688 02a8 0000A03F 		.word	1067450368
 14689 02ac 5C8F423F 		.word	1061326684
 14690 02b0 CDCCCC3D 		.word	1036831949
 14691 02b4 EC51B83F 		.word	1069044204
 14692 02b8 6666A63F 		.word	1067869798
 14693 02bc CDCCCC3D 		.word	1036831949
 14694 02c0 000080BF 		.word	-1082130432
 14695 02c4 00005842 		.word	1113063424
 14696 02c8 00000000 		.word	0
 14697 02cc 0000803E 		.word	1048576000
 14698 02d0 0000C040 		.word	1086324736
 14699 02d4 00808945 		.word	1166639104
 14700 02d8 00A08C45 		.word	1166843904
 14701 02dc CDCC4C3F 		.word	1061997773
 14702 02e0 9A99993F 		.word	1067030938
 14703 02e4 0000C03F 		.word	1069547520
 14704 02e8 CDCCAC3F 		.word	1068289229
 14705 02ec 9A99993F 		.word	1067030938
 14706 02f0 9A99993F 		.word	1067030938
 14707 02f4 CDCCCC3E 		.word	1053609165
 14708 02f8 0000803F 		.word	1065353216
 14709 02fc CDCCCC3D 		.word	1036831949
 14710 0300 000000C0 		.word	-1073741824
 14711 0304 00002E42 		.word	1110310912
 14712 0308 00000000 		.word	0
 14713 030c 00000000 		.word	0
 14714 0310 6666D640 		.word	1087792742
 14715 0314 00A08C45 		.word	1166843904
 14716 0318 0000FA44 		.word	1157234688
 14717 031c CDCC4C3F 		.word	1061997773
 14718 0320 14AEA73F 		.word	1067953684
 14719 0324 52B8BE3F 		.word	1069463634
 14720 0328 0000A03F 		.word	1067450368
 14721 032c 5C8F423F 		.word	1061326684
 14722 0330 CDCCCC3D 		.word	1036831949
 14723 0334 EC51B83F 		.word	1069044204
ARM GAS  /tmp/ccYdlVIk.s 			page 261


 14724 0338 14AEA73F 		.word	1067953684
 14725 033c CDCCCC3D 		.word	1036831949
 14726 0340 00000000 		.word	0
 14727 0344 00007042 		.word	1114636288
 14728 0348 00000000 		.word	0
 14729 034c 00000000 		.word	0
 14730 0350 0000B040 		.word	1085276160
 14731 0354 00401C45 		.word	1159479296
 14732 0358 0000FA43 		.word	1140457472
 14733 035c CDCC4C3F 		.word	1061997773
 14734 0360 7B142E3F 		.word	1059984507
 14735 0364 295C8F3F 		.word	1066359849
 14736 0368 C3F5D83F 		.word	1071183299
 14737 036c AE47B13F 		.word	1068582830
 14738 0370 C3F5883F 		.word	1065940419
 14739 0374 8FC2853F 		.word	1065730703
 14740 0378 0AD70340 		.word	1073993482
 14741 037c CDCCCC3D 		.word	1036831949
 14742 0380 00000000 		.word	0
 14743 0384 00007042 		.word	1114636288
 14744 0388 00000000 		.word	0
 14745 038c 00000000 		.word	0
 14746 0390 0000B040 		.word	1085276160
 14747 0394 00401C45 		.word	1159479296
 14748 0398 0000FA43 		.word	1140457472
 14749 039c CDCC4C3F 		.word	1061997773
 14750 03a0 8FC2D53F 		.word	1070973583
 14751 03a4 0AD7F33F 		.word	1072944906
 14752 03a8 7B14FE3F 		.word	1073615995
 14753 03ac 295C4F3F 		.word	1062165545
 14754 03b0 A470FD3E 		.word	1056796836
 14755 03b4 48E13A3F 		.word	1060823368
 14756 03b8 7B14BE3F 		.word	1069421691
 14757 03bc CDCCCC3D 		.word	1036831949
 14758 03c0 00000000 		.word	0
 14759 03c4 00007042 		.word	1114636288
 14760 03c8 00000000 		.word	0
 14761 03cc 00000000 		.word	0
 14762 03d0 0000B040 		.word	1085276160
 14763 03d4 00401C45 		.word	1159479296
 14764 03d8 0000FA43 		.word	1140457472
 14765 03dc CDCC4C3F 		.word	1061997773
 14766 03e0 5C8F623F 		.word	1063423836
 14767 03e4 A4707D3F 		.word	1065185444
 14768 03e8 295C4F3F 		.word	1062165545
 14769 03ec AE47413F 		.word	1061242798
 14770 03f0 8FC2853F 		.word	1065730703
 14771 03f4 CDCC9C3F 		.word	1067240653
 14772 03f8 295C8F3F 		.word	1066359849
 14773 03fc CDCCCC3D 		.word	1036831949
 14774 0400 000080BF 		.word	-1082130432
 14775 0404 00000000 		.word	0
 14776 0408 00000000 		.word	0
 14777 040c 0000003F 		.word	1056964608
 14778 0410 0000E040 		.word	1088421888
 14779 0414 00404E45 		.word	1162756096
 14780 0418 00007A44 		.word	1148846080
ARM GAS  /tmp/ccYdlVIk.s 			page 262


 14781 041c CDCC4C3F 		.word	1061997773
 14782 0420 0AD7633F 		.word	1063507722
 14783 0424 A4707D3F 		.word	1065185444
 14784 0428 295C4F3F 		.word	1062165545
 14785 042c 5C8F423F 		.word	1061326684
 14786 0430 0AD7633F 		.word	1063507722
 14787 0434 3D0A573F 		.word	1062668861
 14788 0438 0000003F 		.word	1056964608
 14789 043c CDCCCC3D 		.word	1036831949
 14790 0440 000000C0 		.word	-1073741824
 14791 0444 00002E42 		.word	1110310912
 14792 0448 00000000 		.word	0
 14793 044c 00000000 		.word	0
 14794 0450 66669640 		.word	1083598438
 14795 0454 0000FA44 		.word	1157234688
 14796 0458 0000FA44 		.word	1157234688
 14797 045c CDCC4C3F 		.word	1061997773
 14798 0460 9A99D93F 		.word	1071225242
 14799 0464 6666A63F 		.word	1067869798
 14800 0468 A4707D3F 		.word	1065185444
 14801 046c CDCCCC3D 		.word	1036831949
 14802 0470 C3F5883F 		.word	1065940419
 14803 0474 48E13A3F 		.word	1060823368
 14804 0478 52B8BE3F 		.word	1069463634
 14805 047c CDCCCC3D 		.word	1036831949
 14806 0480 00000000 		.word	0
 14807 0484 00000000 		.word	0
 14808 0488 00000000 		.word	0
 14809 048c 00000000 		.word	0
 14810 0490 0000B040 		.word	1085276160
 14811 0494 00401C45 		.word	1159479296
 14812 0498 0000FA43 		.word	1140457472
 14813 049c CDCC4C3F 		.word	1061997773
 14814 04a0 CDCC4C3F 		.word	1061997773
 14815 04a4 CDCC4C3F 		.word	1061997773
 14816 04a8 CDCC4C3F 		.word	1061997773
 14817 04ac CDCC4C3F 		.word	1061997773
 14818 04b0 CDCC4C3F 		.word	1061997773
 14819 04b4 CDCC4C3F 		.word	1061997773
 14820 04b8 CDCC4C3F 		.word	1061997773
 14821 04bc CDCCCC3D 		.word	1036831949
 14822 04c0 00000000 		.word	0
 14823 04c4 00000000 		.word	0
 14824 04c8 00002041 		.word	1092616192
 14825 04cc 00000000 		.word	0
 14826 04d0 0000B040 		.word	1085276160
 14827 04d4 00401C45 		.word	1159479296
 14828 04d8 0000FA43 		.word	1140457472
 14829 04dc CDCC4C3F 		.word	1061997773
 14830 04e0 CDCC4C3F 		.word	1061997773
 14831 04e4 CDCC4C3F 		.word	1061997773
 14832 04e8 CDCC4C3F 		.word	1061997773
 14833 04ec CDCC4C3F 		.word	1061997773
 14834 04f0 CDCC4C3F 		.word	1061997773
 14835 04f4 CDCC4C3F 		.word	1061997773
 14836 04f8 CDCC4C3F 		.word	1061997773
 14837 04fc CDCCCC3D 		.word	1036831949
ARM GAS  /tmp/ccYdlVIk.s 			page 263


 14838 0500 00000000 		.word	0
 14839 0504 00000000 		.word	0
 14840 0508 00002041 		.word	1092616192
 14841 050c 00000000 		.word	0
 14842 0510 0000803F 		.word	1065353216
 14843 0514 00007A44 		.word	1148846080
 14844 0518 00007A44 		.word	1148846080
 14845 051c CDCC4C3F 		.word	1061997773
 14846 0520 8FC2753E 		.word	1047904911
 14847 0524 CDCCCC3E 		.word	1053609165
 14848 0528 295C4F3F 		.word	1062165545
 14849 052c 5C8F423F 		.word	1061326684
 14850 0530 6666863F 		.word	1065772646
 14851 0534 A4709D3F 		.word	1067282596
 14852 0538 295C8F3F 		.word	1066359849
 14853 053c CDCCCC3D 		.word	1036831949
 14854 0540 00000000 		.word	0
 14855 0544 00002842 		.word	1109917696
 14856 0548 00002041 		.word	1092616192
 14857 054c 00000000 		.word	0
 14858 0550 0000B040 		.word	1085276160
 14859 0554 00401C45 		.word	1159479296
 14860 0558 0000FA43 		.word	1140457472
 14861 055c CDCC4C3F 		.word	1061997773
 14862 0560 CDCC4C3F 		.word	1061997773
 14863 0564 CDCC4C3F 		.word	1061997773
 14864 0568 CDCC4C3F 		.word	1061997773
 14865 056c CDCC4C3F 		.word	1061997773
 14866 0570 CDCC4C3F 		.word	1061997773
 14867 0574 CDCC4C3F 		.word	1061997773
 14868 0578 CDCC4C3F 		.word	1061997773
 14869 057c CDCCCC3D 		.word	1036831949
 14870 0580 00000000 		.word	0
 14871 0584 00007042 		.word	1114636288
 14872 0588 00000000 		.word	0
 14873 058c 00000000 		.word	0
 14874 0590 0000B040 		.word	1085276160
 14875 0594 00401C45 		.word	1159479296
 14876 0598 0000FA43 		.word	1140457472
 14877 059c CDCC4C3F 		.word	1061997773
 14878 05a0 8FC2853F 		.word	1065730703
 14879 05a4 EC51C83F 		.word	1070092780
 14880 05a8 0000E03F 		.word	1071644672
 14881 05ac D7A3703F 		.word	1064346583
 14882 05b0 7B142E3F 		.word	1059984507
 14883 05b4 C3F5483F 		.word	1061746115
 14884 05b8 295C8F3F 		.word	1066359849
 14885 05bc CDCCCC3D 		.word	1036831949
 14886 05c0 00000000 		.word	0
 14887 05c4 00007042 		.word	1114636288
 14888 05c8 00000000 		.word	0
 14889 05cc 00000000 		.word	0
 14890 05d0 0000B040 		.word	1085276160
 14891 05d4 00401C45 		.word	1159479296
 14892 05d8 0000FA43 		.word	1140457472
 14893 05dc CDCC4C3F 		.word	1061997773
 14894 05e0 6666263F 		.word	1059481190
ARM GAS  /tmp/ccYdlVIk.s 			page 264


 14895 05e4 8FC2553F 		.word	1062584975
 14896 05e8 3333933F 		.word	1066611507
 14897 05ec 3D0AA73F 		.word	1067911741
 14898 05f0 1F85CB3F 		.word	1070302495
 14899 05f4 1F85CB3F 		.word	1070302495
 14900 05f8 3D0A2740 		.word	1076300349
 14901 05fc 0000C03F 		.word	1069547520
 14902 0600 000000C0 		.word	-1073741824
 14903 0604 00004042 		.word	1111490560
 14904 0608 00000000 		.word	0
 14905 060c 00000000 		.word	0
 14906 0610 3333B340 		.word	1085485875
 14907 0614 00401C45 		.word	1159479296
 14908 0618 00802245 		.word	1159888896
 14909 061c CDCC4C3F 		.word	1061997773
 14910 0620 7B14AE3F 		.word	1068373115
 14911 0624 52B8DE3F 		.word	1071560786
 14912 0628 295CEF3F 		.word	1072651305
 14913 062c D7A3703F 		.word	1064346583
 14914 0630 00000000 		.word	0
 14915 0634 713D4A3F 		.word	1061830001
 14916 0638 713D4A3F 		.word	1061830001
 14917 063c CDCCCC3D 		.word	1036831949
 14918 0640 000020C1 		.word	-1054867456
 14919 0644 00000000 		.word	0
 14920 0648 00000000 		.word	0
 14921 064c 00000000 		.word	0
 14922 0650 66669640 		.word	1083598438
 14923 0654 0000FA44 		.word	1157234688
 14924 0658 0000FA44 		.word	1157234688
 14925 065c CDCC4C3F 		.word	1061997773
 14926 0660 9A99D93F 		.word	1071225242
 14927 0664 6666A63F 		.word	1067869798
 14928 0668 A4707D3F 		.word	1065185444
 14929 066c CDCCCC3D 		.word	1036831949
 14930 0670 C3F5883F 		.word	1065940419
 14931 0674 48E13A3F 		.word	1060823368
 14932 0678 52B8BE3F 		.word	1069463634
 14933 067c CDCCCC3D 		.word	1036831949
 14934 0680 000020C1 		.word	-1054867456
 14935 0684 00000000 		.word	0
 14936 0688 00000000 		.word	0
 14937 068c 00000000 		.word	0
 14938 0690 66669640 		.word	1083598438
 14939 0694 0000FA44 		.word	1157234688
 14940 0698 0000FA44 		.word	1157234688
 14941 069c CDCC4C3F 		.word	1061997773
 14942 06a0 9A99D93F 		.word	1071225242
 14943 06a4 6666A63F 		.word	1067869798
 14944 06a8 A4707D3F 		.word	1065185444
 14945 06ac CDCCCC3D 		.word	1036831949
 14946 06b0 C3F5883F 		.word	1065940419
 14947 06b4 48E13A3F 		.word	1060823368
 14948 06b8 52B8BE3F 		.word	1069463634
 14949 06bc CDCCCC3D 		.word	1036831949
 14950 06c0 00000000 		.word	0
 14951 06c4 00007042 		.word	1114636288
ARM GAS  /tmp/ccYdlVIk.s 			page 265


 14952 06c8 00000000 		.word	0
 14953 06cc 00000000 		.word	0
 14954 06d0 0000B040 		.word	1085276160
 14955 06d4 00401C45 		.word	1159479296
 14956 06d8 0000FA43 		.word	1140457472
 14957 06dc CDCC4C3F 		.word	1061997773
 14958 06e0 0AD7633F 		.word	1063507722
 14959 06e4 CDCC8C3F 		.word	1066192077
 14960 06e8 EC51783F 		.word	1064849900
 14961 06ec 0AD7633F 		.word	1063507722
 14962 06f0 7B14AE3E 		.word	1051595899
 14963 06f4 E17A943E 		.word	1049918177
 14964 06f8 295C8F3F 		.word	1066359849
 14965 06fc CDCCCC3D 		.word	1036831949
 14966 0700 00000000 		.word	0
 14967 0704 00007042 		.word	1114636288
 14968 0708 00000000 		.word	0
 14969 070c 00000000 		.word	0
 14970 0710 0000B040 		.word	1085276160
 14971 0714 00401C45 		.word	1159479296
 14972 0718 0000FA43 		.word	1140457472
 14973 071c CDCC4C3F 		.word	1061997773
 14974 0720 AE47213F 		.word	1059145646
 14975 0724 D7A3F03E 		.word	1055957975
 14976 0728 6666263F 		.word	1059481190
 14977 072c B81EC53F 		.word	1069883064
 14978 0730 6666E63E 		.word	1055286886
 14979 0734 B81E853E 		.word	1048911544
 14980 0738 6666863F 		.word	1065772646
 14981 073c CDCCCC3D 		.word	1036831949
 14982 0740 00000000 		.word	0
 14983 0744 00007042 		.word	1114636288
 14984 0748 00000000 		.word	0
 14985 074c 00000000 		.word	0
 14986 0750 0000B040 		.word	1085276160
 14987 0754 00401C45 		.word	1159479296
 14988 0758 0000FA43 		.word	1140457472
 14989 075c CDCC4C3F 		.word	1061997773
 14990 0760 AE47213F 		.word	1059145646
 14991 0764 D7A3F03E 		.word	1055957975
 14992 0768 6666263F 		.word	1059481190
 14993 076c B81EC53F 		.word	1069883064
 14994 0770 6666E63E 		.word	1055286886
 14995 0774 B81E853E 		.word	1048911544
 14996 0778 6666863F 		.word	1065772646
 14997 077c CDCCCC3D 		.word	1036831949
 14998 0780 00000000 		.word	0
 14999 0784 00007042 		.word	1114636288
 15000 0788 00000000 		.word	0
 15001 078c 00000000 		.word	0
 15002 0790 0000B040 		.word	1085276160
 15003 0794 00401C45 		.word	1159479296
 15004 0798 0000FA43 		.word	1140457472
 15005 079c CDCC4C3F 		.word	1061997773
 15006 07a0 0AD7633F 		.word	1063507722
 15007 07a4 5C8F423F 		.word	1061326684
 15008 07a8 0AD7A33F 		.word	1067702026
ARM GAS  /tmp/ccYdlVIk.s 			page 266


 15009 07ac 6666E63F 		.word	1072064102
 15010 07b0 A4707D3F 		.word	1065185444
 15011 07b4 3D0A573F 		.word	1062668861
 15012 07b8 CDCCCC3D 		.word	1036831949
 15013 07bc 0000003F 		.word	1056964608
 15014 07c0 00000000 		.word	0
 15015 07c4 00007042 		.word	1114636288
 15016 07c8 00000000 		.word	0
 15017 07cc 00000000 		.word	0
 15018 07d0 0000B040 		.word	1085276160
 15019 07d4 00401C45 		.word	1159479296
 15020 07d8 0000FA43 		.word	1140457472
 15021 07dc CDCC4C3F 		.word	1061997773
 15022 07e0 14AEA73F 		.word	1067953684
 15023 07e4 52B8BE3F 		.word	1069463634
 15024 07e8 0000A03F 		.word	1067450368
 15025 07ec 0000803F 		.word	1065353216
 15026 07f0 CDCC4C3D 		.word	1028443341
 15027 07f4 EC51B83F 		.word	1069044204
 15028 07f8 14AEA73F 		.word	1067953684
 15029 07fc 0000003F 		.word	1056964608
 15030 0800 00000000 		.word	0
 15031 0804 00007042 		.word	1114636288
 15032 0808 00000000 		.word	0
 15033 080c 00000000 		.word	0
 15034 0810 0000B040 		.word	1085276160
 15035 0814 00401C45 		.word	1159479296
 15036 0818 0000FA43 		.word	1140457472
 15037 081c CDCC4C3F 		.word	1061997773
 15038 0820 9A99D93F 		.word	1071225242
 15039 0824 6666A63F 		.word	1067869798
 15040 0828 A4707D3F 		.word	1065185444
 15041 082c CDCCCC3D 		.word	1036831949
 15042 0830 C3F5883F 		.word	1065940419
 15043 0834 48E13A3F 		.word	1060823368
 15044 0838 52B8BE3F 		.word	1069463634
 15045 083c 0000003F 		.word	1056964608
 15046 0840 00000000 		.word	0
 15047 0844 00007042 		.word	1114636288
 15048 0848 00000000 		.word	0
 15049 084c 00000000 		.word	0
 15050 0850 0000B040 		.word	1085276160
 15051 0854 00401C45 		.word	1159479296
 15052 0858 0000FA43 		.word	1140457472
 15053 085c CDCC4C3F 		.word	1061997773
 15054 0860 0000803F 		.word	1065353216
 15055 0864 CDCC6C3F 		.word	1064094925
 15056 0868 9A99193F 		.word	1058642330
 15057 086c 5C8FA23F 		.word	1067618140
 15058 0870 713DEA3F 		.word	1072315761
 15059 0874 F628FC3F 		.word	1073490166
 15060 0878 295C8F3F 		.word	1066359849
 15061 087c CDCCCC3D 		.word	1036831949
 15062 0880 00000000 		.word	0
 15063 0884 00000000 		.word	0
 15064 0888 00000000 		.word	0
 15065 088c 00000000 		.word	0
ARM GAS  /tmp/ccYdlVIk.s 			page 267


 15066 0890 0000B040 		.word	1085276160
 15067 0894 00401C45 		.word	1159479296
 15068 0898 0000FA43 		.word	1140457472
 15069 089c CDCC4C3F 		.word	1061997773
 15070 08a0 5C8F623F 		.word	1063423836
 15071 08a4 A4707D3F 		.word	1065185444
 15072 08a8 295C4F3F 		.word	1062165545
 15073 08ac AE47413F 		.word	1061242798
 15074 08b0 8FC2853F 		.word	1065730703
 15075 08b4 CDCC9C3F 		.word	1067240653
 15076 08b8 295C8F3F 		.word	1066359849
 15077 08bc CDCCCC3D 		.word	1036831949
 15078 08c0 00000000 		.word	0
 15079 08c4 00007042 		.word	1114636288
 15080 08c8 00000000 		.word	0
 15081 08cc 00000000 		.word	0
 15082 08d0 0000B040 		.word	1085276160
 15083 08d4 00401C45 		.word	1159479296
 15084 08d8 0000FA43 		.word	1140457472
 15085 08dc CDCC4C3F 		.word	1061997773
 15086 08e0 0000803F 		.word	1065353216
 15087 08e4 CDCC6C3F 		.word	1064094925
 15088 08e8 9A99193F 		.word	1058642330
 15089 08ec 85EBA13F 		.word	1067576197
 15090 08f0 713DEA3F 		.word	1072315761
 15091 08f4 1F85FB3F 		.word	1073448223
 15092 08f8 295C8F3F 		.word	1066359849
 15093 08fc 0000C03F 		.word	1069547520
 15094 0900 00000000 		.word	0
 15095 0904 00007042 		.word	1114636288
 15096 0908 00000000 		.word	0
 15097 090c 00000000 		.word	0
 15098 0910 0000B040 		.word	1085276160
 15099 0914 00401C45 		.word	1159479296
 15100 0918 0000FA43 		.word	1140457472
 15101 091c CDCC4C3F 		.word	1061997773
 15102 0920 5C8F623F 		.word	1063423836
 15103 0924 A4707D3F 		.word	1065185444
 15104 0928 295C4F3F 		.word	1062165545
 15105 092c AE47413F 		.word	1061242798
 15106 0930 8FC2853F 		.word	1065730703
 15107 0934 CDCC9C3F 		.word	1067240653
 15108 0938 295C8F3F 		.word	1066359849
 15109 093c CDCCCC3D 		.word	1036831949
 15110 0940 000020C1 		.word	-1054867456
 15111 0944 00000000 		.word	0
 15112 0948 00000000 		.word	0
 15113 094c 00000000 		.word	0
 15114 0950 0000E040 		.word	1088421888
 15115 0954 0000FA44 		.word	1157234688
 15116 0958 00002F44 		.word	1143930880
 15117 095c CDCC4C3F 		.word	1061997773
 15118 0960 0AD7633F 		.word	1063507722
 15119 0964 5C8F423F 		.word	1061326684
 15120 0968 0AD7A33F 		.word	1067702026
 15121 096c 6666E63F 		.word	1072064102
 15122 0970 A4707D3F 		.word	1065185444
ARM GAS  /tmp/ccYdlVIk.s 			page 268


 15123 0974 3D0A573F 		.word	1062668861
 15124 0978 CDCCCC3D 		.word	1036831949
 15125 097c CDCCCC3D 		.word	1036831949
 15126 0980 000080BF 		.word	-1082130432
 15127 0984 00000000 		.word	0
 15128 0988 00000000 		.word	0
 15129 098c 0000C041 		.word	1103101952
 15130 0990 0000E040 		.word	1088421888
 15131 0994 00005844 		.word	1146617856
 15132 0998 00306045 		.word	1163931648
 15133 099c CDCC4C3F 		.word	1061997773
 15134 09a0 0AD7633F 		.word	1063507722
 15135 09a4 A4707D3F 		.word	1065185444
 15136 09a8 295C4F3F 		.word	1062165545
 15137 09ac 9A99193F 		.word	1058642330
 15138 09b0 B81E053F 		.word	1057300152
 15139 09b4 8FC2353F 		.word	1060487823
 15140 09b8 8FC2753E 		.word	1047904911
 15141 09bc CDCCCC3D 		.word	1036831949
 15142 09c0 000020C1 		.word	-1054867456
 15143 09c4 00000000 		.word	0
 15144 09c8 00000000 		.word	0
 15145 09cc 00000000 		.word	0
 15146 09d0 0000E040 		.word	1088421888
 15147 09d4 0000FA44 		.word	1157234688
 15148 09d8 00002F44 		.word	1143930880
 15149 09dc CDCC4C3F 		.word	1061997773
 15150 09e0 0AD7633F 		.word	1063507722
 15151 09e4 5C8F423F 		.word	1061326684
 15152 09e8 0AD7A33F 		.word	1067702026
 15153 09ec 6666E63F 		.word	1072064102
 15154 09f0 A4707D3F 		.word	1065185444
 15155 09f4 3D0A573F 		.word	1062668861
 15156 09f8 CDCCCC3D 		.word	1036831949
 15157 09fc CDCCCC3D 		.word	1036831949
 15158 0a00 00000000 		.word	0
 15159 0a04 00000000 		.word	0
 15160 0a08 00000000 		.word	0
 15161 0a0c 00000000 		.word	0
 15162 0a10 0000B040 		.word	1085276160
 15163 0a14 00401C45 		.word	1159479296
 15164 0a18 0000FA43 		.word	1140457472
 15165 0a1c CDCC4C3F 		.word	1061997773
 15166 0a20 0AD7633F 		.word	1063507722
 15167 0a24 A4707D3F 		.word	1065185444
 15168 0a28 295C4F3F 		.word	1062165545
 15169 0a2c 5C8F423F 		.word	1061326684
 15170 0a30 6666863F 		.word	1065772646
 15171 0a34 A4709D3F 		.word	1067282596
 15172 0a38 0AD7233C 		.word	1008981770
 15173 0a3c CDCCCC3D 		.word	1036831949
 15174 0a40 000000C0 		.word	-1073741824
 15175 0a44 00000000 		.word	0
 15176 0a48 00000000 		.word	0
 15177 0a4c 00000000 		.word	0
 15178 0a50 3333B340 		.word	1085485875
 15179 0a54 00401C45 		.word	1159479296
ARM GAS  /tmp/ccYdlVIk.s 			page 269


 15180 0a58 00802245 		.word	1159888896
 15181 0a5c CDCC4C3F 		.word	1061997773
 15182 0a60 7B14AE3F 		.word	1068373115
 15183 0a64 52B8DE3F 		.word	1071560786
 15184 0a68 295CEF3F 		.word	1072651305
 15185 0a6c D7A3703F 		.word	1064346583
 15186 0a70 CDCCCC3D 		.word	1036831949
 15187 0a74 713D4A3F 		.word	1061830001
 15188 0a78 713D4A3F 		.word	1061830001
 15189 0a7c CDCCCC3D 		.word	1036831949
 15190 0a80 000020C1 		.word	-1054867456
 15191 0a84 00000000 		.word	0
 15192 0a88 00000000 		.word	0
 15193 0a8c 00000000 		.word	0
 15194 0a90 66669640 		.word	1083598438
 15195 0a94 0000FA44 		.word	1157234688
 15196 0a98 0000FA44 		.word	1157234688
 15197 0a9c CDCC4C3F 		.word	1061997773
 15198 0aa0 9A99D93F 		.word	1071225242
 15199 0aa4 6666A63F 		.word	1067869798
 15200 0aa8 A4707D3F 		.word	1065185444
 15201 0aac CDCCCC3D 		.word	1036831949
 15202 0ab0 C3F5883F 		.word	1065940419
 15203 0ab4 48E13A3F 		.word	1060823368
 15204 0ab8 52B8BE3F 		.word	1069463634
 15205 0abc CDCCCC3D 		.word	1036831949
 15206 0ac0 000020C1 		.word	-1054867456
 15207 0ac4 00000000 		.word	0
 15208 0ac8 00000000 		.word	0
 15209 0acc 00000000 		.word	0
 15210 0ad0 0000E040 		.word	1088421888
 15211 0ad4 0000FA44 		.word	1157234688
 15212 0ad8 00002F44 		.word	1143930880
 15213 0adc CDCC4C3F 		.word	1061997773
 15214 0ae0 0AD7633F 		.word	1063507722
 15215 0ae4 5C8F423F 		.word	1061326684
 15216 0ae8 0AD7A33F 		.word	1067702026
 15217 0aec 6666E63F 		.word	1072064102
 15218 0af0 A4707D3F 		.word	1065185444
 15219 0af4 3D0A573F 		.word	1062668861
 15220 0af8 CDCCCC3D 		.word	1036831949
 15221 0afc CDCCCC3D 		.word	1036831949
 15222 0b00 00000000 		.word	0
 15223 0b04 00000000 		.word	0
 15224 0b08 00000000 		.word	0
 15225 0b0c 00000000 		.word	0
 15226 0b10 9A99B940 		.word	1085905306
 15227 0b14 00E0AB45 		.word	1168891904
 15228 0b18 0000FA43 		.word	1140457472
 15229 0b1c CDCC4C3F 		.word	1061997773
 15230 0b20 14AEA73F 		.word	1067953684
 15231 0b24 52B8BE3F 		.word	1069463634
 15232 0b28 0000A03F 		.word	1067450368
 15233 0b2c 6666663F 		.word	1063675494
 15234 0b30 CDCC4C3E 		.word	1045220557
 15235 0b34 CDCCCC3E 		.word	1053609165
 15236 0b38 14AEA73F 		.word	1067953684
ARM GAS  /tmp/ccYdlVIk.s 			page 270


 15237 0b3c CDCCCC3D 		.word	1036831949
 15238 0b40 000020C1 		.word	-1054867456
 15239 0b44 00000000 		.word	0
 15240 0b48 00000000 		.word	0
 15241 0b4c 00000000 		.word	0
 15242 0b50 0000E040 		.word	1088421888
 15243 0b54 00A08C45 		.word	1166843904
 15244 0b58 0000FA44 		.word	1157234688
 15245 0b5c CDCC4C3F 		.word	1061997773
 15246 0b60 14AEA73F 		.word	1067953684
 15247 0b64 52B8BE3F 		.word	1069463634
 15248 0b68 0000A03F 		.word	1067450368
 15249 0b6c 5C8F423F 		.word	1061326684
 15250 0b70 CDCCCC3D 		.word	1036831949
 15251 0b74 EC51B83F 		.word	1069044204
 15252 0b78 14AEA73F 		.word	1067953684
 15253 0b7c CDCCCC3D 		.word	1036831949
 15254 0b80 000080BF 		.word	-1082130432
 15255 0b84 00000000 		.word	0
 15256 0b88 00000000 		.word	0
 15257 0b8c 00000000 		.word	0
 15258 0b90 9A99B940 		.word	1085905306
 15259 0b94 00E0AB45 		.word	1168891904
 15260 0b98 0000FA43 		.word	1140457472
 15261 0b9c CDCC4C3F 		.word	1061997773
 15262 0ba0 14AEA73F 		.word	1067953684
 15263 0ba4 52B8BE3F 		.word	1069463634
 15264 0ba8 0000A03F 		.word	1067450368
 15265 0bac 6666663F 		.word	1063675494
 15266 0bb0 CDCC4C3E 		.word	1045220557
 15267 0bb4 9A99193F 		.word	1058642330
 15268 0bb8 14AEA73F 		.word	1067953684
 15269 0bbc CDCCCC3D 		.word	1036831949
 15270 0bc0 00000000 		.word	0
 15271 0bc4 00007042 		.word	1114636288
 15272 0bc8 00000000 		.word	0
 15273 0bcc 00000000 		.word	0
 15274 0bd0 0000B040 		.word	1085276160
 15275 0bd4 00401C45 		.word	1159479296
 15276 0bd8 0000FA43 		.word	1140457472
 15277 0bdc CDCC4C3F 		.word	1061997773
 15278 0be0 14AEA73F 		.word	1067953684
 15279 0be4 48E13A3F 		.word	1060823368
 15280 0be8 C3F5883F 		.word	1065940419
 15281 0bec 14AE0740 		.word	1074245140
 15282 0bf0 D7A3F03E 		.word	1055957975
 15283 0bf4 0AD7E33F 		.word	1071896330
 15284 0bf8 6666263F 		.word	1059481190
 15285 0bfc CDCCCC3D 		.word	1036831949
 15286 0c00 00000000 		.word	0
 15287 0c04 00007042 		.word	1114636288
 15288 0c08 00000000 		.word	0
 15289 0c0c 00000000 		.word	0
 15290 0c10 0000B040 		.word	1085276160
 15291 0c14 00401C45 		.word	1159479296
 15292 0c18 0000FA43 		.word	1140457472
 15293 0c1c CDCC4C3F 		.word	1061997773
ARM GAS  /tmp/ccYdlVIk.s 			page 271


 15294 0c20 14AEA73F 		.word	1067953684
 15295 0c24 48E13A3F 		.word	1060823368
 15296 0c28 14AEA73F 		.word	1067953684
 15297 0c2c 14AE0740 		.word	1074245140
 15298 0c30 AE47213F 		.word	1059145646
 15299 0c34 0AD7E33F 		.word	1071896330
 15300 0c38 6666263F 		.word	1059481190
 15301 0c3c CDCCCC3D 		.word	1036831949
 15302 0c40 00000000 		.word	0
 15303 0c44 00000000 		.word	0
 15304 0c48 00000000 		.word	0
 15305 0c4c CDCC4C3F 		.word	1061997773
 15306 0c50 9A99B940 		.word	1085905306
 15307 0c54 00E0AB45 		.word	1168891904
 15308 0c58 0000FA43 		.word	1140457472
 15309 0c5c CDCC4C3F 		.word	1061997773
 15310 0c60 14AEA73F 		.word	1067953684
 15311 0c64 52B8BE3F 		.word	1069463634
 15312 0c68 0000A03F 		.word	1067450368
 15313 0c6c 6666663F 		.word	1063675494
 15314 0c70 CDCC4C3E 		.word	1045220557
 15315 0c74 CDCCCC3E 		.word	1053609165
 15316 0c78 14AEA73F 		.word	1067953684
 15317 0c7c CDCCCC3D 		.word	1036831949
 15318 0c80 00000000 		.word	0
 15319 0c84 00000000 		.word	0
 15320 0c88 00000000 		.word	0
 15321 0c8c CDCCCC3E 		.word	1053609165
 15322 0c90 3333B340 		.word	1085485875
 15323 0c94 00401C45 		.word	1159479296
 15324 0c98 00802245 		.word	1159888896
 15325 0c9c CDCC4C3F 		.word	1061997773
 15326 0ca0 7B14AE3F 		.word	1068373115
 15327 0ca4 52B8DE3F 		.word	1071560786
 15328 0ca8 295CEF3F 		.word	1072651305
 15329 0cac D7A3703F 		.word	1064346583
 15330 0cb0 A470BD3E 		.word	1052602532
 15331 0cb4 713D4A3F 		.word	1061830001
 15332 0cb8 713D4A3F 		.word	1061830001
 15333 0cbc CDCCCC3D 		.word	1036831949
 15334 0cc0 000020C1 		.word	-1054867456
 15335 0cc4 00000000 		.word	0
 15336 0cc8 00000000 		.word	0
 15337 0ccc 00000000 		.word	0
 15338 0cd0 0000E040 		.word	1088421888
 15339 0cd4 00A08C45 		.word	1166843904
 15340 0cd8 0000FA44 		.word	1157234688
 15341 0cdc CDCC4C3F 		.word	1061997773
 15342 0ce0 14AEA73F 		.word	1067953684
 15343 0ce4 52B8BE3F 		.word	1069463634
 15344 0ce8 0000A03F 		.word	1067450368
 15345 0cec 5C8F423F 		.word	1061326684
 15346 0cf0 CDCCCC3D 		.word	1036831949
 15347 0cf4 EC51B83F 		.word	1069044204
 15348 0cf8 14AEA73F 		.word	1067953684
 15349 0cfc CDCCCC3D 		.word	1036831949
 15350 0d00 00000000 		.word	0
ARM GAS  /tmp/ccYdlVIk.s 			page 272


 15351 0d04 00000000 		.word	0
 15352 0d08 00000000 		.word	0
 15353 0d0c 0000803E 		.word	1048576000
 15354 0d10 0000C040 		.word	1086324736
 15355 0d14 00808945 		.word	1166639104
 15356 0d18 00A08C45 		.word	1166843904
 15357 0d1c CDCC4C3F 		.word	1061997773
 15358 0d20 9A99993F 		.word	1067030938
 15359 0d24 0000C03F 		.word	1069547520
 15360 0d28 CDCCAC3F 		.word	1068289229
 15361 0d2c 9A99993F 		.word	1067030938
 15362 0d30 9A99993F 		.word	1067030938
 15363 0d34 CDCCCC3E 		.word	1053609165
 15364 0d38 0000803F 		.word	1065353216
 15365 0d3c CDCCCC3D 		.word	1036831949
 15366 0d40 000020C1 		.word	-1054867456
 15367 0d44 00000000 		.word	0
 15368 0d48 00000000 		.word	0
 15369 0d4c 00000000 		.word	0
 15370 0d50 6666D640 		.word	1087792742
 15371 0d54 00A08C45 		.word	1166843904
 15372 0d58 0000FA44 		.word	1157234688
 15373 0d5c CDCC4C3F 		.word	1061997773
 15374 0d60 14AEA73F 		.word	1067953684
 15375 0d64 52B8BE3F 		.word	1069463634
 15376 0d68 0000A03F 		.word	1067450368
 15377 0d6c 5C8F423F 		.word	1061326684
 15378 0d70 CDCCCC3D 		.word	1036831949
 15379 0d74 EC51B83F 		.word	1069044204
 15380 0d78 14AEA73F 		.word	1067953684
 15381 0d7c CDCCCC3D 		.word	1036831949
 15382 0d80 00000000 		.word	0
 15383 0d84 00007042 		.word	1114636288
 15384 0d88 00000000 		.word	0
 15385 0d8c 00000000 		.word	0
 15386 0d90 0000B040 		.word	1085276160
 15387 0d94 00401C45 		.word	1159479296
 15388 0d98 0000FA43 		.word	1140457472
 15389 0d9c CDCC4C3F 		.word	1061997773
 15390 0da0 0000203F 		.word	1059061760
 15391 0da4 9A99193F 		.word	1058642330
 15392 0da8 E17A343F 		.word	1060403937
 15393 0dac 295C8F3F 		.word	1066359849
 15394 0db0 3D0AF73F 		.word	1073154621
 15395 0db4 85EBC13F 		.word	1069673349
 15396 0db8 0000203F 		.word	1059061760
 15397 0dbc CDCCCC3D 		.word	1036831949
 15398 0dc0 00000000 		.word	0
 15399 0dc4 00007042 		.word	1114636288
 15400 0dc8 00000000 		.word	0
 15401 0dcc 00000000 		.word	0
 15402 0dd0 0000B040 		.word	1085276160
 15403 0dd4 00401C45 		.word	1159479296
 15404 0dd8 0000FA43 		.word	1140457472
 15405 0ddc CDCC4C3F 		.word	1061997773
 15406 0de0 0AD7633F 		.word	1063507722
 15407 0de4 A4707D3F 		.word	1065185444
ARM GAS  /tmp/ccYdlVIk.s 			page 273


 15408 0de8 295C4F3F 		.word	1062165545
 15409 0dec 5C8F423F 		.word	1061326684
 15410 0df0 6666863F 		.word	1065772646
 15411 0df4 A4709D3F 		.word	1067282596
 15412 0df8 295C8F3F 		.word	1066359849
 15413 0dfc CDCCCC3D 		.word	1036831949
 15414 0e00 00000000 		.word	0
 15415 0e04 00007042 		.word	1114636288
 15416 0e08 00000000 		.word	0
 15417 0e0c 00000000 		.word	0
 15418 0e10 0000B040 		.word	1085276160
 15419 0e14 00401C45 		.word	1159479296
 15420 0e18 0000FA43 		.word	1140457472
 15421 0e1c CDCC4C3F 		.word	1061997773
 15422 0e20 5C8F623F 		.word	1063423836
 15423 0e24 A4707D3F 		.word	1065185444
 15424 0e28 295C4F3F 		.word	1062165545
 15425 0e2c AE47413F 		.word	1061242798
 15426 0e30 8FC2853F 		.word	1065730703
 15427 0e34 CDCC9C3F 		.word	1067240653
 15428 0e38 295C8F3F 		.word	1066359849
 15429 0e3c 0000C03F 		.word	1069547520
 15430 0e40 00000000 		.word	0
 15431 0e44 00007042 		.word	1114636288
 15432 0e48 00000000 		.word	0
 15433 0e4c 00000000 		.word	0
 15434 0e50 0000B040 		.word	1085276160
 15435 0e54 00401C45 		.word	1159479296
 15436 0e58 0000FA43 		.word	1140457472
 15437 0e5c CDCC4C3F 		.word	1061997773
 15438 0e60 E17AF43F 		.word	1072986849
 15439 0e64 EC51B83F 		.word	1069044204
 15440 0e68 9A99193F 		.word	1058642330
 15441 0e6c 5C8F823F 		.word	1065520988
 15442 0e70 713DAA3F 		.word	1068121457
 15443 0e74 14AEC73F 		.word	1070050836
 15444 0e78 CDCC0C3F 		.word	1057803469
 15445 0e7c CDCCCC3D 		.word	1036831949
 15446 0e80 000080BF 		.word	-1082130432
 15447 0e84 00005842 		.word	1113063424
 15448 0e88 00000000 		.word	0
 15449 0e8c CDCC4C3E 		.word	1045220557
 15450 0e90 0000E040 		.word	1088421888
 15451 0e94 00404E45 		.word	1162756096
 15452 0e98 00007A44 		.word	1148846080
 15453 0e9c CDCC4C3F 		.word	1061997773
 15454 0ea0 0AD7633F 		.word	1063507722
 15455 0ea4 A4707D3F 		.word	1065185444
 15456 0ea8 295C4F3F 		.word	1062165545
 15457 0eac 5C8F423F 		.word	1061326684
 15458 0eb0 0AD7633F 		.word	1063507722
 15459 0eb4 3D0A573F 		.word	1062668861
 15460 0eb8 0000003F 		.word	1056964608
 15461 0ebc CDCCCC3D 		.word	1036831949
 15462 0ec0 00000000 		.word	0
 15463 0ec4 00007042 		.word	1114636288
 15464 0ec8 00000000 		.word	0
ARM GAS  /tmp/ccYdlVIk.s 			page 274


 15465 0ecc 00000000 		.word	0
 15466 0ed0 0000B040 		.word	1085276160
 15467 0ed4 00401C45 		.word	1159479296
 15468 0ed8 0000FA43 		.word	1140457472
 15469 0edc CDCC4C3F 		.word	1061997773
 15470 0ee0 E17AF43F 		.word	1072986849
 15471 0ee4 EC51B83F 		.word	1069044204
 15472 0ee8 9A99193F 		.word	1058642330
 15473 0eec 5C8F823F 		.word	1065520988
 15474 0ef0 713DAA3F 		.word	1068121457
 15475 0ef4 14AEC73F 		.word	1070050836
 15476 0ef8 CDCC0C3F 		.word	1057803469
 15477 0efc CDCCCC3D 		.word	1036831949
 15478 0f00 00000000 		.word	0
 15479 0f04 00000000 		.word	0
 15480 0f08 00000000 		.word	0
 15481 0f0c 0000003F 		.word	1056964608
 15482 0f10 00000040 		.word	1073741824
 15483 0f14 0040DD44 		.word	1155350528
 15484 0f18 00006144 		.word	1147207680
 15485 0f1c CDCC4C3F 		.word	1061997773
 15486 0f20 9A99D93F 		.word	1071225242
 15487 0f24 6666A63F 		.word	1067869798
 15488 0f28 CDCCCC3E 		.word	1053609165
 15489 0f2c A4707D3F 		.word	1065185444
 15490 0f30 C3F5883F 		.word	1065940419
 15491 0f34 48E13A3F 		.word	1060823368
 15492 0f38 52B8BE3F 		.word	1069463634
 15493 0f3c CDCCCC3D 		.word	1036831949
 15494 0f40 00000000 		.word	0
 15495 0f44 00007042 		.word	1114636288
 15496 0f48 00000000 		.word	0
 15497 0f4c 00000000 		.word	0
 15498 0f50 0000B040 		.word	1085276160
 15499 0f54 00401C45 		.word	1159479296
 15500 0f58 0000FA43 		.word	1140457472
 15501 0f5c CDCC4C3F 		.word	1061997773
 15502 0f60 8FC2D53F 		.word	1070973583
 15503 0f64 E17AF43F 		.word	1072986849
 15504 0f68 52B8FE3F 		.word	1073657938
 15505 0f6c AE47213F 		.word	1059145646
 15506 0f70 E17A943E 		.word	1049918177
 15507 0f74 E17A143F 		.word	1058306785
 15508 0f78 52B8BE3F 		.word	1069463634
 15509 0f7c 0000803E 		.word	1048576000
 15510 0f80 000080BF 		.word	-1082130432
 15511 0f84 00005842 		.word	1113063424
 15512 0f88 00000000 		.word	0
 15513 0f8c CDCC4C3F 		.word	1061997773
 15514 0f90 9A99B940 		.word	1085905306
 15515 0f94 00E0AB45 		.word	1168891904
 15516 0f98 0000FA43 		.word	1140457472
 15517 0f9c CDCC4C3F 		.word	1061997773
 15518 0fa0 14AEA73F 		.word	1067953684
 15519 0fa4 52B8BE3F 		.word	1069463634
 15520 0fa8 0000A03F 		.word	1067450368
 15521 0fac 6666663F 		.word	1063675494
ARM GAS  /tmp/ccYdlVIk.s 			page 275


 15522 0fb0 00000000 		.word	0
 15523 0fb4 9A99193F 		.word	1058642330
 15524 0fb8 14AEA73F 		.word	1067953684
 15525 0fbc CDCCCC3D 		.word	1036831949
 15526 0fc0 000080BF 		.word	-1082130432
 15527 0fc4 00005842 		.word	1113063424
 15528 0fc8 00000000 		.word	0
 15529 0fcc CDCCCC3E 		.word	1053609165
 15530 0fd0 3333B340 		.word	1085485875
 15531 0fd4 00401C45 		.word	1159479296
 15532 0fd8 00802245 		.word	1159888896
 15533 0fdc CDCC4C3F 		.word	1061997773
 15534 0fe0 7B14AE3F 		.word	1068373115
 15535 0fe4 52B8DE3F 		.word	1071560786
 15536 0fe8 295CEF3F 		.word	1072651305
 15537 0fec D7A3703F 		.word	1064346583
 15538 0ff0 A470BD3E 		.word	1052602532
 15539 0ff4 713D4A3F 		.word	1061830001
 15540 0ff8 713D4A3F 		.word	1061830001
 15541 0ffc CDCCCC3D 		.word	1036831949
 15542              		.ident	"GCC: (Arm GNU Toolchain 13.2.rel1 (Build arm-13.7)) 13.2.1 20231009"
ARM GAS  /tmp/ccYdlVIk.s 			page 276


DEFINED SYMBOLS
                            *ABS*:00000000 tube.c
     /tmp/ccYdlVIk.s:17     .text.initializeWavetable:00000000 $t
     /tmp/ccYdlVIk.s:24     .text.initializeWavetable:00000000 initializeWavetable
     /tmp/ccYdlVIk.s:117    .text.initializeWavetable:000000f8 $d
     /tmp/ccYdlVIk.s:4405   .bss.pulsed:00000000 pulsed
     /tmp/ccYdlVIk.s:4393   .bss.currentPosition:00000000 currentPosition
     /tmp/ccYdlVIk.s:4459   .data.tableDiv1:00000000 tableDiv1
     /tmp/ccYdlVIk.s:4399   .bss.wavetable:00000000 wavetable
     /tmp/ccYdlVIk.s:4452   .data.tableDiv2:00000000 tableDiv2
     /tmp/ccYdlVIk.s:4445   .data.tnLength:00000000 tnLength
     /tmp/ccYdlVIk.s:128    .text.updateWavetable:00000000 $t
     /tmp/ccYdlVIk.s:135    .text.updateWavetable:00000000 updateWavetable
     /tmp/ccYdlVIk.s:191    .text.updateWavetable:00000098 $d
     /tmp/ccYdlVIk.s:4438   .data.tnDelta:00000000 tnDelta
     /tmp/ccYdlVIk.s:197    .text.noise:00000000 $t
     /tmp/ccYdlVIk.s:204    .text.noise:00000000 noise
     /tmp/ccYdlVIk.s:222    .text.noise:00000028 $d
     /tmp/ccYdlVIk.s:4160   .data.seed.12:00000000 seed.12
     /tmp/ccYdlVIk.s:226    .text.noiseFilter:00000000 $t
     /tmp/ccYdlVIk.s:233    .text.noiseFilter:00000000 noiseFilter
     /tmp/ccYdlVIk.s:245    .text.noiseFilter:00000010 $d
     /tmp/ccYdlVIk.s:4154   .bss.noiseX.11:00000000 noiseX.11
     /tmp/ccYdlVIk.s:248    .text.initializeMouthCoefficients:00000000 $t
     /tmp/ccYdlVIk.s:255    .text.initializeMouthCoefficients:00000000 initializeMouthCoefficients
     /tmp/ccYdlVIk.s:279    .text.initializeMouthCoefficients:00000038 $d
     /tmp/ccYdlVIk.s:4381   .bss.b11:00000000 b11
     /tmp/ccYdlVIk.s:4387   .bss.a10:00000000 a10
     /tmp/ccYdlVIk.s:4363   .bss.b21:00000000 b21
     /tmp/ccYdlVIk.s:4369   .bss.a21:00000000 a21
     /tmp/ccYdlVIk.s:4375   .bss.a20:00000000 a20
     /tmp/ccYdlVIk.s:286    .text.reflectionFilter:00000000 $t
     /tmp/ccYdlVIk.s:293    .text.reflectionFilter:00000000 reflectionFilter
     /tmp/ccYdlVIk.s:311    .text.reflectionFilter:00000024 $d
     /tmp/ccYdlVIk.s:4148   .bss.reflectionY.10:00000000 reflectionY.10
     /tmp/ccYdlVIk.s:316    .text.radiationFilter:00000000 $t
     /tmp/ccYdlVIk.s:323    .text.radiationFilter:00000000 radiationFilter
     /tmp/ccYdlVIk.s:348    .text.radiationFilter:0000003c $d
     /tmp/ccYdlVIk.s:4142   .bss.radiationX.9:00000000 radiationX.9
     /tmp/ccYdlVIk.s:4136   .bss.radiationY.8:00000000 radiationY.8
     /tmp/ccYdlVIk.s:355    .text.initializeNasalFilterCoefficients:00000000 $t
     /tmp/ccYdlVIk.s:362    .text.initializeNasalFilterCoefficients:00000000 initializeNasalFilterCoefficients
     /tmp/ccYdlVIk.s:386    .text.initializeNasalFilterCoefficients:00000038 $d
     /tmp/ccYdlVIk.s:4351   .bss.nb11:00000000 nb11
     /tmp/ccYdlVIk.s:4357   .bss.na10:00000000 na10
     /tmp/ccYdlVIk.s:4333   .bss.nb21:00000000 nb21
     /tmp/ccYdlVIk.s:4339   .bss.na21:00000000 na21
     /tmp/ccYdlVIk.s:4345   .bss.na20:00000000 na20
     /tmp/ccYdlVIk.s:393    .text.nasalReflectionFilter:00000000 $t
     /tmp/ccYdlVIk.s:400    .text.nasalReflectionFilter:00000000 nasalReflectionFilter
     /tmp/ccYdlVIk.s:418    .text.nasalReflectionFilter:00000024 $d
     /tmp/ccYdlVIk.s:4130   .bss.nasalReflectionY.7:00000000 nasalReflectionY.7
     /tmp/ccYdlVIk.s:423    .text.nasalRadiationFilter:00000000 $t
     /tmp/ccYdlVIk.s:430    .text.nasalRadiationFilter:00000000 nasalRadiationFilter
     /tmp/ccYdlVIk.s:455    .text.nasalRadiationFilter:0000003c $d
     /tmp/ccYdlVIk.s:4124   .bss.nasalRadiationX.6:00000000 nasalRadiationX.6
     /tmp/ccYdlVIk.s:4118   .bss.nasalRadiationY.5:00000000 nasalRadiationY.5
ARM GAS  /tmp/ccYdlVIk.s 			page 277


     /tmp/ccYdlVIk.s:462    .text.tube_newsay:00000000 $t
     /tmp/ccYdlVIk.s:469    .text.tube_newsay:00000000 tube_newsay
     /tmp/ccYdlVIk.s:550    .text.tube_newsay:000000d4 $d
     /tmp/ccYdlVIk.s:4194   .bss.sel:00000000 sel
     /tmp/ccYdlVIk.s:4199   .bss.lastsel:00000000 lastsel
     /tmp/ccYdlVIk.s:4473   .data.dampingFactor:00000000 dampingFactor
     /tmp/ccYdlVIk.s:12975  .data.vocablist_posture:00000000 vocablist_posture
     /tmp/ccYdlVIk.s:4223   .bss.input_frame:00000000 input_frame
     /tmp/ccYdlVIk.s:4189   .data.lengthy:00000000 lengthy
     /tmp/ccYdlVIk.s:4183   .bss.interpol:00000000 interpol
     /tmp/ccYdlVIk.s:4171   .bss.sample_count:00000000 sample_count
     /tmp/ccYdlVIk.s:566    .text.tube_newsay_xy:00000000 $t
     /tmp/ccYdlVIk.s:573    .text.tube_newsay_xy:00000000 tube_newsay_xy
     /tmp/ccYdlVIk.s:761    .text.tube_newsay_xy:0000020c $d
     /tmp/ccYdlVIk.s:4165   .bss.waveindex:00000000 waveindex
     /tmp/ccYdlVIk.s:4585   .rodata.tubewaves:00000000 tubewaves
     /tmp/ccYdlVIk.s:4494   .data.sampleRate:00000000 sampleRate
     /tmp/ccYdlVIk.s:4487   .data.nyquist:00000000 nyquist
     /tmp/ccYdlVIk.s:4321   .bss.ta0:00000000 ta0
     /tmp/ccYdlVIk.s:4327   .bss.tb1:00000000 tb1
     /tmp/ccYdlVIk.s:4315   .bss.throatGain:00000000 throatGain
     /tmp/ccYdlVIk.s:4424   .data.basicIncrement:00000000 basicIncrement
     /tmp/ccYdlVIk.s:805    .text.tube_newsay_bend:00000000 $t
     /tmp/ccYdlVIk.s:812    .text.tube_newsay_bend:00000000 tube_newsay_bend
     /tmp/ccYdlVIk.s:971    .text.tube_newsay_bend:000001ac $d
     /tmp/ccYdlVIk.s:1013   .text.tube_newsay_raw:00000000 $t
     /tmp/ccYdlVIk.s:1020   .text.tube_newsay_raw:00000000 tube_newsay_raw
     /tmp/ccYdlVIk.s:1159   .text.tube_newsay_raw:00000178 $d
     /tmp/ccYdlVIk.s:1197   .text.tube_newsay_sing:00000000 $t
     /tmp/ccYdlVIk.s:1204   .text.tube_newsay_sing:00000000 tube_newsay_sing
     /tmp/ccYdlVIk.s:1278   .text.tube_newsay_sing:000000b8 $d
     /tmp/ccYdlVIk.s:1295   .text.initializeNasalCavity:00000000 $t
     /tmp/ccYdlVIk.s:1302   .text.initializeNasalCavity:00000000 initializeNasalCavity
     /tmp/ccYdlVIk.s:1327   .text.initializeNasalCavity:00000034 $d
     /tmp/ccYdlVIk.s:4412   .rodata.noseRadius:00000000 noseRadius
     /tmp/ccYdlVIk.s:4273   .bss.nasal_coeff:00000000 nasal_coeff
     /tmp/ccYdlVIk.s:1334   .text.initializeThroat:00000000 $t
     /tmp/ccYdlVIk.s:1341   .text.initializeThroat:00000000 initializeThroat
     /tmp/ccYdlVIk.s:1364   .text.initializeThroat:00000030 $d
     /tmp/ccYdlVIk.s:1372   .text.calculateTubeCoefficients:00000000 $t
     /tmp/ccYdlVIk.s:1379   .text.calculateTubeCoefficients:00000000 calculateTubeCoefficients
     /tmp/ccYdlVIk.s:1433   .text.calculateTubeCoefficients:000000a8 $d
     /tmp/ccYdlVIk.s:4285   .bss.oropharynx_coeff:00000000 oropharynx_coeff
     /tmp/ccYdlVIk.s:4267   .bss.alpha:00000000 alpha
     /tmp/ccYdlVIk.s:1441   .text.setFricationTaps:00000000 $t
     /tmp/ccYdlVIk.s:1448   .text.setFricationTaps:00000000 setFricationTaps
     /tmp/ccYdlVIk.s:1510   .text.setFricationTaps:000000a0 $d
     /tmp/ccYdlVIk.s:4251   .bss.fricationTap:00000000 fricationTap
     /tmp/ccYdlVIk.s:1517   .text.calculateBandpassCoefficients:00000000 $t
     /tmp/ccYdlVIk.s:1524   .text.calculateBandpassCoefficients:00000000 calculateBandpassCoefficients
     /tmp/ccYdlVIk.s:1575   .text.calculateBandpassCoefficients:000000a8 $d
     /tmp/ccYdlVIk.s:4303   .bss.bpBeta:00000000 bpBeta
     /tmp/ccYdlVIk.s:4297   .bss.bpGamma:00000000 bpGamma
     /tmp/ccYdlVIk.s:4309   .bss.bpAlpha:00000000 bpAlpha
     /tmp/ccYdlVIk.s:1585   .text.mod0:00000000 $t
     /tmp/ccYdlVIk.s:1592   .text.mod0:00000000 mod0
     /tmp/ccYdlVIk.s:1607   .text.mod0:00000018 $d
ARM GAS  /tmp/ccYdlVIk.s 			page 278


     /tmp/ccYdlVIk.s:1611   .text.incrementTablePosition:00000000 $t
     /tmp/ccYdlVIk.s:1618   .text.incrementTablePosition:00000000 incrementTablePosition
     /tmp/ccYdlVIk.s:1640   .text.incrementTablePosition:00000030 $d
     /tmp/ccYdlVIk.s:1646   .text.oscillator:00000000 $t
     /tmp/ccYdlVIk.s:1653   .text.oscillator:00000000 oscillator
     /tmp/ccYdlVIk.s:1700   .text.oscillator:0000008c $d
     /tmp/ccYdlVIk.s:1707   .text.tube_get_sample:00000000 $t
     /tmp/ccYdlVIk.s:1714   .text.tube_get_sample:00000000 tube_get_sample
     /tmp/ccYdlVIk.s:1918   .text.tube_get_sample:00000270 $d
     /tmp/ccYdlVIk.s:4217   .bss.f0:00000000 f0
     /tmp/ccYdlVIk.s:4211   .bss.ax:00000000 ax
     /tmp/ccYdlVIk.s:4205   .bss.ah1:00000000 ah1
     /tmp/ccYdlVIk.s:4431   .data.breathinessFactor:00000000 breathinessFactor
     /tmp/ccYdlVIk.s:4177   .bss.maximumSampleValue:00000000 maximumSampleValue
     /tmp/ccYdlVIk.s:1948   .text.vocalTract:00000000 $t
     /tmp/ccYdlVIk.s:1955   .text.vocalTract:00000000 vocalTract
     /tmp/ccYdlVIk.s:2213   .text.vocalTract:00000380 $d
     /tmp/ccYdlVIk.s:4261   .data.current_ptr:00000000 current_ptr
     /tmp/ccYdlVIk.s:4256   .bss.prev_ptr:00000000 prev_ptr
     /tmp/ccYdlVIk.s:4291   .bss.oropharynx:00000000 oropharynx
     /tmp/ccYdlVIk.s:4279   .bss.nasal:00000000 nasal
     /tmp/ccYdlVIk.s:2240   .text.throaty:00000000 $t
     /tmp/ccYdlVIk.s:2247   .text.throaty:00000000 throaty
     /tmp/ccYdlVIk.s:2268   .text.throaty:00000030 $d
     /tmp/ccYdlVIk.s:4112   .bss.throatY.4:00000000 throatY.4
     /tmp/ccYdlVIk.s:2274   .text.bandpassFilter:00000000 $t
     /tmp/ccYdlVIk.s:2281   .text.bandpassFilter:00000000 bandpassFilter
     /tmp/ccYdlVIk.s:2316   .text.bandpassFilter:00000060 $d
     /tmp/ccYdlVIk.s:4106   .bss.xn2.3:00000000 xn2.3
     /tmp/ccYdlVIk.s:4100   .bss.yn1.2:00000000 yn1.2
     /tmp/ccYdlVIk.s:4094   .bss.yn2.1:00000000 yn2.1
     /tmp/ccYdlVIk.s:4088   .bss.xn1.0:00000000 xn1.0
     /tmp/ccYdlVIk.s:2325   .text.tube_get_sample_sing:00000000 $t
     /tmp/ccYdlVIk.s:2332   .text.tube_get_sample_sing:00000000 tube_get_sample_sing
     /tmp/ccYdlVIk.s:2546   .text.tube_get_sample_sing:00000298 $d
     /tmp/ccYdlVIk.s:2580   .text.tube_get_sample_xy:00000000 $t
     /tmp/ccYdlVIk.s:2587   .text.tube_get_sample_xy:00000000 tube_get_sample_xy
     /tmp/ccYdlVIk.s:2809   .text.tube_get_sample_xy:000002b8 $d
     /tmp/ccYdlVIk.s:2843   .text.tube_get_sample_bend:00000000 $t
     /tmp/ccYdlVIk.s:2850   .text.tube_get_sample_bend:00000000 tube_get_sample_bend
     /tmp/ccYdlVIk.s:3058   .text.tube_get_sample_bend:00000298 $d
     /tmp/ccYdlVIk.s:3091   .text.tube_get_sample_raw:00000000 $t
     /tmp/ccYdlVIk.s:3098   .text.tube_get_sample_raw:00000000 tube_get_sample_raw
     /tmp/ccYdlVIk.s:3323   .text.tube_get_sample_raw:000002c8 $d
     /tmp/ccYdlVIk.s:4532   .rodata.mins:00000000 mins
     /tmp/ccYdlVIk.s:4507   .rodata.range:00000000 range
     /tmp/ccYdlVIk.s:3358   .text.amplitude:00000000 $t
     /tmp/ccYdlVIk.s:3365   .text.amplitude:00000000 amplitude
     /tmp/ccYdlVIk.s:3391   .text.amplitude:0000003c $d
     /tmp/ccYdlVIk.s:3396   .text.frequency:00000000 $t
     /tmp/ccYdlVIk.s:3403   .text.frequency:00000000 frequency
     /tmp/ccYdlVIk.s:3420   .text.frequency:00000028 $d
     /tmp/ccYdlVIk.s:3423   .text.trim:00000000 $t
     /tmp/ccYdlVIk.s:3430   .text.trim:00000000 trim
     /tmp/ccYdlVIk.s:3456   .text.rationalApproximation:00000000 $t
     /tmp/ccYdlVIk.s:3463   .text.rationalApproximation:00000000 rationalApproximation
     /tmp/ccYdlVIk.s:3542   .text.maximallyFlat.part.0.constprop.0:00000000 $t
ARM GAS  /tmp/ccYdlVIk.s 			page 279


     /tmp/ccYdlVIk.s:3548   .text.maximallyFlat.part.0.constprop.0:00000000 maximallyFlat.part.0.constprop.0
     /tmp/ccYdlVIk.s:3740   .text.maximallyFlat.part.0.constprop.0:0000022c $d
     /tmp/ccYdlVIk.s:3743   .text.maximallyFlat:00000000 $t
     /tmp/ccYdlVIk.s:3750   .text.maximallyFlat:00000000 maximallyFlat
     /tmp/ccYdlVIk.s:3787   .text.initializeFIR:00000000 $t
     /tmp/ccYdlVIk.s:3794   .text.initializeFIR:00000000 initializeFIR
     /tmp/ccYdlVIk.s:3857   .text.initializeFIR:00000090 $d
     /tmp/ccYdlVIk.s:4228   .bss.numberTaps:00000000 numberTaps
     /tmp/ccYdlVIk.s:4239   .bss.FIRCoef:00000000 FIRCoef
     /tmp/ccYdlVIk.s:4233   .bss.FIRPtr:00000000 FIRPtr
     /tmp/ccYdlVIk.s:3862   .text.tube_init:00000000 $t
     /tmp/ccYdlVIk.s:3869   .text.tube_init:00000000 tube_init
     /tmp/ccYdlVIk.s:3943   .text.tube_init:000000dc $d
     /tmp/ccYdlVIk.s:3971   .text.FIRFilter:00000000 $t
     /tmp/ccYdlVIk.s:3978   .text.FIRFilter:00000000 FIRFilter
     /tmp/ccYdlVIk.s:4043   .text.FIRFilter:00000080 $d
     /tmp/ccYdlVIk.s:4245   .bss.FIRData:00000000 FIRData
     /tmp/ccYdlVIk.s:4050   .text.increment:00000000 $t
     /tmp/ccYdlVIk.s:4057   .text.increment:00000000 increment
     /tmp/ccYdlVIk.s:4068   .text.decrement:00000000 $t
     /tmp/ccYdlVIk.s:4075   .text.decrement:00000000 decrement
     /tmp/ccYdlVIk.s:4085   .bss.xn1.0:00000000 $d
     /tmp/ccYdlVIk.s:4091   .bss.yn2.1:00000000 $d
     /tmp/ccYdlVIk.s:4097   .bss.yn1.2:00000000 $d
     /tmp/ccYdlVIk.s:4103   .bss.xn2.3:00000000 $d
     /tmp/ccYdlVIk.s:4109   .bss.throatY.4:00000000 $d
     /tmp/ccYdlVIk.s:4115   .bss.nasalRadiationY.5:00000000 $d
     /tmp/ccYdlVIk.s:4121   .bss.nasalRadiationX.6:00000000 $d
     /tmp/ccYdlVIk.s:4127   .bss.nasalReflectionY.7:00000000 $d
     /tmp/ccYdlVIk.s:4133   .bss.radiationY.8:00000000 $d
     /tmp/ccYdlVIk.s:4139   .bss.radiationX.9:00000000 $d
     /tmp/ccYdlVIk.s:4145   .bss.reflectionY.10:00000000 $d
     /tmp/ccYdlVIk.s:4151   .bss.noiseX.11:00000000 $d
     /tmp/ccYdlVIk.s:4157   .data.seed.12:00000000 $d
     /tmp/ccYdlVIk.s:4166   .bss.waveindex:00000000 $d
     /tmp/ccYdlVIk.s:4168   .bss.sample_count:00000000 $d
     /tmp/ccYdlVIk.s:4174   .bss.maximumSampleValue:00000000 $d
     /tmp/ccYdlVIk.s:4180   .bss.interpol:00000000 $d
     /tmp/ccYdlVIk.s:4186   .data.lengthy:00000000 $d
     /tmp/ccYdlVIk.s:4195   .bss.sel:00000000 $d
     /tmp/ccYdlVIk.s:4200   .bss.lastsel:00000000 $d
     /tmp/ccYdlVIk.s:4202   .bss.ah1:00000000 $d
     /tmp/ccYdlVIk.s:4208   .bss.ax:00000000 $d
     /tmp/ccYdlVIk.s:4214   .bss.f0:00000000 $d
     /tmp/ccYdlVIk.s:4220   .bss.input_frame:00000000 $d
     /tmp/ccYdlVIk.s:4229   .bss.numberTaps:00000000 $d
     /tmp/ccYdlVIk.s:4234   .bss.FIRPtr:00000000 $d
     /tmp/ccYdlVIk.s:4236   .bss.FIRCoef:00000000 $d
     /tmp/ccYdlVIk.s:4242   .bss.FIRData:00000000 $d
     /tmp/ccYdlVIk.s:4248   .bss.fricationTap:00000000 $d
     /tmp/ccYdlVIk.s:4257   .bss.prev_ptr:00000000 $d
     /tmp/ccYdlVIk.s:4264   .bss.alpha:00000000 $d
     /tmp/ccYdlVIk.s:4270   .bss.nasal_coeff:00000000 $d
     /tmp/ccYdlVIk.s:4276   .bss.nasal:00000000 $d
     /tmp/ccYdlVIk.s:4282   .bss.oropharynx_coeff:00000000 $d
     /tmp/ccYdlVIk.s:4288   .bss.oropharynx:00000000 $d
     /tmp/ccYdlVIk.s:4294   .bss.bpGamma:00000000 $d
ARM GAS  /tmp/ccYdlVIk.s 			page 280


     /tmp/ccYdlVIk.s:4300   .bss.bpBeta:00000000 $d
     /tmp/ccYdlVIk.s:4306   .bss.bpAlpha:00000000 $d
     /tmp/ccYdlVIk.s:4312   .bss.throatGain:00000000 $d
     /tmp/ccYdlVIk.s:4318   .bss.ta0:00000000 $d
     /tmp/ccYdlVIk.s:4324   .bss.tb1:00000000 $d
     /tmp/ccYdlVIk.s:4330   .bss.nb21:00000000 $d
     /tmp/ccYdlVIk.s:4336   .bss.na21:00000000 $d
     /tmp/ccYdlVIk.s:4342   .bss.na20:00000000 $d
     /tmp/ccYdlVIk.s:4348   .bss.nb11:00000000 $d
     /tmp/ccYdlVIk.s:4354   .bss.na10:00000000 $d
     /tmp/ccYdlVIk.s:4360   .bss.b21:00000000 $d
     /tmp/ccYdlVIk.s:4366   .bss.a21:00000000 $d
     /tmp/ccYdlVIk.s:4372   .bss.a20:00000000 $d
     /tmp/ccYdlVIk.s:4378   .bss.b11:00000000 $d
     /tmp/ccYdlVIk.s:4384   .bss.a10:00000000 $d
     /tmp/ccYdlVIk.s:4390   .bss.currentPosition:00000000 $d
     /tmp/ccYdlVIk.s:4396   .bss.wavetable:00000000 $d
     /tmp/ccYdlVIk.s:4406   .bss.pulsed:00000000 $d
     /tmp/ccYdlVIk.s:4409   .rodata.noseRadius:00000000 $d
     /tmp/ccYdlVIk.s:4421   .data.basicIncrement:00000000 $d
     /tmp/ccYdlVIk.s:4428   .data.breathinessFactor:00000000 $d
     /tmp/ccYdlVIk.s:4435   .data.tnDelta:00000000 $d
     /tmp/ccYdlVIk.s:4442   .data.tnLength:00000000 $d
     /tmp/ccYdlVIk.s:4449   .data.tableDiv2:00000000 $d
     /tmp/ccYdlVIk.s:4456   .data.tableDiv1:00000000 $d
     /tmp/ccYdlVIk.s:4466   .rodata.crossmixFactor:00000000 crossmixFactor
     /tmp/ccYdlVIk.s:4463   .rodata.crossmixFactor:00000000 $d
     /tmp/ccYdlVIk.s:4470   .data.dampingFactor:00000000 $d
     /tmp/ccYdlVIk.s:4480   .rodata.actualTubeLength:00000000 actualTubeLength
     /tmp/ccYdlVIk.s:4477   .rodata.actualTubeLength:00000000 $d
     /tmp/ccYdlVIk.s:4484   .data.nyquist:00000000 $d
     /tmp/ccYdlVIk.s:4491   .data.sampleRate:00000000 $d
     /tmp/ccYdlVIk.s:4501   .rodata.controlPeriod:00000000 controlPeriod
     /tmp/ccYdlVIk.s:4498   .rodata.controlPeriod:00000000 $d
     /tmp/ccYdlVIk.s:4504   .rodata.range:00000000 $d
     /tmp/ccYdlVIk.s:4529   .rodata.mins:00000000 $d
     /tmp/ccYdlVIk.s:4558   .rodata.parameter_list:00000000 parameter_list
     /tmp/ccYdlVIk.s:4555   .rodata.parameter_list:00000000 $d
     /tmp/ccYdlVIk.s:4582   .rodata.tubewaves:00000000 $d
     /tmp/ccYdlVIk.s:12457  .rodata.sinetable:00000000 sinetable
     /tmp/ccYdlVIk.s:11940  .rodata.pulsetable000:00000000 pulsetable000
     /tmp/ccYdlVIk.s:11423  .rodata.pulsetable001:00000000 pulsetable001
     /tmp/ccYdlVIk.s:10906  .rodata.pulsetable002:00000000 pulsetable002
     /tmp/ccYdlVIk.s:10389  .rodata.pulsetable003:00000000 pulsetable003
     /tmp/ccYdlVIk.s:9872   .rodata.pulsetable004:00000000 pulsetable004
     /tmp/ccYdlVIk.s:9355   .rodata.pulsetable005:00000000 pulsetable005
     /tmp/ccYdlVIk.s:8838   .rodata.pulsetable006:00000000 pulsetable006
     /tmp/ccYdlVIk.s:8321   .rodata.pulsetable007:00000000 pulsetable007
     /tmp/ccYdlVIk.s:7804   .rodata.pulsetable008:00000000 pulsetable008
     /tmp/ccYdlVIk.s:7287   .rodata.pulsetable009:00000000 pulsetable009
     /tmp/ccYdlVIk.s:6770   .rodata.pulsetable010:00000000 pulsetable010
     /tmp/ccYdlVIk.s:6253   .rodata.pulsetable011:00000000 pulsetable011
     /tmp/ccYdlVIk.s:5736   .rodata.pulsetable012:00000000 pulsetable012
     /tmp/ccYdlVIk.s:5219   .rodata.pulsetable013:00000000 pulsetable013
     /tmp/ccYdlVIk.s:4702   .rodata.pulsetable014:00000000 pulsetable014
     /tmp/ccYdlVIk.s:4699   .rodata.pulsetable014:00000000 $d
     /tmp/ccYdlVIk.s:5216   .rodata.pulsetable013:00000000 $d
ARM GAS  /tmp/ccYdlVIk.s 			page 281


     /tmp/ccYdlVIk.s:5733   .rodata.pulsetable012:00000000 $d
     /tmp/ccYdlVIk.s:6250   .rodata.pulsetable011:00000000 $d
     /tmp/ccYdlVIk.s:6767   .rodata.pulsetable010:00000000 $d
     /tmp/ccYdlVIk.s:7284   .rodata.pulsetable009:00000000 $d
     /tmp/ccYdlVIk.s:7801   .rodata.pulsetable008:00000000 $d
     /tmp/ccYdlVIk.s:8318   .rodata.pulsetable007:00000000 $d
     /tmp/ccYdlVIk.s:8835   .rodata.pulsetable006:00000000 $d
     /tmp/ccYdlVIk.s:9352   .rodata.pulsetable005:00000000 $d
     /tmp/ccYdlVIk.s:9869   .rodata.pulsetable004:00000000 $d
     /tmp/ccYdlVIk.s:10386  .rodata.pulsetable003:00000000 $d
     /tmp/ccYdlVIk.s:10903  .rodata.pulsetable002:00000000 $d
     /tmp/ccYdlVIk.s:11420  .rodata.pulsetable001:00000000 $d
     /tmp/ccYdlVIk.s:11937  .rodata.pulsetable000:00000000 $d
     /tmp/ccYdlVIk.s:12454  .rodata.sinetable:00000000 $d
     /tmp/ccYdlVIk.s:12972  .data.vocablist_posture:00000000 $d
     /tmp/ccYdlVIk.s:14493  .rodata.uhxposture:00000000 uhxposture
     /tmp/ccYdlVIk.s:14470  .rodata.gsposture:00000000 gsposture
     /tmp/ccYdlVIk.s:14447  .rodata.dxxposture:00000000 dxxposture
     /tmp/ccYdlVIk.s:14424  .rodata.yxposture:00000000 yxposture
     /tmp/ccYdlVIk.s:14401  .rodata.kxxposture:00000000 kxxposture
     /tmp/ccYdlVIk.s:14378  .rodata.txxposture:00000000 txxposture
     /tmp/ccYdlVIk.s:14355  .rodata.qxposture:00000000 qxposture
     /tmp/ccYdlVIk.s:14332  .rodata.shxposture:00000000 shxposture
     /tmp/ccYdlVIk.s:14309  .rodata.eexposture:00000000 eexposture
     /tmp/ccYdlVIk.s:14286  .rodata.qzxposture:00000000 qzxposture
     /tmp/ccYdlVIk.s:14263  .rodata.dhposture:00000000 dhposture
     /tmp/ccYdlVIk.s:14240  .rodata.llxposture:00000000 llxposture
     /tmp/ccYdlVIk.s:14217  .rodata.qsposture:00000000 qsposture
     /tmp/ccYdlVIk.s:14194  .rodata.dposture:00000000 dposture
     /tmp/ccYdlVIk.s:14171  .rodata.hposture:00000000 hposture
     /tmp/ccYdlVIk.s:14148  .rodata.fposture:00000000 fposture
     /tmp/ccYdlVIk.s:14125  .rodata.lposture:00000000 lposture
     /tmp/ccYdlVIk.s:14102  .rodata.qcposture:00000000 qcposture
     /tmp/ccYdlVIk.s:14079  .rodata.tposture:00000000 tposture
     /tmp/ccYdlVIk.s:14056  .rodata.zhposture:00000000 zhposture
     /tmp/ccYdlVIk.s:14033  .rodata.erposture:00000000 erposture
     /tmp/ccYdlVIk.s:14010  .rodata.rrposture:00000000 rrposture
     /tmp/ccYdlVIk.s:13987  .rodata.oxposture:00000000 oxposture
     /tmp/ccYdlVIk.s:13964  .rodata.unposture:00000000 unposture
     /tmp/ccYdlVIk.s:13941  .rodata.thposture:00000000 thposture
     /tmp/ccYdlVIk.s:13918  .rodata.onposture:00000000 onposture
     /tmp/ccYdlVIk.s:13895  .rodata.gposture:00000000 gposture
     /tmp/ccYdlVIk.s:13872  .rodata.ohposture:00000000 ohposture
     /tmp/ccYdlVIk.s:13849  .rodata.oposture:00000000 oposture
     /tmp/ccYdlVIk.s:13826  .rodata.sposture:00000000 sposture
     /tmp/ccYdlVIk.s:13803  .rodata.chposture:00000000 chposture
     /tmp/ccYdlVIk.s:13780  .rodata.phposture:00000000 phposture
     /tmp/ccYdlVIk.s:13757  .rodata.ahxposture:00000000 ahxposture
     /tmp/ccYdlVIk.s:13734  .rodata.hvposture:00000000 hvposture
     /tmp/ccYdlVIk.s:13711  .rodata.onxposture:00000000 onxposture
     /tmp/ccYdlVIk.s:13688  .rodata.hvxposture:00000000 hvxposture
     /tmp/ccYdlVIk.s:13665  .rodata.hhposture:00000000 hhposture
     /tmp/ccYdlVIk.s:13642  .rodata.uxposture:00000000 uxposture
     /tmp/ccYdlVIk.s:13619  .rodata.bposture:00000000 bposture
     /tmp/ccYdlVIk.s:13596  .rodata.uuposture:00000000 uuposture
     /tmp/ccYdlVIk.s:13573  .rodata.jposture:00000000 jposture
     /tmp/ccYdlVIk.s:13550  .rodata.nposture:00000000 nposture
ARM GAS  /tmp/ccYdlVIk.s 			page 282


     /tmp/ccYdlVIk.s:13527  .rodata.iposture:00000000 iposture
     /tmp/ccYdlVIk.s:13504  .rodata.rposture:00000000 rposture
     /tmp/ccYdlVIk.s:13481  .rodata.pxposture:00000000 pxposture
     /tmp/ccYdlVIk.s:13458  .rodata.vposture:00000000 vposture
     /tmp/ccYdlVIk.s:13435  .rodata.zzposture:00000000 zzposture
     /tmp/ccYdlVIk.s:13412  .rodata.aaposture:00000000 aaposture
     /tmp/ccYdlVIk.s:13389  .rodata.ahposture:00000000 ahposture
     /tmp/ccYdlVIk.s:13366  .rodata.anposture:00000000 anposture
     /tmp/ccYdlVIk.s:13343  .rodata.arposture:00000000 arposture
     /tmp/ccYdlVIk.s:13320  .rodata.awposture:00000000 awposture
     /tmp/ccYdlVIk.s:13297  .rodata.inposture:00000000 inposture
     /tmp/ccYdlVIk.s:13274  .rodata.ngposture:00000000 ngposture
     /tmp/ccYdlVIk.s:13251  .rodata.thxposture:00000000 thxposture
     /tmp/ccYdlVIk.s:13228  .rodata.vxposture:00000000 vxposture
     /tmp/ccYdlVIk.s:13205  .rodata.hhxposture:00000000 hhxposture
     /tmp/ccYdlVIk.s:13182  .rodata.xposture:00000000 xposture
     /tmp/ccYdlVIk.s:13159  .rodata.ixposture:00000000 ixposture
     /tmp/ccYdlVIk.s:13136  .rodata.aposture:00000000 aposture
     /tmp/ccYdlVIk.s:13113  .rodata.eposture:00000000 eposture
     /tmp/ccYdlVIk.s:13090  .rodata.mposture:00000000 mposture
     /tmp/ccYdlVIk.s:13067  .rodata.nxposture:00000000 nxposture
     /tmp/ccYdlVIk.s:13044  .rodata.uposture:00000000 uposture
     /tmp/ccYdlVIk.s:13041  .rodata.uposture:00000000 $d
     /tmp/ccYdlVIk.s:13064  .rodata.nxposture:00000000 $d
     /tmp/ccYdlVIk.s:13087  .rodata.mposture:00000000 $d
     /tmp/ccYdlVIk.s:13110  .rodata.eposture:00000000 $d
     /tmp/ccYdlVIk.s:13133  .rodata.aposture:00000000 $d
     /tmp/ccYdlVIk.s:13156  .rodata.ixposture:00000000 $d
     /tmp/ccYdlVIk.s:13179  .rodata.xposture:00000000 $d
     /tmp/ccYdlVIk.s:13202  .rodata.hhxposture:00000000 $d
     /tmp/ccYdlVIk.s:13225  .rodata.vxposture:00000000 $d
     /tmp/ccYdlVIk.s:13248  .rodata.thxposture:00000000 $d
     /tmp/ccYdlVIk.s:13271  .rodata.ngposture:00000000 $d
     /tmp/ccYdlVIk.s:13294  .rodata.inposture:00000000 $d
     /tmp/ccYdlVIk.s:13317  .rodata.awposture:00000000 $d
     /tmp/ccYdlVIk.s:13340  .rodata.arposture:00000000 $d
     /tmp/ccYdlVIk.s:13363  .rodata.anposture:00000000 $d
     /tmp/ccYdlVIk.s:13386  .rodata.ahposture:00000000 $d
     /tmp/ccYdlVIk.s:13409  .rodata.aaposture:00000000 $d
     /tmp/ccYdlVIk.s:13432  .rodata.zzposture:00000000 $d
     /tmp/ccYdlVIk.s:13455  .rodata.vposture:00000000 $d
     /tmp/ccYdlVIk.s:13478  .rodata.pxposture:00000000 $d
     /tmp/ccYdlVIk.s:13501  .rodata.rposture:00000000 $d
     /tmp/ccYdlVIk.s:13524  .rodata.iposture:00000000 $d
     /tmp/ccYdlVIk.s:13547  .rodata.nposture:00000000 $d
     /tmp/ccYdlVIk.s:13570  .rodata.jposture:00000000 $d
     /tmp/ccYdlVIk.s:13593  .rodata.uuposture:00000000 $d
     /tmp/ccYdlVIk.s:13616  .rodata.bposture:00000000 $d
     /tmp/ccYdlVIk.s:13639  .rodata.uxposture:00000000 $d
     /tmp/ccYdlVIk.s:13662  .rodata.hhposture:00000000 $d
     /tmp/ccYdlVIk.s:13685  .rodata.hvxposture:00000000 $d
     /tmp/ccYdlVIk.s:13708  .rodata.onxposture:00000000 $d
     /tmp/ccYdlVIk.s:13731  .rodata.hvposture:00000000 $d
     /tmp/ccYdlVIk.s:13754  .rodata.ahxposture:00000000 $d
     /tmp/ccYdlVIk.s:13777  .rodata.phposture:00000000 $d
     /tmp/ccYdlVIk.s:13800  .rodata.chposture:00000000 $d
     /tmp/ccYdlVIk.s:13823  .rodata.sposture:00000000 $d
ARM GAS  /tmp/ccYdlVIk.s 			page 283


     /tmp/ccYdlVIk.s:13846  .rodata.oposture:00000000 $d
     /tmp/ccYdlVIk.s:13869  .rodata.ohposture:00000000 $d
     /tmp/ccYdlVIk.s:13892  .rodata.gposture:00000000 $d
     /tmp/ccYdlVIk.s:13915  .rodata.onposture:00000000 $d
     /tmp/ccYdlVIk.s:13938  .rodata.thposture:00000000 $d
     /tmp/ccYdlVIk.s:13961  .rodata.unposture:00000000 $d
     /tmp/ccYdlVIk.s:13984  .rodata.oxposture:00000000 $d
     /tmp/ccYdlVIk.s:14007  .rodata.rrposture:00000000 $d
     /tmp/ccYdlVIk.s:14030  .rodata.erposture:00000000 $d
     /tmp/ccYdlVIk.s:14053  .rodata.zhposture:00000000 $d
     /tmp/ccYdlVIk.s:14076  .rodata.tposture:00000000 $d
     /tmp/ccYdlVIk.s:14099  .rodata.qcposture:00000000 $d
     /tmp/ccYdlVIk.s:14122  .rodata.lposture:00000000 $d
     /tmp/ccYdlVIk.s:14145  .rodata.fposture:00000000 $d
     /tmp/ccYdlVIk.s:14168  .rodata.hposture:00000000 $d
     /tmp/ccYdlVIk.s:14191  .rodata.dposture:00000000 $d
     /tmp/ccYdlVIk.s:14214  .rodata.qsposture:00000000 $d
     /tmp/ccYdlVIk.s:14237  .rodata.llxposture:00000000 $d
     /tmp/ccYdlVIk.s:14260  .rodata.dhposture:00000000 $d
     /tmp/ccYdlVIk.s:14283  .rodata.qzxposture:00000000 $d
     /tmp/ccYdlVIk.s:14306  .rodata.eexposture:00000000 $d
     /tmp/ccYdlVIk.s:14329  .rodata.shxposture:00000000 $d
     /tmp/ccYdlVIk.s:14352  .rodata.qxposture:00000000 $d
     /tmp/ccYdlVIk.s:14375  .rodata.txxposture:00000000 $d
     /tmp/ccYdlVIk.s:14398  .rodata.kxxposture:00000000 $d
     /tmp/ccYdlVIk.s:14421  .rodata.yxposture:00000000 $d
     /tmp/ccYdlVIk.s:14444  .rodata.dxxposture:00000000 $d
     /tmp/ccYdlVIk.s:14467  .rodata.gsposture:00000000 $d
     /tmp/ccYdlVIk.s:14490  .rodata.uhxposture:00000000 $d
     /tmp/ccYdlVIk.s:14517  .flash:00000000 input_frames
     /tmp/ccYdlVIk.s:14514  .flash:00000000 $d

UNDEFINED SYMBOLS
memset
sinf
_selz
_sely
logspeed
exy
powf
tanf
cosf
_selx
logpitch
