ARM GAS  /tmp/ccsO36p4.s 			page 1


 GNU assembler version 2.41.0 (arm-none-eabi)
	 using BFD version (Arm GNU Toolchain 13.2.rel1 (Build arm-13.7)) 2.41.0.20231009.
 options passed	: -I -I -I -I -I -I -I -EL -march=armv7e-m+fp.dp -mfloat-abi=hard -mfpu=fpv5-d16 -meabi=5 -aghlms=src/rsynth-2.0-port/holmes.lst 
 input file    	: /tmp/ccsO36p4.s
 output file   	: src/rsynth-2.0-port/holmes.o
 target        	: arm-none-eabi
 time stamp    	: 2025-03-08T13:36:01.000+0100

ARM GAS  /tmp/ccsO36p4.s 			page 2


   1              		.cpu cortex-m7
   2              		.arch armv7e-m
   3              		.fpu fpv5-d16
   4              		.eabi_attribute 28, 1
   5              		.eabi_attribute 20, 1
   6              		.eabi_attribute 21, 1
   7              		.eabi_attribute 23, 3
   8              		.eabi_attribute 24, 1
   9              		.eabi_attribute 25, 1
  10              		.eabi_attribute 26, 1
  11              		.eabi_attribute 30, 2
  12              		.eabi_attribute 34, 1
  13              		.eabi_attribute 18, 4
  14              		.file	"holmes.c"
  15              		.text
  16              		.section	.text.interpolate.isra.0,"ax",%progbits
  17              		.align	1
  18              		.p2align 2,,3
  19              		.syntax unified
  20              		.thumb
  21              		.thumb_func
  22              		.type	interpolate.isra.0, %function
  23              	interpolate.isra.0:
  24              		@ args = 0, pretend = 0, frame = 0
  25              		@ frame_needed = 0, uses_anonymous_args = 0
  26              		@ link register save eliminated.
  27 0000 00EB010C 		add	ip, r0, r1
  28 0004 A3EB0C0C 		sub	ip, r3, ip
  29 0008 07EE90CA 		vmov	s15, ip	@ int
  30 000c B8EEE77A 		vcvt.f32.s32	s14, s15
  31 0010 B5EEC07A 		vcmpe.f32	s14, #0
  32 0014 F1EE10FA 		vmrs	APSR_nzcv, FPSCR
  33 0018 3DDB     		blt	.L15
  34 001a 8242     		cmp	r2, r0
  35 001c 22DB     		blt	.L17
  36 001e 121A     		subs	r2, r2, r0
  37 0020 07EE902A 		vmov	s15, r2	@ int
  38 0024 F8EEE77A 		vcvt.f32.s32	s15, s15
  39 0028 B4EEE77A 		vcmpe.f32	s14, s15
  40 002c F1EE10FA 		vmrs	APSR_nzcv, FPSCR
  41 0030 2EDA     		bge	.L10
  42 0032 77EEC77A 		vsub.f32	s15, s15, s14
  43 0036 FDEEE77A 		vcvt.s32.f32	s15, s15
  44 003a 17EE903A 		vmov	r3, s15	@ int
  45 003e 002B     		cmp	r3, #0
  46 0040 26DD     		ble	.L10
  47 0042 8B42     		cmp	r3, r1
  48 0044 21DA     		bge	.L11
  49 0046 07EE101A 		vmov	s14, r1	@ int
  50 004a F8EEE77A 		vcvt.f32.s32	s15, s15
  51 004e 70EEC10A 		vsub.f32	s1, s1, s2
  52 0052 B8EEC77A 		vcvt.f32.s32	s14, s14
  53 0056 C7EE876A 		vdiv.f32	s13, s15, s14
  54 005a 66EEA07A 		vmul.f32	s15, s13, s1
  55 005e 37EE810A 		vadd.f32	s0, s15, s2
  56 0062 7047     		bx	lr
  57              	.L17:
ARM GAS  /tmp/ccsO36p4.s 			page 3


  58 0064 002A     		cmp	r2, #0
  59 0066 12DD     		ble	.L1
  60 0068 07EE902A 		vmov	s15, r2	@ int
  61 006c 07EE100A 		vmov	s14, r0	@ int
  62 0070 31EE401A 		vsub.f32	s2, s2, s0
  63 0074 F8EEE77A 		vcvt.f32.s32	s15, s15
  64 0078 B8EEC77A 		vcvt.f32.s32	s14, s14
  65 007c C7EE876A 		vdiv.f32	s13, s15, s14
  66 0080 66EE817A 		vmul.f32	s15, s13, s2
  67 0084 37EE800A 		vadd.f32	s0, s15, s0
  68 0088 7047     		bx	lr
  69              	.L11:
  70 008a B0EE600A 		vmov.f32	s0, s1
  71              	.L1:
  72 008e 7047     		bx	lr
  73              	.L10:
  74 0090 B0EE410A 		vmov.f32	s0, s2
  75 0094 7047     		bx	lr
  76              	.L15:
  77 0096 07EE902A 		vmov	s15, r2	@ int
  78 009a F7EE006A 		vmov.f32	s13, #1.0e+0
  79 009e 002A     		cmp	r2, #0
  80 00a0 B8EEE77A 		vcvt.f32.s32	s14, s15
  81 00a4 07EE903A 		vmov	s15, r3	@ int
  82 00a8 F8EEE77A 		vcvt.f32.s32	s15, s15
  83 00ac 87EE276A 		vdiv.f32	s12, s14, s15
  84 00b0 76EEC66A 		vsub.f32	s13, s13, s12
  85 00b4 0DDD     		ble	.L6
  86 00b6 8242     		cmp	r2, r0
  87 00b8 2EDA     		bge	.L12
  88 00ba 07EE900A 		vmov	s15, r0	@ int
  89 00be 71EE405A 		vsub.f32	s11, s2, s0
  90 00c2 F8EEE77A 		vcvt.f32.s32	s15, s15
  91 00c6 87EE276A 		vdiv.f32	s12, s14, s15
  92 00ca 66EE257A 		vmul.f32	s15, s12, s11
  93 00ce 30EE270A 		vadd.f32	s0, s0, s15
  94              	.L6:
  95 00d2 9B1A     		subs	r3, r3, r2
  96 00d4 002B     		cmp	r3, #0
  97 00d6 1CDD     		ble	.L13
  98 00d8 8B42     		cmp	r3, r1
  99 00da 0FDA     		bge	.L7
 100 00dc 07EE903A 		vmov	s15, r3	@ int
 101 00e0 07EE101A 		vmov	s14, r1	@ int
 102 00e4 31EE601A 		vsub.f32	s2, s2, s1
 103 00e8 F8EEE77A 		vcvt.f32.s32	s15, s15
 104 00ec B8EEC77A 		vcvt.f32.s32	s14, s14
 105 00f0 87EE876A 		vdiv.f32	s12, s15, s14
 106 00f4 66EE017A 		vmul.f32	s15, s12, s2
 107 00f8 37EEA01A 		vadd.f32	s2, s15, s1
 108              	.L7:
 109 00fc F7EE007A 		vmov.f32	s15, #1.0e+0
 110 0100 26EE800A 		vmul.f32	s0, s13, s0
 111 0104 77EEE67A 		vsub.f32	s15, s15, s13
 112 0108 67EE817A 		vmul.f32	s15, s15, s2
 113 010c 37EE800A 		vadd.f32	s0, s15, s0
 114 0110 7047     		bx	lr
ARM GAS  /tmp/ccsO36p4.s 			page 4


 115              	.L13:
 116 0112 B0EE601A 		vmov.f32	s2, s1
 117 0116 F1E7     		b	.L7
 118              	.L12:
 119 0118 B0EE410A 		vmov.f32	s0, s2
 120 011c D9E7     		b	.L6
 121              		.size	interpolate.isra.0, .-interpolate.isra.0
 122 011e 00BF     		.section	.text.set_trans.isra.0,"ax",%progbits
 123              		.align	1
 124              		.p2align 2,,3
 125              		.syntax unified
 126              		.thumb
 127              		.thumb_func
 128              		.type	set_trans.isra.0, %function
 129              	set_trans.isra.0:
 130              		@ args = 0, pretend = 0, frame = 0
 131              		@ frame_needed = 0, uses_anonymous_args = 0
 132              		@ link register save eliminated.
 133 0000 01F1E40C 		add	ip, r1, #228
 134 0004 9FED116A 		vldr.32	s12, .L28
 135 0008 10B4     		push	{r4}
 136              	.L22:
 137 000a E3B1     		cbz	r3, .L19
 138 000c 4C7F     		ldrb	r4, [r1, #29]	@ zero_extendqisi2
 139              	.L20:
 140 000e 92ED057A 		vldr.32	s14, [r2, #20]
 141 0012 0C32     		adds	r2, r2, #12
 142 0014 4460     		str	r4, [r0, #4]
 143 0016 64B1     		cbz	r4, .L21
 144 0018 0C7F     		ldrb	r4, [r1, #28]	@ zero_extendqisi2
 145 001a D1ED066A 		vldr.32	s13, [r1, #24]
 146 001e 07EE904A 		vmov	s15, r4	@ int
 147 0022 F8EEE77A 		vcvt.f32.s32	s15, s15
 148 0026 67EE877A 		vmul.f32	s15, s15, s14
 149 002a 67EE867A 		vmul.f32	s15, s15, s12
 150 002e 37EEA67A 		vadd.f32	s14, s15, s13
 151              	.L21:
 152 0032 0C31     		adds	r1, r1, #12
 153 0034 0446     		mov	r4, r0
 154 0036 0830     		adds	r0, r0, #8
 155 0038 6145     		cmp	r1, ip
 156 003a 84ED007A 		vstr.32	s14, [r4]
 157 003e E4D1     		bne	.L22
 158 0040 5DF8044B 		ldr	r4, [sp], #4
 159 0044 7047     		bx	lr
 160              	.L19:
 161 0046 8C7F     		ldrb	r4, [r1, #30]	@ zero_extendqisi2
 162 0048 E1E7     		b	.L20
 163              	.L29:
 164 004a 00BF     		.align	2
 165              	.L28:
 166 004c 0AD7233C 		.word	1008981770
 167              		.size	set_trans.isra.0, .-set_trans.isra.0
 168              		.section	.text.klatt_newsay_single,"ax",%progbits
 169              		.align	1
 170              		.p2align 2,,3
 171              		.global	klatt_newsay_single
ARM GAS  /tmp/ccsO36p4.s 			page 5


 172              		.syntax unified
 173              		.thumb
 174              		.thumb_func
 175              		.type	klatt_newsay_single, %function
 176              	klatt_newsay_single:
 177              		@ args = 0, pretend = 0, frame = 8
 178              		@ frame_needed = 0, uses_anonymous_args = 0
 179 0000 3749     		ldr	r1, .L34+8
 180 0002 384B     		ldr	r3, .L34+12
 181 0004 D1ED007A 		vldr.32	s15, [r1]	@ int
 182 0008 D3ED006A 		vldr.32	s13, [r3]
 183 000c 0023     		movs	r3, #0
 184 000e B8EEE77B 		vcvt.f64.s32	d7, s15
 185 0012 354A     		ldr	r2, .L34+16
 186 0014 9FED356A 		vldr.32	s12, .L34+20
 187 0018 1846     		mov	r0, r3
 188 001a 9FED2F5B 		vldr.64	d5, .L34
 189 001e 30B5     		push	{r4, r5, lr}
 190 0020 27EE057B 		vmul.f64	d7, d7, d5
 191 0024 324C     		ldr	r4, .L34+24
 192 0026 D578     		ldrb	r5, [r2, #3]	@ zero_extendqisi2
 193 0028 83B0     		sub	sp, sp, #12
 194 002a 2380     		strh	r3, [r4]	@ movhi
 195 002c 314C     		ldr	r4, .L34+28
 196 002e 66EE866A 		vmul.f32	s13, s13, s12
 197 0032 65F30700 		bfi	r0, r5, #0, #8
 198 0036 304D     		ldr	r5, .L34+32
 199 0038 2360     		str	r3, [r4]
 200 003a 304C     		ldr	r4, .L34+36
 201 003c B7EEC77B 		vcvt.f32.f64	s14, d7
 202 0040 2F4B     		ldr	r3, .L34+40
 203 0042 FCEEE66A 		vcvt.u32.f32	s13, s13
 204 0046 1C60     		str	r4, [r3]
 205 0048 2E4B     		ldr	r3, .L34+44
 206 004a CDED016A 		vstr.32	s13, [sp, #4]	@ int
 207 004e 83ED007A 		vstr.32	s14, [r3]
 208 0052 1379     		ldrb	r3, [r2, #4]	@ zero_extendqisi2
 209 0054 63F30F20 		bfi	r0, r3, #8, #8
 210 0058 5379     		ldrb	r3, [r2, #5]	@ zero_extendqisi2
 211 005a 63F31740 		bfi	r0, r3, #16, #8
 212 005e 9DF80430 		ldrb	r3, [sp, #4]	@ zero_extendqisi2
 213 0062 3F2B     		cmp	r3, #63
 214 0064 28BF     		it	cs
 215 0066 3F23     		movcs	r3, #63
 216 0068 EB5C     		ldrb	r3, [r5, r3]	@ zero_extendqisi2
 217 006a 0A25     		movs	r5, #10
 218 006c 63F31F60 		bfi	r0, r3, #24, #8
 219 0070 254B     		ldr	r3, .L34+48
 220 0072 9580     		strh	r5, [r2, #4]	@ movhi
 221 0074 1060     		str	r0, [r2]
 222 0076 A022     		movs	r2, #160
 223 0078 1846     		mov	r0, r3
 224 007a 244D     		ldr	r5, .L34+52
 225 007c FFF7FEFF 		bl	memcpy
 226 0080 D4ED057A 		vldr.32	s15, [r4, #20]
 227 0084 0346     		mov	r3, r0
 228 0086 5A21     		movs	r1, #90
ARM GAS  /tmp/ccsO36p4.s 			page 6


 229 0088 FDEEE77A 		vcvt.s32.f32	s15, s15
 230 008c 3C20     		movs	r0, #60
 231 008e 2246     		mov	r2, r4
 232 0090 9624     		movs	r4, #150
 233 0092 D860     		str	r0, [r3, #12]
 234 0094 4FF07E5C 		mov	ip, #1065353216
 235 0098 5866     		str	r0, [r3, #100]
 236 009a 2820     		movs	r0, #40
 237 009c 5961     		str	r1, [r3, #20]
 238 009e D966     		str	r1, [r3, #108]
 239 00a0 DC61     		str	r4, [r3, #28]
 240 00a2 1B49     		ldr	r1, .L34+56
 241 00a4 5C67     		str	r4, [r3, #116]
 242 00a6 C3ED107A 		vstr.32	s15, [r3, #64]	@ int
 243 00aa 1A4B     		ldr	r3, .L34+60
 244 00ac 6860     		str	r0, [r5, #4]
 245 00ae 4860     		str	r0, [r1, #4]
 246 00b0 03F1E404 		add	r4, r3, #228
 247 00b4 0020     		movs	r0, #0
 248 00b6 0860     		str	r0, [r1]	@ float
 249              	.L31:
 250 00b8 C3F800C0 		str	ip, [r3]	@ float
 251 00bc 0C33     		adds	r3, r3, #12
 252 00be 43F8080C 		str	r0, [r3, #-8]	@ float
 253 00c2 0C32     		adds	r2, r2, #12
 254 00c4 9168     		ldr	r1, [r2, #8]	@ float
 255 00c6 A342     		cmp	r3, r4
 256 00c8 43F8041C 		str	r1, [r3, #-4]	@ float
 257 00cc F4D1     		bne	.L31
 258 00ce 124B     		ldr	r3, .L34+64
 259 00d0 0122     		movs	r2, #1
 260 00d2 1A70     		strb	r2, [r3]
 261 00d4 03B0     		add	sp, sp, #12
 262              		@ sp needed
 263 00d6 30BD     		pop	{r4, r5, pc}
 264              	.L35:
 265              		.align	3
 266              	.L34:
 267 00d8 9A999999 		.word	-1717986918
 268 00dc 9999F13F 		.word	1072798105
 269 00e0 00000000 		.word	def_pars
 270 00e4 00000000 		.word	_selz
 271 00e8 00000000 		.word	elm_single
 272 00ec 00008642 		.word	1116078080
 273 00f0 00000000 		.word	samplenumber
 274 00f4 00000000 		.word	i
 275 00f8 00000000 		.word	phoneme_prob_remap
 276 00fc 00000000 		.word	Elements
 277 0100 00000000 		.word	le
 278 0104 00000000 		.word	top
 279 0108 00000000 		.word	pars
 280 010c 00000000 		.word	stress_s
 281 0110 00000000 		.word	stress_e
 282 0114 00000000 		.word	flt
 283 0118 00000000 		.word	nextelement
 284              		.size	klatt_newsay_single, .-klatt_newsay_single
 285              		.section	.text.klatt_get_sample_single,"ax",%progbits
ARM GAS  /tmp/ccsO36p4.s 			page 7


 286              		.align	1
 287              		.p2align 2,,3
 288              		.global	klatt_get_sample_single
 289              		.syntax unified
 290              		.thumb
 291              		.thumb_func
 292              		.type	klatt_get_sample_single, %function
 293              	klatt_get_sample_single:
 294              		@ args = 0, pretend = 0, frame = 112
 295              		@ frame_needed = 0, uses_anonymous_args = 0
 296 0000 2DE9F04F 		push	{r4, r5, r6, r7, r8, r9, r10, fp, lr}
 297 0004 274C     		ldr	r4, .L94
 298 0006 9DB0     		sub	sp, sp, #116
 299 0008 274A     		ldr	r2, .L94+4
 300 000a 2368     		ldr	r3, [r4]
 301 000c 1278     		ldrb	r2, [r2]	@ zero_extendqisi2
 302 000e 022B     		cmp	r3, #2
 303 0010 5ED9     		bls	.L37
 304 0012 012A     		cmp	r2, #1
 305 0014 5AD0     		beq	.L88
 306              	.L38:
 307 0016 254B     		ldr	r3, .L94+8
 308 0018 0293     		str	r3, [sp, #8]
 309 001a 1B78     		ldrb	r3, [r3]	@ zero_extendqisi2
 310 001c 012B     		cmp	r3, #1
 311 001e 00F0B281 		beq	.L84
 312              	.L87:
 313 0022 234C     		ldr	r4, .L94+12
 314              	.L45:
 315 0024 234D     		ldr	r5, .L94+16
 316 0026 244E     		ldr	r6, .L94+20
 317 0028 2A78     		ldrb	r2, [r5]	@ zero_extendqisi2
 318 002a 2449     		ldr	r1, .L94+24
 319 002c 3046     		mov	r0, r6
 320 002e FFF7FEFF 		bl	parwavesinglesample
 321 0032 234B     		ldr	r3, .L94+28
 322 0034 DFED236A 		vldr.32	s13, .L94+32
 323 0038 00B2     		sxth	r0, r0
 324 003a 93ED007A 		vldr.32	s14, [r3]
 325 003e D6ED067A 		vldr.32	s15, [r6, #24]	@ int
 326 0042 27EE267A 		vmul.f32	s14, s14, s13
 327 0046 F8EEE77A 		vcvt.f32.s32	s15, s15
 328 004a BCEEC77A 		vcvt.u32.f32	s14, s14
 329 004e 8DED017A 		vstr.32	s14, [sp, #4]	@ int
 330 0052 9DF80430 		ldrb	r3, [sp, #4]	@ zero_extendqisi2
 331 0056 7F2B     		cmp	r3, #127
 332 0058 28BF     		it	cs
 333 005a 7F23     		movcs	r3, #127
 334 005c 04EB8304 		add	r4, r4, r3, lsl #2
 335 0060 2B88     		ldrh	r3, [r5]
 336 0062 0133     		adds	r3, r3, #1
 337 0064 94ED007A 		vldr.32	s14, [r4]
 338 0068 1BB2     		sxth	r3, r3
 339 006a 67EE877A 		vmul.f32	s15, s15, s14
 340 006e 07EE103A 		vmov	s14, r3	@ int
 341 0072 2B80     		strh	r3, [r5]	@ movhi
 342 0074 B8EEC77A 		vcvt.f32.s32	s14, s14
ARM GAS  /tmp/ccsO36p4.s 			page 8


 343 0078 B4EEE77A 		vcmpe.f32	s14, s15
 344 007c F1EE10FA 		vmrs	APSR_nzcv, FPSCR
 345 0080 0DDB     		blt	.L63
 346 0082 114B     		ldr	r3, .L94+36
 347 0084 B6EE007A 		vmov.f32	s14, #5.0e-1
 348 0088 0122     		movs	r2, #1
 349 008a 0299     		ldr	r1, [sp, #8]
 350 008c D3ED007A 		vldr.32	s15, [r3]
 351 0090 0A70     		strb	r2, [r1]
 352 0092 0022     		movs	r2, #0
 353 0094 77EEC77A 		vsub.f32	s15, s15, s14
 354 0098 2A80     		strh	r2, [r5]	@ movhi
 355 009a C3ED007A 		vstr.32	s15, [r3]
 356              	.L63:
 357 009e 1DB0     		add	sp, sp, #116
 358              		@ sp needed
 359 00a0 BDE8F08F 		pop	{r4, r5, r6, r7, r8, r9, r10, fp, pc}
 360              	.L95:
 361              		.align	2
 362              	.L94:
 363 00a4 00000000 		.word	i
 364 00a8 00000000 		.word	nextelement
 365 00ac 00000000 		.word	newframe.20
 366 00b0 00000000 		.word	logpitch
 367 00b4 00000000 		.word	samplenumber
 368 00b8 00000000 		.word	klatt_global
 369 00bc 00000000 		.word	pars
 370 00c0 00000000 		.word	_sely
 371 00c4 00000343 		.word	1124270080
 372 00c8 00000000 		.word	top
 373              	.L88:
 374 00cc FFF7FEFF 		bl	klatt_newsay_single
 375              	.L37:
 376 00d0 C14B     		ldr	r3, .L96
 377 00d2 1B78     		ldrb	r3, [r3]	@ zero_extendqisi2
 378 00d4 012B     		cmp	r3, #1
 379 00d6 9ED1     		bne	.L38
 380 00d8 2368     		ldr	r3, [r4]
 381 00da C04D     		ldr	r5, .L96+4
 382 00dc DFF850A3 		ldr	r10, .L96+88
 383 00e0 EA5C     		ldrb	r2, [r5, r3]	@ zero_extendqisi2
 384 00e2 691C     		adds	r1, r5, #1
 385 00e4 11F80380 		ldrb	r8, [r1, r3]	@ zero_extendqisi2
 386 00e8 C2EB4211 		rsb	r1, r2, r2, lsl #5
 387 00ec 0333     		adds	r3, r3, #3
 388 00ee 0AEBC10B 		add	fp, r10, r1, lsl #3
 389 00f2 BB49     		ldr	r1, .L96+8
 390 00f4 2360     		str	r3, [r4]
 391 00f6 C1F800B0 		str	fp, [r1]
 392 00fa BA49     		ldr	r1, .L96+12
 393 00fc 81F80080 		strb	r8, [r1]
 394 0100 B8F1000F 		cmp	r8, #0
 395 0104 87D0     		beq	.L38
 396 0106 052B     		cmp	r3, #5
 397 0108 00F26481 		bhi	.L65
 398 010c ED5C     		ldrb	r5, [r5, r3]	@ zero_extendqisi2
 399 010e C5EB4515 		rsb	r5, r5, r5, lsl #5
ARM GAS  /tmp/ccsO36p4.s 			page 9


 400 0112 0AEBC505 		add	r5, r10, r5, lsl #3
 401              	.L39:
 402 0116 C2EB4212 		rsb	r2, r2, r2, lsl #5
 403 011a B34B     		ldr	r3, .L96+16
 404 011c 0AEBC202 		add	r2, r10, r2, lsl #3
 405 0120 1679     		ldrb	r6, [r2, #4]	@ zero_extendqisi2
 406 0122 1A68     		ldr	r2, [r3]
 407 0124 1379     		ldrb	r3, [r2, #4]	@ zero_extendqisi2
 408 0126 B342     		cmp	r3, r6
 409 0128 80F04D81 		bcs	.L40
 410 012c 0023     		movs	r3, #0
 411 012e 5946     		mov	r1, fp
 412 0130 AE48     		ldr	r0, .L96+20
 413 0132 FFF7FEFF 		bl	set_trans.isra.0
 414              	.L41:
 415 0136 2B79     		ldrb	r3, [r5, #4]	@ zero_extendqisi2
 416 0138 B342     		cmp	r3, r6
 417 013a 40F23D81 		bls	.L42
 418 013e 2946     		mov	r1, r5
 419 0140 0123     		movs	r3, #1
 420 0142 5A46     		mov	r2, fp
 421 0144 AA48     		ldr	r0, .L96+24
 422 0146 FFF7FEFF 		bl	set_trans.isra.0
 423              	.L43:
 424 014a AA4B     		ldr	r3, .L96+28
 425 014c 0022     		movs	r2, #0
 426 014e 0193     		str	r3, [sp, #4]
 427 0150 9146     		mov	r9, r2
 428 0152 1A70     		strb	r2, [r3]
 429 0154 A84B     		ldr	r3, .L96+32
 430 0156 0293     		str	r3, [sp, #8]
 431 0158 1A70     		strb	r2, [r3]
 432              	.L44:
 433 015a A84B     		ldr	r3, .L96+36
 434 015c A84A     		ldr	r2, .L96+40
 435 015e 93ED005A 		vldr.32	s10, [r3]
 436 0162 A84B     		ldr	r3, .L96+44
 437 0164 D2F800C0 		ldr	ip, [r2]
 438 0168 1B68     		ldr	r3, [r3]
 439 016a 9FEDA73A 		vldr.32	s6, .L96+48
 440 016e 6345     		cmp	r3, ip
 441 0170 25EE033A 		vmul.f32	s6, s10, s6
 442 0174 00F05E81 		beq	.L89
 443 0178 0393     		str	r3, [sp, #12]
 444 017a A44B     		ldr	r3, .L96+52
 445 017c 93ED004A 		vldr.32	s8, [r3]
 446 0180 0493     		str	r3, [sp, #16]
 447 0182 A34B     		ldr	r3, .L96+56
 448 0184 0593     		str	r3, [sp, #20]
 449              	.L49:
 450 0186 DFF864A2 		ldr	r10, .L96+20
 451 018a 5E46     		mov	r6, fp
 452 018c 984D     		ldr	r5, .L96+24
 453 018e 09AF     		add	r7, sp, #36
 454 0190 A04C     		ldr	r4, .L96+60
 455 0192 0AF1980B 		add	fp, r10, #152
 456 0196 CDF818C0 		str	ip, [sp, #24]
ARM GAS  /tmp/ccsO36p4.s 			page 10


 457              	.L62:
 458 019a 2B46     		mov	r3, r5
 459 019c 96ED051A 		vldr.32	s2, [r6, #20]
 460 01a0 DAF80400 		ldr	r0, [r10, #4]
 461 01a4 4A46     		mov	r2, r9
 462 01a6 D3ED000A 		vldr.32	s1, [r3]
 463 01aa 5346     		mov	r3, r10
 464 01ac 6968     		ldr	r1, [r5, #4]
 465 01ae 0AF1080A 		add	r10, r10, #8
 466 01b2 93ED000A 		vldr.32	s0, [r3]
 467 01b6 4346     		mov	r3, r8
 468 01b8 FFF7FEFF 		bl	interpolate.isra.0
 469 01bc D4ED026A 		vldr.32	s13, [r4, #8]
 470 01c0 D4ED017A 		vldr.32	s15, [r4, #4]
 471 01c4 D345     		cmp	fp, r10
 472 01c6 94ED007A 		vldr.32	s14, [r4]
 473 01ca 05F10805 		add	r5, r5, #8
 474 01ce 67EEA67A 		vmul.f32	s15, s15, s13
 475 01d2 06F10C06 		add	r6, r6, #12
 476 01d6 20EE070A 		vmul.f32	s0, s0, s14
 477 01da 04F10C04 		add	r4, r4, #12
 478 01de 77EE807A 		vadd.f32	s15, s15, s0
 479 01e2 44ED017A 		vstr.32	s15, [r4, #-4]
 480 01e6 E7EC017A 		vstmia.32	r7!, {s15}
 481 01ea D6D1     		bne	.L62
 482 01ec DFED8A4A 		vldr.32	s9, .L96+64
 483 01f0 F0EE440A 		vmov.f32	s1, s8
 484 01f4 DDF818C0 		ldr	ip, [sp, #24]
 485 01f8 35EE435A 		vsub.f32	s10, s10, s6
 486 01fc 0598     		ldr	r0, [sp, #20]
 487 01fe B0EE641A 		vmov.f32	s2, s9
 488 0202 6346     		mov	r3, ip
 489 0204 90ED000A 		vldr.32	s0, [r0]
 490 0208 4068     		ldr	r0, [r0, #4]
 491 020a DDE90321 		ldrd	r2, r1, [sp, #12]
 492 020e 4968     		ldr	r1, [r1, #4]
 493 0210 FFF7FEFF 		bl	interpolate.isra.0
 494 0214 DDED187A 		vldr.32	s15, [sp, #96]
 495 0218 DDED0F5A 		vldr.32	s11, [sp, #60]
 496 021c FDEEE77A 		vcvt.s32.f32	s15, s15
 497 0220 9DED176A 		vldr.32	s12, [sp, #92]
 498 0224 FDEEE55A 		vcvt.s32.f32	s11, s11
 499 0228 DDED156A 		vldr.32	s13, [sp, #84]
 500 022c 9DED167A 		vldr.32	s14, [sp, #88]
 501 0230 36EE246A 		vadd.f32	s12, s12, s9
 502 0234 76EEA46A 		vadd.f32	s13, s13, s9
 503 0238 17EE904A 		vmov	r4, s15	@ int
 504 023c 37EE247A 		vadd.f32	s14, s14, s9
 505 0240 15EE903A 		vmov	r3, s11	@ int
 506 0244 65EE007A 		vmul.f32	s15, s10, s0
 507 0248 DDED090A 		vldr.32	s1, [sp, #36]
 508 024c 9DED1A1A 		vldr.32	s2, [sp, #104]
 509 0250 BDEEC66A 		vcvt.s32.f32	s12, s12
 510 0254 DDED191A 		vldr.32	s3, [sp, #100]
 511 0258 FDEEE00A 		vcvt.s32.f32	s1, s1
 512 025c 9DED0A2A 		vldr.32	s4, [sp, #40]
 513 0260 BDEEC11A 		vcvt.s32.f32	s2, s2
ARM GAS  /tmp/ccsO36p4.s 			page 11


 514 0264 DDED0B2A 		vldr.32	s5, [sp, #44]
 515 0268 FDEEE11A 		vcvt.s32.f32	s3, s3
 516 026c 9DED0C5A 		vldr.32	s10, [sp, #48]
 517 0270 BDEEC22A 		vcvt.s32.f32	s4, s4
 518 0274 DDED1B5A 		vldr.32	s11, [sp, #108]
 519 0278 FDEEE22A 		vcvt.s32.f32	s5, s5
 520 027c BDEEC55A 		vcvt.s32.f32	s10, s10
 521 0280 6649     		ldr	r1, .L96+68
 522 0282 FDEEE55A 		vcvt.s32.f32	s11, s11
 523 0286 DDED0D3A 		vldr.32	s7, [sp, #52]
 524 028a FDEEE66A 		vcvt.s32.f32	s13, s13
 525 028e 81ED256A 		vstr.32	s12, [r1, #148]	@ int
 526 0292 BDEEC77A 		vcvt.s32.f32	s14, s14
 527 0296 81ED065A 		vstr.32	s10, [r1, #24]	@ int
 528 029a C1ED165A 		vstr.32	s11, [r1, #88]	@ int
 529 029e 77EE837A 		vadd.f32	s15, s15, s6
 530 02a2 C1ED206A 		vstr.32	s13, [r1, #128]	@ int
 531 02a6 FDEEE33A 		vcvt.s32.f32	s7, s7
 532 02aa 81ED227A 		vstr.32	s14, [r1, #136]	@ int
 533 02ae 9DED0E4A 		vldr.32	s8, [sp, #56]
 534 02b2 FDEEE77A 		vcvt.s32.f32	s15, s15
 535 02b6 C1ED0E0A 		vstr.32	s1, [r1, #56]	@ int
 536 02ba 81ED121A 		vstr.32	s2, [r1, #72]	@ int
 537 02be BDEEC44A 		vcvt.s32.f32	s8, s8
 538 02c2 C1ED141A 		vstr.32	s3, [r1, #80]	@ int
 539 02c6 F8EEE77A 		vcvt.f32.s32	s15, s15
 540 02ca 81ED022A 		vstr.32	s4, [r1, #8]	@ int
 541 02ce C1ED042A 		vstr.32	s5, [r1, #16]	@ int
 542 02d2 C1F89840 		str	r4, [r1, #152]
 543 02d6 CB61     		str	r3, [r1, #28]
 544 02d8 4B67     		str	r3, [r1, #116]
 545 02da 514B     		ldr	r3, .L96+72
 546 02dc 9FED513A 		vldr.32	s6, .L96+76
 547 02e0 93ED005A 		vldr.32	s10, [r3]
 548 02e4 DDED115A 		vldr.32	s11, [sp, #68]
 549 02e8 25EE035A 		vmul.f32	s10, s10, s6
 550 02ec 4C60     		str	r4, [r1, #4]
 551 02ee 75EEA45A 		vadd.f32	s11, s11, s9
 552 02f2 4D4C     		ldr	r4, .L96+80
 553 02f4 9DED126A 		vldr.32	s12, [sp, #72]
 554 02f8 BCEEC55A 		vcvt.u32.f32	s10, s10
 555 02fc DDED136A 		vldr.32	s13, [sp, #76]
 556 0300 FDEEE55A 		vcvt.s32.f32	s11, s11
 557 0304 9DED147A 		vldr.32	s14, [sp, #80]
 558 0308 36EE246A 		vadd.f32	s12, s12, s9
 559 030c 4748     		ldr	r0, .L96+84
 560 030e 8DED035A 		vstr.32	s10, [sp, #12]	@ int
 561 0312 76EEA46A 		vadd.f32	s13, s13, s9
 562 0316 9DF80C30 		ldrb	r3, [sp, #12]	@ zero_extendqisi2
 563 031a 37EE247A 		vadd.f32	s14, s14, s9
 564 031e C1ED185A 		vstr.32	s11, [r1, #96]	@ int
 565 0322 BDEEC66A 		vcvt.s32.f32	s12, s12
 566 0326 7F2B     		cmp	r3, #127
 567 0328 FDEEE66A 		vcvt.s32.f32	s13, s13
 568 032c BDEEC77A 		vcvt.s32.f32	s14, s14
 569 0330 C1ED033A 		vstr.32	s7, [r1, #12]	@ int
 570 0334 28BF     		it	cs
ARM GAS  /tmp/ccsO36p4.s 			page 12


 571 0336 7F23     		movcs	r3, #127
 572 0338 C1ED193A 		vstr.32	s7, [r1, #100]	@ int
 573 033c 81ED054A 		vstr.32	s8, [r1, #20]	@ int
 574 0340 C3F17F03 		rsb	r3, r3, #127
 575 0344 81ED1B4A 		vstr.32	s8, [r1, #108]	@ int
 576 0348 81ED1A6A 		vstr.32	s12, [r1, #104]	@ int
 577 034c DBB2     		uxtb	r3, r3
 578 034e C1ED1C6A 		vstr.32	s13, [r1, #112]	@ int
 579 0352 81ED1E7A 		vstr.32	s14, [r1, #120]	@ int
 580 0356 04EB8303 		add	r3, r4, r3, lsl #2
 581 035a D3ED005A 		vldr.32	s11, [r3]
 582 035e 67EEA57A 		vmul.f32	s15, s15, s11
 583 0362 FDEEE77A 		vcvt.s32.f32	s15, s15
 584 0366 C1ED007A 		vstr.32	s15, [r1]	@ int
 585 036a FFF7FEFF 		bl	initparwave
 586 036e 254A     		ldr	r2, .L96+44
 587 0370 1368     		ldr	r3, [r2]
 588 0372 0133     		adds	r3, r3, #1
 589 0374 1360     		str	r3, [r2]
 590 0376 019A     		ldr	r2, [sp, #4]
 591 0378 1378     		ldrb	r3, [r2]	@ zero_extendqisi2
 592 037a 0133     		adds	r3, r3, #1
 593 037c 1370     		strb	r3, [r2]
 594 037e 0023     		movs	r3, #0
 595 0380 154A     		ldr	r2, .L96
 596 0382 1370     		strb	r3, [r2]
 597 0384 4EE6     		b	.L45
 598              	.L84:
 599 0386 1B49     		ldr	r1, .L96+28
 600 0388 164A     		ldr	r2, .L96+12
 601 038a 91F80090 		ldrb	r9, [r1]	@ zero_extendqisi2
 602 038e 92F80080 		ldrb	r8, [r2]	@ zero_extendqisi2
 603 0392 134A     		ldr	r2, .L96+8
 604 0394 0298     		ldr	r0, [sp, #8]
 605 0396 C145     		cmp	r9, r8
 606 0398 D2F800B0 		ldr	fp, [r2]
 607 039c 4FF00002 		mov	r2, #0
 608 03a0 0191     		str	r1, [sp, #4]
 609 03a2 0270     		strb	r2, [r0]
 610 03a4 7FF6D9AE 		bls	.L44
 611 03a8 0F4A     		ldr	r2, .L96+16
 612 03aa 0B49     		ldr	r1, .L96
 613 03ac C2F800B0 		str	fp, [r2]
 614 03b0 0B70     		strb	r3, [r1]
 615 03b2 FFF7FEFF 		bl	klatt_get_sample_single
 616 03b6 34E6     		b	.L87
 617              	.L42:
 618 03b8 2A46     		mov	r2, r5
 619 03ba 0023     		movs	r3, #0
 620 03bc 5946     		mov	r1, fp
 621 03be 0C48     		ldr	r0, .L96+24
 622 03c0 FFF7FEFF 		bl	set_trans.isra.0
 623 03c4 C1E6     		b	.L43
 624              	.L40:
 625 03c6 1146     		mov	r1, r2
 626 03c8 0123     		movs	r3, #1
 627 03ca 5A46     		mov	r2, fp
ARM GAS  /tmp/ccsO36p4.s 			page 13


 628 03cc 0748     		ldr	r0, .L96+20
 629 03ce FFF7FEFF 		bl	set_trans.isra.0
 630 03d2 B0E6     		b	.L41
 631              	.L65:
 632 03d4 5546     		mov	r5, r10
 633 03d6 9EE6     		b	.L39
 634              	.L97:
 635              		.align	2
 636              	.L96:
 637 03d8 00000000 		.word	nextelement
 638 03dc 00000000 		.word	elm_single
 639 03e0 00000000 		.word	ce.24
 640 03e4 00000000 		.word	dur.23
 641 03e8 00000000 		.word	le
 642 03ec 00000000 		.word	startyy.22
 643 03f0 00000000 		.word	end.21
 644 03f4 00000000 		.word	t
 645 03f8 00000000 		.word	newframe.20
 646 03fc 00000000 		.word	top
 647 0400 00000000 		.word	ntstress
 648 0404 00000000 		.word	tstress
 649 0408 CDCC4C3F 		.word	1061997773
 650 040c 00000000 		.word	stress_e
 651 0410 00000000 		.word	stress_s
 652 0414 00000000 		.word	flt
 653 0418 00000000 		.word	0
 654 041c 00000000 		.word	pars
 655 0420 00000000 		.word	_selx
 656 0424 00000343 		.word	1124270080
 657 0428 00000000 		.word	logpitch
 658 042c 00000000 		.word	klatt_global
 659 0430 00000000 		.word	Elements
 660              	.L89:
 661 0434 2378     		ldrb	r3, [r4]	@ zero_extendqisi2
 662 0436 0024     		movs	r4, #0
 663 0438 5749     		ldr	r1, .L98
 664 043a C446     		mov	ip, r8
 665 043c C2F80080 		str	r8, [r2]
 666 0440 062B     		cmp	r3, #6
 667 0442 564A     		ldr	r2, .L98+4
 668 0444 564D     		ldr	r5, .L98+8
 669 0446 0C60     		str	r4, [r1]
 670 0448 0492     		str	r2, [sp, #16]
 671 044a 0595     		str	r5, [sp, #20]
 672 044c 92E80300 		ldm	r2, {r0, r1}
 673 0450 85E80300 		stm	r5, {r0, r1}
 674 0454 00F29080 		bhi	.L90
 675 0458 3CD0     		beq	.L66
 676 045a 524D     		ldr	r5, .L98+12
 677 045c 581C     		adds	r0, r3, #1
 678 045e DFF850A1 		ldr	r10, .L98+24
 679 0462 C0B2     		uxtb	r0, r0
 680 0464 E95C     		ldrb	r1, [r5, r3]	@ zero_extendqisi2
 681 0466 0628     		cmp	r0, #6
 682 0468 C1EB4111 		rsb	r1, r1, r1, lsl #5
 683 046c 0AEBC101 		add	r1, r10, r1, lsl #3
 684 0470 00F08680 		beq	.L67
ARM GAS  /tmp/ccsO36p4.s 			page 14


 685 0474 2E5C     		ldrb	r6, [r5, r0]	@ zero_extendqisi2
 686 0476 981C     		adds	r0, r3, #2
 687 0478 C0B2     		uxtb	r0, r0
 688 047a 0628     		cmp	r0, #6
 689 047c 00F08680 		beq	.L68
 690 0480 0394     		str	r4, [sp, #12]
 691 0482 DC1C     		adds	r4, r3, #3
 692 0484 0433     		adds	r3, r3, #4
 693 0486 C646     		mov	lr, r8
 694 0488 E7B2     		uxtb	r7, r4
 695 048a 0246     		mov	r2, r0
 696 048c DBB2     		uxtb	r3, r3
 697 048e 2C18     		adds	r4, r5, r0
 698 0490 CDE90685 		strd	r8, r5, [sp, #24]
 699 0494 3D46     		mov	r5, r7
 700 0496 9846     		mov	r8, r3
 701              	.L51:
 702 0498 431C     		adds	r3, r0, #1
 703 049a 2778     		ldrb	r7, [r4]	@ zero_extendqisi2
 704 049c A4EB020C 		sub	ip, r4, r2
 705 04a0 0334     		adds	r4, r4, #3
 706 04a2 DBB2     		uxtb	r3, r3
 707 04a4 002F     		cmp	r7, #0
 708 04a6 52D1     		bne	.L91
 709 04a8 0969     		ldr	r1, [r1, #16]
 710 04aa C900     		lsls	r1, r1, #3
 711 04ac 56D4     		bmi	.L92
 712 04ae 0528     		cmp	r0, #5
 713 04b0 B644     		add	lr, lr, r6
 714 04b2 3DD0     		beq	.L85
 715 04b4 1CF80510 		ldrb	r1, [ip, r5]	@ zero_extendqisi2
 716 04b8 0428     		cmp	r0, #4
 717 04ba C1EB4111 		rsb	r1, r1, r1, lsl #5
 718 04be 0AEBC101 		add	r1, r10, r1, lsl #3
 719 04c2 35D0     		beq	.L85
 720 04c4 0123     		movs	r3, #1
 721 04c6 0228     		cmp	r0, #2
 722 04c8 1CF80860 		ldrb	r6, [ip, r8]	@ zero_extendqisi2
 723 04cc 0393     		str	r3, [sp, #12]
 724 04ce 4FD1     		bne	.L69
 725 04d0 0520     		movs	r0, #5
 726 04d2 E1E7     		b	.L51
 727              	.L66:
 728 04d4 B7EE004A 		vmov.f32	s8, #1.0e+0
 729 04d8 2646     		mov	r6, r4
 730 04da 0327     		movs	r7, #3
 731 04dc 314D     		ldr	r5, .L98+12
 732 04de DFF8D0A0 		ldr	r10, .L98+24
 733              	.L57:
 734 04e2 049A     		ldr	r2, [sp, #16]
 735 04e4 0020     		movs	r0, #0
 736 04e6 DFF8C8E0 		ldr	lr, .L98+24
 737 04ea 82ED004A 		vstr.32	s8, [r2]
 738 04ee 02E0     		b	.L60
 739              	.L93:
 740 04f0 AA5C     		ldrb	r2, [r5, r2]	@ zero_extendqisi2
 741 04f2 BA42     		cmp	r2, r7
ARM GAS  /tmp/ccsO36p4.s 			page 15


 742 04f4 14D1     		bne	.L59
 743              	.L60:
 744 04f6 EA5C     		ldrb	r2, [r5, r3]	@ zero_extendqisi2
 745 04f8 052B     		cmp	r3, #5
 746 04fa 3044     		add	r0, r0, r6
 747 04fc 03F10104 		add	r4, r3, #1
 748 0500 C2EB4212 		rsb	r2, r2, r2, lsl #5
 749 0504 7146     		mov	r1, lr
 750 0506 02D8     		bhi	.L58
 751 0508 E3B2     		uxtb	r3, r4
 752 050a 0AEBC201 		add	r1, r10, r2, lsl #3
 753              	.L58:
 754 050e 0969     		ldr	r1, [r1, #16]
 755 0510 5A1C     		adds	r2, r3, #1
 756 0512 9C1C     		adds	r4, r3, #2
 757 0514 EE5C     		ldrb	r6, [r5, r3]	@ zero_extendqisi2
 758 0516 11F0805F 		tst	r1, #268435456
 759 051a D2B2     		uxtb	r2, r2
 760 051c E3B2     		uxtb	r3, r4
 761 051e E7D1     		bne	.L93
 762              	.L59:
 763 0520 214B     		ldr	r3, .L98+16
 764 0522 0CEB500C 		add	ip, ip, r0, lsr #1
 765 0526 C3F800C0 		str	ip, [r3]
 766 052a 0023     		movs	r3, #0
 767 052c 0393     		str	r3, [sp, #12]
 768 052e 2AE6     		b	.L49
 769              	.L85:
 770 0530 DDE90685 		ldrd	r8, r5, [sp, #24]
 771              	.L52:
 772 0534 3E46     		mov	r6, r7
 773 0536 0623     		movs	r3, #6
 774 0538 0327     		movs	r7, #3
 775              	.L54:
 776 053a 07EE907A 		vmov	s15, r7	@ int
 777 053e F446     		mov	ip, lr
 778 0540 B8EEE77A 		vcvt.f32.s32	s14, s15
 779 0544 F0EE087A 		vmov.f32	s15, #3.0e+0
 780 0548 87EE274A 		vdiv.f32	s8, s14, s15
 781 054c C9E7     		b	.L57
 782              	.L91:
 783 054e DDE90685 		ldrd	r8, r5, [sp, #24]
 784 0552 039A     		ldr	r2, [sp, #12]
 785 0554 002A     		cmp	r2, #0
 786 0556 08BF     		it	eq
 787 0558 C646     		moveq	lr, r8
 788 055a EEE7     		b	.L54
 789              	.L92:
 790 055c DDE90685 		ldrd	r8, r5, [sp, #24]
 791 0560 039A     		ldr	r2, [sp, #12]
 792 0562 9FED124A 		vldr.32	s8, .L98+20
 793 0566 002A     		cmp	r2, #0
 794 0568 14BF     		ite	ne
 795 056a F446     		movne	ip, lr
 796 056c C446     		moveq	ip, r8
 797 056e B8E7     		b	.L57
 798              	.L69:
ARM GAS  /tmp/ccsO36p4.s 			page 16


 799 0570 DDE90685 		ldrd	r8, r5, [sp, #24]
 800 0574 3746     		mov	r7, r6
 801 0576 DDE7     		b	.L52
 802              	.L90:
 803 0578 92ED004A 		vldr.32	s8, [r2]
 804 057c 0394     		str	r4, [sp, #12]
 805 057e 02E6     		b	.L49
 806              	.L67:
 807 0580 B7EE004A 		vmov.f32	s8, #1.0e+0
 808 0584 0346     		mov	r3, r0
 809 0586 2646     		mov	r6, r4
 810 0588 0327     		movs	r7, #3
 811 058a AAE7     		b	.L57
 812              	.L68:
 813 058c B7EE004A 		vmov.f32	s8, #1.0e+0
 814 0590 0346     		mov	r3, r0
 815 0592 0327     		movs	r7, #3
 816 0594 A5E7     		b	.L57
 817              	.L99:
 818 0596 00BF     		.align	2
 819              	.L98:
 820 0598 00000000 		.word	tstress
 821 059c 00000000 		.word	stress_e
 822 05a0 00000000 		.word	stress_s
 823 05a4 00000000 		.word	elm_single
 824 05a8 00000000 		.word	ntstress
 825 05ac CDCCCC3D 		.word	1036831949
 826 05b0 00000000 		.word	Elements
 827              		.size	klatt_get_sample_single, .-klatt_get_sample_single
 828              		.section	.text.klatt_get_sample_single_sing,"ax",%progbits
 829              		.align	1
 830              		.p2align 2,,3
 831              		.global	klatt_get_sample_single_sing
 832              		.syntax unified
 833              		.thumb
 834              		.thumb_func
 835              		.type	klatt_get_sample_single_sing, %function
 836              	klatt_get_sample_single_sing:
 837              		@ args = 0, pretend = 0, frame = 104
 838              		@ frame_needed = 0, uses_anonymous_args = 0
 839 0000 2DE9F04F 		push	{r4, r5, r6, r7, r8, r9, r10, fp, lr}
 840 0004 CF4C     		ldr	r4, .L156
 841 0006 9BB0     		sub	sp, sp, #108
 842 0008 CF4A     		ldr	r2, .L156+4
 843 000a 2368     		ldr	r3, [r4]
 844 000c 1278     		ldrb	r2, [r2]	@ zero_extendqisi2
 845 000e 022B     		cmp	r3, #2
 846 0010 4AD9     		bls	.L101
 847 0012 012A     		cmp	r2, #1
 848 0014 46D0     		beq	.L151
 849              	.L102:
 850 0016 CD4B     		ldr	r3, .L156+8
 851 0018 0193     		str	r3, [sp, #4]
 852 001a 1B78     		ldrb	r3, [r3]	@ zero_extendqisi2
 853 001c 012B     		cmp	r3, #1
 854 001e 00F07881 		beq	.L147
 855              	.L150:
ARM GAS  /tmp/ccsO36p4.s 			page 17


 856 0022 CB4C     		ldr	r4, .L156+12
 857              	.L109:
 858 0024 CB4D     		ldr	r5, .L156+16
 859 0026 CC4E     		ldr	r6, .L156+20
 860 0028 2A78     		ldrb	r2, [r5]	@ zero_extendqisi2
 861 002a CC49     		ldr	r1, .L156+24
 862 002c 3046     		mov	r0, r6
 863 002e FFF7FEFF 		bl	parwavesinglesample
 864 0032 CB4B     		ldr	r3, .L156+28
 865 0034 DFEDCB6A 		vldr.32	s13, .L156+32
 866 0038 00B2     		sxth	r0, r0
 867 003a 93ED007A 		vldr.32	s14, [r3]
 868 003e D6ED067A 		vldr.32	s15, [r6, #24]	@ int
 869 0042 27EE267A 		vmul.f32	s14, s14, s13
 870 0046 F8EEE77A 		vcvt.f32.s32	s15, s15
 871 004a BCEEC77A 		vcvt.u32.f32	s14, s14
 872 004e 8DED007A 		vstr.32	s14, [sp]	@ int
 873 0052 9DF80030 		ldrb	r3, [sp]	@ zero_extendqisi2
 874 0056 7F2B     		cmp	r3, #127
 875 0058 28BF     		it	cs
 876 005a 7F23     		movcs	r3, #127
 877 005c 04EB8304 		add	r4, r4, r3, lsl #2
 878 0060 2B88     		ldrh	r3, [r5]
 879 0062 0133     		adds	r3, r3, #1
 880 0064 94ED007A 		vldr.32	s14, [r4]
 881 0068 1BB2     		sxth	r3, r3
 882 006a 67EE877A 		vmul.f32	s15, s15, s14
 883 006e 07EE103A 		vmov	s14, r3	@ int
 884 0072 2B80     		strh	r3, [r5]	@ movhi
 885 0074 B8EEC77A 		vcvt.f32.s32	s14, s14
 886 0078 B4EEE77A 		vcmpe.f32	s14, s15
 887 007c F1EE10FA 		vmrs	APSR_nzcv, FPSCR
 888 0080 0DDB     		blt	.L126
 889 0082 B94B     		ldr	r3, .L156+36
 890 0084 B6EE007A 		vmov.f32	s14, #5.0e-1
 891 0088 0122     		movs	r2, #1
 892 008a 0199     		ldr	r1, [sp, #4]
 893 008c D3ED007A 		vldr.32	s15, [r3]
 894 0090 0A70     		strb	r2, [r1]
 895 0092 0022     		movs	r2, #0
 896 0094 77EEC77A 		vsub.f32	s15, s15, s14
 897 0098 2A80     		strh	r2, [r5]	@ movhi
 898 009a C3ED007A 		vstr.32	s15, [r3]
 899              	.L126:
 900 009e 1BB0     		add	sp, sp, #108
 901              		@ sp needed
 902 00a0 BDE8F08F 		pop	{r4, r5, r6, r7, r8, r9, r10, fp, pc}
 903              	.L151:
 904 00a4 FFF7FEFF 		bl	klatt_newsay_single
 905              	.L101:
 906 00a8 A74B     		ldr	r3, .L156+4
 907 00aa 1B78     		ldrb	r3, [r3]	@ zero_extendqisi2
 908 00ac 012B     		cmp	r3, #1
 909 00ae B2D1     		bne	.L102
 910 00b0 2368     		ldr	r3, [r4]
 911 00b2 AE4D     		ldr	r5, .L156+40
 912 00b4 DFF8E8A2 		ldr	r10, .L156+92
ARM GAS  /tmp/ccsO36p4.s 			page 18


 913 00b8 EA5C     		ldrb	r2, [r5, r3]	@ zero_extendqisi2
 914 00ba 691C     		adds	r1, r5, #1
 915 00bc 11F80380 		ldrb	r8, [r1, r3]	@ zero_extendqisi2
 916 00c0 C2EB4211 		rsb	r1, r2, r2, lsl #5
 917 00c4 0333     		adds	r3, r3, #3
 918 00c6 0AEBC10B 		add	fp, r10, r1, lsl #3
 919 00ca A949     		ldr	r1, .L156+44
 920 00cc 2360     		str	r3, [r4]
 921 00ce C1F800B0 		str	fp, [r1]
 922 00d2 A849     		ldr	r1, .L156+48
 923 00d4 81F80080 		strb	r8, [r1]
 924 00d8 B8F1000F 		cmp	r8, #0
 925 00dc 9BD0     		beq	.L102
 926 00de 052B     		cmp	r3, #5
 927 00e0 00F26E81 		bhi	.L128
 928 00e4 ED5C     		ldrb	r5, [r5, r3]	@ zero_extendqisi2
 929 00e6 C5EB4515 		rsb	r5, r5, r5, lsl #5
 930 00ea 0AEBC505 		add	r5, r10, r5, lsl #3
 931              	.L103:
 932 00ee C2EB4212 		rsb	r2, r2, r2, lsl #5
 933 00f2 A14B     		ldr	r3, .L156+52
 934 00f4 0AEBC202 		add	r2, r10, r2, lsl #3
 935 00f8 1679     		ldrb	r6, [r2, #4]	@ zero_extendqisi2
 936 00fa 1A68     		ldr	r2, [r3]
 937 00fc 1379     		ldrb	r3, [r2, #4]	@ zero_extendqisi2
 938 00fe B342     		cmp	r3, r6
 939 0100 80F05781 		bcs	.L104
 940 0104 0023     		movs	r3, #0
 941 0106 5946     		mov	r1, fp
 942 0108 9C48     		ldr	r0, .L156+56
 943 010a FFF7FEFF 		bl	set_trans.isra.0
 944              	.L105:
 945 010e 2B79     		ldrb	r3, [r5, #4]	@ zero_extendqisi2
 946 0110 B342     		cmp	r3, r6
 947 0112 40F24781 		bls	.L106
 948 0116 2946     		mov	r1, r5
 949 0118 0123     		movs	r3, #1
 950 011a 5A46     		mov	r2, fp
 951 011c 9848     		ldr	r0, .L156+60
 952 011e FFF7FEFF 		bl	set_trans.isra.0
 953              	.L107:
 954 0122 984B     		ldr	r3, .L156+64
 955 0124 0022     		movs	r2, #0
 956 0126 0093     		str	r3, [sp]
 957 0128 9146     		mov	r9, r2
 958 012a 1A70     		strb	r2, [r3]
 959 012c 874B     		ldr	r3, .L156+8
 960 012e 0193     		str	r3, [sp, #4]
 961 0130 1A70     		strb	r2, [r3]
 962              	.L108:
 963 0132 954B     		ldr	r3, .L156+68
 964 0134 954A     		ldr	r2, .L156+72
 965 0136 1968     		ldr	r1, [r3]
 966 0138 1368     		ldr	r3, [r2]
 967 013a 9942     		cmp	r1, r3
 968 013c 00F04281 		beq	.L152
 969              	.L123:
ARM GAS  /tmp/ccsO36p4.s 			page 19


 970 0140 DFF838A2 		ldr	r10, .L156+56
 971 0144 5E46     		mov	r6, fp
 972 0146 8E4D     		ldr	r5, .L156+60
 973 0148 07AF     		add	r7, sp, #28
 974 014a 914C     		ldr	r4, .L156+76
 975 014c 0AF1980B 		add	fp, r10, #152
 976              	.L125:
 977 0150 2B46     		mov	r3, r5
 978 0152 96ED051A 		vldr.32	s2, [r6, #20]
 979 0156 DAF80400 		ldr	r0, [r10, #4]
 980 015a 4A46     		mov	r2, r9
 981 015c D3ED000A 		vldr.32	s1, [r3]
 982 0160 5346     		mov	r3, r10
 983 0162 6968     		ldr	r1, [r5, #4]
 984 0164 0AF1080A 		add	r10, r10, #8
 985 0168 93ED000A 		vldr.32	s0, [r3]
 986 016c 4346     		mov	r3, r8
 987 016e FFF7FEFF 		bl	interpolate.isra.0
 988 0172 D4ED026A 		vldr.32	s13, [r4, #8]
 989 0176 D4ED017A 		vldr.32	s15, [r4, #4]
 990 017a D345     		cmp	fp, r10
 991 017c 94ED007A 		vldr.32	s14, [r4]
 992 0180 05F10805 		add	r5, r5, #8
 993 0184 67EEA67A 		vmul.f32	s15, s15, s13
 994 0188 06F10C06 		add	r6, r6, #12
 995 018c 20EE070A 		vmul.f32	s0, s0, s14
 996 0190 04F10C04 		add	r4, r4, #12
 997 0194 77EE807A 		vadd.f32	s15, s15, s0
 998 0198 44ED017A 		vstr.32	s15, [r4, #-4]
 999 019c E7EC017A 		vstmia.32	r7!, {s15}
 1000 01a0 D6D1     		bne	.L125
 1001 01a2 DFED7C7A 		vldr.32	s15, .L156+80
 1002 01a6 9DED156A 		vldr.32	s12, [sp, #84]
 1003 01aa DDED136A 		vldr.32	s13, [sp, #76]
 1004 01ae 9DED147A 		vldr.32	s14, [sp, #80]
 1005 01b2 36EE276A 		vadd.f32	s12, s12, s15
 1006 01b6 9DED164A 		vldr.32	s8, [sp, #88]
 1007 01ba 76EEA76A 		vadd.f32	s13, s13, s15
 1008 01be 37EE277A 		vadd.f32	s14, s14, s15
 1009 01c2 DDED190A 		vldr.32	s1, [sp, #100]
 1010 01c6 BDEEC44A 		vcvt.s32.f32	s8, s8
 1011 01ca 9DED071A 		vldr.32	s2, [sp, #28]
 1012 01ce DDED181A 		vldr.32	s3, [sp, #96]
 1013 01d2 FDEEE00A 		vcvt.s32.f32	s1, s1
 1014 01d6 9DED172A 		vldr.32	s4, [sp, #92]
 1015 01da BDEEC11A 		vcvt.s32.f32	s2, s2
 1016 01de DDED0B4A 		vldr.32	s9, [sp, #44]
 1017 01e2 FDEEE11A 		vcvt.s32.f32	s3, s3
 1018 01e6 9DED0C5A 		vldr.32	s10, [sp, #48]
 1019 01ea BDEEC22A 		vcvt.s32.f32	s4, s4
 1020 01ee DDED0D5A 		vldr.32	s11, [sp, #52]
 1021 01f2 FDEEE44A 		vcvt.s32.f32	s9, s9
 1022 01f6 DDED082A 		vldr.32	s5, [sp, #32]
 1023 01fa BDEEC55A 		vcvt.s32.f32	s10, s10
 1024 01fe 9DED093A 		vldr.32	s6, [sp, #36]
 1025 0202 FDEEE55A 		vcvt.s32.f32	s11, s11
 1026 0206 DDED0A3A 		vldr.32	s7, [sp, #40]
ARM GAS  /tmp/ccsO36p4.s 			page 20


 1027 020a FDEEE22A 		vcvt.s32.f32	s5, s5
 1028 020e BDEEC33A 		vcvt.s32.f32	s6, s6
 1029 0212 5249     		ldr	r1, .L156+24
 1030 0214 FDEEE33A 		vcvt.s32.f32	s7, s7
 1031 0218 14EE104A 		vmov	r4, s8	@ int
 1032 021c BDEEC66A 		vcvt.s32.f32	s12, s12
 1033 0220 81ED055A 		vstr.32	s10, [r1, #20]	@ int
 1034 0224 FDEEE66A 		vcvt.s32.f32	s13, s13
 1035 0228 C1F89840 		str	r4, [r1, #152]
 1036 022c BDEEC77A 		vcvt.s32.f32	s14, s14
 1037 0230 4C60     		str	r4, [r1, #4]
 1038 0232 81ED256A 		vstr.32	s12, [r1, #148]	@ int
 1039 0236 C1ED206A 		vstr.32	s13, [r1, #128]	@ int
 1040 023a 81ED227A 		vstr.32	s14, [r1, #136]	@ int
 1041 023e 81ED1B5A 		vstr.32	s10, [r1, #108]	@ int
 1042 0242 554B     		ldr	r3, .L156+84
 1043 0244 C1ED160A 		vstr.32	s1, [r1, #88]	@ int
 1044 0248 81ED0E1A 		vstr.32	s2, [r1, #56]	@ int
 1045 024c C1ED121A 		vstr.32	s3, [r1, #72]	@ int
 1046 0250 81ED142A 		vstr.32	s4, [r1, #80]	@ int
 1047 0254 C1ED022A 		vstr.32	s5, [r1, #8]	@ int
 1048 0258 81ED043A 		vstr.32	s6, [r1, #16]	@ int
 1049 025c C1ED063A 		vstr.32	s7, [r1, #24]	@ int
 1050 0260 C1ED034A 		vstr.32	s9, [r1, #12]	@ int
 1051 0264 C1ED194A 		vstr.32	s9, [r1, #100]	@ int
 1052 0268 C1ED075A 		vstr.32	s11, [r1, #28]	@ int
 1053 026c C1ED1D5A 		vstr.32	s11, [r1, #116]	@ int
 1054 0270 DDED0F5A 		vldr.32	s11, [sp, #60]
 1055 0274 9DED106A 		vldr.32	s12, [sp, #64]
 1056 0278 DDED116A 		vldr.32	s13, [sp, #68]
 1057 027c 75EEA75A 		vadd.f32	s11, s11, s15
 1058 0280 9DED127A 		vldr.32	s14, [sp, #72]
 1059 0284 36EE276A 		vadd.f32	s12, s12, s15
 1060 0288 76EEA76A 		vadd.f32	s13, s13, s15
 1061 028c 9FED354A 		vldr.32	s8, .L156+32
 1062 0290 37EE277A 		vadd.f32	s14, s14, s15
 1063 0294 D3ED007A 		vldr.32	s15, [r3]
 1064 0298 404B     		ldr	r3, .L156+88
 1065 029a FDEEE55A 		vcvt.s32.f32	s11, s11
 1066 029e 67EE847A 		vmul.f32	s15, s15, s8
 1067 02a2 2B4C     		ldr	r4, .L156+12
 1068 02a4 BDEEC66A 		vcvt.s32.f32	s12, s12
 1069 02a8 2B48     		ldr	r0, .L156+20
 1070 02aa FDEEE66A 		vcvt.s32.f32	s13, s13
 1071 02ae C1ED185A 		vstr.32	s11, [r1, #96]	@ int
 1072 02b2 FCEEE77A 		vcvt.u32.f32	s15, s15
 1073 02b6 BDEEC77A 		vcvt.s32.f32	s14, s14
 1074 02ba 81ED1A6A 		vstr.32	s12, [r1, #104]	@ int
 1075 02be C1ED1C6A 		vstr.32	s13, [r1, #112]	@ int
 1076 02c2 CDED027A 		vstr.32	s15, [sp, #8]	@ int
 1077 02c6 D3ED007A 		vldr.32	s15, [r3]	@ int
 1078 02ca 9DF80830 		ldrb	r3, [sp, #8]	@ zero_extendqisi2
 1079 02ce F8EEE77A 		vcvt.f32.s32	s15, s15
 1080 02d2 81ED1E7A 		vstr.32	s14, [r1, #120]	@ int
 1081 02d6 7F2B     		cmp	r3, #127
 1082 02d8 28BF     		it	cs
 1083 02da 7F23     		movcs	r3, #127
ARM GAS  /tmp/ccsO36p4.s 			page 21


 1084 02dc C3F17F03 		rsb	r3, r3, #127
 1085 02e0 DBB2     		uxtb	r3, r3
 1086 02e2 04EB8303 		add	r3, r4, r3, lsl #2
 1087 02e6 93ED005A 		vldr.32	s10, [r3]
 1088 02ea 67EE857A 		vmul.f32	s15, s15, s10
 1089 02ee FDEEE77A 		vcvt.s32.f32	s15, s15
 1090 02f2 C1ED007A 		vstr.32	s15, [r1]	@ int
 1091 02f6 FFF7FEFF 		bl	initparwave
 1092 02fa 234A     		ldr	r2, .L156+68
 1093 02fc 1368     		ldr	r3, [r2]
 1094 02fe 0133     		adds	r3, r3, #1
 1095 0300 1360     		str	r3, [r2]
 1096 0302 009A     		ldr	r2, [sp]
 1097 0304 1378     		ldrb	r3, [r2]	@ zero_extendqisi2
 1098 0306 0133     		adds	r3, r3, #1
 1099 0308 1370     		strb	r3, [r2]
 1100 030a 0023     		movs	r3, #0
 1101 030c 0E4A     		ldr	r2, .L156+4
 1102 030e 1370     		strb	r3, [r2]
 1103 0310 88E6     		b	.L109
 1104              	.L147:
 1105 0312 1C49     		ldr	r1, .L156+64
 1106 0314 174A     		ldr	r2, .L156+48
 1107 0316 91F80090 		ldrb	r9, [r1]	@ zero_extendqisi2
 1108 031a 92F80080 		ldrb	r8, [r2]	@ zero_extendqisi2
 1109 031e 144A     		ldr	r2, .L156+44
 1110 0320 0198     		ldr	r0, [sp, #4]
 1111 0322 C145     		cmp	r9, r8
 1112 0324 D2F800B0 		ldr	fp, [r2]
 1113 0328 4FF00002 		mov	r2, #0
 1114 032c 0091     		str	r1, [sp]
 1115 032e 0270     		strb	r2, [r0]
 1116 0330 7FF6FFAE 		bls	.L108
 1117 0334 104A     		ldr	r2, .L156+52
 1118 0336 0449     		ldr	r1, .L156+4
 1119 0338 C2F800B0 		str	fp, [r2]
 1120 033c 0B70     		strb	r3, [r1]
 1121 033e FFF7FEFF 		bl	klatt_get_sample_single_sing
 1122 0342 6EE6     		b	.L150
 1123              	.L157:
 1124              		.align	2
 1125              	.L156:
 1126 0344 00000000 		.word	i
 1127 0348 00000000 		.word	nextelement
 1128 034c 00000000 		.word	newframe.15
 1129 0350 00000000 		.word	logpitch
 1130 0354 00000000 		.word	samplenumber
 1131 0358 00000000 		.word	klatt_global
 1132 035c 00000000 		.word	pars
 1133 0360 00000000 		.word	_sely
 1134 0364 00000343 		.word	1124270080
 1135 0368 00000000 		.word	top
 1136 036c 00000000 		.word	elm_single
 1137 0370 00000000 		.word	ce.19
 1138 0374 00000000 		.word	dur.18
 1139 0378 00000000 		.word	le
 1140 037c 00000000 		.word	startyy.17
ARM GAS  /tmp/ccsO36p4.s 			page 22


 1141 0380 00000000 		.word	end.16
 1142 0384 00000000 		.word	t
 1143 0388 00000000 		.word	tstress
 1144 038c 00000000 		.word	ntstress
 1145 0390 00000000 		.word	flt
 1146 0394 00000000 		.word	0
 1147 0398 00000000 		.word	_selx
 1148 039c 00000000 		.word	def_pars
 1149 03a0 00000000 		.word	Elements
 1150              	.L106:
 1151 03a4 2A46     		mov	r2, r5
 1152 03a6 0023     		movs	r3, #0
 1153 03a8 5946     		mov	r1, fp
 1154 03aa 5E48     		ldr	r0, .L158
 1155 03ac FFF7FEFF 		bl	set_trans.isra.0
 1156 03b0 B7E6     		b	.L107
 1157              	.L104:
 1158 03b2 1146     		mov	r1, r2
 1159 03b4 0123     		movs	r3, #1
 1160 03b6 5A46     		mov	r2, fp
 1161 03b8 5B48     		ldr	r0, .L158+4
 1162 03ba FFF7FEFF 		bl	set_trans.isra.0
 1163 03be A6E6     		b	.L105
 1164              	.L128:
 1165 03c0 5546     		mov	r5, r10
 1166 03c2 94E6     		b	.L103
 1167              	.L152:
 1168 03c4 2378     		ldrb	r3, [r4]	@ zero_extendqisi2
 1169 03c6 0024     		movs	r4, #0
 1170 03c8 5849     		ldr	r1, .L158+8
 1171 03ca C446     		mov	ip, r8
 1172 03cc 584D     		ldr	r5, .L158+12
 1173 03ce 062B     		cmp	r3, #6
 1174 03d0 0C60     		str	r4, [r1]
 1175 03d2 5849     		ldr	r1, .L158+16
 1176 03d4 C2F80080 		str	r8, [r2]
 1177 03d8 03C9     		ldm	r1, {r0, r1}
 1178 03da 85E80300 		stm	r5, {r0, r1}
 1179 03de 3FF6AFAE 		bhi	.L123
 1180 03e2 3DD0     		beq	.L129
 1181 03e4 544D     		ldr	r5, .L158+20
 1182 03e6 581C     		adds	r0, r3, #1
 1183 03e8 DFF854A1 		ldr	r10, .L158+28
 1184 03ec C0B2     		uxtb	r0, r0
 1185 03ee E95C     		ldrb	r1, [r5, r3]	@ zero_extendqisi2
 1186 03f0 0628     		cmp	r0, #6
 1187 03f2 C1EB4111 		rsb	r1, r1, r1, lsl #5
 1188 03f6 0AEBC101 		add	r1, r10, r1, lsl #3
 1189 03fa 00F08880 		beq	.L130
 1190 03fe 2E5C     		ldrb	r6, [r5, r0]	@ zero_extendqisi2
 1191 0400 981C     		adds	r0, r3, #2
 1192 0402 C0B2     		uxtb	r0, r0
 1193 0404 0628     		cmp	r0, #6
 1194 0406 00F08880 		beq	.L131
 1195 040a 0294     		str	r4, [sp, #8]
 1196 040c DC1C     		adds	r4, r3, #3
 1197 040e 0433     		adds	r3, r3, #4
ARM GAS  /tmp/ccsO36p4.s 			page 23


 1198 0410 C646     		mov	lr, r8
 1199 0412 E7B2     		uxtb	r7, r4
 1200 0414 0595     		str	r5, [sp, #20]
 1201 0416 DBB2     		uxtb	r3, r3
 1202 0418 2C18     		adds	r4, r5, r0
 1203 041a 0546     		mov	r5, r0
 1204 041c CDE90389 		strd	r8, r9, [sp, #12]
 1205 0420 B846     		mov	r8, r7
 1206 0422 9946     		mov	r9, r3
 1207              	.L113:
 1208 0424 431C     		adds	r3, r0, #1
 1209 0426 2778     		ldrb	r7, [r4]	@ zero_extendqisi2
 1210 0428 A4EB050C 		sub	ip, r4, r5
 1211 042c 0334     		adds	r4, r4, #3
 1212 042e DBB2     		uxtb	r3, r3
 1213 0430 002F     		cmp	r7, #0
 1214 0432 54D1     		bne	.L153
 1215 0434 0969     		ldr	r1, [r1, #16]
 1216 0436 C900     		lsls	r1, r1, #3
 1217 0438 59D4     		bmi	.L154
 1218 043a 0528     		cmp	r0, #5
 1219 043c B644     		add	lr, lr, r6
 1220 043e 3ED0     		beq	.L148
 1221 0440 1CF80810 		ldrb	r1, [ip, r8]	@ zero_extendqisi2
 1222 0444 0428     		cmp	r0, #4
 1223 0446 C1EB4111 		rsb	r1, r1, r1, lsl #5
 1224 044a 0AEBC101 		add	r1, r10, r1, lsl #3
 1225 044e 36D0     		beq	.L148
 1226 0450 0123     		movs	r3, #1
 1227 0452 0228     		cmp	r0, #2
 1228 0454 1CF80960 		ldrb	r6, [ip, r9]	@ zero_extendqisi2
 1229 0458 0293     		str	r3, [sp, #8]
 1230 045a 53D1     		bne	.L132
 1231 045c 0520     		movs	r0, #5
 1232 045e E1E7     		b	.L113
 1233              	.L129:
 1234 0460 F7EE007A 		vmov.f32	s15, #1.0e+0
 1235 0464 2646     		mov	r6, r4
 1236 0466 0327     		movs	r7, #3
 1237 0468 334D     		ldr	r5, .L158+20
 1238 046a DFF8D4A0 		ldr	r10, .L158+28
 1239              	.L119:
 1240 046e 3149     		ldr	r1, .L158+16
 1241 0470 0020     		movs	r0, #0
 1242 0472 CDF808B0 		str	fp, [sp, #8]
 1243 0476 BB46     		mov	fp, r7
 1244 0478 DFF8C4E0 		ldr	lr, .L158+28
 1245 047c C1ED007A 		vstr.32	s15, [r1]
 1246 0480 02E0     		b	.L122
 1247              	.L155:
 1248 0482 695C     		ldrb	r1, [r5, r1]	@ zero_extendqisi2
 1249 0484 5945     		cmp	r1, fp
 1250 0486 14D1     		bne	.L121
 1251              	.L122:
 1252 0488 E95C     		ldrb	r1, [r5, r3]	@ zero_extendqisi2
 1253 048a 052B     		cmp	r3, #5
 1254 048c 3044     		add	r0, r0, r6
ARM GAS  /tmp/ccsO36p4.s 			page 24


 1255 048e 03F10104 		add	r4, r3, #1
 1256 0492 C1EB4111 		rsb	r1, r1, r1, lsl #5
 1257 0496 7646     		mov	r6, lr
 1258 0498 02D8     		bhi	.L120
 1259 049a E3B2     		uxtb	r3, r4
 1260 049c 0AEBC106 		add	r6, r10, r1, lsl #3
 1261              	.L120:
 1262 04a0 3769     		ldr	r7, [r6, #16]
 1263 04a2 591C     		adds	r1, r3, #1
 1264 04a4 9C1C     		adds	r4, r3, #2
 1265 04a6 EE5C     		ldrb	r6, [r5, r3]	@ zero_extendqisi2
 1266 04a8 17F0805F 		tst	r7, #268435456
 1267 04ac C9B2     		uxtb	r1, r1
 1268 04ae E3B2     		uxtb	r3, r4
 1269 04b0 E7D1     		bne	.L155
 1270              	.L121:
 1271 04b2 0CEB5000 		add	r0, ip, r0, lsr #1
 1272 04b6 DDF808B0 		ldr	fp, [sp, #8]
 1273 04ba 1060     		str	r0, [r2]
 1274 04bc 40E6     		b	.L123
 1275              	.L148:
 1276 04be DDE90389 		ldrd	r8, r9, [sp, #12]
 1277 04c2 059D     		ldr	r5, [sp, #20]
 1278              	.L114:
 1279 04c4 3E46     		mov	r6, r7
 1280 04c6 0623     		movs	r3, #6
 1281 04c8 0327     		movs	r7, #3
 1282              	.L116:
 1283 04ca 07EE907A 		vmov	s15, r7	@ int
 1284 04ce B0EE087A 		vmov.f32	s14, #3.0e+0
 1285 04d2 F446     		mov	ip, lr
 1286 04d4 F8EEE76A 		vcvt.f32.s32	s13, s15
 1287 04d8 C6EE877A 		vdiv.f32	s15, s13, s14
 1288 04dc C7E7     		b	.L119
 1289              	.L153:
 1290 04de DDE90389 		ldrd	r8, r9, [sp, #12]
 1291 04e2 0299     		ldr	r1, [sp, #8]
 1292 04e4 059D     		ldr	r5, [sp, #20]
 1293 04e6 0029     		cmp	r1, #0
 1294 04e8 08BF     		it	eq
 1295 04ea C646     		moveq	lr, r8
 1296 04ec EDE7     		b	.L116
 1297              	.L154:
 1298 04ee DDE90389 		ldrd	r8, r9, [sp, #12]
 1299 04f2 0299     		ldr	r1, [sp, #8]
 1300 04f4 059D     		ldr	r5, [sp, #20]
 1301 04f6 0029     		cmp	r1, #0
 1302 04f8 14BF     		ite	ne
 1303 04fa F446     		movne	ip, lr
 1304 04fc C446     		moveq	ip, r8
 1305 04fe DFED0F7A 		vldr.32	s15, .L158+24
 1306 0502 B4E7     		b	.L119
 1307              	.L132:
 1308 0504 DDE90389 		ldrd	r8, r9, [sp, #12]
 1309 0508 059D     		ldr	r5, [sp, #20]
 1310 050a 3746     		mov	r7, r6
 1311 050c DAE7     		b	.L114
ARM GAS  /tmp/ccsO36p4.s 			page 25


 1312              	.L130:
 1313 050e F7EE007A 		vmov.f32	s15, #1.0e+0
 1314 0512 0346     		mov	r3, r0
 1315 0514 2646     		mov	r6, r4
 1316 0516 0327     		movs	r7, #3
 1317 0518 A9E7     		b	.L119
 1318              	.L131:
 1319 051a F7EE007A 		vmov.f32	s15, #1.0e+0
 1320 051e 0346     		mov	r3, r0
 1321 0520 0327     		movs	r7, #3
 1322 0522 A4E7     		b	.L119
 1323              	.L159:
 1324              		.align	2
 1325              	.L158:
 1326 0524 00000000 		.word	end.16
 1327 0528 00000000 		.word	startyy.17
 1328 052c 00000000 		.word	tstress
 1329 0530 00000000 		.word	stress_s
 1330 0534 00000000 		.word	stress_e
 1331 0538 00000000 		.word	elm_single
 1332 053c CDCCCC3D 		.word	1036831949
 1333 0540 00000000 		.word	Elements
 1334              		.size	klatt_get_sample_single_sing, .-klatt_get_sample_single_sing
 1335              		.section	.text.klatt_newsay,"ax",%progbits
 1336              		.align	1
 1337              		.p2align 2,,3
 1338              		.global	klatt_newsay
 1339              		.syntax unified
 1340              		.thumb
 1341              		.thumb_func
 1342              		.type	klatt_newsay, %function
 1343              	klatt_newsay:
 1344              		@ args = 0, pretend = 0, frame = 0
 1345              		@ frame_needed = 0, uses_anonymous_args = 0
 1346 0000 2549     		ldr	r1, .L164+8
 1347 0002 0022     		movs	r2, #0
 1348 0004 2548     		ldr	r0, .L164+12
 1349 0006 91ED007A 		vldr.32	s14, [r1]	@ int
 1350 000a 9FED216B 		vldr.64	d6, .L164
 1351 000e B8EEC77B 		vcvt.f64.s32	d7, s14
 1352 0012 38B5     		push	{r3, r4, r5, lr}
 1353 0014 27EE067B 		vmul.f64	d7, d7, d6
 1354 0018 214C     		ldr	r4, .L164+16
 1355 001a 0260     		str	r2, [r0]
 1356 001c 2280     		strh	r2, [r4]	@ movhi
 1357 001e A022     		movs	r2, #160
 1358 0020 204C     		ldr	r4, .L164+20
 1359 0022 2148     		ldr	r0, .L164+24
 1360 0024 214B     		ldr	r3, .L164+28
 1361 0026 B7EEC77B 		vcvt.f32.f64	s14, d7
 1362 002a 0460     		str	r4, [r0]
 1363 002c 2048     		ldr	r0, .L164+32
 1364 002e 214D     		ldr	r5, .L164+36
 1365 0030 80ED007A 		vstr.32	s14, [r0]
 1366 0034 1846     		mov	r0, r3
 1367 0036 FFF7FEFF 		bl	memcpy
 1368 003a D4ED057A 		vldr.32	s15, [r4, #20]
ARM GAS  /tmp/ccsO36p4.s 			page 26


 1369 003e 0346     		mov	r3, r0
 1370 0040 5A21     		movs	r1, #90
 1371 0042 FDEEE77A 		vcvt.s32.f32	s15, s15
 1372 0046 3C20     		movs	r0, #60
 1373 0048 2246     		mov	r2, r4
 1374 004a 9624     		movs	r4, #150
 1375 004c D860     		str	r0, [r3, #12]
 1376 004e 4FF07E5C 		mov	ip, #1065353216
 1377 0052 5866     		str	r0, [r3, #100]
 1378 0054 2820     		movs	r0, #40
 1379 0056 5961     		str	r1, [r3, #20]
 1380 0058 D966     		str	r1, [r3, #108]
 1381 005a DC61     		str	r4, [r3, #28]
 1382 005c 1649     		ldr	r1, .L164+40
 1383 005e 5C67     		str	r4, [r3, #116]
 1384 0060 C3ED107A 		vstr.32	s15, [r3, #64]	@ int
 1385 0064 154B     		ldr	r3, .L164+44
 1386 0066 6860     		str	r0, [r5, #4]
 1387 0068 4860     		str	r0, [r1, #4]
 1388 006a 03F1E404 		add	r4, r3, #228
 1389 006e 0020     		movs	r0, #0
 1390 0070 0860     		str	r0, [r1]	@ float
 1391              	.L161:
 1392 0072 C3F800C0 		str	ip, [r3]	@ float
 1393 0076 0C33     		adds	r3, r3, #12
 1394 0078 43F8080C 		str	r0, [r3, #-8]	@ float
 1395 007c 0C32     		adds	r2, r2, #12
 1396 007e 9168     		ldr	r1, [r2, #8]	@ float
 1397 0080 A342     		cmp	r3, r4
 1398 0082 43F8041C 		str	r1, [r3, #-4]	@ float
 1399 0086 F4D1     		bne	.L161
 1400 0088 0D4B     		ldr	r3, .L164+48
 1401 008a 0122     		movs	r2, #1
 1402 008c 1A70     		strb	r2, [r3]
 1403 008e 38BD     		pop	{r3, r4, r5, pc}
 1404              	.L165:
 1405              		.align	3
 1406              	.L164:
 1407 0090 9A999999 		.word	-1717986918
 1408 0094 9999F13F 		.word	1072798105
 1409 0098 00000000 		.word	def_pars
 1410 009c 00000000 		.word	i
 1411 00a0 00000000 		.word	samplenumber
 1412 00a4 00000000 		.word	Elements
 1413 00a8 00000000 		.word	le
 1414 00ac 00000000 		.word	pars
 1415 00b0 00000000 		.word	top
 1416 00b4 00000000 		.word	stress_s
 1417 00b8 00000000 		.word	stress_e
 1418 00bc 00000000 		.word	flt
 1419 00c0 00000000 		.word	nextelement
 1420              		.size	klatt_newsay, .-klatt_newsay
 1421              		.section	.text.klatt_get_sample,"ax",%progbits
 1422              		.align	1
 1423              		.p2align 2,,3
 1424              		.global	klatt_get_sample
 1425              		.syntax unified
ARM GAS  /tmp/ccsO36p4.s 			page 27


 1426              		.thumb
 1427              		.thumb_func
 1428              		.type	klatt_get_sample, %function
 1429              	klatt_get_sample:
 1430              		@ args = 0, pretend = 0, frame = 120
 1431              		@ frame_needed = 0, uses_anonymous_args = 0
 1432 0000 354B     		ldr	r3, .L220
 1433 0002 F3EE027A 		vmov.f32	s15, #1.8e+1
 1434 0006 354A     		ldr	r2, .L220+4
 1435 0008 D3ED006A 		vldr.32	s13, [r3]
 1436 000c 9FED346A 		vldr.32	s12, .L220+8
 1437 0010 66EEA76A 		vmul.f32	s13, s13, s15
 1438 0014 92ED007A 		vldr.32	s14, [r2]
 1439 0018 324B     		ldr	r3, .L220+12
 1440 001a 27EE067A 		vmul.f32	s14, s14, s12
 1441 001e DFED325A 		vldr.32	s11, .L220+16
 1442 0022 FCEEE66A 		vcvt.u32.f32	s13, s13
 1443 0026 D3ED007A 		vldr.32	s15, [r3]
 1444 002a B7EE006A 		vmov.f32	s12, #1.0e+0
 1445 002e 2F49     		ldr	r1, .L220+20
 1446 0030 BCEEC77A 		vcvt.u32.f32	s14, s14
 1447 0034 67EEA57A 		vmul.f32	s15, s15, s11
 1448 0038 2DE9F04F 		push	{r4, r5, r6, r7, r8, r9, r10, fp, lr}
 1449 003c 9FB0     		sub	sp, sp, #124
 1450 003e 77EE867A 		vadd.f32	s15, s15, s12
 1451 0042 2B4C     		ldr	r4, .L220+24
 1452 0044 CDED016A 		vstr.32	s13, [sp, #4]	@ int
 1453 0048 9DF80430 		ldrb	r3, [sp, #4]	@ zero_extendqisi2
 1454 004c FCEEE77A 		vcvt.u32.f32	s15, s15
 1455 0050 8DED027A 		vstr.32	s14, [sp, #8]	@ int
 1456 0054 0F2B     		cmp	r3, #15
 1457 0056 9DF80820 		ldrb	r2, [sp, #8]	@ zero_extendqisi2
 1458 005a 264D     		ldr	r5, .L220+28
 1459 005c 28BF     		it	cs
 1460 005e 0F23     		movcs	r3, #15
 1461 0060 3F2A     		cmp	r2, #63
 1462 0062 C3F10F03 		rsb	r3, r3, #15
 1463 0066 28BF     		it	cs
 1464 0068 3F22     		movcs	r2, #63
 1465 006a DBB2     		uxtb	r3, r3
 1466 006c 8A5C     		ldrb	r2, [r1, r2]	@ zero_extendqisi2
 1467 006e 03EB4303 		add	r3, r3, r3, lsl #1
 1468 0072 E254     		strb	r2, [r4, r3]
 1469 0074 2344     		add	r3, r3, r4
 1470 0076 17EE902A 		vmov	r2, s15	@ int
 1471 007a 5A70     		strb	r2, [r3, #1]
 1472 007c 2B68     		ldr	r3, [r5]
 1473 007e 1E4A     		ldr	r2, .L220+32
 1474 0080 302B     		cmp	r3, #48
 1475 0082 1278     		ldrb	r2, [r2]	@ zero_extendqisi2
 1476 0084 46D9     		bls	.L167
 1477 0086 012A     		cmp	r2, #1
 1478 0088 42D0     		beq	.L213
 1479              	.L168:
 1480 008a 1C4B     		ldr	r3, .L220+36
 1481 008c 0193     		str	r3, [sp, #4]
 1482 008e 1B78     		ldrb	r3, [r3]	@ zero_extendqisi2
ARM GAS  /tmp/ccsO36p4.s 			page 28


 1483 0090 012B     		cmp	r3, #1
 1484 0092 00F07C81 		beq	.L214
 1485              	.L175:
 1486 0096 1A4C     		ldr	r4, .L220+40
 1487 0098 1A4D     		ldr	r5, .L220+44
 1488 009a 2278     		ldrb	r2, [r4]	@ zero_extendqisi2
 1489 009c 1A49     		ldr	r1, .L220+48
 1490 009e 2846     		mov	r0, r5
 1491 00a0 FFF7FEFF 		bl	parwavesinglesample
 1492 00a4 2388     		ldrh	r3, [r4]
 1493 00a6 AA69     		ldr	r2, [r5, #24]
 1494 00a8 00B2     		sxth	r0, r0
 1495 00aa 0133     		adds	r3, r3, #1
 1496 00ac 1BB2     		sxth	r3, r3
 1497 00ae 9342     		cmp	r3, r2
 1498 00b0 2380     		strh	r3, [r4]	@ movhi
 1499 00b2 0DDB     		blt	.L193
 1500 00b4 154B     		ldr	r3, .L220+52
 1501 00b6 B6EE007A 		vmov.f32	s14, #5.0e-1
 1502 00ba 0122     		movs	r2, #1
 1503 00bc 0199     		ldr	r1, [sp, #4]
 1504 00be D3ED007A 		vldr.32	s15, [r3]
 1505 00c2 0A70     		strb	r2, [r1]
 1506 00c4 0022     		movs	r2, #0
 1507 00c6 77EEC77A 		vsub.f32	s15, s15, s14
 1508 00ca 2280     		strh	r2, [r4]	@ movhi
 1509 00cc C3ED007A 		vstr.32	s15, [r3]
 1510              	.L193:
 1511 00d0 1FB0     		add	sp, sp, #124
 1512              		@ sp needed
 1513 00d2 BDE8F08F 		pop	{r4, r5, r6, r7, r8, r9, r10, fp, pc}
 1514              	.L221:
 1515 00d6 00BF     		.align	2
 1516              	.L220:
 1517 00d8 00000000 		.word	_selx
 1518 00dc 00000000 		.word	_selz
 1519 00e0 00008642 		.word	1116078080
 1520 00e4 00000000 		.word	_sely
 1521 00e8 00000042 		.word	1107296256
 1522 00ec 00000000 		.word	phoneme_prob_remap
 1523 00f0 00000000 		.word	test_elm
 1524 00f4 00000000 		.word	i
 1525 00f8 00000000 		.word	nextelement
 1526 00fc 00000000 		.word	newframe.10
 1527 0100 00000000 		.word	samplenumber
 1528 0104 00000000 		.word	klatt_global
 1529 0108 00000000 		.word	pars
 1530 010c 00000000 		.word	top
 1531              	.L213:
 1532 0110 FFF7FEFF 		bl	klatt_newsay
 1533              	.L167:
 1534 0114 B14B     		ldr	r3, .L222
 1535 0116 1B78     		ldrb	r3, [r3]	@ zero_extendqisi2
 1536 0118 012B     		cmp	r3, #1
 1537 011a B6D1     		bne	.L168
 1538 011c 2B68     		ldr	r3, [r5]
 1539 011e B049     		ldr	r1, .L222+4
ARM GAS  /tmp/ccsO36p4.s 			page 29


 1540 0120 E25C     		ldrb	r2, [r4, r3]	@ zero_extendqisi2
 1541 0122 C85C     		ldrb	r0, [r1, r3]	@ zero_extendqisi2
 1542 0124 0333     		adds	r3, r3, #3
 1543 0126 C2EB4211 		rsb	r1, r2, r2, lsl #5
 1544 012a DFF8F4A2 		ldr	r10, .L222+68
 1545 012e 0290     		str	r0, [sp, #8]
 1546 0130 0AEBC107 		add	r7, r10, r1, lsl #3
 1547 0134 AB49     		ldr	r1, .L222+8
 1548 0136 2B60     		str	r3, [r5]
 1549 0138 0F60     		str	r7, [r1]
 1550 013a AB49     		ldr	r1, .L222+12
 1551 013c 0870     		strb	r0, [r1]
 1552 013e 0028     		cmp	r0, #0
 1553 0140 A3D0     		beq	.L168
 1554 0142 2F2B     		cmp	r3, #47
 1555 0144 00F24881 		bhi	.L194
 1556 0148 E65C     		ldrb	r6, [r4, r3]	@ zero_extendqisi2
 1557 014a C6EB4616 		rsb	r6, r6, r6, lsl #5
 1558 014e 0AEBC606 		add	r6, r10, r6, lsl #3
 1559              	.L169:
 1560 0152 C2EB4212 		rsb	r2, r2, r2, lsl #5
 1561 0156 A54B     		ldr	r3, .L222+16
 1562 0158 0AEBC202 		add	r2, r10, r2, lsl #3
 1563 015c 92F80490 		ldrb	r9, [r2, #4]	@ zero_extendqisi2
 1564 0160 1A68     		ldr	r2, [r3]
 1565 0162 1379     		ldrb	r3, [r2, #4]	@ zero_extendqisi2
 1566 0164 4B45     		cmp	r3, r9
 1567 0166 80F03081 		bcs	.L170
 1568 016a 0023     		movs	r3, #0
 1569 016c 3946     		mov	r1, r7
 1570 016e A048     		ldr	r0, .L222+20
 1571 0170 FFF7FEFF 		bl	set_trans.isra.0
 1572              	.L171:
 1573 0174 3379     		ldrb	r3, [r6, #4]	@ zero_extendqisi2
 1574 0176 4B45     		cmp	r3, r9
 1575 0178 40F22081 		bls	.L172
 1576 017c 3146     		mov	r1, r6
 1577 017e 0123     		movs	r3, #1
 1578 0180 3A46     		mov	r2, r7
 1579 0182 9C48     		ldr	r0, .L222+24
 1580 0184 FFF7FEFF 		bl	set_trans.isra.0
 1581              	.L173:
 1582 0188 9B4B     		ldr	r3, .L222+28
 1583 018a 4FF00009 		mov	r9, #0
 1584 018e 0493     		str	r3, [sp, #16]
 1585 0190 83F80090 		strb	r9, [r3]
 1586 0194 994B     		ldr	r3, .L222+32
 1587 0196 0193     		str	r3, [sp, #4]
 1588 0198 83F80090 		strb	r9, [r3]
 1589              	.L174:
 1590 019c 984B     		ldr	r3, .L222+36
 1591 019e DFF884E2 		ldr	lr, .L222+72
 1592 01a2 93ED005A 		vldr.32	s10, [r3]
 1593 01a6 974B     		ldr	r3, .L222+40
 1594 01a8 DFED973A 		vldr.32	s7, .L222+44
 1595 01ac 1A68     		ldr	r2, [r3]
 1596 01ae DEF80030 		ldr	r3, [lr]
ARM GAS  /tmp/ccsO36p4.s 			page 30


 1597 01b2 65EE233A 		vmul.f32	s7, s10, s7
 1598 01b6 9A42     		cmp	r2, r3
 1599 01b8 0393     		str	r3, [sp, #12]
 1600 01ba 00F03781 		beq	.L215
 1601 01be 934B     		ldr	r3, .L222+48
 1602 01c0 DFF86482 		ldr	r8, .L222+76
 1603 01c4 93ED004A 		vldr.32	s8, [r3]
 1604 01c8 0593     		str	r3, [sp, #20]
 1605              	.L179:
 1606 01ca DFF824A2 		ldr	r10, .L222+20
 1607 01ce 3E46     		mov	r6, r7
 1608 01d0 884D     		ldr	r5, .L222+24
 1609 01d2 0BAF     		add	r7, sp, #44
 1610 01d4 8E4C     		ldr	r4, .L222+52
 1611 01d6 0AF1980B 		add	fp, r10, #152
 1612 01da CDE90628 		strd	r2, r8, [sp, #24]
 1613 01de DDF80880 		ldr	r8, [sp, #8]
 1614              	.L192:
 1615 01e2 2B46     		mov	r3, r5
 1616 01e4 96ED051A 		vldr.32	s2, [r6, #20]
 1617 01e8 DAF80400 		ldr	r0, [r10, #4]
 1618 01ec 4A46     		mov	r2, r9
 1619 01ee D3ED000A 		vldr.32	s1, [r3]
 1620 01f2 5346     		mov	r3, r10
 1621 01f4 6968     		ldr	r1, [r5, #4]
 1622 01f6 0AF1080A 		add	r10, r10, #8
 1623 01fa 93ED000A 		vldr.32	s0, [r3]
 1624 01fe 4346     		mov	r3, r8
 1625 0200 FFF7FEFF 		bl	interpolate.isra.0
 1626 0204 D4ED026A 		vldr.32	s13, [r4, #8]
 1627 0208 D4ED017A 		vldr.32	s15, [r4, #4]
 1628 020c DA45     		cmp	r10, fp
 1629 020e 94ED007A 		vldr.32	s14, [r4]
 1630 0212 05F10805 		add	r5, r5, #8
 1631 0216 67EEA67A 		vmul.f32	s15, s15, s13
 1632 021a 06F10C06 		add	r6, r6, #12
 1633 021e 20EE070A 		vmul.f32	s0, s0, s14
 1634 0222 04F10C04 		add	r4, r4, #12
 1635 0226 77EE807A 		vadd.f32	s15, s15, s0
 1636 022a 44ED017A 		vstr.32	s15, [r4, #-4]
 1637 022e E7EC017A 		vstmia.32	r7!, {s15}
 1638 0232 D6D1     		bne	.L192
 1639 0234 DFED774A 		vldr.32	s9, .L222+56
 1640 0238 35EE635A 		vsub.f32	s10, s10, s7
 1641 023c 0599     		ldr	r1, [sp, #20]
 1642 023e F0EE440A 		vmov.f32	s1, s8
 1643 0242 039B     		ldr	r3, [sp, #12]
 1644 0244 B0EE641A 		vmov.f32	s2, s9
 1645 0248 4968     		ldr	r1, [r1, #4]
 1646 024a DDE90628 		ldrd	r2, r8, [sp, #24]
 1647 024e D8F80400 		ldr	r0, [r8, #4]
 1648 0252 98ED000A 		vldr.32	s0, [r8]
 1649 0256 FFF7FEFF 		bl	interpolate.isra.0
 1650 025a 25EE005A 		vmul.f32	s10, s10, s0
 1651 025e DDED196A 		vldr.32	s13, [sp, #100]
 1652 0262 9DED177A 		vldr.32	s14, [sp, #92]
 1653 0266 35EE235A 		vadd.f32	s10, s10, s7
ARM GAS  /tmp/ccsO36p4.s 			page 31


 1654 026a DDED187A 		vldr.32	s15, [sp, #96]
 1655 026e 76EEA46A 		vadd.f32	s13, s13, s9
 1656 0272 6949     		ldr	r1, .L222+60
 1657 0274 37EE247A 		vadd.f32	s14, s14, s9
 1658 0278 9DED1A4A 		vldr.32	s8, [sp, #104]
 1659 027c 77EEA47A 		vadd.f32	s15, s15, s9
 1660 0280 9DED1D0A 		vldr.32	s0, [sp, #116]
 1661 0284 BDEEC55A 		vcvt.s32.f32	s10, s10
 1662 0288 DDED0B0A 		vldr.32	s1, [sp, #44]
 1663 028c DDED0F3A 		vldr.32	s7, [sp, #60]
 1664 0290 BDEEC00A 		vcvt.s32.f32	s0, s0
 1665 0294 DDED105A 		vldr.32	s11, [sp, #64]
 1666 0298 FDEEE00A 		vcvt.s32.f32	s1, s1
 1667 029c 9DED116A 		vldr.32	s12, [sp, #68]
 1668 02a0 FDEEE33A 		vcvt.s32.f32	s7, s7
 1669 02a4 81ED005A 		vstr.32	s10, [r1]	@ int
 1670 02a8 FDEEE55A 		vcvt.s32.f32	s11, s11
 1671 02ac BDEEC45A 		vcvt.s32.f32	s10, s8
 1672 02b0 81ED160A 		vstr.32	s0, [r1, #88]	@ int
 1673 02b4 BDEEC66A 		vcvt.s32.f32	s12, s12
 1674 02b8 C1ED033A 		vstr.32	s7, [r1, #12]	@ int
 1675 02bc FDEEE66A 		vcvt.s32.f32	s13, s13
 1676 02c0 C1ED193A 		vstr.32	s7, [r1, #100]	@ int
 1677 02c4 BDEEC77A 		vcvt.s32.f32	s14, s14
 1678 02c8 81ED265A 		vstr.32	s10, [r1, #152]	@ int
 1679 02cc FDEEE77A 		vcvt.s32.f32	s15, s15
 1680 02d0 81ED076A 		vstr.32	s12, [r1, #28]	@ int
 1681 02d4 81ED1D6A 		vstr.32	s12, [r1, #116]	@ int
 1682 02d8 81ED015A 		vstr.32	s10, [r1, #4]	@ int
 1683 02dc C1ED055A 		vstr.32	s11, [r1, #20]	@ int
 1684 02e0 C1ED1B5A 		vstr.32	s11, [r1, #108]	@ int
 1685 02e4 9DED1C1A 		vldr.32	s2, [sp, #112]
 1686 02e8 DDED1B1A 		vldr.32	s3, [sp, #108]
 1687 02ec 9DED0C2A 		vldr.32	s4, [sp, #48]
 1688 02f0 BDEEC11A 		vcvt.s32.f32	s2, s2
 1689 02f4 DDED0D2A 		vldr.32	s5, [sp, #52]
 1690 02f8 FDEEE11A 		vcvt.s32.f32	s3, s3
 1691 02fc 9DED0E3A 		vldr.32	s6, [sp, #56]
 1692 0300 BDEEC22A 		vcvt.s32.f32	s4, s4
 1693 0304 C1ED0E0A 		vstr.32	s1, [r1, #56]	@ int
 1694 0308 FDEEE22A 		vcvt.s32.f32	s5, s5
 1695 030c C1ED256A 		vstr.32	s13, [r1, #148]	@ int
 1696 0310 BDEEC33A 		vcvt.s32.f32	s6, s6
 1697 0314 81ED207A 		vstr.32	s14, [r1, #128]	@ int
 1698 0318 C1ED227A 		vstr.32	s15, [r1, #136]	@ int
 1699 031c 9DED136A 		vldr.32	s12, [sp, #76]
 1700 0320 DDED146A 		vldr.32	s13, [sp, #80]
 1701 0324 9DED157A 		vldr.32	s14, [sp, #84]
 1702 0328 36EE246A 		vadd.f32	s12, s12, s9
 1703 032c DDED167A 		vldr.32	s15, [sp, #88]
 1704 0330 76EEA46A 		vadd.f32	s13, s13, s9
 1705 0334 37EE247A 		vadd.f32	s14, s14, s9
 1706 0338 3848     		ldr	r0, .L222+64
 1707 033a 77EEA47A 		vadd.f32	s15, s15, s9
 1708 033e 81ED121A 		vstr.32	s2, [r1, #72]	@ int
 1709 0342 BDEEC66A 		vcvt.s32.f32	s12, s12
 1710 0346 C1ED141A 		vstr.32	s3, [r1, #80]	@ int
ARM GAS  /tmp/ccsO36p4.s 			page 32


 1711 034a FDEEE66A 		vcvt.s32.f32	s13, s13
 1712 034e 81ED022A 		vstr.32	s4, [r1, #8]	@ int
 1713 0352 BDEEC77A 		vcvt.s32.f32	s14, s14
 1714 0356 C1ED042A 		vstr.32	s5, [r1, #16]	@ int
 1715 035a FDEEE77A 		vcvt.s32.f32	s15, s15
 1716 035e 81ED063A 		vstr.32	s6, [r1, #24]	@ int
 1717 0362 81ED186A 		vstr.32	s12, [r1, #96]	@ int
 1718 0366 C1ED1A6A 		vstr.32	s13, [r1, #104]	@ int
 1719 036a 81ED1C7A 		vstr.32	s14, [r1, #112]	@ int
 1720 036e C1ED1E7A 		vstr.32	s15, [r1, #120]	@ int
 1721 0372 FFF7FEFF 		bl	initparwave
 1722 0376 0023     		movs	r3, #0
 1723 0378 184A     		ldr	r2, .L222
 1724 037a 2249     		ldr	r1, .L222+40
 1725 037c 0498     		ldr	r0, [sp, #16]
 1726 037e 1370     		strb	r3, [r2]
 1727 0380 0A68     		ldr	r2, [r1]
 1728 0382 0378     		ldrb	r3, [r0]	@ zero_extendqisi2
 1729 0384 0132     		adds	r2, r2, #1
 1730 0386 0133     		adds	r3, r3, #1
 1731 0388 0A60     		str	r2, [r1]
 1732 038a 0370     		strb	r3, [r0]
 1733 038c 83E6     		b	.L175
 1734              	.L214:
 1735 038e 1A49     		ldr	r1, .L222+28
 1736 0390 154A     		ldr	r2, .L222+12
 1737 0392 91F80090 		ldrb	r9, [r1]	@ zero_extendqisi2
 1738 0396 1078     		ldrb	r0, [r2]	@ zero_extendqisi2
 1739 0398 124A     		ldr	r2, .L222+8
 1740 039a 184E     		ldr	r6, .L222+32
 1741 039c 8145     		cmp	r9, r0
 1742 039e 1768     		ldr	r7, [r2]
 1743 03a0 4FF00002 		mov	r2, #0
 1744 03a4 0491     		str	r1, [sp, #16]
 1745 03a6 0290     		str	r0, [sp, #8]
 1746 03a8 3270     		strb	r2, [r6]
 1747 03aa 7FF6F7AE 		bls	.L174
 1748 03ae 0F4A     		ldr	r2, .L222+16
 1749 03b0 0A49     		ldr	r1, .L222
 1750 03b2 1760     		str	r7, [r2]
 1751 03b4 0B70     		strb	r3, [r1]
 1752 03b6 FFF7FEFF 		bl	klatt_get_sample
 1753 03ba 6CE6     		b	.L175
 1754              	.L172:
 1755 03bc 3246     		mov	r2, r6
 1756 03be 0023     		movs	r3, #0
 1757 03c0 3946     		mov	r1, r7
 1758 03c2 0C48     		ldr	r0, .L222+24
 1759 03c4 FFF7FEFF 		bl	set_trans.isra.0
 1760 03c8 DEE6     		b	.L173
 1761              	.L170:
 1762 03ca 1146     		mov	r1, r2
 1763 03cc 0123     		movs	r3, #1
 1764 03ce 3A46     		mov	r2, r7
 1765 03d0 0748     		ldr	r0, .L222+20
 1766 03d2 FFF7FEFF 		bl	set_trans.isra.0
 1767 03d6 CDE6     		b	.L171
ARM GAS  /tmp/ccsO36p4.s 			page 33


 1768              	.L194:
 1769 03d8 5646     		mov	r6, r10
 1770 03da BAE6     		b	.L169
 1771              	.L223:
 1772              		.align	2
 1773              	.L222:
 1774 03dc 00000000 		.word	nextelement
 1775 03e0 01000000 		.word	test_elm+1
 1776 03e4 00000000 		.word	ce.14
 1777 03e8 00000000 		.word	dur.13
 1778 03ec 00000000 		.word	le
 1779 03f0 00000000 		.word	startyy.12
 1780 03f4 00000000 		.word	end.11
 1781 03f8 00000000 		.word	t
 1782 03fc 00000000 		.word	newframe.10
 1783 0400 00000000 		.word	top
 1784 0404 00000000 		.word	tstress
 1785 0408 CDCC4C3F 		.word	1061997773
 1786 040c 00000000 		.word	stress_e
 1787 0410 00000000 		.word	flt
 1788 0414 00000000 		.word	0
 1789 0418 00000000 		.word	pars
 1790 041c 00000000 		.word	klatt_global
 1791 0420 00000000 		.word	Elements
 1792 0424 00000000 		.word	ntstress
 1793 0428 00000000 		.word	stress_s
 1794              	.L215:
 1795 042c 6149     		ldr	r1, .L224
 1796 042e 0026     		movs	r6, #0
 1797 0430 6148     		ldr	r0, .L224+4
 1798 0432 2B78     		ldrb	r3, [r5]	@ zero_extendqisi2
 1799 0434 029A     		ldr	r2, [sp, #8]
 1800 0436 DFF88881 		ldr	r8, .L224+12
 1801 043a 302B     		cmp	r3, #48
 1802 043c 0591     		str	r1, [sp, #20]
 1803 043e 0660     		str	r6, [r0]
 1804 0440 CEF80020 		str	r2, [lr]
 1805 0444 0392     		str	r2, [sp, #12]
 1806 0446 03C9     		ldm	r1, {r0, r1}
 1807 0448 88E80300 		stm	r8, {r0, r1}
 1808 044c 00F2A280 		bhi	.L216
 1809 0450 54D0     		beq	.L195
 1810 0452 5A1C     		adds	r2, r3, #1
 1811 0454 E15C     		ldrb	r1, [r4, r3]	@ zero_extendqisi2
 1812 0456 DFF86CA1 		ldr	r10, .L224+16
 1813 045a D2B2     		uxtb	r2, r2
 1814 045c C1EB4111 		rsb	r1, r1, r1, lsl #5
 1815 0460 302A     		cmp	r2, #48
 1816 0462 0AEBC101 		add	r1, r10, r1, lsl #3
 1817 0466 00F09A80 		beq	.L196
 1818 046a A55C     		ldrb	r5, [r4, r2]	@ zero_extendqisi2
 1819 046c 9A1C     		adds	r2, r3, #2
 1820 046e D2B2     		uxtb	r2, r2
 1821 0470 302A     		cmp	r2, #48
 1822 0472 00F09A80 		beq	.L197
 1823 0476 D81C     		adds	r0, r3, #3
 1824 0478 0396     		str	r6, [sp, #12]
ARM GAS  /tmp/ccsO36p4.s 			page 34


 1825 047a 0433     		adds	r3, r3, #4
 1826 047c CDF82480 		str	r8, [sp, #36]
 1827 0480 C6B2     		uxtb	r6, r0
 1828 0482 9346     		mov	fp, r2
 1829 0484 DBB2     		uxtb	r3, r3
 1830 0486 A018     		adds	r0, r4, r2
 1831 0488 DDF808C0 		ldr	ip, [sp, #8]
 1832 048c B046     		mov	r8, r6
 1833 048e 0693     		str	r3, [sp, #24]
 1834 0490 CDE90779 		strd	r7, r9, [sp, #28]
 1835              	.L181:
 1836 0494 531C     		adds	r3, r2, #1
 1837 0496 0678     		ldrb	r6, [r0]	@ zero_extendqisi2
 1838 0498 A0EB0B07 		sub	r7, r0, fp
 1839 049c 02F10309 		add	r9, r2, #3
 1840 04a0 DBB2     		uxtb	r3, r3
 1841 04a2 0330     		adds	r0, r0, #3
 1842 04a4 002E     		cmp	r6, #0
 1843 04a6 5DD1     		bne	.L217
 1844 04a8 0969     		ldr	r1, [r1, #16]
 1845 04aa C900     		lsls	r1, r1, #3
 1846 04ac 64D4     		bmi	.L218
 1847 04ae 2F2A     		cmp	r2, #47
 1848 04b0 AC44     		add	ip, ip, r5
 1849 04b2 52D0     		beq	.L211
 1850 04b4 17F80810 		ldrb	r1, [r7, r8]	@ zero_extendqisi2
 1851 04b8 2E2A     		cmp	r2, #46
 1852 04ba 5FFA89F2 		uxtb	r2, r9
 1853 04be C1EB4111 		rsb	r1, r1, r1, lsl #5
 1854 04c2 0AEBC101 		add	r1, r10, r1, lsl #3
 1855 04c6 48D0     		beq	.L211
 1856 04c8 069B     		ldr	r3, [sp, #24]
 1857 04ca 302A     		cmp	r2, #48
 1858 04cc FD5C     		ldrb	r5, [r7, r3]	@ zero_extendqisi2
 1859 04ce 4FF00103 		mov	r3, #1
 1860 04d2 0393     		str	r3, [sp, #12]
 1861 04d4 DED1     		bne	.L181
 1862 04d6 DDE90779 		ldrd	r7, r9, [sp, #28]
 1863 04da DDF82480 		ldr	r8, [sp, #36]
 1864 04de 2E46     		mov	r6, r5
 1865              	.L182:
 1866 04e0 3546     		mov	r5, r6
 1867 04e2 3023     		movs	r3, #48
 1868 04e4 0326     		movs	r6, #3
 1869              	.L184:
 1870 04e6 07EE906A 		vmov	s15, r6	@ int
 1871 04ea CDF80CC0 		str	ip, [sp, #12]
 1872 04ee B8EEE77A 		vcvt.f32.s32	s14, s15
 1873 04f2 F0EE087A 		vmov.f32	s15, #3.0e+0
 1874 04f6 87EE274A 		vdiv.f32	s8, s14, s15
 1875 04fa 05E0     		b	.L187
 1876              	.L195:
 1877 04fc B7EE004A 		vmov.f32	s8, #1.0e+0
 1878 0500 3546     		mov	r5, r6
 1879 0502 DFF8C0A0 		ldr	r10, .L224+16
 1880 0506 0326     		movs	r6, #3
 1881              	.L187:
ARM GAS  /tmp/ccsO36p4.s 			page 35


 1882 0508 059A     		ldr	r2, [sp, #20]
 1883 050a 0021     		movs	r1, #0
 1884 050c DFF8B4C0 		ldr	ip, .L224+16
 1885 0510 82ED004A 		vstr.32	s8, [r2]
 1886 0514 02E0     		b	.L190
 1887              	.L219:
 1888 0516 A25C     		ldrb	r2, [r4, r2]	@ zero_extendqisi2
 1889 0518 B242     		cmp	r2, r6
 1890 051a 16D1     		bne	.L189
 1891              	.L190:
 1892 051c E25C     		ldrb	r2, [r4, r3]	@ zero_extendqisi2
 1893 051e 2F2B     		cmp	r3, #47
 1894 0520 2944     		add	r1, r1, r5
 1895 0522 6046     		mov	r0, ip
 1896 0524 03F10105 		add	r5, r3, #1
 1897 0528 C2EB4212 		rsb	r2, r2, r2, lsl #5
 1898 052c 02D8     		bhi	.L188
 1899 052e EBB2     		uxtb	r3, r5
 1900 0530 0AEBC200 		add	r0, r10, r2, lsl #3
 1901              	.L188:
 1902 0534 0069     		ldr	r0, [r0, #16]
 1903 0536 5A1C     		adds	r2, r3, #1
 1904 0538 03F1020B 		add	fp, r3, #2
 1905 053c E55C     		ldrb	r5, [r4, r3]	@ zero_extendqisi2
 1906 053e 10F0805F 		tst	r0, #268435456
 1907 0542 D2B2     		uxtb	r2, r2
 1908 0544 5FFA8BF3 		uxtb	r3, fp
 1909 0548 E5D1     		bne	.L219
 1910              	.L189:
 1911 054a 039B     		ldr	r3, [sp, #12]
 1912 054c 0022     		movs	r2, #0
 1913 054e 03EB5103 		add	r3, r3, r1, lsr #1
 1914 0552 0393     		str	r3, [sp, #12]
 1915 0554 CEF80030 		str	r3, [lr]
 1916 0558 37E6     		b	.L179
 1917              	.L211:
 1918 055a DDE90779 		ldrd	r7, r9, [sp, #28]
 1919 055e DDF82480 		ldr	r8, [sp, #36]
 1920 0562 BDE7     		b	.L182
 1921              	.L217:
 1922 0564 DDE90221 		ldrd	r2, r1, [sp, #8]
 1923 0568 DDE90779 		ldrd	r7, r9, [sp, #28]
 1924 056c DDF82480 		ldr	r8, [sp, #36]
 1925 0570 0029     		cmp	r1, #0
 1926 0572 08BF     		it	eq
 1927 0574 9446     		moveq	ip, r2
 1928 0576 B6E7     		b	.L184
 1929              	.L218:
 1930 0578 DDE90221 		ldrd	r2, r1, [sp, #8]
 1931 057c DDE90779 		ldrd	r7, r9, [sp, #28]
 1932 0580 0029     		cmp	r1, #0
 1933 0582 08BF     		it	eq
 1934 0584 9446     		moveq	ip, r2
 1935 0586 DDF82480 		ldr	r8, [sp, #36]
 1936 058a 9FED0C4A 		vldr.32	s8, .L224+8
 1937 058e CDF80CC0 		str	ip, [sp, #12]
 1938 0592 B9E7     		b	.L187
ARM GAS  /tmp/ccsO36p4.s 			page 36


 1939              	.L216:
 1940 0594 074B     		ldr	r3, .L224
 1941 0596 3246     		mov	r2, r6
 1942 0598 93ED004A 		vldr.32	s8, [r3]
 1943 059c 15E6     		b	.L179
 1944              	.L196:
 1945 059e 3546     		mov	r5, r6
 1946 05a0 B7EE004A 		vmov.f32	s8, #1.0e+0
 1947 05a4 1346     		mov	r3, r2
 1948 05a6 0326     		movs	r6, #3
 1949 05a8 AEE7     		b	.L187
 1950              	.L197:
 1951 05aa B7EE004A 		vmov.f32	s8, #1.0e+0
 1952 05ae 1346     		mov	r3, r2
 1953 05b0 0326     		movs	r6, #3
 1954 05b2 A9E7     		b	.L187
 1955              	.L225:
 1956              		.align	2
 1957              	.L224:
 1958 05b4 00000000 		.word	stress_e
 1959 05b8 00000000 		.word	tstress
 1960 05bc CDCCCC3D 		.word	1036831949
 1961 05c0 00000000 		.word	stress_s
 1962 05c4 00000000 		.word	Elements
 1963              		.size	klatt_get_sample, .-klatt_get_sample
 1964              		.section	.text.klatt_newsay_vocab,"ax",%progbits
 1965              		.align	1
 1966              		.p2align 2,,3
 1967              		.global	klatt_newsay_vocab
 1968              		.syntax unified
 1969              		.thumb
 1970              		.thumb_func
 1971              		.type	klatt_newsay_vocab, %function
 1972              	klatt_newsay_vocab:
 1973              		@ args = 0, pretend = 0, frame = 8
 1974              		@ frame_needed = 0, uses_anonymous_args = 0
 1975 0000 354B     		ldr	r3, .L230+8
 1976 0002 9FED366A 		vldr.32	s12, .L230+12
 1977 0006 D3ED006A 		vldr.32	s13, [r3]
 1978 000a 0023     		movs	r3, #0
 1979 000c 3449     		ldr	r1, .L230+16
 1980 000e 66EE866A 		vmul.f32	s13, s13, s12
 1981 0012 3448     		ldr	r0, .L230+20
 1982 0014 D1ED007A 		vldr.32	s15, [r1]	@ int
 1983 0018 334A     		ldr	r2, .L230+24
 1984 001a FCEEE66A 		vcvt.u32.f32	s13, s13
 1985 001e B8EEE77B 		vcvt.f64.s32	d7, s15
 1986 0022 30B5     		push	{r4, r5, lr}
 1987 0024 314C     		ldr	r4, .L230+28
 1988 0026 83B0     		sub	sp, sp, #12
 1989 0028 0360     		str	r3, [r0]
 1990 002a 2380     		strh	r3, [r4]	@ movhi
 1991 002c CDED016A 		vstr.32	s13, [sp, #4]	@ int
 1992 0030 9DF80430 		ldrb	r3, [sp, #4]	@ zero_extendqisi2
 1993 0034 2E4C     		ldr	r4, .L230+32
 1994 0036 7F2B     		cmp	r3, #127
 1995 0038 2E4D     		ldr	r5, .L230+36
ARM GAS  /tmp/ccsO36p4.s 			page 37


 1996 003a 2F48     		ldr	r0, .L230+40
 1997 003c 28BF     		it	cs
 1998 003e 7F23     		movcs	r3, #127
 1999 0040 2C60     		str	r4, [r5]
 2000 0042 9FED235B 		vldr.64	d5, .L230
 2001 0046 C3F17F03 		rsb	r3, r3, #127
 2002 004a 27EE057B 		vmul.f64	d7, d7, d5
 2003 004e DBB2     		uxtb	r3, r3
 2004 0050 52F82320 		ldr	r2, [r2, r3, lsl #2]
 2005 0054 294B     		ldr	r3, .L230+44
 2006 0056 12F8015B 		ldrb	r5, [r2], #1	@ zero_extendqisi2
 2007 005a B7EEC77B 		vcvt.f32.f64	s14, d7
 2008 005e 80ED007A 		vstr.32	s14, [r0]
 2009 0062 2748     		ldr	r0, .L230+48
 2010 0064 0260     		str	r2, [r0]
 2011 0066 A022     		movs	r2, #160
 2012 0068 2648     		ldr	r0, .L230+52
 2013 006a 0560     		str	r5, [r0]
 2014 006c 1846     		mov	r0, r3
 2015 006e FFF7FEFF 		bl	memcpy
 2016 0072 D4ED057A 		vldr.32	s15, [r4, #20]
 2017 0076 0346     		mov	r3, r0
 2018 0078 5A21     		movs	r1, #90
 2019 007a FDEEE77A 		vcvt.s32.f32	s15, s15
 2020 007e 3C20     		movs	r0, #60
 2021 0080 2246     		mov	r2, r4
 2022 0082 9624     		movs	r4, #150
 2023 0084 D860     		str	r0, [r3, #12]
 2024 0086 4FF07E5C 		mov	ip, #1065353216
 2025 008a 5866     		str	r0, [r3, #100]
 2026 008c 2820     		movs	r0, #40
 2027 008e 5961     		str	r1, [r3, #20]
 2028 0090 D966     		str	r1, [r3, #108]
 2029 0092 DC61     		str	r4, [r3, #28]
 2030 0094 1C49     		ldr	r1, .L230+56
 2031 0096 5C67     		str	r4, [r3, #116]
 2032 0098 1C4D     		ldr	r5, .L230+60
 2033 009a C3ED107A 		vstr.32	s15, [r3, #64]	@ int
 2034 009e 1C4B     		ldr	r3, .L230+64
 2035 00a0 6860     		str	r0, [r5, #4]
 2036 00a2 4860     		str	r0, [r1, #4]
 2037 00a4 03F1E404 		add	r4, r3, #228
 2038 00a8 0020     		movs	r0, #0
 2039 00aa 0860     		str	r0, [r1]	@ float
 2040              	.L227:
 2041 00ac C3F800C0 		str	ip, [r3]	@ float
 2042 00b0 0C33     		adds	r3, r3, #12
 2043 00b2 43F8080C 		str	r0, [r3, #-8]	@ float
 2044 00b6 0C32     		adds	r2, r2, #12
 2045 00b8 9168     		ldr	r1, [r2, #8]	@ float
 2046 00ba A342     		cmp	r3, r4
 2047 00bc 43F8041C 		str	r1, [r3, #-4]	@ float
 2048 00c0 F4D1     		bne	.L227
 2049 00c2 144B     		ldr	r3, .L230+68
 2050 00c4 0122     		movs	r2, #1
 2051 00c6 1A70     		strb	r2, [r3]
 2052 00c8 03B0     		add	sp, sp, #12
ARM GAS  /tmp/ccsO36p4.s 			page 38


 2053              		@ sp needed
 2054 00ca 30BD     		pop	{r4, r5, pc}
 2055              	.L231:
 2056 00cc AFF30080 		.align	3
 2057              	.L230:
 2058 00d0 9A999999 		.word	-1717986918
 2059 00d4 9999F13F 		.word	1072798105
 2060 00d8 00000000 		.word	_selz
 2061 00dc 00000343 		.word	1124270080
 2062 00e0 00000000 		.word	def_pars
 2063 00e4 00000000 		.word	i
 2064 00e8 00000000 		.word	vocabklatt
 2065 00ec 00000000 		.word	samplenumber
 2066 00f0 00000000 		.word	Elements
 2067 00f4 00000000 		.word	le
 2068 00f8 00000000 		.word	top
 2069 00fc 00000000 		.word	pars
 2070 0100 00000000 		.word	vocab_elm
 2071 0104 00000000 		.word	elm_plen
 2072 0108 00000000 		.word	stress_e
 2073 010c 00000000 		.word	stress_s
 2074 0110 00000000 		.word	flt
 2075 0114 00000000 		.word	nextelement
 2076              		.size	klatt_newsay_vocab, .-klatt_newsay_vocab
 2077              		.section	.text.klatt_get_sample_vocab,"ax",%progbits
 2078              		.align	1
 2079              		.p2align 2,,3
 2080              		.global	klatt_get_sample_vocab
 2081              		.syntax unified
 2082              		.thumb
 2083              		.thumb_func
 2084              		.type	klatt_get_sample_vocab, %function
 2085              	klatt_get_sample_vocab:
 2086              		@ args = 0, pretend = 0, frame = 104
 2087              		@ frame_needed = 0, uses_anonymous_args = 0
 2088 0000 2A4B     		ldr	r3, .L293
 2089 0002 2B4A     		ldr	r2, .L293+4
 2090 0004 2DE9F04F 		push	{r4, r5, r6, r7, r8, r9, r10, fp, lr}
 2091 0008 2A4C     		ldr	r4, .L293+8
 2092 000a 9BB0     		sub	sp, sp, #108
 2093 000c 1E68     		ldr	r6, [r3]
 2094 000e 2A4B     		ldr	r3, .L293+12
 2095 0010 1568     		ldr	r5, [r2]
 2096 0012 1A78     		ldrb	r2, [r3]	@ zero_extendqisi2
 2097 0014 2368     		ldr	r3, [r4]
 2098 0016 AB42     		cmp	r3, r5
 2099 0018 62D9     		bls	.L233
 2100 001a 012A     		cmp	r2, #1
 2101 001c 5ED0     		beq	.L285
 2102              	.L236:
 2103 001e 274B     		ldr	r3, .L293+16
 2104 0020 0193     		str	r3, [sp, #4]
 2105 0022 1B78     		ldrb	r3, [r3]	@ zero_extendqisi2
 2106 0024 012B     		cmp	r3, #1
 2107 0026 00F0C581 		beq	.L280
 2108              	.L284:
 2109 002a 254C     		ldr	r4, .L293+20
ARM GAS  /tmp/ccsO36p4.s 			page 39


 2110              	.L243:
 2111 002c 254D     		ldr	r5, .L293+24
 2112 002e 264E     		ldr	r6, .L293+28
 2113 0030 2A78     		ldrb	r2, [r5]	@ zero_extendqisi2
 2114 0032 2649     		ldr	r1, .L293+32
 2115 0034 3046     		mov	r0, r6
 2116 0036 FFF7FEFF 		bl	parwavesinglesample
 2117 003a 254B     		ldr	r3, .L293+36
 2118 003c DFED256A 		vldr.32	s13, .L293+40
 2119 0040 00B2     		sxth	r0, r0
 2120 0042 93ED007A 		vldr.32	s14, [r3]
 2121 0046 D6ED067A 		vldr.32	s15, [r6, #24]	@ int
 2122 004a 27EE267A 		vmul.f32	s14, s14, s13
 2123 004e F8EEE77A 		vcvt.f32.s32	s15, s15
 2124 0052 BCEEC77A 		vcvt.u32.f32	s14, s14
 2125 0056 8DED007A 		vstr.32	s14, [sp]	@ int
 2126 005a 9DF80030 		ldrb	r3, [sp]	@ zero_extendqisi2
 2127 005e 7F2B     		cmp	r3, #127
 2128 0060 28BF     		it	cs
 2129 0062 7F23     		movcs	r3, #127
 2130 0064 04EB8304 		add	r4, r4, r3, lsl #2
 2131 0068 2B88     		ldrh	r3, [r5]
 2132 006a 0133     		adds	r3, r3, #1
 2133 006c 94ED007A 		vldr.32	s14, [r4]
 2134 0070 1BB2     		sxth	r3, r3
 2135 0072 67EE877A 		vmul.f32	s15, s15, s14
 2136 0076 07EE103A 		vmov	s14, r3	@ int
 2137 007a 2B80     		strh	r3, [r5]	@ movhi
 2138 007c B8EEC77A 		vcvt.f32.s32	s14, s14
 2139 0080 B4EEE77A 		vcmpe.f32	s14, s15
 2140 0084 F1EE10FA 		vmrs	APSR_nzcv, FPSCR
 2141 0088 0DDB     		blt	.L262
 2142 008a 134B     		ldr	r3, .L293+44
 2143 008c B6EE007A 		vmov.f32	s14, #5.0e-1
 2144 0090 0122     		movs	r2, #1
 2145 0092 0199     		ldr	r1, [sp, #4]
 2146 0094 D3ED007A 		vldr.32	s15, [r3]
 2147 0098 0A70     		strb	r2, [r1]
 2148 009a 0022     		movs	r2, #0
 2149 009c 77EEC77A 		vsub.f32	s15, s15, s14
 2150 00a0 2A80     		strh	r2, [r5]	@ movhi
 2151 00a2 C3ED007A 		vstr.32	s15, [r3]
 2152              	.L262:
 2153 00a6 1BB0     		add	sp, sp, #108
 2154              		@ sp needed
 2155 00a8 BDE8F08F 		pop	{r4, r5, r6, r7, r8, r9, r10, fp, pc}
 2156              	.L294:
 2157              		.align	2
 2158              	.L293:
 2159 00ac 00000000 		.word	vocab_elm
 2160 00b0 00000000 		.word	elm_plen
 2161 00b4 00000000 		.word	i
 2162 00b8 00000000 		.word	nextelement
 2163 00bc 00000000 		.word	newframe.5
 2164 00c0 00000000 		.word	logpitch
 2165 00c4 00000000 		.word	samplenumber
 2166 00c8 00000000 		.word	klatt_global
ARM GAS  /tmp/ccsO36p4.s 			page 40


 2167 00cc 00000000 		.word	pars
 2168 00d0 00000000 		.word	_sely
 2169 00d4 00000343 		.word	1124270080
 2170 00d8 00000000 		.word	top
 2171              	.L285:
 2172 00dc FFF7FEFF 		bl	klatt_newsay_vocab
 2173              	.L233:
 2174 00e0 C24B     		ldr	r3, .L295
 2175 00e2 1B78     		ldrb	r3, [r3]	@ zero_extendqisi2
 2176 00e4 012B     		cmp	r3, #1
 2177 00e6 9AD1     		bne	.L236
 2178 00e8 2268     		ldr	r2, [r4]
 2179 00ea C148     		ldr	r0, .L295+4
 2180 00ec B718     		adds	r7, r6, r2
 2181 00ee B35C     		ldrb	r3, [r6, r2]	@ zero_extendqisi2
 2182 00f0 DFF84CA3 		ldr	r10, .L295+84
 2183 00f4 0332     		adds	r2, r2, #3
 2184 00f6 97F80180 		ldrb	r8, [r7, #1]	@ zero_extendqisi2
 2185 00fa BE49     		ldr	r1, .L295+8
 2186 00fc 80F80080 		strb	r8, [r0]
 2187 0100 C3EB4310 		rsb	r0, r3, r3, lsl #5
 2188 0104 2260     		str	r2, [r4]
 2189 0106 0AEBC00B 		add	fp, r10, r0, lsl #3
 2190 010a C1F800B0 		str	fp, [r1]
 2191 010e B8F1000F 		cmp	r8, #0
 2192 0112 00F06881 		beq	.L286
 2193 0116 AA42     		cmp	r2, r5
 2194 0118 C0F03881 		bcc	.L287
 2195 011c 5746     		mov	r7, r10
 2196              	.L237:
 2197 011e C3EB4313 		rsb	r3, r3, r3, lsl #5
 2198 0122 0AEBC303 		add	r3, r10, r3, lsl #3
 2199 0126 93F80490 		ldrb	r9, [r3, #4]	@ zero_extendqisi2
 2200 012a B34B     		ldr	r3, .L295+12
 2201 012c 1A68     		ldr	r2, [r3]
 2202 012e 1379     		ldrb	r3, [r2, #4]	@ zero_extendqisi2
 2203 0130 4B45     		cmp	r3, r9
 2204 0132 80F03881 		bcs	.L238
 2205 0136 0023     		movs	r3, #0
 2206 0138 5946     		mov	r1, fp
 2207 013a B048     		ldr	r0, .L295+16
 2208 013c FFF7FEFF 		bl	set_trans.isra.0
 2209              	.L239:
 2210 0140 3B79     		ldrb	r3, [r7, #4]	@ zero_extendqisi2
 2211 0142 4B45     		cmp	r3, r9
 2212 0144 40F22881 		bls	.L240
 2213 0148 3946     		mov	r1, r7
 2214 014a 0123     		movs	r3, #1
 2215 014c 5A46     		mov	r2, fp
 2216 014e AC48     		ldr	r0, .L295+20
 2217 0150 FFF7FEFF 		bl	set_trans.isra.0
 2218              	.L241:
 2219 0154 AB4B     		ldr	r3, .L295+24
 2220 0156 4FF00009 		mov	r9, #0
 2221 015a 0093     		str	r3, [sp]
 2222 015c 83F80090 		strb	r9, [r3]
 2223 0160 A94B     		ldr	r3, .L295+28
ARM GAS  /tmp/ccsO36p4.s 			page 41


 2224 0162 0193     		str	r3, [sp, #4]
 2225 0164 83F80090 		strb	r9, [r3]
 2226              	.L242:
 2227 0168 A84B     		ldr	r3, .L295+32
 2228 016a 9FEDA93A 		vldr.32	s6, .L295+36
 2229 016e 93ED005A 		vldr.32	s10, [r3]
 2230 0172 A84B     		ldr	r3, .L295+40
 2231 0174 25EE033A 		vmul.f32	s6, s10, s6
 2232 0178 1A68     		ldr	r2, [r3]
 2233 017a A74B     		ldr	r3, .L295+44
 2234 017c 1B68     		ldr	r3, [r3]
 2235 017e 9A42     		cmp	r2, r3
 2236 0180 00F06081 		beq	.L245
 2237 0184 A549     		ldr	r1, .L295+48
 2238 0186 91ED004A 		vldr.32	s8, [r1]
 2239 018a 0291     		str	r1, [sp, #8]
 2240 018c A449     		ldr	r1, .L295+52
 2241 018e 0391     		str	r1, [sp, #12]
 2242              	.L246:
 2243 0190 DFF868A2 		ldr	r10, .L295+16
 2244 0194 5E46     		mov	r6, fp
 2245 0196 9A4D     		ldr	r5, .L295+20
 2246 0198 07AF     		add	r7, sp, #28
 2247 019a A24C     		ldr	r4, .L295+56
 2248 019c 0AF1980B 		add	fp, r10, #152
 2249 01a0 CDE90432 		strd	r3, r2, [sp, #16]
 2250              	.L261:
 2251 01a4 2B46     		mov	r3, r5
 2252 01a6 96ED051A 		vldr.32	s2, [r6, #20]
 2253 01aa DAF80400 		ldr	r0, [r10, #4]
 2254 01ae 4A46     		mov	r2, r9
 2255 01b0 D3ED000A 		vldr.32	s1, [r3]
 2256 01b4 5346     		mov	r3, r10
 2257 01b6 6968     		ldr	r1, [r5, #4]
 2258 01b8 0AF1080A 		add	r10, r10, #8
 2259 01bc 93ED000A 		vldr.32	s0, [r3]
 2260 01c0 4346     		mov	r3, r8
 2261 01c2 FFF7FEFF 		bl	interpolate.isra.0
 2262 01c6 D4ED026A 		vldr.32	s13, [r4, #8]
 2263 01ca D4ED017A 		vldr.32	s15, [r4, #4]
 2264 01ce D345     		cmp	fp, r10
 2265 01d0 94ED007A 		vldr.32	s14, [r4]
 2266 01d4 05F10805 		add	r5, r5, #8
 2267 01d8 67EEA67A 		vmul.f32	s15, s15, s13
 2268 01dc 06F10C06 		add	r6, r6, #12
 2269 01e0 20EE070A 		vmul.f32	s0, s0, s14
 2270 01e4 04F10C04 		add	r4, r4, #12
 2271 01e8 77EE807A 		vadd.f32	s15, s15, s0
 2272 01ec 44ED017A 		vstr.32	s15, [r4, #-4]
 2273 01f0 E7EC017A 		vstmia.32	r7!, {s15}
 2274 01f4 D6D1     		bne	.L261
 2275 01f6 DFED8C4A 		vldr.32	s9, .L295+60
 2276 01fa F0EE440A 		vmov.f32	s1, s8
 2277 01fe 0398     		ldr	r0, [sp, #12]
 2278 0200 35EE435A 		vsub.f32	s10, s10, s6
 2279 0204 0299     		ldr	r1, [sp, #8]
 2280 0206 B0EE641A 		vmov.f32	s2, s9
ARM GAS  /tmp/ccsO36p4.s 			page 42


 2281 020a 90ED000A 		vldr.32	s0, [r0]
 2282 020e 4968     		ldr	r1, [r1, #4]
 2283 0210 4068     		ldr	r0, [r0, #4]
 2284 0212 DDE90432 		ldrd	r3, r2, [sp, #16]
 2285 0216 FFF7FEFF 		bl	interpolate.isra.0
 2286 021a DDED167A 		vldr.32	s15, [sp, #88]
 2287 021e DDED0D5A 		vldr.32	s11, [sp, #52]
 2288 0222 FDEEE77A 		vcvt.s32.f32	s15, s15
 2289 0226 9DED156A 		vldr.32	s12, [sp, #84]
 2290 022a FDEEE55A 		vcvt.s32.f32	s11, s11
 2291 022e DDED136A 		vldr.32	s13, [sp, #76]
 2292 0232 9DED147A 		vldr.32	s14, [sp, #80]
 2293 0236 36EE246A 		vadd.f32	s12, s12, s9
 2294 023a 76EEA46A 		vadd.f32	s13, s13, s9
 2295 023e 17EE904A 		vmov	r4, s15	@ int
 2296 0242 37EE247A 		vadd.f32	s14, s14, s9
 2297 0246 15EE903A 		vmov	r3, s11	@ int
 2298 024a 65EE007A 		vmul.f32	s15, s10, s0
 2299 024e DDED070A 		vldr.32	s1, [sp, #28]
 2300 0252 9DED181A 		vldr.32	s2, [sp, #96]
 2301 0256 BDEEC66A 		vcvt.s32.f32	s12, s12
 2302 025a DDED171A 		vldr.32	s3, [sp, #92]
 2303 025e FDEEE00A 		vcvt.s32.f32	s1, s1
 2304 0262 9DED082A 		vldr.32	s4, [sp, #32]
 2305 0266 BDEEC11A 		vcvt.s32.f32	s2, s2
 2306 026a DDED092A 		vldr.32	s5, [sp, #36]
 2307 026e FDEEE11A 		vcvt.s32.f32	s3, s3
 2308 0272 9DED0A5A 		vldr.32	s10, [sp, #40]
 2309 0276 BDEEC22A 		vcvt.s32.f32	s4, s4
 2310 027a DDED195A 		vldr.32	s11, [sp, #100]
 2311 027e FDEEE22A 		vcvt.s32.f32	s5, s5
 2312 0282 BDEEC55A 		vcvt.s32.f32	s10, s10
 2313 0286 6949     		ldr	r1, .L295+64
 2314 0288 FDEEE55A 		vcvt.s32.f32	s11, s11
 2315 028c DDED0B3A 		vldr.32	s7, [sp, #44]
 2316 0290 FDEEE66A 		vcvt.s32.f32	s13, s13
 2317 0294 81ED256A 		vstr.32	s12, [r1, #148]	@ int
 2318 0298 BDEEC77A 		vcvt.s32.f32	s14, s14
 2319 029c 81ED065A 		vstr.32	s10, [r1, #24]	@ int
 2320 02a0 C1ED165A 		vstr.32	s11, [r1, #88]	@ int
 2321 02a4 77EE837A 		vadd.f32	s15, s15, s6
 2322 02a8 C1ED206A 		vstr.32	s13, [r1, #128]	@ int
 2323 02ac FDEEE33A 		vcvt.s32.f32	s7, s7
 2324 02b0 81ED227A 		vstr.32	s14, [r1, #136]	@ int
 2325 02b4 9DED0C4A 		vldr.32	s8, [sp, #48]
 2326 02b8 FDEEE77A 		vcvt.s32.f32	s15, s15
 2327 02bc C1ED0E0A 		vstr.32	s1, [r1, #56]	@ int
 2328 02c0 81ED121A 		vstr.32	s2, [r1, #72]	@ int
 2329 02c4 BDEEC44A 		vcvt.s32.f32	s8, s8
 2330 02c8 C1ED141A 		vstr.32	s3, [r1, #80]	@ int
 2331 02cc F8EEE77A 		vcvt.f32.s32	s15, s15
 2332 02d0 81ED022A 		vstr.32	s4, [r1, #8]	@ int
 2333 02d4 C1ED042A 		vstr.32	s5, [r1, #16]	@ int
 2334 02d8 C1F89840 		str	r4, [r1, #152]
 2335 02dc CB61     		str	r3, [r1, #28]
 2336 02de 4B67     		str	r3, [r1, #116]
 2337 02e0 534B     		ldr	r3, .L295+68
ARM GAS  /tmp/ccsO36p4.s 			page 43


 2338 02e2 9FED543A 		vldr.32	s6, .L295+72
 2339 02e6 93ED005A 		vldr.32	s10, [r3]
 2340 02ea DDED0F5A 		vldr.32	s11, [sp, #60]
 2341 02ee 25EE035A 		vmul.f32	s10, s10, s6
 2342 02f2 4C60     		str	r4, [r1, #4]
 2343 02f4 75EEA45A 		vadd.f32	s11, s11, s9
 2344 02f8 4F4C     		ldr	r4, .L295+76
 2345 02fa 9DED106A 		vldr.32	s12, [sp, #64]
 2346 02fe BCEEC55A 		vcvt.u32.f32	s10, s10
 2347 0302 DDED116A 		vldr.32	s13, [sp, #68]
 2348 0306 FDEEE55A 		vcvt.s32.f32	s11, s11
 2349 030a 9DED127A 		vldr.32	s14, [sp, #72]
 2350 030e 36EE246A 		vadd.f32	s12, s12, s9
 2351 0312 4A48     		ldr	r0, .L295+80
 2352 0314 8DED025A 		vstr.32	s10, [sp, #8]	@ int
 2353 0318 76EEA46A 		vadd.f32	s13, s13, s9
 2354 031c 9DF80830 		ldrb	r3, [sp, #8]	@ zero_extendqisi2
 2355 0320 37EE247A 		vadd.f32	s14, s14, s9
 2356 0324 C1ED185A 		vstr.32	s11, [r1, #96]	@ int
 2357 0328 BDEEC66A 		vcvt.s32.f32	s12, s12
 2358 032c 7F2B     		cmp	r3, #127
 2359 032e FDEEE66A 		vcvt.s32.f32	s13, s13
 2360 0332 BDEEC77A 		vcvt.s32.f32	s14, s14
 2361 0336 C1ED033A 		vstr.32	s7, [r1, #12]	@ int
 2362 033a 28BF     		it	cs
 2363 033c 7F23     		movcs	r3, #127
 2364 033e C1ED193A 		vstr.32	s7, [r1, #100]	@ int
 2365 0342 81ED054A 		vstr.32	s8, [r1, #20]	@ int
 2366 0346 C3F17F03 		rsb	r3, r3, #127
 2367 034a 81ED1B4A 		vstr.32	s8, [r1, #108]	@ int
 2368 034e 81ED1A6A 		vstr.32	s12, [r1, #104]	@ int
 2369 0352 DBB2     		uxtb	r3, r3
 2370 0354 C1ED1C6A 		vstr.32	s13, [r1, #112]	@ int
 2371 0358 81ED1E7A 		vstr.32	s14, [r1, #120]	@ int
 2372 035c 04EB8303 		add	r3, r4, r3, lsl #2
 2373 0360 D3ED005A 		vldr.32	s11, [r3]
 2374 0364 67EEA57A 		vmul.f32	s15, s15, s11
 2375 0368 FDEEE77A 		vcvt.s32.f32	s15, s15
 2376 036c C1ED007A 		vstr.32	s15, [r1]	@ int
 2377 0370 FFF7FEFF 		bl	initparwave
 2378 0374 274A     		ldr	r2, .L295+40
 2379 0376 1368     		ldr	r3, [r2]
 2380 0378 0133     		adds	r3, r3, #1
 2381 037a 1360     		str	r3, [r2]
 2382 037c 009A     		ldr	r2, [sp]
 2383 037e 1378     		ldrb	r3, [r2]	@ zero_extendqisi2
 2384 0380 0133     		adds	r3, r3, #1
 2385 0382 1370     		strb	r3, [r2]
 2386 0384 0023     		movs	r3, #0
 2387 0386 194A     		ldr	r2, .L295
 2388 0388 1370     		strb	r3, [r2]
 2389 038a 4FE6     		b	.L243
 2390              	.L287:
 2391 038c B75C     		ldrb	r7, [r6, r2]	@ zero_extendqisi2
 2392 038e C7EB4717 		rsb	r7, r7, r7, lsl #5
 2393 0392 0AEBC707 		add	r7, r10, r7, lsl #3
 2394 0396 C2E6     		b	.L237
ARM GAS  /tmp/ccsO36p4.s 			page 44


 2395              	.L240:
 2396 0398 3A46     		mov	r2, r7
 2397 039a 0023     		movs	r3, #0
 2398 039c 5946     		mov	r1, fp
 2399 039e 1848     		ldr	r0, .L295+20
 2400 03a0 FFF7FEFF 		bl	set_trans.isra.0
 2401 03a4 D6E6     		b	.L241
 2402              	.L238:
 2403 03a6 1146     		mov	r1, r2
 2404 03a8 0123     		movs	r3, #1
 2405 03aa 5A46     		mov	r2, fp
 2406 03ac 1348     		ldr	r0, .L295+16
 2407 03ae FFF7FEFF 		bl	set_trans.isra.0
 2408 03b2 C5E6     		b	.L239
 2409              	.L280:
 2410 03b4 1349     		ldr	r1, .L295+24
 2411 03b6 0E4A     		ldr	r2, .L295+4
 2412 03b8 91F80090 		ldrb	r9, [r1]	@ zero_extendqisi2
 2413 03bc 92F80080 		ldrb	r8, [r2]	@ zero_extendqisi2
 2414 03c0 0C4A     		ldr	r2, .L295+8
 2415 03c2 0198     		ldr	r0, [sp, #4]
 2416 03c4 C145     		cmp	r9, r8
 2417 03c6 D2F800B0 		ldr	fp, [r2]
 2418 03ca 4FF00002 		mov	r2, #0
 2419 03ce 0091     		str	r1, [sp]
 2420 03d0 0270     		strb	r2, [r0]
 2421 03d2 7FF6C9AE 		bls	.L242
 2422 03d6 084A     		ldr	r2, .L295+12
 2423 03d8 0449     		ldr	r1, .L295
 2424 03da C2F800B0 		str	fp, [r2]
 2425 03de 0B70     		strb	r3, [r1]
 2426 03e0 FFF7FEFF 		bl	klatt_get_sample_vocab
 2427 03e4 21E6     		b	.L284
 2428              	.L286:
 2429 03e6 FFF7FEFF 		bl	klatt_get_sample_vocab
 2430 03ea 18E6     		b	.L236
 2431              	.L296:
 2432              		.align	2
 2433              	.L295:
 2434 03ec 00000000 		.word	nextelement
 2435 03f0 00000000 		.word	dur.8
 2436 03f4 00000000 		.word	ce.9
 2437 03f8 00000000 		.word	le
 2438 03fc 00000000 		.word	startyy.7
 2439 0400 00000000 		.word	end.6
 2440 0404 00000000 		.word	t
 2441 0408 00000000 		.word	newframe.5
 2442 040c 00000000 		.word	top
 2443 0410 CDCC4C3F 		.word	1061997773
 2444 0414 00000000 		.word	tstress
 2445 0418 00000000 		.word	ntstress
 2446 041c 00000000 		.word	stress_e
 2447 0420 00000000 		.word	stress_s
 2448 0424 00000000 		.word	flt
 2449 0428 00000000 		.word	0
 2450 042c 00000000 		.word	pars
 2451 0430 00000000 		.word	_selx
ARM GAS  /tmp/ccsO36p4.s 			page 45


 2452 0434 00000343 		.word	1124270080
 2453 0438 00000000 		.word	logpitch
 2454 043c 00000000 		.word	klatt_global
 2455 0440 00000000 		.word	Elements
 2456              	.L245:
 2457 0444 484B     		ldr	r3, .L297
 2458 0446 0022     		movs	r2, #0
 2459 0448 2478     		ldrb	r4, [r4]	@ zero_extendqisi2
 2460 044a 4849     		ldr	r1, .L297+4
 2461 044c C3F80080 		str	r8, [r3]
 2462 0450 A542     		cmp	r5, r4
 2463 0452 474B     		ldr	r3, .L297+8
 2464 0454 A646     		mov	lr, r4
 2465 0456 474F     		ldr	r7, .L297+12
 2466 0458 0A60     		str	r2, [r1]
 2467 045a 0293     		str	r3, [sp, #8]
 2468 045c 0397     		str	r7, [sp, #12]
 2469 045e 93E80300 		ldm	r3, {r0, r1}
 2470 0462 87E80300 		stm	r7, {r0, r1}
 2471 0466 70D3     		bcc	.L288
 2472 0468 9446     		mov	ip, r2
 2473 046a DFF80CA1 		ldr	r10, .L297+16
 2474 046e 4346     		mov	r3, r8
 2475              	.L247:
 2476 0470 A542     		cmp	r5, r4
 2477 0472 04F10101 		add	r1, r4, #1
 2478 0476 404A     		ldr	r2, .L297+16
 2479 0478 06D9     		bls	.L248
 2480 047a 16F80E20 		ldrb	r2, [r6, lr]	@ zero_extendqisi2
 2481 047e CCB2     		uxtb	r4, r1
 2482 0480 C2EB4212 		rsb	r2, r2, r2, lsl #5
 2483 0484 0AEBC202 		add	r2, r10, r2, lsl #3
 2484              	.L248:
 2485 0488 611C     		adds	r1, r4, #1
 2486 048a AC42     		cmp	r4, r5
 2487 048c 04F1020E 		add	lr, r4, #2
 2488 0490 CFB2     		uxtb	r7, r1
 2489 0492 2FD3     		bcc	.L249
 2490 0494 BCF1000F 		cmp	ip, #0
 2491 0498 08BF     		it	eq
 2492 049a 4346     		moveq	r3, r8
 2493 049c 0020     		movs	r0, #0
 2494 049e 0327     		movs	r7, #3
 2495              	.L251:
 2496 04a0 07EE907A 		vmov	s15, r7	@ int
 2497 04a4 B8EEE77A 		vcvt.f32.s32	s14, s15
 2498 04a8 F0EE087A 		vmov.f32	s15, #3.0e+0
 2499 04ac 87EE274A 		vdiv.f32	s8, s14, s15
 2500              	.L257:
 2501 04b0 029A     		ldr	r2, [sp, #8]
 2502 04b2 82ED004A 		vstr.32	s8, [r2]
 2503 04b6 0022     		movs	r2, #0
 2504 04b8 12E0     		b	.L260
 2505              	.L289:
 2506 04ba CCB2     		uxtb	r4, r1
 2507 04bc 0AEBCC0C 		add	ip, r10, ip, lsl #3
 2508 04c0 611C     		adds	r1, r4, #1
ARM GAS  /tmp/ccsO36p4.s 			page 46


 2509              	.L258:
 2510 04c2 DCF810E0 		ldr	lr, [ip, #16]
 2511 04c6 04F1020C 		add	ip, r4, #2
 2512 04ca 305D     		ldrb	r0, [r6, r4]	@ zero_extendqisi2
 2513 04cc C9B2     		uxtb	r1, r1
 2514 04ce 1EF0805F 		tst	lr, #268435456
 2515 04d2 5FFA8CF4 		uxtb	r4, ip
 2516 04d6 24D0     		beq	.L259
 2517 04d8 715C     		ldrb	r1, [r6, r1]	@ zero_extendqisi2
 2518 04da B942     		cmp	r1, r7
 2519 04dc 21D1     		bne	.L259
 2520 04de 611C     		adds	r1, r4, #1
 2521              	.L260:
 2522 04e0 16F804C0 		ldrb	ip, [r6, r4]	@ zero_extendqisi2
 2523 04e4 AC42     		cmp	r4, r5
 2524 04e6 0244     		add	r2, r2, r0
 2525 04e8 CCEB4C1C 		rsb	ip, ip, ip, lsl #5
 2526 04ec E5D3     		bcc	.L289
 2527 04ee DFF888C0 		ldr	ip, .L297+16
 2528 04f2 E6E7     		b	.L258
 2529              	.L249:
 2530 04f4 AF42     		cmp	r7, r5
 2531 04f6 305D     		ldrb	r0, [r6, r4]	@ zero_extendqisi2
 2532 04f8 5FFA8EF4 		uxtb	r4, lr
 2533 04fc 29D2     		bcs	.L290
 2534 04fe F75D     		ldrb	r7, [r6, r7]	@ zero_extendqisi2
 2535 0500 A646     		mov	lr, r4
 2536 0502 A7B9     		cbnz	r7, .L291
 2537 0504 1269     		ldr	r2, [r2, #16]
 2538 0506 12F08052 		ands	r2, r2, #268435456
 2539 050a 16D1     		bne	.L292
 2540 050c A542     		cmp	r5, r4
 2541 050e 0344     		add	r3, r3, r0
 2542 0510 4FF0010C 		mov	ip, #1
 2543 0514 ACD2     		bcs	.L247
 2544 0516 1449     		ldr	r1, .L297
 2545 0518 0B60     		str	r3, [r1]
 2546 051a 0299     		ldr	r1, [sp, #8]
 2547 051c 91ED004A 		vldr.32	s8, [r1]
 2548 0520 36E6     		b	.L246
 2549              	.L259:
 2550 0522 03EB5203 		add	r3, r3, r2, lsr #1
 2551 0526 104A     		ldr	r2, .L297
 2552 0528 1360     		str	r3, [r2]
 2553 052a 0022     		movs	r2, #0
 2554 052c 30E6     		b	.L246
 2555              	.L291:
 2556 052e BCF1000F 		cmp	ip, #0
 2557 0532 00D1     		bne	.L283
 2558 0534 4346     		mov	r3, r8
 2559              	.L283:
 2560 0536 611C     		adds	r1, r4, #1
 2561 0538 B2E7     		b	.L251
 2562              	.L292:
 2563 053a BCF1000F 		cmp	ip, #0
 2564 053e 08BF     		it	eq
 2565 0540 4346     		moveq	r3, r8
ARM GAS  /tmp/ccsO36p4.s 			page 47


 2566 0542 9FED0E4A 		vldr.32	s8, .L297+20
 2567 0546 611C     		adds	r1, r4, #1
 2568 0548 B2E7     		b	.L257
 2569              	.L288:
 2570 054a 93ED004A 		vldr.32	s8, [r3]
 2571 054e 4346     		mov	r3, r8
 2572 0550 1EE6     		b	.L246
 2573              	.L290:
 2574 0552 BCF1000F 		cmp	ip, #0
 2575 0556 01D0     		beq	.L253
 2576 0558 034A     		ldr	r2, .L297
 2577 055a 1360     		str	r3, [r2]
 2578              	.L253:
 2579 055c 3C46     		mov	r4, r7
 2580 055e 024B     		ldr	r3, .L297
 2581 0560 0327     		movs	r7, #3
 2582 0562 1B68     		ldr	r3, [r3]
 2583 0564 611C     		adds	r1, r4, #1
 2584 0566 9BE7     		b	.L251
 2585              	.L298:
 2586              		.align	2
 2587              	.L297:
 2588 0568 00000000 		.word	ntstress
 2589 056c 00000000 		.word	tstress
 2590 0570 00000000 		.word	stress_e
 2591 0574 00000000 		.word	stress_s
 2592 0578 00000000 		.word	Elements
 2593 057c CDCCCC3D 		.word	1036831949
 2594              		.size	klatt_get_sample_vocab, .-klatt_get_sample_vocab
 2595              		.section	.text.klatt_get_sample_vocab_sing,"ax",%progbits
 2596              		.align	1
 2597              		.p2align 2,,3
 2598              		.global	klatt_get_sample_vocab_sing
 2599              		.syntax unified
 2600              		.thumb
 2601              		.thumb_func
 2602              		.type	klatt_get_sample_vocab_sing, %function
 2603              	klatt_get_sample_vocab_sing:
 2604              		@ args = 0, pretend = 0, frame = 96
 2605              		@ frame_needed = 0, uses_anonymous_args = 0
 2606 0000 CB4B     		ldr	r3, .L360
 2607 0002 CC4A     		ldr	r2, .L360+4
 2608 0004 2DE9F04F 		push	{r4, r5, r6, r7, r8, r9, r10, fp, lr}
 2609 0008 CB4E     		ldr	r6, .L360+8
 2610 000a 99B0     		sub	sp, sp, #100
 2611 000c 1D68     		ldr	r5, [r3]
 2612 000e CB4B     		ldr	r3, .L360+12
 2613 0010 1468     		ldr	r4, [r2]
 2614 0012 1A78     		ldrb	r2, [r3]	@ zero_extendqisi2
 2615 0014 3368     		ldr	r3, [r6]
 2616 0016 A342     		cmp	r3, r4
 2617 0018 4AD9     		bls	.L300
 2618 001a 012A     		cmp	r2, #1
 2619 001c 46D0     		beq	.L352
 2620              	.L303:
 2621 001e C84B     		ldr	r3, .L360+16
 2622 0020 0293     		str	r3, [sp, #8]
ARM GAS  /tmp/ccsO36p4.s 			page 48


 2623 0022 1B78     		ldrb	r3, [r3]	@ zero_extendqisi2
 2624 0024 012B     		cmp	r3, #1
 2625 0026 00F0BC81 		beq	.L347
 2626              	.L351:
 2627 002a C64C     		ldr	r4, .L360+20
 2628              	.L310:
 2629 002c C64D     		ldr	r5, .L360+24
 2630 002e C74E     		ldr	r6, .L360+28
 2631 0030 2A78     		ldrb	r2, [r5]	@ zero_extendqisi2
 2632 0032 C749     		ldr	r1, .L360+32
 2633 0034 3046     		mov	r0, r6
 2634 0036 FFF7FEFF 		bl	parwavesinglesample
 2635 003a C64B     		ldr	r3, .L360+36
 2636 003c DFEDC66A 		vldr.32	s13, .L360+40
 2637 0040 00B2     		sxth	r0, r0
 2638 0042 93ED007A 		vldr.32	s14, [r3]
 2639 0046 D6ED067A 		vldr.32	s15, [r6, #24]	@ int
 2640 004a 27EE267A 		vmul.f32	s14, s14, s13
 2641 004e F8EEE77A 		vcvt.f32.s32	s15, s15
 2642 0052 BCEEC77A 		vcvt.u32.f32	s14, s14
 2643 0056 8DED017A 		vstr.32	s14, [sp, #4]	@ int
 2644 005a 9DF80430 		ldrb	r3, [sp, #4]	@ zero_extendqisi2
 2645 005e 7F2B     		cmp	r3, #127
 2646 0060 28BF     		it	cs
 2647 0062 7F23     		movcs	r3, #127
 2648 0064 04EB8304 		add	r4, r4, r3, lsl #2
 2649 0068 2B88     		ldrh	r3, [r5]
 2650 006a 0133     		adds	r3, r3, #1
 2651 006c 94ED007A 		vldr.32	s14, [r4]
 2652 0070 1BB2     		sxth	r3, r3
 2653 0072 67EE877A 		vmul.f32	s15, s15, s14
 2654 0076 07EE103A 		vmov	s14, r3	@ int
 2655 007a 2B80     		strh	r3, [r5]	@ movhi
 2656 007c B8EEC77A 		vcvt.f32.s32	s14, s14
 2657 0080 B4EEE77A 		vcmpe.f32	s14, s15
 2658 0084 F1EE10FA 		vmrs	APSR_nzcv, FPSCR
 2659 0088 0DDB     		blt	.L330
 2660 008a B44B     		ldr	r3, .L360+44
 2661 008c B6EE007A 		vmov.f32	s14, #5.0e-1
 2662 0090 0122     		movs	r2, #1
 2663 0092 0299     		ldr	r1, [sp, #8]
 2664 0094 D3ED007A 		vldr.32	s15, [r3]
 2665 0098 0A70     		strb	r2, [r1]
 2666 009a 0022     		movs	r2, #0
 2667 009c 77EEC77A 		vsub.f32	s15, s15, s14
 2668 00a0 2A80     		strh	r2, [r5]	@ movhi
 2669 00a2 C3ED007A 		vstr.32	s15, [r3]
 2670              	.L330:
 2671 00a6 19B0     		add	sp, sp, #100
 2672              		@ sp needed
 2673 00a8 BDE8F08F 		pop	{r4, r5, r6, r7, r8, r9, r10, fp, pc}
 2674              	.L352:
 2675 00ac FFF7FEFF 		bl	klatt_newsay_vocab
 2676              	.L300:
 2677 00b0 A24B     		ldr	r3, .L360+12
 2678 00b2 1B78     		ldrb	r3, [r3]	@ zero_extendqisi2
 2679 00b4 012B     		cmp	r3, #1
ARM GAS  /tmp/ccsO36p4.s 			page 49


 2680 00b6 B2D1     		bne	.L303
 2681 00b8 3268     		ldr	r2, [r6]
 2682 00ba A948     		ldr	r0, .L360+48
 2683 00bc AF18     		adds	r7, r5, r2
 2684 00be AB5C     		ldrb	r3, [r5, r2]	@ zero_extendqisi2
 2685 00c0 DFF8CCB2 		ldr	fp, .L360+96
 2686 00c4 0332     		adds	r2, r2, #3
 2687 00c6 97F80180 		ldrb	r8, [r7, #1]	@ zero_extendqisi2
 2688 00ca A649     		ldr	r1, .L360+52
 2689 00cc 80F80080 		strb	r8, [r0]
 2690 00d0 C3EB4310 		rsb	r0, r3, r3, lsl #5
 2691 00d4 3260     		str	r2, [r6]
 2692 00d6 0BEBC000 		add	r0, fp, r0, lsl #3
 2693 00da 0190     		str	r0, [sp, #4]
 2694 00dc 0860     		str	r0, [r1]
 2695 00de B8F1000F 		cmp	r8, #0
 2696 00e2 00F07781 		beq	.L353
 2697 00e6 A242     		cmp	r2, r4
 2698 00e8 C0F01481 		bcc	.L354
 2699 00ec 5F46     		mov	r7, fp
 2700              	.L304:
 2701 00ee C3EB4313 		rsb	r3, r3, r3, lsl #5
 2702 00f2 0BEBC303 		add	r3, fp, r3, lsl #3
 2703 00f6 93F804A0 		ldrb	r10, [r3, #4]	@ zero_extendqisi2
 2704 00fa 9B4B     		ldr	r3, .L360+56
 2705 00fc 1A68     		ldr	r2, [r3]
 2706 00fe 1379     		ldrb	r3, [r2, #4]	@ zero_extendqisi2
 2707 0100 5345     		cmp	r3, r10
 2708 0102 80F04781 		bcs	.L305
 2709 0106 0023     		movs	r3, #0
 2710 0108 0199     		ldr	r1, [sp, #4]
 2711 010a 9848     		ldr	r0, .L360+60
 2712 010c FFF7FEFF 		bl	set_trans.isra.0
 2713              	.L306:
 2714 0110 3B79     		ldrb	r3, [r7, #4]	@ zero_extendqisi2
 2715 0112 5345     		cmp	r3, r10
 2716 0114 40F20481 		bls	.L307
 2717 0118 3946     		mov	r1, r7
 2718 011a 0123     		movs	r3, #1
 2719 011c 019A     		ldr	r2, [sp, #4]
 2720 011e 9448     		ldr	r0, .L360+64
 2721 0120 FFF7FEFF 		bl	set_trans.isra.0
 2722              	.L308:
 2723 0124 0022     		movs	r2, #0
 2724 0126 934B     		ldr	r3, .L360+68
 2725 0128 9146     		mov	r9, r2
 2726 012a 1A70     		strb	r2, [r3]
 2727 012c 0393     		str	r3, [sp, #12]
 2728 012e 844B     		ldr	r3, .L360+16
 2729 0130 0293     		str	r3, [sp, #8]
 2730 0132 1A70     		strb	r2, [r3]
 2731              	.L309:
 2732 0134 904B     		ldr	r3, .L360+72
 2733 0136 914A     		ldr	r2, .L360+76
 2734 0138 1968     		ldr	r1, [r3]
 2735 013a 1368     		ldr	r3, [r2]
 2736 013c 9942     		cmp	r1, r3
ARM GAS  /tmp/ccsO36p4.s 			page 50


 2737 013e 00F04C81 		beq	.L355
 2738              	.L313:
 2739 0142 DFF828A2 		ldr	r10, .L360+60
 2740 0146 05AF     		add	r7, sp, #20
 2741 0148 019E     		ldr	r6, [sp, #4]
 2742 014a 894D     		ldr	r5, .L360+64
 2743 014c 0AF1980B 		add	fp, r10, #152
 2744 0150 8B4C     		ldr	r4, .L360+80
 2745              	.L329:
 2746 0152 2B46     		mov	r3, r5
 2747 0154 96ED051A 		vldr.32	s2, [r6, #20]
 2748 0158 DAF80400 		ldr	r0, [r10, #4]
 2749 015c 4A46     		mov	r2, r9
 2750 015e D3ED000A 		vldr.32	s1, [r3]
 2751 0162 5346     		mov	r3, r10
 2752 0164 6968     		ldr	r1, [r5, #4]
 2753 0166 0AF1080A 		add	r10, r10, #8
 2754 016a 93ED000A 		vldr.32	s0, [r3]
 2755 016e 4346     		mov	r3, r8
 2756 0170 FFF7FEFF 		bl	interpolate.isra.0
 2757 0174 D4ED026A 		vldr.32	s13, [r4, #8]
 2758 0178 D4ED017A 		vldr.32	s15, [r4, #4]
 2759 017c D345     		cmp	fp, r10
 2760 017e 94ED007A 		vldr.32	s14, [r4]
 2761 0182 05F10805 		add	r5, r5, #8
 2762 0186 67EEA67A 		vmul.f32	s15, s15, s13
 2763 018a 06F10C06 		add	r6, r6, #12
 2764 018e 20EE070A 		vmul.f32	s0, s0, s14
 2765 0192 04F10C04 		add	r4, r4, #12
 2766 0196 77EE807A 		vadd.f32	s15, s15, s0
 2767 019a 44ED017A 		vstr.32	s15, [r4, #-4]
 2768 019e E7EC017A 		vstmia.32	r7!, {s15}
 2769 01a2 D6D1     		bne	.L329
 2770 01a4 DFED777A 		vldr.32	s15, .L360+84
 2771 01a8 9DED136A 		vldr.32	s12, [sp, #76]
 2772 01ac DDED116A 		vldr.32	s13, [sp, #68]
 2773 01b0 9DED127A 		vldr.32	s14, [sp, #72]
 2774 01b4 36EE276A 		vadd.f32	s12, s12, s15
 2775 01b8 9DED144A 		vldr.32	s8, [sp, #80]
 2776 01bc 76EEA76A 		vadd.f32	s13, s13, s15
 2777 01c0 37EE277A 		vadd.f32	s14, s14, s15
 2778 01c4 DDED170A 		vldr.32	s1, [sp, #92]
 2779 01c8 BDEEC44A 		vcvt.s32.f32	s8, s8
 2780 01cc 9DED051A 		vldr.32	s2, [sp, #20]
 2781 01d0 DDED161A 		vldr.32	s3, [sp, #88]
 2782 01d4 FDEEE00A 		vcvt.s32.f32	s1, s1
 2783 01d8 9DED152A 		vldr.32	s4, [sp, #84]
 2784 01dc BDEEC11A 		vcvt.s32.f32	s2, s2
 2785 01e0 DDED094A 		vldr.32	s9, [sp, #36]
 2786 01e4 FDEEE11A 		vcvt.s32.f32	s3, s3
 2787 01e8 9DED0A5A 		vldr.32	s10, [sp, #40]
 2788 01ec BDEEC22A 		vcvt.s32.f32	s4, s4
 2789 01f0 DDED0B5A 		vldr.32	s11, [sp, #44]
 2790 01f4 FDEEE44A 		vcvt.s32.f32	s9, s9
 2791 01f8 DDED062A 		vldr.32	s5, [sp, #24]
 2792 01fc BDEEC55A 		vcvt.s32.f32	s10, s10
 2793 0200 9DED073A 		vldr.32	s6, [sp, #28]
ARM GAS  /tmp/ccsO36p4.s 			page 51


 2794 0204 FDEEE55A 		vcvt.s32.f32	s11, s11
 2795 0208 DDED083A 		vldr.32	s7, [sp, #32]
 2796 020c FDEEE22A 		vcvt.s32.f32	s5, s5
 2797 0210 BDEEC33A 		vcvt.s32.f32	s6, s6
 2798 0214 4E49     		ldr	r1, .L360+32
 2799 0216 FDEEE33A 		vcvt.s32.f32	s7, s7
 2800 021a 14EE104A 		vmov	r4, s8	@ int
 2801 021e BDEEC66A 		vcvt.s32.f32	s12, s12
 2802 0222 81ED055A 		vstr.32	s10, [r1, #20]	@ int
 2803 0226 FDEEE66A 		vcvt.s32.f32	s13, s13
 2804 022a C1F89840 		str	r4, [r1, #152]
 2805 022e BDEEC77A 		vcvt.s32.f32	s14, s14
 2806 0232 4C60     		str	r4, [r1, #4]
 2807 0234 81ED256A 		vstr.32	s12, [r1, #148]	@ int
 2808 0238 C1ED206A 		vstr.32	s13, [r1, #128]	@ int
 2809 023c 81ED227A 		vstr.32	s14, [r1, #136]	@ int
 2810 0240 81ED1B5A 		vstr.32	s10, [r1, #108]	@ int
 2811 0244 504B     		ldr	r3, .L360+88
 2812 0246 C1ED160A 		vstr.32	s1, [r1, #88]	@ int
 2813 024a 81ED0E1A 		vstr.32	s2, [r1, #56]	@ int
 2814 024e C1ED121A 		vstr.32	s3, [r1, #72]	@ int
 2815 0252 81ED142A 		vstr.32	s4, [r1, #80]	@ int
 2816 0256 C1ED022A 		vstr.32	s5, [r1, #8]	@ int
 2817 025a 81ED043A 		vstr.32	s6, [r1, #16]	@ int
 2818 025e C1ED063A 		vstr.32	s7, [r1, #24]	@ int
 2819 0262 C1ED034A 		vstr.32	s9, [r1, #12]	@ int
 2820 0266 C1ED194A 		vstr.32	s9, [r1, #100]	@ int
 2821 026a C1ED075A 		vstr.32	s11, [r1, #28]	@ int
 2822 026e C1ED1D5A 		vstr.32	s11, [r1, #116]	@ int
 2823 0272 DDED0D5A 		vldr.32	s11, [sp, #52]
 2824 0276 9DED0E6A 		vldr.32	s12, [sp, #56]
 2825 027a DDED0F6A 		vldr.32	s13, [sp, #60]
 2826 027e 75EEA75A 		vadd.f32	s11, s11, s15
 2827 0282 9DED107A 		vldr.32	s14, [sp, #64]
 2828 0286 36EE276A 		vadd.f32	s12, s12, s15
 2829 028a 76EEA76A 		vadd.f32	s13, s13, s15
 2830 028e 9FED324A 		vldr.32	s8, .L360+40
 2831 0292 37EE277A 		vadd.f32	s14, s14, s15
 2832 0296 D3ED007A 		vldr.32	s15, [r3]
 2833 029a 3C4B     		ldr	r3, .L360+92
 2834 029c FDEEE55A 		vcvt.s32.f32	s11, s11
 2835 02a0 67EE847A 		vmul.f32	s15, s15, s8
 2836 02a4 274C     		ldr	r4, .L360+20
 2837 02a6 BDEEC66A 		vcvt.s32.f32	s12, s12
 2838 02aa 2848     		ldr	r0, .L360+28
 2839 02ac FDEEE66A 		vcvt.s32.f32	s13, s13
 2840 02b0 C1ED185A 		vstr.32	s11, [r1, #96]	@ int
 2841 02b4 FCEEE77A 		vcvt.u32.f32	s15, s15
 2842 02b8 BDEEC77A 		vcvt.s32.f32	s14, s14
 2843 02bc 81ED1A6A 		vstr.32	s12, [r1, #104]	@ int
 2844 02c0 C1ED1C6A 		vstr.32	s13, [r1, #112]	@ int
 2845 02c4 CDED017A 		vstr.32	s15, [sp, #4]	@ int
 2846 02c8 D3ED007A 		vldr.32	s15, [r3]	@ int
 2847 02cc 9DF80430 		ldrb	r3, [sp, #4]	@ zero_extendqisi2
 2848 02d0 F8EEE77A 		vcvt.f32.s32	s15, s15
 2849 02d4 81ED1E7A 		vstr.32	s14, [r1, #120]	@ int
 2850 02d8 7F2B     		cmp	r3, #127
ARM GAS  /tmp/ccsO36p4.s 			page 52


 2851 02da 28BF     		it	cs
 2852 02dc 7F23     		movcs	r3, #127
 2853 02de C3F17F03 		rsb	r3, r3, #127
 2854 02e2 DBB2     		uxtb	r3, r3
 2855 02e4 04EB8303 		add	r3, r4, r3, lsl #2
 2856 02e8 93ED005A 		vldr.32	s10, [r3]
 2857 02ec 67EE857A 		vmul.f32	s15, s15, s10
 2858 02f0 FDEEE77A 		vcvt.s32.f32	s15, s15
 2859 02f4 C1ED007A 		vstr.32	s15, [r1]	@ int
 2860 02f8 FFF7FEFF 		bl	initparwave
 2861 02fc 1E4A     		ldr	r2, .L360+72
 2862 02fe 1368     		ldr	r3, [r2]
 2863 0300 0133     		adds	r3, r3, #1
 2864 0302 1360     		str	r3, [r2]
 2865 0304 039A     		ldr	r2, [sp, #12]
 2866 0306 1378     		ldrb	r3, [r2]	@ zero_extendqisi2
 2867 0308 0133     		adds	r3, r3, #1
 2868 030a 1370     		strb	r3, [r2]
 2869 030c 0023     		movs	r3, #0
 2870 030e 0B4A     		ldr	r2, .L360+12
 2871 0310 1370     		strb	r3, [r2]
 2872 0312 8BE6     		b	.L310
 2873              	.L354:
 2874 0314 AF5C     		ldrb	r7, [r5, r2]	@ zero_extendqisi2
 2875 0316 C7EB4717 		rsb	r7, r7, r7, lsl #5
 2876 031a 0BEBC707 		add	r7, fp, r7, lsl #3
 2877 031e E6E6     		b	.L304
 2878              	.L307:
 2879 0320 3A46     		mov	r2, r7
 2880 0322 0023     		movs	r3, #0
 2881 0324 0199     		ldr	r1, [sp, #4]
 2882 0326 1248     		ldr	r0, .L360+64
 2883 0328 FFF7FEFF 		bl	set_trans.isra.0
 2884 032c FAE6     		b	.L308
 2885              	.L361:
 2886 032e 00BF     		.align	2
 2887              	.L360:
 2888 0330 00000000 		.word	vocab_elm
 2889 0334 00000000 		.word	elm_plen
 2890 0338 00000000 		.word	i
 2891 033c 00000000 		.word	nextelement
 2892 0340 00000000 		.word	newframe.0
 2893 0344 00000000 		.word	logpitch
 2894 0348 00000000 		.word	samplenumber
 2895 034c 00000000 		.word	klatt_global
 2896 0350 00000000 		.word	pars
 2897 0354 00000000 		.word	_sely
 2898 0358 00000343 		.word	1124270080
 2899 035c 00000000 		.word	top
 2900 0360 00000000 		.word	dur.3
 2901 0364 00000000 		.word	ce.4
 2902 0368 00000000 		.word	le
 2903 036c 00000000 		.word	startyy.2
 2904 0370 00000000 		.word	end.1
 2905 0374 00000000 		.word	t
 2906 0378 00000000 		.word	tstress
 2907 037c 00000000 		.word	ntstress
ARM GAS  /tmp/ccsO36p4.s 			page 53


 2908 0380 00000000 		.word	flt
 2909 0384 00000000 		.word	0
 2910 0388 00000000 		.word	_selx
 2911 038c 00000000 		.word	def_pars
 2912 0390 00000000 		.word	Elements
 2913              	.L305:
 2914 0394 1146     		mov	r1, r2
 2915 0396 0123     		movs	r3, #1
 2916 0398 019A     		ldr	r2, [sp, #4]
 2917 039a 5248     		ldr	r0, .L362
 2918 039c FFF7FEFF 		bl	set_trans.isra.0
 2919 03a0 B6E6     		b	.L306
 2920              	.L347:
 2921 03a2 514A     		ldr	r2, .L362+4
 2922 03a4 5149     		ldr	r1, .L362+8
 2923 03a6 92F80080 		ldrb	r8, [r2]	@ zero_extendqisi2
 2924 03aa 514A     		ldr	r2, .L362+12
 2925 03ac 91F80090 		ldrb	r9, [r1]	@ zero_extendqisi2
 2926 03b0 1268     		ldr	r2, [r2]
 2927 03b2 0298     		ldr	r0, [sp, #8]
 2928 03b4 C145     		cmp	r9, r8
 2929 03b6 0192     		str	r2, [sp, #4]
 2930 03b8 4FF00002 		mov	r2, #0
 2931 03bc 0391     		str	r1, [sp, #12]
 2932 03be 0270     		strb	r2, [r0]
 2933 03c0 7FF6B8AE 		bls	.L309
 2934 03c4 4B49     		ldr	r1, .L362+16
 2935 03c6 4C4A     		ldr	r2, .L362+20
 2936 03c8 0B70     		strb	r3, [r1]
 2937 03ca 019B     		ldr	r3, [sp, #4]
 2938 03cc 1360     		str	r3, [r2]
 2939 03ce FFF7FEFF 		bl	klatt_get_sample_vocab_sing
 2940 03d2 2AE6     		b	.L351
 2941              	.L353:
 2942 03d4 FFF7FEFF 		bl	klatt_get_sample_vocab_sing
 2943 03d8 21E6     		b	.L303
 2944              	.L355:
 2945 03da 4849     		ldr	r1, .L362+24
 2946 03dc 0027     		movs	r7, #0
 2947 03de 3378     		ldrb	r3, [r6]	@ zero_extendqisi2
 2948 03e0 0F60     		str	r7, [r1]
 2949 03e2 4749     		ldr	r1, .L362+28
 2950 03e4 9C42     		cmp	r4, r3
 2951 03e6 474E     		ldr	r6, .L362+32
 2952 03e8 9E46     		mov	lr, r3
 2953 03ea C2F80080 		str	r8, [r2]
 2954 03ee 03C9     		ldm	r1, {r0, r1}
 2955 03f0 86E80300 		stm	r6, {r0, r1}
 2956 03f4 FFF4A5AE 		bcc	.L313
 2957 03f8 BC46     		mov	ip, r7
 2958 03fa DFF80CB1 		ldr	fp, .L362+36
 2959 03fe C246     		mov	r10, r8
 2960              	.L328:
 2961 0400 9C42     		cmp	r4, r3
 2962 0402 03F10101 		add	r1, r3, #1
 2963 0406 4048     		ldr	r0, .L362+36
 2964 0408 06D9     		bls	.L315
ARM GAS  /tmp/ccsO36p4.s 			page 54


 2965 040a 15F80E00 		ldrb	r0, [r5, lr]	@ zero_extendqisi2
 2966 040e CBB2     		uxtb	r3, r1
 2967 0410 C0EB4010 		rsb	r0, r0, r0, lsl #5
 2968 0414 0BEBC000 		add	r0, fp, r0, lsl #3
 2969              	.L315:
 2970 0418 591C     		adds	r1, r3, #1
 2971 041a A342     		cmp	r3, r4
 2972 041c 03F1020E 		add	lr, r3, #2
 2973 0420 CFB2     		uxtb	r7, r1
 2974 0422 2FD3     		bcc	.L316
 2975 0424 BCF1000F 		cmp	ip, #0
 2976 0428 08BF     		it	eq
 2977 042a C246     		moveq	r10, r8
 2978 042c 0026     		movs	r6, #0
 2979 042e 0327     		movs	r7, #3
 2980              	.L318:
 2981 0430 07EE907A 		vmov	s15, r7	@ int
 2982 0434 B0EE087A 		vmov.f32	s14, #3.0e+0
 2983 0438 F8EEE76A 		vcvt.f32.s32	s13, s15
 2984 043c C6EE877A 		vdiv.f32	s15, s13, s14
 2985              	.L324:
 2986 0440 2F48     		ldr	r0, .L362+28
 2987 0442 C0ED007A 		vstr.32	s15, [r0]
 2988 0446 0020     		movs	r0, #0
 2989 0448 12E0     		b	.L327
 2990              	.L356:
 2991 044a CBB2     		uxtb	r3, r1
 2992 044c 0BEBCC0C 		add	ip, fp, ip, lsl #3
 2993 0450 591C     		adds	r1, r3, #1
 2994              	.L325:
 2995 0452 DCF810E0 		ldr	lr, [ip, #16]
 2996 0456 03F1020C 		add	ip, r3, #2
 2997 045a EE5C     		ldrb	r6, [r5, r3]	@ zero_extendqisi2
 2998 045c C9B2     		uxtb	r1, r1
 2999 045e 1EF0805F 		tst	lr, #268435456
 3000 0462 5FFA8CF3 		uxtb	r3, ip
 3001 0466 20D0     		beq	.L326
 3002 0468 695C     		ldrb	r1, [r5, r1]	@ zero_extendqisi2
 3003 046a B942     		cmp	r1, r7
 3004 046c 1DD1     		bne	.L326
 3005 046e 591C     		adds	r1, r3, #1
 3006              	.L327:
 3007 0470 15F803C0 		ldrb	ip, [r5, r3]	@ zero_extendqisi2
 3008 0474 A342     		cmp	r3, r4
 3009 0476 3044     		add	r0, r0, r6
 3010 0478 CCEB4C1C 		rsb	ip, ip, ip, lsl #5
 3011 047c E5D3     		bcc	.L356
 3012 047e DFF888C0 		ldr	ip, .L362+36
 3013 0482 E6E7     		b	.L325
 3014              	.L316:
 3015 0484 A742     		cmp	r7, r4
 3016 0486 EE5C     		ldrb	r6, [r5, r3]	@ zero_extendqisi2
 3017 0488 5FFA8EF3 		uxtb	r3, lr
 3018 048c 1FD2     		bcs	.L357
 3019 048e EF5D     		ldrb	r7, [r5, r7]	@ zero_extendqisi2
 3020 0490 9E46     		mov	lr, r3
 3021 0492 77B9     		cbnz	r7, .L358
ARM GAS  /tmp/ccsO36p4.s 			page 55


 3022 0494 0169     		ldr	r1, [r0, #16]
 3023 0496 C900     		lsls	r1, r1, #3
 3024 0498 11D4     		bmi	.L359
 3025 049a 9C42     		cmp	r4, r3
 3026 049c B244     		add	r10, r10, r6
 3027 049e 4FF0010C 		mov	ip, #1
 3028 04a2 ADD2     		bcs	.L328
 3029 04a4 C2F800A0 		str	r10, [r2]
 3030 04a8 4BE6     		b	.L313
 3031              	.L326:
 3032 04aa 0AEB5000 		add	r0, r10, r0, lsr #1
 3033 04ae 1060     		str	r0, [r2]
 3034 04b0 47E6     		b	.L313
 3035              	.L358:
 3036 04b2 BCF1000F 		cmp	ip, #0
 3037 04b6 00D1     		bne	.L350
 3038 04b8 C246     		mov	r10, r8
 3039              	.L350:
 3040 04ba 591C     		adds	r1, r3, #1
 3041 04bc B8E7     		b	.L318
 3042              	.L359:
 3043 04be BCF1000F 		cmp	ip, #0
 3044 04c2 08BF     		it	eq
 3045 04c4 C246     		moveq	r10, r8
 3046 04c6 DFED117A 		vldr.32	s15, .L362+40
 3047 04ca 591C     		adds	r1, r3, #1
 3048 04cc B8E7     		b	.L324
 3049              	.L357:
 3050 04ce BCF1000F 		cmp	ip, #0
 3051 04d2 01D0     		beq	.L320
 3052 04d4 C2F800A0 		str	r10, [r2]
 3053              	.L320:
 3054 04d8 3B46     		mov	r3, r7
 3055 04da D2F800A0 		ldr	r10, [r2]
 3056 04de 0327     		movs	r7, #3
 3057 04e0 591C     		adds	r1, r3, #1
 3058 04e2 A5E7     		b	.L318
 3059              	.L363:
 3060              		.align	2
 3061              	.L362:
 3062 04e4 00000000 		.word	startyy.2
 3063 04e8 00000000 		.word	dur.3
 3064 04ec 00000000 		.word	t
 3065 04f0 00000000 		.word	ce.4
 3066 04f4 00000000 		.word	nextelement
 3067 04f8 00000000 		.word	le
 3068 04fc 00000000 		.word	tstress
 3069 0500 00000000 		.word	stress_e
 3070 0504 00000000 		.word	stress_s
 3071 0508 00000000 		.word	Elements
 3072 050c CDCCCC3D 		.word	1036831949
 3073              		.size	klatt_get_sample_vocab_sing, .-klatt_get_sample_vocab_sing
 3074              		.section	.bss.newframe.0,"aw",%nobits
 3075              		.type	newframe.0, %object
 3076              		.size	newframe.0, 1
 3077              	newframe.0:
 3078 0000 00       		.space	1
ARM GAS  /tmp/ccsO36p4.s 			page 56


 3079              		.section	.bss.end.1,"aw",%nobits
 3080              		.align	2
 3081              		.type	end.1, %object
 3082              		.size	end.1, 152
 3083              	end.1:
 3084 0000 00000000 		.space	152
 3084      00000000 
 3084      00000000 
 3084      00000000 
 3084      00000000 
 3085              		.section	.bss.startyy.2,"aw",%nobits
 3086              		.align	2
 3087              		.type	startyy.2, %object
 3088              		.size	startyy.2, 152
 3089              	startyy.2:
 3090 0000 00000000 		.space	152
 3090      00000000 
 3090      00000000 
 3090      00000000 
 3090      00000000 
 3091              		.section	.bss.dur.3,"aw",%nobits
 3092              		.type	dur.3, %object
 3093              		.size	dur.3, 1
 3094              	dur.3:
 3095 0000 00       		.space	1
 3096              		.section	.bss.ce.4,"aw",%nobits
 3097              		.align	2
 3098              		.type	ce.4, %object
 3099              		.size	ce.4, 4
 3100              	ce.4:
 3101 0000 00000000 		.space	4
 3102              		.section	.bss.newframe.5,"aw",%nobits
 3103              		.type	newframe.5, %object
 3104              		.size	newframe.5, 1
 3105              	newframe.5:
 3106 0000 00       		.space	1
 3107              		.section	.bss.end.6,"aw",%nobits
 3108              		.align	2
 3109              		.type	end.6, %object
 3110              		.size	end.6, 152
 3111              	end.6:
 3112 0000 00000000 		.space	152
 3112      00000000 
 3112      00000000 
 3112      00000000 
 3112      00000000 
 3113              		.section	.bss.startyy.7,"aw",%nobits
 3114              		.align	2
 3115              		.type	startyy.7, %object
 3116              		.size	startyy.7, 152
 3117              	startyy.7:
 3118 0000 00000000 		.space	152
 3118      00000000 
 3118      00000000 
 3118      00000000 
 3118      00000000 
 3119              		.section	.bss.dur.8,"aw",%nobits
ARM GAS  /tmp/ccsO36p4.s 			page 57


 3120              		.type	dur.8, %object
 3121              		.size	dur.8, 1
 3122              	dur.8:
 3123 0000 00       		.space	1
 3124              		.section	.bss.ce.9,"aw",%nobits
 3125              		.align	2
 3126              		.type	ce.9, %object
 3127              		.size	ce.9, 4
 3128              	ce.9:
 3129 0000 00000000 		.space	4
 3130              		.section	.bss.newframe.10,"aw",%nobits
 3131              		.type	newframe.10, %object
 3132              		.size	newframe.10, 1
 3133              	newframe.10:
 3134 0000 00       		.space	1
 3135              		.section	.bss.end.11,"aw",%nobits
 3136              		.align	2
 3137              		.type	end.11, %object
 3138              		.size	end.11, 152
 3139              	end.11:
 3140 0000 00000000 		.space	152
 3140      00000000 
 3140      00000000 
 3140      00000000 
 3140      00000000 
 3141              		.section	.bss.startyy.12,"aw",%nobits
 3142              		.align	2
 3143              		.type	startyy.12, %object
 3144              		.size	startyy.12, 152
 3145              	startyy.12:
 3146 0000 00000000 		.space	152
 3146      00000000 
 3146      00000000 
 3146      00000000 
 3146      00000000 
 3147              		.section	.bss.dur.13,"aw",%nobits
 3148              		.type	dur.13, %object
 3149              		.size	dur.13, 1
 3150              	dur.13:
 3151 0000 00       		.space	1
 3152              		.section	.bss.ce.14,"aw",%nobits
 3153              		.align	2
 3154              		.type	ce.14, %object
 3155              		.size	ce.14, 4
 3156              	ce.14:
 3157 0000 00000000 		.space	4
 3158              		.section	.bss.newframe.15,"aw",%nobits
 3159              		.type	newframe.15, %object
 3160              		.size	newframe.15, 1
 3161              	newframe.15:
 3162 0000 00       		.space	1
 3163              		.section	.bss.end.16,"aw",%nobits
 3164              		.align	2
 3165              		.type	end.16, %object
 3166              		.size	end.16, 152
 3167              	end.16:
 3168 0000 00000000 		.space	152
ARM GAS  /tmp/ccsO36p4.s 			page 58


 3168      00000000 
 3168      00000000 
 3168      00000000 
 3168      00000000 
 3169              		.section	.bss.startyy.17,"aw",%nobits
 3170              		.align	2
 3171              		.type	startyy.17, %object
 3172              		.size	startyy.17, 152
 3173              	startyy.17:
 3174 0000 00000000 		.space	152
 3174      00000000 
 3174      00000000 
 3174      00000000 
 3174      00000000 
 3175              		.section	.bss.dur.18,"aw",%nobits
 3176              		.type	dur.18, %object
 3177              		.size	dur.18, 1
 3178              	dur.18:
 3179 0000 00       		.space	1
 3180              		.section	.bss.ce.19,"aw",%nobits
 3181              		.align	2
 3182              		.type	ce.19, %object
 3183              		.size	ce.19, 4
 3184              	ce.19:
 3185 0000 00000000 		.space	4
 3186              		.section	.bss.newframe.20,"aw",%nobits
 3187              		.type	newframe.20, %object
 3188              		.size	newframe.20, 1
 3189              	newframe.20:
 3190 0000 00       		.space	1
 3191              		.section	.bss.end.21,"aw",%nobits
 3192              		.align	2
 3193              		.type	end.21, %object
 3194              		.size	end.21, 152
 3195              	end.21:
 3196 0000 00000000 		.space	152
 3196      00000000 
 3196      00000000 
 3196      00000000 
 3196      00000000 
 3197              		.section	.bss.startyy.22,"aw",%nobits
 3198              		.align	2
 3199              		.type	startyy.22, %object
 3200              		.size	startyy.22, 152
 3201              	startyy.22:
 3202 0000 00000000 		.space	152
 3202      00000000 
 3202      00000000 
 3202      00000000 
 3202      00000000 
 3203              		.section	.bss.dur.23,"aw",%nobits
 3204              		.type	dur.23, %object
 3205              		.size	dur.23, 1
 3206              	dur.23:
 3207 0000 00       		.space	1
 3208              		.section	.bss.ce.24,"aw",%nobits
 3209              		.align	2
ARM GAS  /tmp/ccsO36p4.s 			page 59


 3210              		.type	ce.24, %object
 3211              		.size	ce.24, 4
 3212              	ce.24:
 3213 0000 00000000 		.space	4
 3214              		.section	.bss.vocab_elm,"aw",%nobits
 3215              		.align	2
 3216              		.type	vocab_elm, %object
 3217              		.size	vocab_elm, 4
 3218              	vocab_elm:
 3219 0000 00000000 		.space	4
 3220              		.section	.bss.elm_plen,"aw",%nobits
 3221              		.align	2
 3222              		.type	elm_plen, %object
 3223              		.size	elm_plen, 4
 3224              	elm_plen:
 3225 0000 00000000 		.space	4
 3226              		.section	.data.elm_single,"aw"
 3227              		.align	2
 3228              		.type	elm_single, %object
 3229              		.size	elm_single, 6
 3230              	elm_single:
 3231 0000 1C0A002F 		.ascii	"\034\012\000/\006\000"
 3231      0600
 3232              		.section	.bss.pars,"aw",%nobits
 3233              		.align	2
 3234              		.type	pars, %object
 3235              		.size	pars, 160
 3236              	pars:
 3237 0000 00000000 		.space	160
 3237      00000000 
 3237      00000000 
 3237      00000000 
 3237      00000000 
 3238              		.section	.data.nextelement,"aw"
 3239              		.type	nextelement, %object
 3240              		.size	nextelement, 1
 3241              	nextelement:
 3242 0000 01       		.byte	1
 3243              		.section	.bss.t,"aw",%nobits
 3244              		.type	t, %object
 3245              		.size	t, 1
 3246              	t:
 3247 0000 00       		.space	1
 3248              		.section	.bss.top,"aw",%nobits
 3249              		.align	2
 3250              		.type	top, %object
 3251              		.size	top, 4
 3252              	top:
 3253 0000 00000000 		.space	4
 3254              		.section	.bss.stress_e,"aw",%nobits
 3255              		.align	2
 3256              		.type	stress_e, %object
 3257              		.size	stress_e, 8
 3258              	stress_e:
 3259 0000 00000000 		.space	8
 3259      00000000 
 3260              		.section	.bss.stress_s,"aw",%nobits
ARM GAS  /tmp/ccsO36p4.s 			page 60


 3261              		.align	2
 3262              		.type	stress_s, %object
 3263              		.size	stress_s, 8
 3264              	stress_s:
 3265 0000 00000000 		.space	8
 3265      00000000 
 3266              		.section	.bss.ntstress,"aw",%nobits
 3267              		.align	2
 3268              		.type	ntstress, %object
 3269              		.size	ntstress, 4
 3270              	ntstress:
 3271 0000 00000000 		.space	4
 3272              		.section	.bss.tstress,"aw",%nobits
 3273              		.align	2
 3274              		.type	tstress, %object
 3275              		.size	tstress, 4
 3276              	tstress:
 3277 0000 00000000 		.space	4
 3278              		.section	.data.i,"aw"
 3279              		.align	2
 3280              		.type	i, %object
 3281              		.size	i, 4
 3282              	i:
 3283 0000 1F000000 		.word	31
 3284              		.section	.bss.le,"aw",%nobits
 3285              		.align	2
 3286              		.type	le, %object
 3287              		.size	le, 4
 3288              	le:
 3289 0000 00000000 		.space	4
 3290              		.section	.bss.flt,"aw",%nobits
 3291              		.align	2
 3292              		.type	flt, %object
 3293              		.size	flt, 228
 3294              	flt:
 3295 0000 00000000 		.space	228
 3295      00000000 
 3295      00000000 
 3295      00000000 
 3295      00000000 
 3296              		.global	phoneme_prob_remap
 3297              		.section	.flash,"a"
 3298              		.align	2
 3299              		.type	phoneme_prob_remap, %object
 3300              		.size	phoneme_prob_remap, 64
 3301              	phoneme_prob_remap:
 3302 0000 012E1E05 		.ascii	"\001.\036\005\007\006\025\017\016\020\031(+5/\03540"
 3302      0706150F 
 3302      0E101928 
 3302      2B352F1D 
 3302      3430
 3303 0012 1422213B 		.ascii	"\024\"!; \037\034>,\011\010\0126\013\015\014\003\002"
 3303      201F1C3E 
 3303      2C09080A 
 3303      360B0D0C 
 3303      0302
 3304 0024 04321731 		.ascii	"\0042\02718:9?\030\026\021\023\022='\032-%$3&<A@#D="
ARM GAS  /tmp/ccsO36p4.s 			page 61


 3304      383A393F 
 3304      18161113 
 3304      123D271A 
 3304      2D252433 
 3305 003f 3E       		.ascii	">"
 3306              		.section	.bss.samplenumber,"aw",%nobits
 3307              		.align	1
 3308              		.type	samplenumber, %object
 3309              		.size	samplenumber, 2
 3310              	samplenumber:
 3311 0000 0000     		.space	2
 3312              		.section	.rodata.vocabklatt,"a"
 3313              		.align	2
 3314              		.type	vocabklatt, %object
 3315              		.size	vocabklatt, 512
 3316              	vocabklatt:
 3317 0000 00000000 		.word	klattvocab_acid
 3318 0004 00000000 		.word	klattvocab_anguish
 3319 0008 00000000 		.word	klattvocab_atom
 3320 000c 00000000 		.word	klattvocab_beauty
 3321 0010 00000000 		.word	klattvocab_biological
 3322 0014 00000000 		.word	klattvocab_bit
 3323 0018 00000000 		.word	klattvocab_black
 3324 001c 00000000 		.word	klattvocab_blood
 3325 0020 00000000 		.word	klattvocab_body
 3326 0024 00000000 		.word	klattvocab_brain
 3327 0028 00000000 		.word	klattvocab_break
 3328 002c 00000000 		.word	klattvocab_bug
 3329 0030 00000000 		.word	klattvocab_byte
 3330 0034 00000000 		.word	klattvocab_central
 3331 0038 00000000 		.word	klattvocab_chamber
 3332 003c 00000000 		.word	klattvocab_circuit
 3333 0040 00000000 		.word	klattvocab_code
 3334 0044 00000000 		.word	klattvocab_color
 3335 0048 00000000 		.word	klattvocab_communication
 3336 004c 00000000 		.word	klattvocab_computer
 3337 0050 00000000 		.word	klattvocab_contact
 3338 0054 00000000 		.word	klattvocab_core
 3339 0058 00000000 		.word	klattvocab_cosmic
 3340 005c 00000000 		.word	klattvocab_crash
 3341 0060 00000000 		.word	klattvocab_crow
 3342 0064 00000000 		.word	klattvocab_crystal
 3343 0068 00000000 		.word	klattvocab_curse
 3344 006c 00000000 		.word	klattvocab_danger
 3345 0070 00000000 		.word	klattvocab_dark
 3346 0074 00000000 		.word	klattvocab_darkness
 3347 0078 00000000 		.word	klattvocab_data
 3348 007c 00000000 		.word	klattvocab_death
 3349 0080 00000000 		.word	klattvocab_decay
 3350 0084 00000000 		.word	klattvocab_decompose
 3351 0088 00000000 		.word	klattvocab_device
 3352 008c 00000000 		.word	klattvocab_digital
 3353 0090 00000000 		.word	klattvocab_dirt
 3354 0094 00000000 		.word	klattvocab_dissolution
 3355 0098 00000000 		.word	klattvocab_double
 3356 009c 00000000 		.word	klattvocab_earth
 3357 00a0 00000000 		.word	klattvocab_electronic
ARM GAS  /tmp/ccsO36p4.s 			page 62


 3358 00a4 00000000 		.word	klattvocab_emotional
 3359 00a8 00000000 		.word	klattvocab_error
 3360 00ac 00000000 		.word	klattvocab_evidence
 3361 00b0 00000000 		.word	klattvocab_execution
 3362 00b4 00000000 		.word	klattvocab_failure
 3363 00b8 00000000 		.word	klattvocab_flesh
 3364 00bc 00000000 		.word	klattvocab_freeze
 3365 00c0 00000000 		.word	klattvocab_fucked
 3366 00c4 00000000 		.word	klattvocab_geology
 3367 00c8 00000000 		.word	klattvocab_girl
 3368 00cc 00000000 		.word	klattvocab_god
 3369 00d0 00000000 		.word	klattvocab_gold
 3370 00d4 00000000 		.word	klattvocab_grave
 3371 00d8 00000000 		.word	klattvocab_green
 3372 00dc 00000000 		.word	klattvocab_ground
 3373 00e0 00000000 		.word	klattvocab_haunt
 3374 00e4 00000000 		.word	klattvocab_heart
 3375 00e8 00000000 		.word	klattvocab_hear
 3376 00ec 00000000 		.word	klattvocab_horror
 3377 00f0 00000000 		.word	klattvocab_human
 3378 00f4 00000000 		.word	klattvocab_infection
 3379 00f8 00000000 		.word	klattvocab_information
 3380 00fc 00000000 		.word	klattvocab_interpreter
 3381 0100 00000000 		.word	klattvocab_instruction
 3382 0104 00000000 		.word	klattvocab_keyboard
 3383 0108 00000000 		.word	klattvocab_kill
 3384 010c 00000000 		.word	klattvocab_labyrinth
 3385 0110 00000000 		.word	klattvocab_laser
 3386 0114 00000000 		.word	klattvocab_live
 3387 0118 00000000 		.word	klattvocab_love
 3388 011c 00000000 		.word	klattvocab_machine
 3389 0120 00000000 		.word	klattvocab_mars
 3390 0124 00000000 		.word	klattvocab_matter
 3391 0128 00000000 		.word	klattvocab_memory
 3392 012c 00000000 		.word	klattvocab_metal
 3393 0130 00000000 		.word	klattvocab_micro
 3394 0134 00000000 		.word	klattvocab_mind
 3395 0138 00000000 		.word	klattvocab_module
 3396 013c 00000000 		.word	klattvocab_moon
 3397 0140 00000000 		.word	klattvocab_negative
 3398 0144 00000000 		.word	klattvocab_network
 3399 0148 00000000 		.word	klattvocab_night
 3400 014c 00000000 		.word	klattvocab_nigredo
 3401 0150 00000000 		.word	klattvocab_noise
 3402 0154 00000000 		.word	klattvocab_nothing
 3403 0158 00000000 		.word	klattvocab_nuclear
 3404 015c 00000000 		.word	klattvocab_obscure
 3405 0160 00000000 		.word	klattvocab_off
 3406 0164 00000000 		.word	klattvocab_on
 3407 0168 00000000 		.word	klattvocab_physical
 3408 016c 00000000 		.word	klattvocab_piss
 3409 0170 00000000 		.word	klattvocab_pixel
 3410 0174 00000000 		.word	klattvocab_plague
 3411 0178 00000000 		.word	klattvocab_processor
 3412 017c 00000000 		.word	klattvocab_program
 3413 0180 00000000 		.word	klattvocab_pure
 3414 0184 00000000 		.word	klattvocab_radioactivity
ARM GAS  /tmp/ccsO36p4.s 			page 63


 3415 0188 00000000 		.word	klattvocab_raven
 3416 018c 00000000 		.word	klattvocab_real
 3417 0190 00000000 		.word	klattvocab_red
 3418 0194 00000000 		.word	klattvocab_return
 3419 0198 00000000 		.word	klattvocab_robot
 3420 019c 00000000 		.word	klattvocab_seclusion
 3421 01a0 00000000 		.word	klattvocab_sediment
 3422 01a4 00000000 		.word	klattvocab_serpent
 3423 01a8 00000000 		.word	klattvocab_shell
 3424 01ac 00000000 		.word	klattvocab_signal
 3425 01b0 00000000 		.word	klattvocab_skin
 3426 01b4 00000000 		.word	klattvocab_space
 3427 01b8 00000000 		.word	klattvocab_spectral
 3428 01bc 00000000 		.word	klattvocab_speak
 3429 01c0 00000000 		.word	klattvocab_sun
 3430 01c4 00000000 		.word	klattvocab_subject
 3431 01c8 00000000 		.word	klattvocab_surface
 3432 01cc 00000000 		.word	klattvocab_synthesizer
 3433 01d0 00000000 		.word	klattvocab_talk
 3434 01d4 00000000 		.word	klattvocab_time
 3435 01d8 00000000 		.word	klattvocab_tomb
 3436 01dc 00000000 		.word	klattvocab_vacuum
 3437 01e0 00000000 		.word	klattvocab_video
 3438 01e4 00000000 		.word	klattvocab_virus
 3439 01e8 00000000 		.word	klattvocab_voice
 3440 01ec 00000000 		.word	klattvocab_vomit
 3441 01f0 00000000 		.word	klattvocab_white
 3442 01f4 00000000 		.word	klattvocab_world
 3443 01f8 00000000 		.word	klattvocab_worming
 3444 01fc 00000000 		.word	klattvocab_zero
 3445              		.section	.rodata.klattvocab_zero,"a"
 3446              		.align	2
 3447              		.type	klattvocab_zero, %object
 3448              		.size	klattvocab_zero, 85
 3449              	klattvocab_zero:
 3450 0000 1B       		.byte	27
 3451 0001 2104001E 		.ascii	"!\004\000\036\000\000\"\004\000/\006\000+\013\000?\007"
 3451      00002204 
 3451      002F0600 
 3451      2B0B003F 
 3451      07
 3452 0012 003E0700 		.ascii	"\000>\007\000\001\006\000\001\006\000\000"
 3452      01060001 
 3452      060000
 3453 001d 00000000 		.space	56
 3453      00000000 
 3453      00000000 
 3453      00000000 
 3453      00000000 
 3454              		.section	.rodata.klattvocab_worming,"a"
 3455              		.align	2
 3456              		.type	klattvocab_worming, %object
 3457              		.size	klattvocab_worming, 85
 3458              	klattvocab_worming:
 3459 0000 15       		.byte	21
 3460 0001 2C080036 		.ascii	",\010\0006\020\000\024\010\000.\007\000\026\010\000"
 3460      10001408 
ARM GAS  /tmp/ccsO36p4.s 			page 64


 3460      002E0700 
 3460      160800
 3461 0010 01060001 		.ascii	"\001\006\000\001\006\000\000"
 3461      060000
 3462 0017 00000000 		.space	62
 3462      00000000 
 3462      00000000 
 3462      00000000 
 3462      00000000 
 3463              		.section	.rodata.klattvocab_world,"a"
 3464              		.align	2
 3465              		.type	klattvocab_world, %object
 3466              		.size	klattvocab_world, 85
 3467              	klattvocab_world:
 3468 0000 18       		.byte	24
 3469 0001 2C080036 		.ascii	",\010\0006\020\000(\010\000\016\010\000\017\001\000"
 3469      10002808 
 3469      000E0800 
 3469      0F0100
 3470 0010 10010001 		.ascii	"\020\001\000\001\006\000\001\006\000\000"
 3470      06000106 
 3470      0000
 3471 001a 00000000 		.space	59
 3471      00000000 
 3471      00000000 
 3471      00000000 
 3471      00000000 
 3472              		.section	.rodata.klattvocab_white,"a"
 3473              		.align	2
 3474              		.type	klattvocab_white, %object
 3475              		.size	klattvocab_white, 85
 3476              	klattvocab_white:
 3477 0000 1B       		.byte	27
 3478 0001 1C0A002C 		.ascii	"\034\012\000,\010\000;\007\000.\007\000\005\006\000"
 3478      08003B07 
 3478      002E0700 
 3478      050600
 3479 0010 06010007 		.ascii	"\006\001\000\007\002\000\001\006\000\001\006\000\000"
 3479      02000106 
 3479      00010600 
 3479      00
 3480 001d 00000000 		.space	56
 3480      00000000 
 3480      00000000 
 3480      00000000 
 3480      00000000 
 3481              		.section	.rodata.klattvocab_vomit,"a"
 3482              		.align	2
 3483              		.type	klattvocab_vomit, %object
 3484              		.size	klattvocab_vomit, 85
 3485              	klattvocab_vomit:
 3486 0000 21       		.byte	33
 3487 0001 1D04001E 		.ascii	"\035\004\000\036\000\000\035\004\0002\007\000\024\010"
 3487      00001D04 
 3487      00320700 
 3487      1408
 3488 000f 002E0700 		.ascii	"\000.\007\000\005\006\000\006\001\000\007\002\000\001"
ARM GAS  /tmp/ccsO36p4.s 			page 65


 3488      05060006 
 3488      01000702 
 3488      0001
 3489 001d 06000106 		.ascii	"\006\000\001\006\000\000"
 3489      0000
 3490 0023 00000000 		.space	50
 3490      00000000 
 3490      00000000 
 3490      00000000 
 3490      00000000 
 3491              		.section	.rodata.klattvocab_voice,"a"
 3492              		.align	2
 3493              		.type	klattvocab_voice, %object
 3494              		.size	klattvocab_voice, 85
 3495              	klattvocab_voice:
 3496 0000 18       		.byte	24
 3497 0001 1D04001E 		.ascii	"\035\004\000\036\000\000\035\004\000<\007\000.\007\000"
 3497      00001D04 
 3497      003C0700 
 3497      2E0700
 3498 0010 190C0001 		.ascii	"\031\014\000\001\006\000\001\006\000\000"
 3498      06000106 
 3498      0000
 3499 001a 00000000 		.space	59
 3499      00000000 
 3499      00000000 
 3499      00000000 
 3499      00000000 
 3500              		.section	.rodata.klattvocab_virus,"a"
 3501              		.align	2
 3502              		.type	klattvocab_virus, %object
 3503              		.size	klattvocab_virus, 85
 3504              	klattvocab_virus:
 3505 0000 1E       		.byte	30
 3506 0001 1D04001E 		.ascii	"\035\004\000\036\000\000\035\004\000;\007\000.\007\000"
 3506      00001D04 
 3506      003B0700 
 3506      2E0700
 3507 0010 2B0B0031 		.ascii	"+\013\0001\007\000\031\014\000\001\006\000\001\006\000"
 3507      0700190C 
 3507      00010600 
 3507      010600
 3508 001f 00       		.ascii	"\000"
 3509 0020 00000000 		.space	53
 3509      00000000 
 3509      00000000 
 3509      00000000 
 3509      00000000 
 3510              		.section	.rodata.klattvocab_video,"a"
 3511              		.align	2
 3512              		.type	klattvocab_video, %object
 3513              		.size	klattvocab_video, 85
 3514              	klattvocab_video:
 3515 0000 24       		.byte	36
 3516 0001 1D04001E 		.ascii	"\035\004\000\036\000\000\035\004\000.\007\000\016\010"
 3516      00001D04 
 3516      002E0700 
ARM GAS  /tmp/ccsO36p4.s 			page 66


 3516      0E08
 3517 000f 000F0100 		.ascii	"\000\017\001\000\020\001\0005\011\000?\007\000>\007"
 3517      10010035 
 3517      09003F07 
 3517      003E07
 3518 001e 00010600 		.ascii	"\000\001\006\000\001\006\000\000"
 3518      01060000 
 3519 0026 00000000 		.space	47
 3519      00000000 
 3519      00000000 
 3519      00000000 
 3519      00000000 
 3520              		.section	.rodata.klattvocab_vacuum,"a"
 3521              		.align	2
 3522              		.type	klattvocab_vacuum, %object
 3523              		.size	klattvocab_vacuum, 85
 3524              	klattvocab_vacuum:
 3525 0000 2A       		.byte	42
 3526 0001 1D04001E 		.ascii	"\035\004\000\036\000\000\035\004\000:\007\000.\007\000"
 3526      00001D04 
 3526      003A0700 
 3526      2E0700
 3527 0010 08080009 		.ascii	"\010\010\000\011\001\000\012\004\000-\007\0009\013\000"
 3527      01000A04 
 3527      002D0700 
 3527      390B00
 3528 001f 31070014 		.ascii	"1\007\000\024\010\000\001\006\000\001\006\000\000"
 3528      08000106 
 3528      00010600 
 3528      00
 3529 002c 00000000 		.space	41
 3529      00000000 
 3529      00000000 
 3529      00000000 
 3529      00000000 
 3530              		.section	.rodata.klattvocab_tomb,"a"
 3531              		.align	2
 3532              		.type	klattvocab_tomb, %object
 3533              		.size	klattvocab_tomb, 85
 3534              	klattvocab_tomb:
 3535 0000 1E       		.byte	30
 3536 0001 05060006 		.ascii	"\005\006\000\006\001\000\007\002\0002\007\000\024\010"
 3536      01000702 
 3536      00320700 
 3536      1408
 3537 000f 000B0C00 		.ascii	"\000\013\014\000\014\001\000\015\000\000\001\006\000"
 3537      0C01000D 
 3537      00000106 
 3537      00
 3538 001c 01060000 		.ascii	"\001\006\000\000"
 3539 0020 00000000 		.space	53
 3539      00000000 
 3539      00000000 
 3539      00000000 
 3539      00000000 
 3540              		.section	.rodata.klattvocab_time,"a"
 3541              		.align	2
ARM GAS  /tmp/ccsO36p4.s 			page 67


 3542              		.type	klattvocab_time, %object
 3543              		.size	klattvocab_time, 85
 3544              	klattvocab_time:
 3545 0000 18       		.byte	24
 3546 0001 05060006 		.ascii	"\005\006\000\006\001\000\007\002\000;\007\000.\007\000"
 3546      01000702 
 3546      003B0700 
 3546      2E0700
 3547 0010 14080001 		.ascii	"\024\010\000\001\006\000\001\006\000\000"
 3547      06000106 
 3547      0000
 3548 001a 00000000 		.space	59
 3548      00000000 
 3548      00000000 
 3548      00000000 
 3548      00000000 
 3549              		.section	.rodata.klattvocab_talk,"a"
 3550              		.align	2
 3551              		.type	klattvocab_talk, %object
 3552              		.size	klattvocab_talk, 85
 3553              	klattvocab_talk:
 3554 0000 1B       		.byte	27
 3555 0001 05060006 		.ascii	"\005\006\000\006\001\000\007\002\0008\015\000\010\010"
 3555      01000702 
 3555      00380D00 
 3555      0808
 3556 000f 00090100 		.ascii	"\000\011\001\000\012\004\000\001\006\000\001\006\000"
 3556      0A040001 
 3556      06000106 
 3556      00
 3557 001c 00       		.ascii	"\000"
 3558 001d 00000000 		.space	56
 3558      00000000 
 3558      00000000 
 3558      00000000 
 3558      00000000 
 3559              		.section	.rodata.klattvocab_synthesizer,"a"
 3560              		.align	2
 3561              		.type	klattvocab_synthesizer, %object
 3562              		.size	klattvocab_synthesizer, 85
 3563              	klattvocab_synthesizer:
 3564 0000 30       		.byte	48
 3565 0001 190C002E 		.ascii	"\031\014\000.\007\000\025\010\000\030\017\000/\006\000"
 3565      07001508 
 3565      00180F00 
 3565      2F0600
 3566 0010 2104001E 		.ascii	"!\004\000\036\000\000\"\004\000;\007\000.\007\000!\004"
 3566      00002204 
 3566      003B0700 
 3566      2E070021 
 3566      04
 3567 0021 001E0000 		.ascii	"\000\036\000\000\"\004\0006\020\000\001\006\000\001"
 3567      22040036 
 3567      10000106 
 3567      0001
 3568 002f 060000   		.ascii	"\006\000\000"
 3569 0032 00000000 		.space	35
ARM GAS  /tmp/ccsO36p4.s 			page 68


 3569      00000000 
 3569      00000000 
 3569      00000000 
 3569      00000000 
 3570              		.section	.rodata.klattvocab_surface,"a"
 3571              		.align	2
 3572              		.type	klattvocab_surface, %object
 3573              		.size	klattvocab_surface, 85
 3574              	klattvocab_surface:
 3575 0000 18       		.byte	24
 3576 0001 190C0036 		.ascii	"\031\014\0006\020\000\027\014\000:\007\000.\007\000"
 3576      1000170C 
 3576      003A0700 
 3576      2E0700
 3577 0010 190C0001 		.ascii	"\031\014\000\001\006\000\001\006\000\000"
 3577      06000106 
 3577      0000
 3578 001a 00000000 		.space	59
 3578      00000000 
 3578      00000000 
 3578      00000000 
 3578      00000000 
 3579              		.section	.rodata.klattvocab_subject,"a"
 3580              		.align	2
 3581              		.type	klattvocab_subject, %object
 3582              		.size	klattvocab_subject, 85
 3583              	klattvocab_subject:
 3584 0000 36       		.byte	54
 3585 0001 190C0031 		.ascii	"\031\014\0001\007\000\013\014\000\014\001\000\015\000"
 3585      07000B0C 
 3585      000C0100 
 3585      0D00
 3586 000f 00260400 		.ascii	"\000&\004\000'\003\000\036\000\000'\003\000/\006\000"
 3586      2703001E 
 3586      00002703 
 3586      002F0600 
 3587 001f 08080009 		.ascii	"\010\010\000\011\001\000\012\004\000\005\006\000\006"
 3587      01000A04 
 3587      00050600 
 3587      06
 3588 002c 01000702 		.ascii	"\001\000\007\002\000\001\006\000\001\006\000\000"
 3588      00010600 
 3588      01060000 
 3589 0038 00000000 		.space	29
 3589      00000000 
 3589      00000000 
 3589      00000000 
 3589      00000000 
 3590              		.section	.rodata.klattvocab_sun,"a"
 3591              		.align	2
 3592              		.type	klattvocab_sun, %object
 3593              		.size	klattvocab_sun, 85
 3594              	klattvocab_sun:
 3595 0000 0F       		.byte	15
 3596 0001 190C0031 		.ascii	"\031\014\0001\007\000\025\010\000\001\006\000\001\006"
 3596      07001508 
 3596      00010600 
ARM GAS  /tmp/ccsO36p4.s 			page 69


 3596      0106
 3597 000f 0000     		.ascii	"\000\000"
 3598 0011 00000000 		.space	68
 3598      00000000 
 3598      00000000 
 3598      00000000 
 3598      00000000 
 3599              		.section	.rodata.klattvocab_speak,"a"
 3600              		.align	2
 3601              		.type	klattvocab_speak, %object
 3602              		.size	klattvocab_speak, 85
 3603              	klattvocab_speak:
 3604 0000 1E       		.byte	30
 3605 0001 190C0002 		.ascii	"\031\014\000\002\010\000\003\001\000\004\002\0005\011"
 3605      08000301 
 3605      00040200 
 3605      3509
 3606 000f 00080800 		.ascii	"\000\010\010\000\011\001\000\012\004\000\001\006\000"
 3606      0901000A 
 3606      04000106 
 3606      00
 3607 001c 01060000 		.ascii	"\001\006\000\000"
 3608 0020 00000000 		.space	53
 3608      00000000 
 3608      00000000 
 3608      00000000 
 3608      00000000 
 3609              		.section	.rodata.klattvocab_spectral,"a"
 3610              		.align	2
 3611              		.type	klattvocab_spectral, %object
 3612              		.size	klattvocab_spectral, 85
 3613              	klattvocab_spectral:
 3614 0000 30       		.byte	48
 3615 0001 190C0002 		.ascii	"\031\014\000\002\010\000\003\001\000\004\002\000/\006"
 3615      08000301 
 3615      00040200 
 3615      2F06
 3616 000f 00080800 		.ascii	"\000\010\010\000\011\001\000\012\004\000\005\006\000"
 3616      0901000A 
 3616      04000506 
 3616      00
 3617 001c 06010007 		.ascii	"\006\001\000\007\002\000+\013\0004\004\000(\010\000"
 3617      02002B0B 
 3617      00340400 
 3617      280800
 3618 002b 01060001 		.ascii	"\001\006\000\001\006\000\000"
 3618      060000
 3619 0032 00000000 		.space	35
 3619      00000000 
 3619      00000000 
 3619      00000000 
 3619      00000000 
 3620              		.section	.rodata.klattvocab_space,"a"
 3621              		.align	2
 3622              		.type	klattvocab_space, %object
 3623              		.size	klattvocab_space, 85
 3624              	klattvocab_space:
ARM GAS  /tmp/ccsO36p4.s 			page 70


 3625 0000 1B       		.byte	27
 3626 0001 190C0002 		.ascii	"\031\014\000\002\010\000\003\001\000\004\002\000:\007"
 3626      08000301 
 3626      00040200 
 3626      3A07
 3627 000f 002E0700 		.ascii	"\000.\007\000\031\014\000\001\006\000\001\006\000\000"
 3627      190C0001 
 3627      06000106 
 3627      0000
 3628 001d 00000000 		.space	56
 3628      00000000 
 3628      00000000 
 3628      00000000 
 3628      00000000 
 3629              		.section	.rodata.klattvocab_skin,"a"
 3630              		.align	2
 3631              		.type	klattvocab_skin, %object
 3632              		.size	klattvocab_skin, 85
 3633              	klattvocab_skin:
 3634 0000 18       		.byte	24
 3635 0001 190C0008 		.ascii	"\031\014\000\010\010\000\011\001\000\012\004\000.\007"
 3635      08000901 
 3635      000A0400 
 3635      2E07
 3636 000f 00150800 		.ascii	"\000\025\010\000\001\006\000\001\006\000\000"
 3636      01060001 
 3636      060000
 3637 001a 00000000 		.space	59
 3637      00000000 
 3637      00000000 
 3637      00000000 
 3637      00000000 
 3638              		.section	.rodata.klattvocab_signal,"a"
 3639              		.align	2
 3640              		.type	klattvocab_signal, %object
 3641              		.size	klattvocab_signal, 85
 3642              	klattvocab_signal:
 3643 0000 1E       		.byte	30
 3644 0001 190C002E 		.ascii	"\031\014\000.\007\000\021\014\000\022\001\000\023\002"
 3644      0700110C 
 3644      00120100 
 3644      1302
 3645 000f 00150800 		.ascii	"\000\025\010\0004\004\000(\010\000\001\006\000\001\006"
 3645      34040028 
 3645      08000106 
 3645      000106
 3646 001e 0000     		.ascii	"\000\000"
 3647 0020 00000000 		.space	53
 3647      00000000 
 3647      00000000 
 3647      00000000 
 3647      00000000 
 3648              		.section	.rodata.klattvocab_shell,"a"
 3649              		.align	2
 3650              		.type	klattvocab_shell, %object
 3651              		.size	klattvocab_shell, 85
 3652              	klattvocab_shell:
ARM GAS  /tmp/ccsO36p4.s 			page 71


 3653 0000 0F       		.byte	15
 3654 0001 1A0C002F 		.ascii	"\032\014\000/\006\000(\010\000\001\006\000\001\006\000"
 3654      06002808 
 3654      00010600 
 3654      010600
 3655 0010 00       		.ascii	"\000"
 3656 0011 00000000 		.space	68
 3656      00000000 
 3656      00000000 
 3656      00000000 
 3656      00000000 
 3657              		.section	.rodata.klattvocab_serpent,"a"
 3658              		.align	2
 3659              		.type	klattvocab_serpent, %object
 3660              		.size	klattvocab_serpent, 85
 3661              	klattvocab_serpent:
 3662 0000 24       		.byte	36
 3663 0001 190C0036 		.ascii	"\031\014\0006\020\000\002\010\000\003\001\000\004\002"
 3663      10000208 
 3663      00030100 
 3663      0402
 3664 000f 002F0600 		.ascii	"\000/\006\000\025\010\000\005\006\000\006\001\000\007"
 3664      15080005 
 3664      06000601 
 3664      0007
 3665 001d 02000106 		.ascii	"\002\000\001\006\000\001\006\000\000"
 3665      00010600 
 3665      00
 3666 0026 00000000 		.space	47
 3666      00000000 
 3666      00000000 
 3666      00000000 
 3666      00000000 
 3667              		.section	.rodata.klattvocab_sediment,"a"
 3668              		.align	2
 3669              		.type	klattvocab_sediment, %object
 3670              		.size	klattvocab_sediment, 85
 3671              	klattvocab_sediment:
 3672 0000 2A       		.byte	42
 3673 0001 190C002F 		.ascii	"\031\014\000/\006\000\016\010\000\017\001\000\020\001"
 3673      06000E08 
 3673      000F0100 
 3673      1001
 3674 000f 002E0700 		.ascii	"\000.\007\000\024\010\000/\006\000\025\010\000\005\006"
 3674      1408002F 
 3674      06001508 
 3674      000506
 3675 001e 00060100 		.ascii	"\000\006\001\000\007\002\000\001\006\000\001\006\000"
 3675      07020001 
 3675      06000106 
 3675      00
 3676 002b 00       		.ascii	"\000"
 3677 002c 00000000 		.space	41
 3677      00000000 
 3677      00000000 
 3677      00000000 
 3677      00000000 
ARM GAS  /tmp/ccsO36p4.s 			page 72


 3678              		.section	.rodata.klattvocab_seclusion,"a"
 3679              		.align	2
 3680              		.type	klattvocab_seclusion, %object
 3681              		.size	klattvocab_seclusion, 85
 3682              	klattvocab_seclusion:
 3683 0000 2A       		.byte	42
 3684 0001 190C002F 		.ascii	"\031\014\000/\006\000\010\010\000\011\001\000\012\004"
 3684      06000808 
 3684      00090100 
 3684      0A04
 3685 000f 00280800 		.ascii	"\000(\010\0009\013\000#\004\000\036\000\000#\004\000"
 3685      390B0023 
 3685      04001E00 
 3685      00230400 
 3686 001f 34040015 		.ascii	"4\004\000\025\010\000\001\006\000\001\006\000\000"
 3686      08000106 
 3686      00010600 
 3686      00
 3687 002c 00000000 		.space	41
 3687      00000000 
 3687      00000000 
 3687      00000000 
 3687      00000000 
 3688              		.section	.rodata.klattvocab_robot,"a"
 3689              		.align	2
 3690              		.type	klattvocab_robot, %object
 3691              		.size	klattvocab_robot, 85
 3692              	klattvocab_robot:
 3693 0000 21       		.byte	33
 3694 0001 2B0B0032 		.ascii	"+\013\0002\007\000\013\014\000\014\001\000\015\000\000"
 3694      07000B0C 
 3694      000C0100 
 3694      0D0000
 3695 0010 32070005 		.ascii	"2\007\000\005\006\000\006\001\000\007\002\000\001\006"
 3695      06000601 
 3695      00070200 
 3695      0106
 3696 001e 00010600 		.ascii	"\000\001\006\000\000"
 3696      00
 3697 0023 00000000 		.space	50
 3697      00000000 
 3697      00000000 
 3697      00000000 
 3697      00000000 
 3698              		.section	.rodata.klattvocab_return,"a"
 3699              		.align	2
 3700              		.type	klattvocab_return, %object
 3701              		.size	klattvocab_return, 85
 3702              	klattvocab_return:
 3703 0000 1B       		.byte	27
 3704 0001 2B0B0035 		.ascii	"+\013\0005\011\000\005\006\000\006\001\000\007\002\000"
 3704      09000506 
 3704      00060100 
 3704      070200
 3705 0010 36100015 		.ascii	"6\020\000\025\010\000\001\006\000\001\006\000\000"
 3705      08000106 
 3705      00010600 
ARM GAS  /tmp/ccsO36p4.s 			page 73


 3705      00
 3706 001d 00000000 		.space	56
 3706      00000000 
 3706      00000000 
 3706      00000000 
 3706      00000000 
 3707              		.section	.rodata.klattvocab_red,"a"
 3708              		.align	2
 3709              		.type	klattvocab_red, %object
 3710              		.size	klattvocab_red, 85
 3711              	klattvocab_red:
 3712 0000 15       		.byte	21
 3713 0001 2B0B002F 		.ascii	"+\013\000/\006\000\016\010\000\017\001\000\020\001\000"
 3713      06000E08 
 3713      000F0100 
 3713      100100
 3714 0010 01060001 		.ascii	"\001\006\000\001\006\000\000"
 3714      060000
 3715 0017 00000000 		.space	62
 3715      00000000 
 3715      00000000 
 3715      00000000 
 3715      00000000 
 3716              		.section	.rodata.klattvocab_real,"a"
 3717              		.align	2
 3718              		.type	klattvocab_real, %object
 3719              		.size	klattvocab_real, 85
 3720              	klattvocab_real:
 3721 0000 0F       		.byte	15
 3722 0001 2B0B0035 		.ascii	"+\013\0005\011\000(\010\000\001\006\000\001\006\000"
 3722      09002808 
 3722      00010600 
 3722      010600
 3723 0010 00       		.ascii	"\000"
 3724 0011 00000000 		.space	68
 3724      00000000 
 3724      00000000 
 3724      00000000 
 3724      00000000 
 3725              		.section	.rodata.klattvocab_raven,"a"
 3726              		.align	2
 3727              		.type	klattvocab_raven, %object
 3728              		.size	klattvocab_raven, 85
 3729              	klattvocab_raven:
 3730 0000 1E       		.byte	30
 3731 0001 2B0B003A 		.ascii	"+\013\000:\007\000.\007\000\035\004\000\036\000\000"
 3731      07002E07 
 3731      001D0400 
 3731      1E0000
 3732 0010 1D04002F 		.ascii	"\035\004\000/\006\000\025\010\000\001\006\000\001\006"
 3732      06001508 
 3732      00010600 
 3732      0106
 3733 001e 0000     		.ascii	"\000\000"
 3734 0020 00000000 		.space	53
 3734      00000000 
 3734      00000000 
ARM GAS  /tmp/ccsO36p4.s 			page 74


 3734      00000000 
 3734      00000000 
 3735              		.section	.rodata.klattvocab_radioactivity,"a"
 3736              		.align	2
 3737              		.type	klattvocab_radioactivity, %object
 3738              		.size	klattvocab_radioactivity, 85
 3739              	klattvocab_radioactivity:
 3740 0000 4E       		.byte	78
 3741 0001 2B0B003A 		.ascii	"+\013\000:\007\000.\007\000\016\010\000\017\001\000"
 3741      07002E07 
 3741      000E0800 
 3741      0F0100
 3742 0010 10010040 		.ascii	"\020\001\000@\007\000A\007\0003\005\000\010\010\000"
 3742      07004107 
 3742      00330500 
 3742      080800
 3743 001f 0901000A 		.ascii	"\011\001\000\012\004\000\005\006\000\006\001\000\007"
 3743      04000506 
 3743      00060100 
 3743      07
 3744 002c 02002E07 		.ascii	"\002\000.\007\000\035\004\000\036\000\000\035\004\000"
 3744      001D0400 
 3744      1E00001D 
 3744      0400
 3745 003a 2E070005 		.ascii	".\007\000\005\006\000\006\001\000\007\002\0005\011\000"
 3745      06000601 
 3745      00070200 
 3745      350900
 3746 0049 01060001 		.ascii	"\001\006\000\001\006\000\000"
 3746      060000
 3747 0050 00000000 		.space	5
 3747      00
 3748              		.section	.rodata.klattvocab_pure,"a"
 3749              		.align	2
 3750              		.type	klattvocab_pure, %object
 3751              		.size	klattvocab_pure, 85
 3752              	klattvocab_pure:
 3753 0000 18       		.byte	24
 3754 0001 02080003 		.ascii	"\002\010\000\003\001\000\004\002\000-\007\0003\005\000"
 3754      01000402 
 3754      002D0700 
 3754      330500
 3755 0010 2B0B0001 		.ascii	"+\013\000\001\006\000\001\006\000\000"
 3755      06000106 
 3755      0000
 3756 001a 00000000 		.space	59
 3756      00000000 
 3756      00000000 
 3756      00000000 
 3756      00000000 
 3757              		.section	.rodata.klattvocab_program,"a"
 3758              		.align	2
 3759              		.type	klattvocab_program, %object
 3760              		.size	klattvocab_program, 85
 3761              	klattvocab_program:
 3762 0000 27       		.byte	39
 3763 0001 02080003 		.ascii	"\002\010\000\003\001\000\004\002\000+\013\0002\007\000"
ARM GAS  /tmp/ccsO36p4.s 			page 75


 3763      01000402 
 3763      002B0B00 
 3763      320700
 3764 0010 110C0012 		.ascii	"\021\014\000\022\001\000\023\002\000+\013\0000\007\000"
 3764      01001302 
 3764      002B0B00 
 3764      300700
 3765 001f 14080001 		.ascii	"\024\010\000\001\006\000\001\006\000\000"
 3765      06000106 
 3765      0000
 3766 0029 00000000 		.space	44
 3766      00000000 
 3766      00000000 
 3766      00000000 
 3766      00000000 
 3767              		.section	.rodata.klattvocab_processor,"a"
 3768              		.align	2
 3769              		.type	klattvocab_processor, %object
 3770              		.size	klattvocab_processor, 85
 3771              	klattvocab_processor:
 3772 0000 24       		.byte	36
 3773 0001 02080003 		.ascii	"\002\010\000\003\001\000\004\002\000+\013\000?\007\000"
 3773      01000402 
 3773      002B0B00 
 3773      3F0700
 3774 0010 3E070019 		.ascii	">\007\000\031\014\000/\006\000\031\014\0006\020\000"
 3774      0C002F06 
 3774      00190C00 
 3774      361000
 3775 001f 01060001 		.ascii	"\001\006\000\001\006\000\000"
 3775      060000
 3776 0026 00000000 		.space	47
 3776      00000000 
 3776      00000000 
 3776      00000000 
 3776      00000000 
 3777              		.section	.rodata.klattvocab_plague,"a"
 3778              		.align	2
 3779              		.type	klattvocab_plague, %object
 3780              		.size	klattvocab_plague, 85
 3781              	klattvocab_plague:
 3782 0000 21       		.byte	33
 3783 0001 02080003 		.ascii	"\002\010\000\003\001\000\004\002\000(\010\000:\007\000"
 3783      01000402 
 3783      00280800 
 3783      3A0700
 3784 0010 2E070011 		.ascii	".\007\000\021\014\000\022\001\000\023\002\000\001\006"
 3784      0C001201 
 3784      00130200 
 3784      0106
 3785 001e 00010600 		.ascii	"\000\001\006\000\000"
 3785      00
 3786 0023 00000000 		.space	50
 3786      00000000 
 3786      00000000 
 3786      00000000 
 3786      00000000 
ARM GAS  /tmp/ccsO36p4.s 			page 76


 3787              		.section	.rodata.klattvocab_pixel,"a"
 3788              		.align	2
 3789              		.type	klattvocab_pixel, %object
 3790              		.size	klattvocab_pixel, 85
 3791              	klattvocab_pixel:
 3792 0000 27       		.byte	39
 3793 0001 02080003 		.ascii	"\002\010\000\003\001\000\004\002\000;\007\000.\007\000"
 3793      01000402 
 3793      003B0700 
 3793      2E0700
 3794 0010 08080009 		.ascii	"\010\010\000\011\001\000\012\004\000\031\014\000/\006"
 3794      01000A04 
 3794      00190C00 
 3794      2F06
 3795 001e 00280800 		.ascii	"\000(\010\000\001\006\000\001\006\000\000"
 3795      01060001 
 3795      060000
 3796 0029 00000000 		.space	44
 3796      00000000 
 3796      00000000 
 3796      00000000 
 3796      00000000 
 3797              		.section	.rodata.klattvocab_piss,"a"
 3798              		.align	2
 3799              		.type	klattvocab_piss, %object
 3800              		.size	klattvocab_piss, 85
 3801              	klattvocab_piss:
 3802 0000 15       		.byte	21
 3803 0001 02080003 		.ascii	"\002\010\000\003\001\000\004\002\000.\007\000\031\014"
 3803      01000402 
 3803      002E0700 
 3803      190C
 3804 000f 00010600 		.ascii	"\000\001\006\000\001\006\000\000"
 3804      01060000 
 3805 0017 00000000 		.space	62
 3805      00000000 
 3805      00000000 
 3805      00000000 
 3805      00000000 
 3806              		.section	.rodata.klattvocab_physical,"a"
 3807              		.align	2
 3808              		.type	klattvocab_physical, %object
 3809              		.size	klattvocab_physical, 85
 3810              	klattvocab_physical:
 3811 0000 24       		.byte	36
 3812 0001 170C002E 		.ascii	"\027\014\000.\007\000\031\014\000;\007\000.\007\000"
 3812      0700190C 
 3812      003B0700 
 3812      2E0700
 3813 0010 08080009 		.ascii	"\010\010\000\011\001\000\012\004\0004\004\000(\010\000"
 3813      01000A04 
 3813      00340400 
 3813      280800
 3814 001f 01060001 		.ascii	"\001\006\000\001\006\000\000"
 3814      060000
 3815 0026 00000000 		.space	47
 3815      00000000 
ARM GAS  /tmp/ccsO36p4.s 			page 77


 3815      00000000 
 3815      00000000 
 3815      00000000 
 3816              		.section	.rodata.klattvocab_on,"a"
 3817              		.align	2
 3818              		.type	klattvocab_on, %object
 3819              		.size	klattvocab_on, 85
 3820              	klattvocab_on:
 3821 0000 0C       		.byte	12
 3822 0001 32070015 		.ascii	"2\007\000\025\010\000\001\006\000\001\006\000\000"
 3822      08000106 
 3822      00010600 
 3822      00
 3823 000e 00000000 		.space	71
 3823      00000000 
 3823      00000000 
 3823      00000000 
 3823      00000000 
 3824              		.section	.rodata.klattvocab_off,"a"
 3825              		.align	2
 3826              		.type	klattvocab_off, %object
 3827              		.size	klattvocab_off, 85
 3828              	klattvocab_off:
 3829 0000 0F       		.byte	15
 3830 0001 380D0017 		.ascii	"8\015\000\027\014\000\027\014\000\001\006\000\001\006"
 3830      0C00170C 
 3830      00010600 
 3830      0106
 3831 000f 0000     		.ascii	"\000\000"
 3832 0011 00000000 		.space	68
 3832      00000000 
 3832      00000000 
 3832      00000000 
 3832      00000000 
 3833              		.section	.rodata.klattvocab_obscure,"a"
 3834              		.align	2
 3835              		.type	klattvocab_obscure, %object
 3836              		.size	klattvocab_obscure, 85
 3837              	klattvocab_obscure:
 3838 0000 27       		.byte	39
 3839 0001 3207000B 		.ascii	"2\007\000\013\014\000\014\001\000\015\000\000\031\014"
 3839      0C000C01 
 3839      000D0000 
 3839      190C
 3840 000f 00080800 		.ascii	"\000\010\010\000\011\001\000\012\004\000-\007\0003\005"
 3840      0901000A 
 3840      04002D07 
 3840      003305
 3841 001e 002B0B00 		.ascii	"\000+\013\000\001\006\000\001\006\000\000"
 3841      01060001 
 3841      060000
 3842 0029 00000000 		.space	44
 3842      00000000 
 3842      00000000 
 3842      00000000 
 3842      00000000 
 3843              		.section	.rodata.klattvocab_nuclear,"a"
ARM GAS  /tmp/ccsO36p4.s 			page 78


 3844              		.align	2
 3845              		.type	klattvocab_nuclear, %object
 3846              		.size	klattvocab_nuclear, 85
 3847              	klattvocab_nuclear:
 3848 0000 21       		.byte	33
 3849 0001 15080031 		.ascii	"\025\010\0001\007\000\010\010\000\011\001\000\012\004"
 3849      07000808 
 3849      00090100 
 3849      0A04
 3850 000f 00340400 		.ascii	"\0004\004\000(\010\0005\011\000+\013\000\001\006\000"
 3850      28080035 
 3850      09002B0B 
 3850      00010600 
 3851 001f 01060000 		.ascii	"\001\006\000\000"
 3852 0023 00000000 		.space	50
 3852      00000000 
 3852      00000000 
 3852      00000000 
 3852      00000000 
 3853              		.section	.rodata.klattvocab_nothing,"a"
 3854              		.align	2
 3855              		.type	klattvocab_nothing, %object
 3856              		.size	klattvocab_nothing, 85
 3857              	klattvocab_nothing:
 3858 0000 15       		.byte	21
 3859 0001 15080032 		.ascii	"\025\010\0002\007\000\030\017\000.\007\000\026\010\000"
 3859      0700180F 
 3859      002E0700 
 3859      160800
 3860 0010 01060001 		.ascii	"\001\006\000\001\006\000\000"
 3860      060000
 3861 0017 00000000 		.space	62
 3861      00000000 
 3861      00000000 
 3861      00000000 
 3861      00000000 
 3862              		.section	.rodata.klattvocab_noise,"a"
 3863              		.align	2
 3864              		.type	klattvocab_noise, %object
 3865              		.size	klattvocab_noise, 85
 3866              	klattvocab_noise:
 3867 0000 18       		.byte	24
 3868 0001 1508003C 		.ascii	"\025\010\000<\007\000.\007\000!\004\000\036\000\000"
 3868      07002E07 
 3868      00210400 
 3868      1E0000
 3869 0010 22040001 		.ascii	"\"\004\000\001\006\000\001\006\000\000"
 3869      06000106 
 3869      0000
 3870 001a 00000000 		.space	59
 3870      00000000 
 3870      00000000 
 3870      00000000 
 3870      00000000 
 3871              		.section	.rodata.klattvocab_nigredo,"a"
 3872              		.align	2
 3873              		.type	klattvocab_nigredo, %object
ARM GAS  /tmp/ccsO36p4.s 			page 79


 3874              		.size	klattvocab_nigredo, 85
 3875              	klattvocab_nigredo:
 3876 0000 2A       		.byte	42
 3877 0001 1508002E 		.ascii	"\025\010\000.\007\000\021\014\000\022\001\000\023\002"
 3877      0700110C 
 3877      00120100 
 3877      1302
 3878 000f 002B0B00 		.ascii	"\000+\013\000/\006\000\016\010\000\017\001\000\020\001"
 3878      2F06000E 
 3878      08000F01 
 3878      001001
 3879 001e 003F0700 		.ascii	"\000?\007\000>\007\000\001\006\000\001\006\000\000"
 3879      3E070001 
 3879      06000106 
 3879      0000
 3880 002c 00000000 		.space	41
 3880      00000000 
 3880      00000000 
 3880      00000000 
 3880      00000000 
 3881              		.section	.rodata.klattvocab_night,"a"
 3882              		.align	2
 3883              		.type	klattvocab_night, %object
 3884              		.size	klattvocab_night, 85
 3885              	klattvocab_night:
 3886 0000 18       		.byte	24
 3887 0001 1508003B 		.ascii	"\025\010\000;\007\000.\007\000\005\006\000\006\001\000"
 3887      07002E07 
 3887      00050600 
 3887      060100
 3888 0010 07020001 		.ascii	"\007\002\000\001\006\000\001\006\000\000"
 3888      06000106 
 3888      0000
 3889 001a 00000000 		.space	59
 3889      00000000 
 3889      00000000 
 3889      00000000 
 3889      00000000 
 3890              		.section	.rodata.klattvocab_network,"a"
 3891              		.align	2
 3892              		.type	klattvocab_network, %object
 3893              		.size	klattvocab_network, 85
 3894              	klattvocab_network:
 3895 0000 24       		.byte	36
 3896 0001 1508002F 		.ascii	"\025\010\000/\006\000\005\006\000\006\001\000\007\002"
 3896      06000506 
 3896      00060100 
 3896      0702
 3897 000f 002C0800 		.ascii	"\000,\010\0006\020\000\010\010\000\011\001\000\012\004"
 3897      36100008 
 3897      08000901 
 3897      000A04
 3898 001e 00010600 		.ascii	"\000\001\006\000\001\006\000\000"
 3898      01060000 
 3899 0026 00000000 		.space	47
 3899      00000000 
 3899      00000000 
ARM GAS  /tmp/ccsO36p4.s 			page 80


 3899      00000000 
 3899      00000000 
 3900              		.section	.rodata.klattvocab_negative,"a"
 3901              		.align	2
 3902              		.type	klattvocab_negative, %object
 3903              		.size	klattvocab_negative, 85
 3904              	klattvocab_negative:
 3905 0000 2D       		.byte	45
 3906 0001 1508002F 		.ascii	"\025\010\000/\006\000\021\014\000\022\001\000\023\002"
 3906      0600110C 
 3906      00120100 
 3906      1302
 3907 000f 00300700 		.ascii	"\0000\007\000\005\006\000\006\001\000\007\002\000.\007"
 3907      05060006 
 3907      01000702 
 3907      002E07
 3908 001e 001D0400 		.ascii	"\000\035\004\000\036\000\000\035\004\000\001\006\000"
 3908      1E00001D 
 3908      04000106 
 3908      00
 3909 002b 01060000 		.ascii	"\001\006\000\000"
 3910 002f 00000000 		.space	38
 3910      00000000 
 3910      00000000 
 3910      00000000 
 3910      00000000 
 3911              		.section	.rodata.klattvocab_moon,"a"
 3912              		.align	2
 3913              		.type	klattvocab_moon, %object
 3914              		.size	klattvocab_moon, 85
 3915              	klattvocab_moon:
 3916 0000 0F       		.byte	15
 3917 0001 14080039 		.ascii	"\024\010\0009\013\000\025\010\000\001\006\000\001\006"
 3917      0B001508 
 3917      00010600 
 3917      0106
 3918 000f 0000     		.ascii	"\000\000"
 3919 0011 00000000 		.space	68
 3919      00000000 
 3919      00000000 
 3919      00000000 
 3919      00000000 
 3920              		.section	.rodata.klattvocab_module,"a"
 3921              		.align	2
 3922              		.type	klattvocab_module, %object
 3923              		.size	klattvocab_module, 85
 3924              	klattvocab_module:
 3925 0000 1B       		.byte	27
 3926 0001 14080032 		.ascii	"\024\010\0002\007\000\016\010\000\017\001\000\020\001"
 3926      07000E08 
 3926      000F0100 
 3926      1001
 3927 000f 00390B00 		.ascii	"\0009\013\000(\010\000\001\006\000\001\006\000\000"
 3927      28080001 
 3927      06000106 
 3927      0000
 3928 001d 00000000 		.space	56
ARM GAS  /tmp/ccsO36p4.s 			page 81


 3928      00000000 
 3928      00000000 
 3928      00000000 
 3928      00000000 
 3929              		.section	.rodata.klattvocab_mind,"a"
 3930              		.align	2
 3931              		.type	klattvocab_mind, %object
 3932              		.size	klattvocab_mind, 85
 3933              	klattvocab_mind:
 3934 0000 1B       		.byte	27
 3935 0001 1408003B 		.ascii	"\024\010\000;\007\000.\007\000\025\010\000\016\010\000"
 3935      07002E07 
 3935      00150800 
 3935      0E0800
 3936 0010 0F010010 		.ascii	"\017\001\000\020\001\000\001\006\000\001\006\000\000"
 3936      01000106 
 3936      00010600 
 3936      00
 3937 001d 00000000 		.space	56
 3937      00000000 
 3937      00000000 
 3937      00000000 
 3937      00000000 
 3938              		.section	.rodata.klattvocab_micro,"a"
 3939              		.align	2
 3940              		.type	klattvocab_micro, %object
 3941              		.size	klattvocab_micro, 85
 3942              	klattvocab_micro:
 3943 0000 1E       		.byte	30
 3944 0001 1408002E 		.ascii	"\024\010\000.\007\000\010\010\000\011\001\000\012\004"
 3944      07000808 
 3944      00090100 
 3944      0A04
 3945 000f 002B0B00 		.ascii	"\000+\013\000?\007\000>\007\000\001\006\000\001\006"
 3945      3F07003E 
 3945      07000106 
 3945      000106
 3946 001e 0000     		.ascii	"\000\000"
 3947 0020 00000000 		.space	53
 3947      00000000 
 3947      00000000 
 3947      00000000 
 3947      00000000 
 3948              		.section	.rodata.klattvocab_metal,"a"
 3949              		.align	2
 3950              		.type	klattvocab_metal, %object
 3951              		.size	klattvocab_metal, 85
 3952              	klattvocab_metal:
 3953 0000 1B       		.byte	27
 3954 0001 1408002F 		.ascii	"\024\010\000/\006\000\005\006\000\006\001\000\007\002"
 3954      06000506 
 3954      00060100 
 3954      0702
 3955 000f 00340400 		.ascii	"\0004\004\000(\010\000\001\006\000\001\006\000\000"
 3955      28080001 
 3955      06000106 
 3955      0000
ARM GAS  /tmp/ccsO36p4.s 			page 82


 3956 001d 00000000 		.space	56
 3956      00000000 
 3956      00000000 
 3956      00000000 
 3956      00000000 
 3957              		.section	.rodata.klattvocab_memory,"a"
 3958              		.align	2
 3959              		.type	klattvocab_memory, %object
 3960              		.size	klattvocab_memory, 85
 3961              	klattvocab_memory:
 3962 0000 18       		.byte	24
 3963 0001 1408002F 		.ascii	"\024\010\000/\006\000\024\010\0008\015\000+\013\000"
 3963      06001408 
 3963      00380D00 
 3963      2B0B00
 3964 0010 35090001 		.ascii	"5\011\000\001\006\000\001\006\000\000"
 3964      06000106 
 3964      0000
 3965 001a 00000000 		.space	59
 3965      00000000 
 3965      00000000 
 3965      00000000 
 3965      00000000 
 3966              		.section	.rodata.klattvocab_matter,"a"
 3967              		.align	2
 3968              		.type	klattvocab_matter, %object
 3969              		.size	klattvocab_matter, 85
 3970              	klattvocab_matter:
 3971 0000 21       		.byte	33
 3972 0001 14080030 		.ascii	"\024\010\0000\007\000\005\006\000\006\001\000\007\002"
 3972      07000506 
 3972      00060100 
 3972      0702
 3973 000f 00050600 		.ascii	"\000\005\006\000\006\001\000\007\002\0006\020\000\001"
 3973      06010007 
 3973      02003610 
 3973      0001
 3974 001d 06000106 		.ascii	"\006\000\001\006\000\000"
 3974      0000
 3975 0023 00000000 		.space	50
 3975      00000000 
 3975      00000000 
 3975      00000000 
 3975      00000000 
 3976              		.section	.rodata.klattvocab_mars,"a"
 3977              		.align	2
 3978              		.type	klattvocab_mars, %object
 3979              		.size	klattvocab_mars, 85
 3980              	klattvocab_mars:
 3981 0000 18       		.byte	24
 3982 0001 14080032 		.ascii	"\024\010\0002\007\000+\013\000!\004\000\036\000\000"
 3982      07002B0B 
 3982      00210400 
 3982      1E0000
 3983 0010 22040001 		.ascii	"\"\004\000\001\006\000\001\006\000\000"
 3983      06000106 
 3983      0000
ARM GAS  /tmp/ccsO36p4.s 			page 83


 3984 001a 00000000 		.space	59
 3984      00000000 
 3984      00000000 
 3984      00000000 
 3984      00000000 
 3985              		.section	.rodata.klattvocab_machine,"a"
 3986              		.align	2
 3987              		.type	klattvocab_machine, %object
 3988              		.size	klattvocab_machine, 85
 3989              	klattvocab_machine:
 3990 0000 18       		.byte	24
 3991 0001 14080030 		.ascii	"\024\010\0000\007\000$\004\000%\010\000.\007\000\025"
 3991      07002404 
 3991      00250800 
 3991      2E070015 
 3992 0011 08000106 		.ascii	"\010\000\001\006\000\001\006\000\000"
 3992      00010600 
 3992      00
 3993 001a 00000000 		.space	59
 3993      00000000 
 3993      00000000 
 3993      00000000 
 3993      00000000 
 3994              		.section	.rodata.klattvocab_love,"a"
 3995              		.align	2
 3996              		.type	klattvocab_love, %object
 3997              		.size	klattvocab_love, 85
 3998              	klattvocab_love:
 3999 0000 15       		.byte	21
 4000 0001 28080031 		.ascii	"(\010\0001\007\000\035\004\000\036\000\000\035\004\000"
 4000      07001D04 
 4000      001E0000 
 4000      1D0400
 4001 0010 01060001 		.ascii	"\001\006\000\001\006\000\000"
 4001      060000
 4002 0017 00000000 		.space	62
 4002      00000000 
 4002      00000000 
 4002      00000000 
 4002      00000000 
 4003              		.section	.rodata.klattvocab_live,"a"
 4004              		.align	2
 4005              		.type	klattvocab_live, %object
 4006              		.size	klattvocab_live, 85
 4007              	klattvocab_live:
 4008 0000 18       		.byte	24
 4009 0001 2808003B 		.ascii	"(\010\000;\007\000.\007\000\035\004\000\036\000\000"
 4009      07002E07 
 4009      001D0400 
 4009      1E0000
 4010 0010 1D040001 		.ascii	"\035\004\000\001\006\000\001\006\000\000"
 4010      06000106 
 4010      0000
 4011 001a 00000000 		.space	59
 4011      00000000 
 4011      00000000 
 4011      00000000 
ARM GAS  /tmp/ccsO36p4.s 			page 84


 4011      00000000 
 4012              		.section	.rodata.klattvocab_laser,"a"
 4013              		.align	2
 4014              		.type	klattvocab_laser, %object
 4015              		.size	klattvocab_laser, 85
 4016              	klattvocab_laser:
 4017 0000 15       		.byte	21
 4018 0001 2808003A 		.ascii	"(\010\000:\007\000.\007\000\031\014\0006\020\000\001"
 4018      07002E07 
 4018      00190C00 
 4018      36100001 
 4019 0011 06000106 		.ascii	"\006\000\001\006\000\000"
 4019      0000
 4020 0017 00000000 		.space	62
 4020      00000000 
 4020      00000000 
 4020      00000000 
 4020      00000000 
 4021              		.section	.rodata.klattvocab_labyrinth,"a"
 4022              		.align	2
 4023              		.type	klattvocab_labyrinth, %object
 4024              		.size	klattvocab_labyrinth, 85
 4025              	klattvocab_labyrinth:
 4026 0000 24       		.byte	36
 4027 0001 28080030 		.ascii	"(\010\0000\007\000\013\014\000\014\001\000\015\000\000"
 4027      07000B0C 
 4027      000C0100 
 4027      0D0000
 4028 0010 2E07002B 		.ascii	".\007\000+\013\000.\007\000\025\010\000\030\017\000"
 4028      0B002E07 
 4028      00150800 
 4028      180F00
 4029 001f 01060001 		.ascii	"\001\006\000\001\006\000\000"
 4029      060000
 4030 0026 00000000 		.space	47
 4030      00000000 
 4030      00000000 
 4030      00000000 
 4030      00000000 
 4031              		.section	.rodata.klattvocab_kill,"a"
 4032              		.align	2
 4033              		.type	klattvocab_kill, %object
 4034              		.size	klattvocab_kill, 85
 4035              	klattvocab_kill:
 4036 0000 15       		.byte	21
 4037 0001 08080009 		.ascii	"\010\010\000\011\001\000\012\004\000.\007\000(\010\000"
 4037      01000A04 
 4037      002E0700 
 4037      280800
 4038 0010 01060001 		.ascii	"\001\006\000\001\006\000\000"
 4038      060000
 4039 0017 00000000 		.space	62
 4039      00000000 
 4039      00000000 
 4039      00000000 
 4039      00000000 
 4040              		.section	.rodata.klattvocab_keyboard,"a"
ARM GAS  /tmp/ccsO36p4.s 			page 85


 4041              		.align	2
 4042              		.type	klattvocab_keyboard, %object
 4043              		.size	klattvocab_keyboard, 85
 4044              	klattvocab_keyboard:
 4045 0000 2D       		.byte	45
 4046 0001 08080009 		.ascii	"\010\010\000\011\001\000\012\004\0005\011\000\013\014"
 4046      01000A04 
 4046      00350900 
 4046      0B0C
 4047 000f 000C0100 		.ascii	"\000\014\001\000\015\000\000?\007\000>\007\000+\013"
 4047      0D00003F 
 4047      07003E07 
 4047      002B0B
 4048 001e 000E0800 		.ascii	"\000\016\010\000\017\001\000\020\001\000\001\006\000"
 4048      0F010010 
 4048      01000106 
 4048      00
 4049 002b 01060000 		.ascii	"\001\006\000\000"
 4050 002f 00000000 		.space	38
 4050      00000000 
 4050      00000000 
 4050      00000000 
 4050      00000000 
 4051              		.section	.rodata.klattvocab_instruction,"a"
 4052              		.align	2
 4053              		.type	klattvocab_instruction, %object
 4054              		.size	klattvocab_instruction, 85
 4055              	klattvocab_instruction:
 4056 0000 30       		.byte	48
 4057 0001 2E070015 		.ascii	".\007\000\025\010\000\031\014\000\005\006\000\006\001"
 4057      0800190C 
 4057      00050600 
 4057      0601
 4058 000f 00070200 		.ascii	"\000\007\002\000+\013\0001\007\000\010\010\000\011\001"
 4058      2B0B0031 
 4058      07000808 
 4058      000901
 4059 001e 000A0400 		.ascii	"\000\012\004\000\032\014\0004\004\000\025\010\000\001"
 4059      1A0C0034 
 4059      04001508 
 4059      0001
 4060 002c 06000106 		.ascii	"\006\000\001\006\000\000"
 4060      0000
 4061 0032 00000000 		.space	35
 4061      00000000 
 4061      00000000 
 4061      00000000 
 4061      00000000 
 4062              		.section	.rodata.klattvocab_interpreter,"a"
 4063              		.align	2
 4064              		.type	klattvocab_interpreter, %object
 4065              		.size	klattvocab_interpreter, 85
 4066              	klattvocab_interpreter:
 4067 0000 33       		.byte	51
 4068 0001 2E070015 		.ascii	".\007\000\025\010\000\005\006\000\006\001\000\007\002"
 4068      08000506 
 4068      00060100 
ARM GAS  /tmp/ccsO36p4.s 			page 86


 4068      0702
 4069 000f 00361000 		.ascii	"\0006\020\000\002\010\000\003\001\000\004\002\000+\013"
 4069      02080003 
 4069      01000402 
 4069      002B0B
 4070 001e 00350900 		.ascii	"\0005\011\000\005\006\000\006\001\000\007\002\0006\020"
 4070      05060006 
 4070      01000702 
 4070      003610
 4071 002d 00010600 		.ascii	"\000\001\006\000\001\006\000\000"
 4071      01060000 
 4072 0035 00000000 		.space	32
 4072      00000000 
 4072      00000000 
 4072      00000000 
 4072      00000000 
 4073              		.section	.rodata.klattvocab_information,"a"
 4074              		.align	2
 4075              		.type	klattvocab_information, %object
 4076              		.size	klattvocab_information, 85
 4077              	klattvocab_information:
 4078 0000 27       		.byte	39
 4079 0001 2E070015 		.ascii	".\007\000\025\010\000\027\014\0008\015\000+\013\000"
 4079      0800170C 
 4079      00380D00 
 4079      2B0B00
 4080 0010 1408003A 		.ascii	"\024\010\000:\007\000.\007\000\032\014\0004\004\000"
 4080      07002E07 
 4080      001A0C00 
 4080      340400
 4081 001f 15080001 		.ascii	"\025\010\000\001\006\000\001\006\000\000"
 4081      06000106 
 4081      0000
 4082 0029 00000000 		.space	44
 4082      00000000 
 4082      00000000 
 4082      00000000 
 4082      00000000 
 4083              		.section	.rodata.klattvocab_infection,"a"
 4084              		.align	2
 4085              		.type	klattvocab_infection, %object
 4086              		.size	klattvocab_infection, 85
 4087              	klattvocab_infection:
 4088 0000 24       		.byte	36
 4089 0001 2E070015 		.ascii	".\007\000\025\010\000\027\014\000/\006\000\010\010\000"
 4089      0800170C 
 4089      002F0600 
 4089      080800
 4090 0010 0901000A 		.ascii	"\011\001\000\012\004\000\032\014\0004\004\000\025\010"
 4090      04001A0C 
 4090      00340400 
 4090      1508
 4091 001e 00010600 		.ascii	"\000\001\006\000\001\006\000\000"
 4091      01060000 
 4092 0026 00000000 		.space	47
 4092      00000000 
 4092      00000000 
ARM GAS  /tmp/ccsO36p4.s 			page 87


 4092      00000000 
 4092      00000000 
 4093              		.section	.rodata.klattvocab_human,"a"
 4094              		.align	2
 4095              		.type	klattvocab_human, %object
 4096              		.size	klattvocab_human, 85
 4097              	klattvocab_human:
 4098 0000 18       		.byte	24
 4099 0001 1C0A002D 		.ascii	"\034\012\000-\007\0009\013\000\024\010\0000\007\000"
 4099      0700390B 
 4099      00140800 
 4099      300700
 4100 0010 15080001 		.ascii	"\025\010\000\001\006\000\001\006\000\000"
 4100      06000106 
 4100      0000
 4101 001a 00000000 		.space	59
 4101      00000000 
 4101      00000000 
 4101      00000000 
 4101      00000000 
 4102              		.section	.rodata.klattvocab_horror,"a"
 4103              		.align	2
 4104              		.type	klattvocab_horror, %object
 4105              		.size	klattvocab_horror, 85
 4106              	klattvocab_horror:
 4107 0000 18       		.byte	24
 4108 0001 1C0A0038 		.ascii	"\034\012\0008\015\000+\013\000\036\000\000+\013\000"
 4108      0D002B0B 
 4108      001E0000 
 4108      2B0B00
 4109 0010 36100001 		.ascii	"6\020\000\001\006\000\001\006\000\000"
 4109      06000106 
 4109      0000
 4110 001a 00000000 		.space	59
 4110      00000000 
 4110      00000000 
 4110      00000000 
 4110      00000000 
 4111              		.section	.rodata.klattvocab_hear,"a"
 4112              		.align	2
 4113              		.type	klattvocab_hear, %object
 4114              		.size	klattvocab_hear, 85
 4115              	klattvocab_hear:
 4116 0000 0F       		.byte	15
 4117 0001 1C0A0035 		.ascii	"\034\012\0005\011\000+\013\000\001\006\000\001\006\000"
 4117      09002B0B 
 4117      00010600 
 4117      010600
 4118 0010 00       		.ascii	"\000"
 4119 0011 00000000 		.space	68
 4119      00000000 
 4119      00000000 
 4119      00000000 
 4119      00000000 
 4120              		.section	.rodata.klattvocab_heart,"a"
 4121              		.align	2
 4122              		.type	klattvocab_heart, %object
ARM GAS  /tmp/ccsO36p4.s 			page 88


 4123              		.size	klattvocab_heart, 85
 4124              	klattvocab_heart:
 4125 0000 18       		.byte	24
 4126 0001 1C0A0035 		.ascii	"\034\012\0005\011\000+\013\000\005\006\000\006\001\000"
 4126      09002B0B 
 4126      00050600 
 4126      060100
 4127 0010 07020001 		.ascii	"\007\002\000\001\006\000\001\006\000\000"
 4127      06000106 
 4127      0000
 4128 001a 00000000 		.space	59
 4128      00000000 
 4128      00000000 
 4128      00000000 
 4128      00000000 
 4129              		.section	.rodata.klattvocab_haunt,"a"
 4130              		.align	2
 4131              		.type	klattvocab_haunt, %object
 4132              		.size	klattvocab_haunt, 85
 4133              	klattvocab_haunt:
 4134 0000 18       		.byte	24
 4135 0001 1C0A0038 		.ascii	"\034\012\0008\015\000\025\010\000\005\006\000\006\001"
 4135      0D001508 
 4135      00050600 
 4135      0601
 4136 000f 00070200 		.ascii	"\000\007\002\000\001\006\000\001\006\000\000"
 4136      01060001 
 4136      060000
 4137 001a 00000000 		.space	59
 4137      00000000 
 4137      00000000 
 4137      00000000 
 4137      00000000 
 4138              		.section	.rodata.klattvocab_ground,"a"
 4139              		.align	2
 4140              		.type	klattvocab_ground, %object
 4141              		.size	klattvocab_ground, 85
 4142              	klattvocab_ground:
 4143 0000 24       		.byte	36
 4144 0001 110C0012 		.ascii	"\021\014\000\022\001\000\023\002\000+\013\000=\007\000"
 4144      01001302 
 4144      002B0B00 
 4144      3D0700
 4145 0010 3E070015 		.ascii	">\007\000\025\010\000\016\010\000\017\001\000\020\001"
 4145      08000E08 
 4145      000F0100 
 4145      1001
 4146 001e 00010600 		.ascii	"\000\001\006\000\001\006\000\000"
 4146      01060000 
 4147 0026 00000000 		.space	47
 4147      00000000 
 4147      00000000 
 4147      00000000 
 4147      00000000 
 4148              		.section	.rodata.klattvocab_green,"a"
 4149              		.align	2
 4150              		.type	klattvocab_green, %object
ARM GAS  /tmp/ccsO36p4.s 			page 89


 4151              		.size	klattvocab_green, 85
 4152              	klattvocab_green:
 4153 0000 18       		.byte	24
 4154 0001 110C0012 		.ascii	"\021\014\000\022\001\000\023\002\000+\013\0005\011\000"
 4154      01001302 
 4154      002B0B00 
 4154      350900
 4155 0010 15080001 		.ascii	"\025\010\000\001\006\000\001\006\000\000"
 4155      06000106 
 4155      0000
 4156 001a 00000000 		.space	59
 4156      00000000 
 4156      00000000 
 4156      00000000 
 4156      00000000 
 4157              		.section	.rodata.klattvocab_grave,"a"
 4158              		.align	2
 4159              		.type	klattvocab_grave, %object
 4160              		.size	klattvocab_grave, 85
 4161              	klattvocab_grave:
 4162 0000 21       		.byte	33
 4163 0001 110C0012 		.ascii	"\021\014\000\022\001\000\023\002\000+\013\000:\007\000"
 4163      01001302 
 4163      002B0B00 
 4163      3A0700
 4164 0010 2E07001D 		.ascii	".\007\000\035\004\000\036\000\000\035\004\000\001\006"
 4164      04001E00 
 4164      001D0400 
 4164      0106
 4165 001e 00010600 		.ascii	"\000\001\006\000\000"
 4165      00
 4166 0023 00000000 		.space	50
 4166      00000000 
 4166      00000000 
 4166      00000000 
 4166      00000000 
 4167              		.section	.rodata.klattvocab_gold,"a"
 4168              		.align	2
 4169              		.type	klattvocab_gold, %object
 4170              		.size	klattvocab_gold, 85
 4171              	klattvocab_gold:
 4172 0000 21       		.byte	33
 4173 0001 110C0012 		.ascii	"\021\014\000\022\001\000\023\002\000?\007\000>\007\000"
 4173      01001302 
 4173      003F0700 
 4173      3E0700
 4174 0010 2808000E 		.ascii	"(\010\000\016\010\000\017\001\000\020\001\000\001\006"
 4174      08000F01 
 4174      00100100 
 4174      0106
 4175 001e 00010600 		.ascii	"\000\001\006\000\000"
 4175      00
 4176 0023 00000000 		.space	50
 4176      00000000 
 4176      00000000 
 4176      00000000 
 4176      00000000 
ARM GAS  /tmp/ccsO36p4.s 			page 90


 4177              		.section	.rodata.klattvocab_god,"a"
 4178              		.align	2
 4179              		.type	klattvocab_god, %object
 4180              		.size	klattvocab_god, 85
 4181              	klattvocab_god:
 4182 0000 1B       		.byte	27
 4183 0001 110C0012 		.ascii	"\021\014\000\022\001\000\023\002\0002\007\000\016\010"
 4183      01001302 
 4183      00320700 
 4183      0E08
 4184 000f 000F0100 		.ascii	"\000\017\001\000\020\001\000\001\006\000\001\006\000"
 4184      10010001 
 4184      06000106 
 4184      00
 4185 001c 00       		.ascii	"\000"
 4186 001d 00000000 		.space	56
 4186      00000000 
 4186      00000000 
 4186      00000000 
 4186      00000000 
 4187              		.section	.rodata.klattvocab_girl,"a"
 4188              		.align	2
 4189              		.type	klattvocab_girl, %object
 4190              		.size	klattvocab_girl, 85
 4191              	klattvocab_girl:
 4192 0000 15       		.byte	21
 4193 0001 110C0012 		.ascii	"\021\014\000\022\001\000\023\002\0006\020\000(\010\000"
 4193      01001302 
 4193      00361000 
 4193      280800
 4194 0010 01060001 		.ascii	"\001\006\000\001\006\000\000"
 4194      060000
 4195 0017 00000000 		.space	62
 4195      00000000 
 4195      00000000 
 4195      00000000 
 4195      00000000 
 4196              		.section	.rodata.klattvocab_geology,"a"
 4197              		.align	2
 4198              		.type	klattvocab_geology, %object
 4199              		.size	klattvocab_geology, 85
 4200              	klattvocab_geology:
 4201 0000 2D       		.byte	45
 4202 0001 26040027 		.ascii	"&\004\000'\003\000\036\000\000'\003\0005\011\0002\007"
 4202      03001E00 
 4202      00270300 
 4202      35090032 
 4202      07
 4203 0012 00280800 		.ascii	"\000(\010\0002\007\000&\004\000'\003\000\036\000\000"
 4203      32070026 
 4203      04002703 
 4203      001E0000 
 4204 0022 27030035 		.ascii	"'\003\0005\011\000\001\006\000\001\006\000\000"
 4204      09000106 
 4204      00010600 
 4204      00
 4205 002f 00000000 		.space	38
ARM GAS  /tmp/ccsO36p4.s 			page 91


 4205      00000000 
 4205      00000000 
 4205      00000000 
 4205      00000000 
 4206              		.section	.rodata.klattvocab_fucked,"a"
 4207              		.align	2
 4208              		.type	klattvocab_fucked, %object
 4209              		.size	klattvocab_fucked, 85
 4210              	klattvocab_fucked:
 4211 0000 1E       		.byte	30
 4212 0001 170C0031 		.ascii	"\027\014\0001\007\000\010\010\000\011\001\000\012\004"
 4212      07000808 
 4212      00090100 
 4212      0A04
 4213 000f 00050600 		.ascii	"\000\005\006\000\006\001\000\007\002\000\001\006\000"
 4213      06010007 
 4213      02000106 
 4213      00
 4214 001c 01060000 		.ascii	"\001\006\000\000"
 4215 0020 00000000 		.space	53
 4215      00000000 
 4215      00000000 
 4215      00000000 
 4215      00000000 
 4216              		.section	.rodata.klattvocab_freeze,"a"
 4217              		.align	2
 4218              		.type	klattvocab_freeze, %object
 4219              		.size	klattvocab_freeze, 85
 4220              	klattvocab_freeze:
 4221 0000 18       		.byte	24
 4222 0001 170C002B 		.ascii	"\027\014\000+\013\0005\011\000!\004\000\036\000\000"
 4222      0B003509 
 4222      00210400 
 4222      1E0000
 4223 0010 22040001 		.ascii	"\"\004\000\001\006\000\001\006\000\000"
 4223      06000106 
 4223      0000
 4224 001a 00000000 		.space	59
 4224      00000000 
 4224      00000000 
 4224      00000000 
 4224      00000000 
 4225              		.section	.rodata.klattvocab_flesh,"a"
 4226              		.align	2
 4227              		.type	klattvocab_flesh, %object
 4228              		.size	klattvocab_flesh, 85
 4229              	klattvocab_flesh:
 4230 0000 12       		.byte	18
 4231 0001 170C0028 		.ascii	"\027\014\000(\010\000/\006\000\032\014\000\001\006\000"
 4231      08002F06 
 4231      001A0C00 
 4231      010600
 4232 0010 01060000 		.ascii	"\001\006\000\000"
 4233 0014 00000000 		.space	65
 4233      00000000 
 4233      00000000 
 4233      00000000 
ARM GAS  /tmp/ccsO36p4.s 			page 92


 4233      00000000 
 4234              		.section	.rodata.klattvocab_failure,"a"
 4235              		.align	2
 4236              		.type	klattvocab_failure, %object
 4237              		.size	klattvocab_failure, 85
 4238              	klattvocab_failure:
 4239 0000 18       		.byte	24
 4240 0001 170C003A 		.ascii	"\027\014\000:\007\000.\007\000(\010\0003\005\000+\013"
 4240      07002E07 
 4240      00280800 
 4240      3305002B 
 4240      0B
 4241 0012 00010600 		.ascii	"\000\001\006\000\001\006\000\000"
 4241      01060000 
 4242 001a 00000000 		.space	59
 4242      00000000 
 4242      00000000 
 4242      00000000 
 4242      00000000 
 4243              		.section	.rodata.klattvocab_execution,"a"
 4244              		.align	2
 4245              		.type	klattvocab_execution, %object
 4246              		.size	klattvocab_execution, 85
 4247              	klattvocab_execution:
 4248 0000 30       		.byte	48
 4249 0001 35090008 		.ascii	"5\011\000\010\010\000\011\001\000\012\004\000\031\014"
 4249      08000901 
 4249      000A0400 
 4249      190C
 4250 000f 002F0600 		.ascii	"\000/\006\000\010\010\000\011\001\000\012\004\000-\007"
 4250      08080009 
 4250      01000A04 
 4250      002D07
 4251 001e 00390B00 		.ascii	"\0009\013\000\032\014\0004\004\000\025\010\000\001\006"
 4251      1A0C0034 
 4251      04001508 
 4251      000106
 4252 002d 00010600 		.ascii	"\000\001\006\000\000"
 4252      00
 4253 0032 00000000 		.space	35
 4253      00000000 
 4253      00000000 
 4253      00000000 
 4253      00000000 
 4254              		.section	.rodata.klattvocab_evidence,"a"
 4255              		.align	2
 4256              		.type	klattvocab_evidence, %object
 4257              		.size	klattvocab_evidence, 85
 4258              	klattvocab_evidence:
 4259 0000 27       		.byte	39
 4260 0001 2F06001D 		.ascii	"/\006\000\035\004\000\036\000\000\035\004\000.\007\000"
 4260      04001E00 
 4260      001D0400 
 4260      2E0700
 4261 0010 0E08000F 		.ascii	"\016\010\000\017\001\000\020\001\000/\006\000\025\010"
 4261      01001001 
 4261      002F0600 
ARM GAS  /tmp/ccsO36p4.s 			page 93


 4261      1508
 4262 001e 00190C00 		.ascii	"\000\031\014\000\001\006\000\001\006\000\000"
 4262      01060001 
 4262      060000
 4263 0029 00000000 		.space	44
 4263      00000000 
 4263      00000000 
 4263      00000000 
 4263      00000000 
 4264              		.section	.rodata.klattvocab_error,"a"
 4265              		.align	2
 4266              		.type	klattvocab_error, %object
 4267              		.size	klattvocab_error, 85
 4268              	klattvocab_error:
 4269 0000 0F       		.byte	15
 4270 0001 3610002B 		.ascii	"6\020\000+\013\0006\020\000\001\006\000\001\006\000"
 4270      0B003610 
 4270      00010600 
 4270      010600
 4271 0010 00       		.ascii	"\000"
 4272 0011 00000000 		.space	68
 4272      00000000 
 4272      00000000 
 4272      00000000 
 4272      00000000 
 4273              		.section	.rodata.klattvocab_emotional,"a"
 4274              		.align	2
 4275              		.type	klattvocab_emotional, %object
 4276              		.size	klattvocab_emotional, 85
 4277              	klattvocab_emotional:
 4278 0000 21       		.byte	33
 4279 0001 2F060014 		.ascii	"/\006\000\024\010\000?\007\000>\007\000\032\014\000"
 4279      08003F07 
 4279      003E0700 
 4279      1A0C00
 4280 0010 34040015 		.ascii	"4\004\000\025\010\0004\004\000(\010\000\001\006\000"
 4280      08003404 
 4280      00280800 
 4280      010600
 4281 001f 01060000 		.ascii	"\001\006\000\000"
 4282 0023 00000000 		.space	50
 4282      00000000 
 4282      00000000 
 4282      00000000 
 4282      00000000 
 4283              		.section	.rodata.klattvocab_electronic,"a"
 4284              		.align	2
 4285              		.type	klattvocab_electronic, %object
 4286              		.size	klattvocab_electronic, 85
 4287              	klattvocab_electronic:
 4288 0000 36       		.byte	54
 4289 0001 35090028 		.ascii	"5\011\000(\010\000/\006\000\010\010\000\011\001\000"
 4289      08002F06 
 4289      00080800 
 4289      090100
 4290 0010 0A040005 		.ascii	"\012\004\000\005\006\000\006\001\000\007\002\000+\013"
 4290      06000601 
ARM GAS  /tmp/ccsO36p4.s 			page 94


 4290      00070200 
 4290      2B0B
 4291 001e 00320700 		.ascii	"\0002\007\000\025\010\000.\007\000\010\010\000\011\001"
 4291      1508002E 
 4291      07000808 
 4291      000901
 4292 002d 000A0400 		.ascii	"\000\012\004\000\001\006\000\001\006\000\000"
 4292      01060001 
 4292      060000
 4293 0038 00000000 		.space	29
 4293      00000000 
 4293      00000000 
 4293      00000000 
 4293      00000000 
 4294              		.section	.rodata.klattvocab_earth,"a"
 4295              		.align	2
 4296              		.type	klattvocab_earth, %object
 4297              		.size	klattvocab_earth, 85
 4298              	klattvocab_earth:
 4299 0000 0C       		.byte	12
 4300 0001 36100018 		.ascii	"6\020\000\030\017\000\001\006\000\001\006\000\000"
 4300      0F000106 
 4300      00010600 
 4300      00
 4301 000e 00000000 		.space	71
 4301      00000000 
 4301      00000000 
 4301      00000000 
 4301      00000000 
 4302              		.section	.rodata.klattvocab_double,"a"
 4303              		.align	2
 4304              		.type	klattvocab_double, %object
 4305              		.size	klattvocab_double, 85
 4306              	klattvocab_double:
 4307 0000 21       		.byte	33
 4308 0001 0E08000F 		.ascii	"\016\010\000\017\001\000\020\001\0001\007\000\013\014"
 4308      01001001 
 4308      00310700 
 4308      0B0C
 4309 000f 000C0100 		.ascii	"\000\014\001\000\015\000\0004\004\000(\010\000\001\006"
 4309      0D000034 
 4309      04002808 
 4309      000106
 4310 001e 00010600 		.ascii	"\000\001\006\000\000"
 4310      00
 4311 0023 00000000 		.space	50
 4311      00000000 
 4311      00000000 
 4311      00000000 
 4311      00000000 
 4312              		.section	.rodata.klattvocab_dissolution,"a"
 4313              		.align	2
 4314              		.type	klattvocab_dissolution, %object
 4315              		.size	klattvocab_dissolution, 85
 4316              	klattvocab_dissolution:
 4317 0000 27       		.byte	39
 4318 0001 0E08000F 		.ascii	"\016\010\000\017\001\000\020\001\000.\007\000\031\014"
ARM GAS  /tmp/ccsO36p4.s 			page 95


 4318      01001001 
 4318      002E0700 
 4318      190C
 4319 000f 00320700 		.ascii	"\0002\007\000(\010\0009\013\000\032\014\0004\004\000"
 4319      28080039 
 4319      0B001A0C 
 4319      00340400 
 4320 001f 15080001 		.ascii	"\025\010\000\001\006\000\001\006\000\000"
 4320      06000106 
 4320      0000
 4321 0029 00000000 		.space	44
 4321      00000000 
 4321      00000000 
 4321      00000000 
 4321      00000000 
 4322              		.section	.rodata.klattvocab_dirt,"a"
 4323              		.align	2
 4324              		.type	klattvocab_dirt, %object
 4325              		.size	klattvocab_dirt, 85
 4326              	klattvocab_dirt:
 4327 0000 1B       		.byte	27
 4328 0001 0E08000F 		.ascii	"\016\010\000\017\001\000\020\001\0006\020\000\005\006"
 4328      01001001 
 4328      00361000 
 4328      0506
 4329 000f 00060100 		.ascii	"\000\006\001\000\007\002\000\001\006\000\001\006\000"
 4329      07020001 
 4329      06000106 
 4329      00
 4330 001c 00       		.ascii	"\000"
 4331 001d 00000000 		.space	56
 4331      00000000 
 4331      00000000 
 4331      00000000 
 4331      00000000 
 4332              		.section	.rodata.klattvocab_digital,"a"
 4333              		.align	2
 4334              		.type	klattvocab_digital, %object
 4335              		.size	klattvocab_digital, 85
 4336              	klattvocab_digital:
 4337 0000 33       		.byte	51
 4338 0001 0E08000F 		.ascii	"\016\010\000\017\001\000\020\001\000.\007\000&\004\000"
 4338      01001001 
 4338      002E0700 
 4338      260400
 4339 0010 2703001E 		.ascii	"'\003\000\036\000\000'\003\000;\007\000.\007\000\005"
 4339      00002703 
 4339      003B0700 
 4339      2E070005 
 4340 0020 06000601 		.ascii	"\006\000\006\001\000\007\002\0004\004\000(\010\000\001"
 4340      00070200 
 4340      34040028 
 4340      080001
 4341 002f 06000106 		.ascii	"\006\000\001\006\000\000"
 4341      0000
 4342 0035 00000000 		.space	32
 4342      00000000 
ARM GAS  /tmp/ccsO36p4.s 			page 96


 4342      00000000 
 4342      00000000 
 4342      00000000 
 4343              		.section	.rodata.klattvocab_device,"a"
 4344              		.align	2
 4345              		.type	klattvocab_device, %object
 4346              		.size	klattvocab_device, 85
 4347              	klattvocab_device:
 4348 0000 21       		.byte	33
 4349 0001 0E08000F 		.ascii	"\016\010\000\017\001\000\020\001\000.\007\000\035\004"
 4349      01001001 
 4349      002E0700 
 4349      1D04
 4350 000f 001E0000 		.ascii	"\000\036\000\000\035\004\000.\007\000\031\014\000\001"
 4350      1D04002E 
 4350      0700190C 
 4350      0001
 4351 001d 06000106 		.ascii	"\006\000\001\006\000\000"
 4351      0000
 4352 0023 00000000 		.space	50
 4352      00000000 
 4352      00000000 
 4352      00000000 
 4352      00000000 
 4353              		.section	.rodata.klattvocab_decompose,"a"
 4354              		.align	2
 4355              		.type	klattvocab_decompose, %object
 4356              		.size	klattvocab_decompose, 85
 4357              	klattvocab_decompose:
 4358 0000 39       		.byte	57
 4359 0001 0E08000F 		.ascii	"\016\010\000\017\001\000\020\001\000.\007\000\010\010"
 4359      01001001 
 4359      002E0700 
 4359      0808
 4360 000f 00090100 		.ascii	"\000\011\001\000\012\004\0001\007\000\024\010\000\002"
 4360      0A040031 
 4360      07001408 
 4360      0002
 4361 001d 08000301 		.ascii	"\010\000\003\001\000\004\002\000?\007\000>\007\000!"
 4361      00040200 
 4361      3F07003E 
 4361      070021
 4362 002c 04001E00 		.ascii	"\004\000\036\000\000\"\004\000\001\006\000\001\006\000"
 4362      00220400 
 4362      01060001 
 4362      0600
 4363 003a 00       		.ascii	"\000"
 4364 003b 00000000 		.space	26
 4364      00000000 
 4364      00000000 
 4364      00000000 
 4364      00000000 
 4365              		.section	.rodata.klattvocab_decay,"a"
 4366              		.align	2
 4367              		.type	klattvocab_decay, %object
 4368              		.size	klattvocab_decay, 85
 4369              	klattvocab_decay:
ARM GAS  /tmp/ccsO36p4.s 			page 97


 4370 0000 21       		.byte	33
 4371 0001 0E08000F 		.ascii	"\016\010\000\017\001\000\020\001\000.\007\000\010\010"
 4371      01001001 
 4371      002E0700 
 4371      0808
 4372 000f 00090100 		.ascii	"\000\011\001\000\012\004\000:\007\000.\007\000\001\006"
 4372      0A04003A 
 4372      07002E07 
 4372      000106
 4373 001e 00010600 		.ascii	"\000\001\006\000\000"
 4373      00
 4374 0023 00000000 		.space	50
 4374      00000000 
 4374      00000000 
 4374      00000000 
 4374      00000000 
 4375              		.section	.rodata.klattvocab_death,"a"
 4376              		.align	2
 4377              		.type	klattvocab_death, %object
 4378              		.size	klattvocab_death, 85
 4379              	klattvocab_death:
 4380 0000 15       		.byte	21
 4381 0001 0E08000F 		.ascii	"\016\010\000\017\001\000\020\001\0005\011\000\030\017"
 4381      01001001 
 4381      00350900 
 4381      180F
 4382 000f 00010600 		.ascii	"\000\001\006\000\001\006\000\000"
 4382      01060000 
 4383 0017 00000000 		.space	62
 4383      00000000 
 4383      00000000 
 4383      00000000 
 4383      00000000 
 4384              		.section	.rodata.klattvocab_data,"a"
 4385              		.align	2
 4386              		.type	klattvocab_data, %object
 4387              		.size	klattvocab_data, 85
 4388              	klattvocab_data:
 4389 0000 21       		.byte	33
 4390 0001 0E08000F 		.ascii	"\016\010\000\017\001\000\020\001\000:\007\000.\007\000"
 4390      01001001 
 4390      003A0700 
 4390      2E0700
 4391 0010 05060006 		.ascii	"\005\006\000\006\001\000\007\002\0004\004\000\001\006"
 4391      01000702 
 4391      00340400 
 4391      0106
 4392 001e 00010600 		.ascii	"\000\001\006\000\000"
 4392      00
 4393 0023 00000000 		.space	50
 4393      00000000 
 4393      00000000 
 4393      00000000 
 4393      00000000 
 4394              		.section	.rodata.klattvocab_darkness,"a"
 4395              		.align	2
 4396              		.type	klattvocab_darkness, %object
ARM GAS  /tmp/ccsO36p4.s 			page 98


 4397              		.size	klattvocab_darkness, 85
 4398              	klattvocab_darkness:
 4399 0000 27       		.byte	39
 4400 0001 0E08000F 		.ascii	"\016\010\000\017\001\000\020\001\0002\007\000+\013\000"
 4400      01001001 
 4400      00320700 
 4400      2B0B00
 4401 0010 08080009 		.ascii	"\010\010\000\011\001\000\012\004\000\025\010\000/\006"
 4401      01000A04 
 4401      00150800 
 4401      2F06
 4402 001e 00190C00 		.ascii	"\000\031\014\000\001\006\000\001\006\000\000"
 4402      01060001 
 4402      060000
 4403 0029 00000000 		.space	44
 4403      00000000 
 4403      00000000 
 4403      00000000 
 4403      00000000 
 4404              		.section	.rodata.klattvocab_dark,"a"
 4405              		.align	2
 4406              		.type	klattvocab_dark, %object
 4407              		.size	klattvocab_dark, 85
 4408              	klattvocab_dark:
 4409 0000 1E       		.byte	30
 4410 0001 0E08000F 		.ascii	"\016\010\000\017\001\000\020\001\0002\007\000+\013\000"
 4410      01001001 
 4410      00320700 
 4410      2B0B00
 4411 0010 08080009 		.ascii	"\010\010\000\011\001\000\012\004\000\001\006\000\001"
 4411      01000A04 
 4411      00010600 
 4411      01
 4412 001d 060000   		.ascii	"\006\000\000"
 4413 0020 00000000 		.space	53
 4413      00000000 
 4413      00000000 
 4413      00000000 
 4413      00000000 
 4414              		.section	.rodata.klattvocab_danger,"a"
 4415              		.align	2
 4416              		.type	klattvocab_danger, %object
 4417              		.size	klattvocab_danger, 85
 4418              	klattvocab_danger:
 4419 0000 27       		.byte	39
 4420 0001 0E08000F 		.ascii	"\016\010\000\017\001\000\020\001\000:\007\000.\007\000"
 4420      01001001 
 4420      003A0700 
 4420      2E0700
 4421 0010 15080026 		.ascii	"\025\010\000&\004\000'\003\000\036\000\000'\003\000"
 4421      04002703 
 4421      001E0000 
 4421      270300
 4422 001f 36100001 		.ascii	"6\020\000\001\006\000\001\006\000\000"
 4422      06000106 
 4422      0000
 4423 0029 00000000 		.space	44
ARM GAS  /tmp/ccsO36p4.s 			page 99


 4423      00000000 
 4423      00000000 
 4423      00000000 
 4423      00000000 
 4424              		.section	.rodata.klattvocab_curse,"a"
 4425              		.align	2
 4426              		.type	klattvocab_curse, %object
 4427              		.size	klattvocab_curse, 85
 4428              	klattvocab_curse:
 4429 0000 15       		.byte	21
 4430 0001 08080009 		.ascii	"\010\010\000\011\001\000\012\004\0006\020\000\031\014"
 4430      01000A04 
 4430      00361000 
 4430      190C
 4431 000f 00010600 		.ascii	"\000\001\006\000\001\006\000\000"
 4431      01060000 
 4432 0017 00000000 		.space	62
 4432      00000000 
 4432      00000000 
 4432      00000000 
 4432      00000000 
 4433              		.section	.rodata.klattvocab_crystal,"a"
 4434              		.align	2
 4435              		.type	klattvocab_crystal, %object
 4436              		.size	klattvocab_crystal, 85
 4437              	klattvocab_crystal:
 4438 0000 27       		.byte	39
 4439 0001 08080009 		.ascii	"\010\010\000\011\001\000\012\004\000+\013\000.\007\000"
 4439      01000A04 
 4439      002B0B00 
 4439      2E0700
 4440 0010 190C0005 		.ascii	"\031\014\000\005\006\000\006\001\000\007\002\0000\007"
 4440      06000601 
 4440      00070200 
 4440      3007
 4441 001e 00280800 		.ascii	"\000(\010\000\001\006\000\001\006\000\000"
 4441      01060001 
 4441      060000
 4442 0029 00000000 		.space	44
 4442      00000000 
 4442      00000000 
 4442      00000000 
 4442      00000000 
 4443              		.section	.rodata.klattvocab_crow,"a"
 4444              		.align	2
 4445              		.type	klattvocab_crow, %object
 4446              		.size	klattvocab_crow, 85
 4447              	klattvocab_crow:
 4448 0000 18       		.byte	24
 4449 0001 08080009 		.ascii	"\010\010\000\011\001\000\012\004\000+\013\000?\007\000"
 4449      01000A04 
 4449      002B0B00 
 4449      3F0700
 4450 0010 3E070001 		.ascii	">\007\000\001\006\000\001\006\000\000"
 4450      06000106 
 4450      0000
 4451 001a 00000000 		.space	59
ARM GAS  /tmp/ccsO36p4.s 			page 100


 4451      00000000 
 4451      00000000 
 4451      00000000 
 4451      00000000 
 4452              		.section	.rodata.klattvocab_crash,"a"
 4453              		.align	2
 4454              		.type	klattvocab_crash, %object
 4455              		.size	klattvocab_crash, 85
 4456              	klattvocab_crash:
 4457 0000 18       		.byte	24
 4458 0001 08080009 		.ascii	"\010\010\000\011\001\000\012\004\000+\013\0000\007\000"
 4458      01000A04 
 4458      002B0B00 
 4458      300700
 4459 0010 1A0C0001 		.ascii	"\032\014\000\001\006\000\001\006\000\000"
 4459      06000106 
 4459      0000
 4460 001a 00000000 		.space	59
 4460      00000000 
 4460      00000000 
 4460      00000000 
 4460      00000000 
 4461              		.section	.rodata.klattvocab_cosmic,"a"
 4462              		.align	2
 4463              		.type	klattvocab_cosmic, %object
 4464              		.size	klattvocab_cosmic, 85
 4465              	klattvocab_cosmic:
 4466 0000 2A       		.byte	42
 4467 0001 08080009 		.ascii	"\010\010\000\011\001\000\012\004\0002\007\000!\004\000"
 4467      01000A04 
 4467      00320700 
 4467      210400
 4468 0010 1E000022 		.ascii	"\036\000\000\"\004\000\024\010\000.\007\000\010\010"
 4468      04001408 
 4468      002E0700 
 4468      0808
 4469 001e 00090100 		.ascii	"\000\011\001\000\012\004\000\001\006\000\001\006\000"
 4469      0A040001 
 4469      06000106 
 4469      00
 4470 002b 00       		.ascii	"\000"
 4471 002c 00000000 		.space	41
 4471      00000000 
 4471      00000000 
 4471      00000000 
 4471      00000000 
 4472              		.section	.rodata.klattvocab_core,"a"
 4473              		.align	2
 4474              		.type	klattvocab_core, %object
 4475              		.size	klattvocab_core, 85
 4476              	klattvocab_core:
 4477 0000 15       		.byte	21
 4478 0001 08080009 		.ascii	"\010\010\000\011\001\000\012\004\0008\015\000+\013\000"
 4478      01000A04 
 4478      00380D00 
 4478      2B0B00
 4479 0010 01060001 		.ascii	"\001\006\000\001\006\000\000"
ARM GAS  /tmp/ccsO36p4.s 			page 101


 4479      060000
 4480 0017 00000000 		.space	62
 4480      00000000 
 4480      00000000 
 4480      00000000 
 4480      00000000 
 4481              		.section	.rodata.klattvocab_contact,"a"
 4482              		.align	2
 4483              		.type	klattvocab_contact, %object
 4484              		.size	klattvocab_contact, 85
 4485              	klattvocab_contact:
 4486 0000 33       		.byte	51
 4487 0001 08080009 		.ascii	"\010\010\000\011\001\000\012\004\0002\007\000\025\010"
 4487      01000A04 
 4487      00320700 
 4487      1508
 4488 000f 00050600 		.ascii	"\000\005\006\000\006\001\000\007\002\0000\007\000\010"
 4488      06010007 
 4488      02003007 
 4488      0008
 4489 001d 08000901 		.ascii	"\010\000\011\001\000\012\004\000\005\006\000\006\001"
 4489      000A0400 
 4489      05060006 
 4489      01
 4490 002a 00070200 		.ascii	"\000\007\002\000\001\006\000\001\006\000\000"
 4490      01060001 
 4490      060000
 4491 0035 00000000 		.space	32
 4491      00000000 
 4491      00000000 
 4491      00000000 
 4491      00000000 
 4492              		.section	.rodata.klattvocab_computer,"a"
 4493              		.align	2
 4494              		.type	klattvocab_computer, %object
 4495              		.size	klattvocab_computer, 85
 4496              	klattvocab_computer:
 4497 0000 30       		.byte	48
 4498 0001 08080009 		.ascii	"\010\010\000\011\001\000\012\004\0002\007\000\024\010"
 4498      01000A04 
 4498      00320700 
 4498      1408
 4499 000f 00020800 		.ascii	"\000\002\010\000\003\001\000\004\002\000-\007\0009\013"
 4499      03010004 
 4499      02002D07 
 4499      00390B
 4500 001e 00050600 		.ascii	"\000\005\006\000\006\001\000\007\002\0006\020\000\001"
 4500      06010007 
 4500      02003610 
 4500      0001
 4501 002c 06000106 		.ascii	"\006\000\001\006\000\000"
 4501      0000
 4502 0032 00000000 		.space	35
 4502      00000000 
 4502      00000000 
 4502      00000000 
 4502      00000000 
ARM GAS  /tmp/ccsO36p4.s 			page 102


 4503              		.section	.rodata.klattvocab_communication,"a"
 4504              		.align	2
 4505              		.type	klattvocab_communication, %object
 4506              		.size	klattvocab_communication, 85
 4507              	klattvocab_communication:
 4508 0000 3C       		.byte	60
 4509 0001 08080009 		.ascii	"\010\010\000\011\001\000\012\004\0002\007\000\024\010"
 4509      01000A04 
 4509      00320700 
 4509      1408
 4510 000f 002D0700 		.ascii	"\000-\007\0009\013\000\025\010\000;\007\000.\007\000"
 4510      390B0015 
 4510      08003B07 
 4510      002E0700 
 4511 001f 08080009 		.ascii	"\010\010\000\011\001\000\012\004\000:\007\000.\007\000"
 4511      01000A04 
 4511      003A0700 
 4511      2E0700
 4512 002e 1A0C0034 		.ascii	"\032\014\0004\004\000\025\010\000\001\006\000\001\006"
 4512      04001508 
 4512      00010600 
 4512      0106
 4513 003c 0000     		.ascii	"\000\000"
 4514 003e 00000000 		.space	23
 4514      00000000 
 4514      00000000 
 4514      00000000 
 4514      00000000 
 4515              		.section	.rodata.klattvocab_color,"a"
 4516              		.align	2
 4517              		.type	klattvocab_color, %object
 4518              		.size	klattvocab_color, 85
 4519              	klattvocab_color:
 4520 0000 18       		.byte	24
 4521 0001 08080009 		.ascii	"\010\010\000\011\001\000\012\004\0002\007\000(\010\000"
 4521      01000A04 
 4521      00320700 
 4521      280800
 4522 0010 36100001 		.ascii	"6\020\000\001\006\000\001\006\000\000"
 4522      06000106 
 4522      0000
 4523 001a 00000000 		.space	59
 4523      00000000 
 4523      00000000 
 4523      00000000 
 4523      00000000 
 4524              		.section	.rodata.klattvocab_code,"a"
 4525              		.align	2
 4526              		.type	klattvocab_code, %object
 4527              		.size	klattvocab_code, 85
 4528              	klattvocab_code:
 4529 0000 1E       		.byte	30
 4530 0001 08080009 		.ascii	"\010\010\000\011\001\000\012\004\000?\007\000>\007\000"
 4530      01000A04 
 4530      003F0700 
 4530      3E0700
 4531 0010 0E08000F 		.ascii	"\016\010\000\017\001\000\020\001\000\001\006\000\001"
ARM GAS  /tmp/ccsO36p4.s 			page 103


 4531      01001001 
 4531      00010600 
 4531      01
 4532 001d 060000   		.ascii	"\006\000\000"
 4533 0020 00000000 		.space	53
 4533      00000000 
 4533      00000000 
 4533      00000000 
 4533      00000000 
 4534              		.section	.rodata.klattvocab_circuit,"a"
 4535              		.align	2
 4536              		.type	klattvocab_circuit, %object
 4537              		.size	klattvocab_circuit, 85
 4538              	klattvocab_circuit:
 4539 0000 27       		.byte	39
 4540 0001 190C0036 		.ascii	"\031\014\0006\020\000\010\010\000\011\001\000\012\004"
 4540      10000808 
 4540      00090100 
 4540      0A04
 4541 000f 002D0700 		.ascii	"\000-\007\0009\013\000.\007\000\005\006\000\006\001"
 4541      390B002E 
 4541      07000506 
 4541      000601
 4542 001e 00070200 		.ascii	"\000\007\002\000\001\006\000\001\006\000\000"
 4542      01060001 
 4542      060000
 4543 0029 00000000 		.space	44
 4543      00000000 
 4543      00000000 
 4543      00000000 
 4543      00000000 
 4544              		.section	.rodata.klattvocab_chamber,"a"
 4545              		.align	2
 4546              		.type	klattvocab_chamber, %object
 4547              		.size	klattvocab_chamber, 85
 4548              	klattvocab_chamber:
 4549 0000 1E       		.byte	30
 4550 0001 24040025 		.ascii	"$\004\000%\010\0000\007\000\024\010\000\013\014\000"
 4550      08003007 
 4550      00140800 
 4550      0B0C00
 4551 0010 0C01000D 		.ascii	"\014\001\000\015\000\0006\020\000\001\006\000\001\006"
 4551      00003610 
 4551      00010600 
 4551      0106
 4552 001e 0000     		.ascii	"\000\000"
 4553 0020 00000000 		.space	53
 4553      00000000 
 4553      00000000 
 4553      00000000 
 4553      00000000 
 4554              		.section	.rodata.klattvocab_central,"a"
 4555              		.align	2
 4556              		.type	klattvocab_central, %object
 4557              		.size	klattvocab_central, 85
 4558              	klattvocab_central:
 4559 0000 21       		.byte	33
ARM GAS  /tmp/ccsO36p4.s 			page 104


 4560 0001 190C002F 		.ascii	"\031\014\000/\006\000\025\010\000\005\006\000\006\001"
 4560      06001508 
 4560      00050600 
 4560      0601
 4561 000f 00070200 		.ascii	"\000\007\002\000+\013\0004\004\000(\010\000\001\006"
 4561      2B0B0034 
 4561      04002808 
 4561      000106
 4562 001e 00010600 		.ascii	"\000\001\006\000\000"
 4562      00
 4563 0023 00000000 		.space	50
 4563      00000000 
 4563      00000000 
 4563      00000000 
 4563      00000000 
 4564              		.section	.rodata.klattvocab_byte,"a"
 4565              		.align	2
 4566              		.type	klattvocab_byte, %object
 4567              		.size	klattvocab_byte, 85
 4568              	klattvocab_byte:
 4569 0000 21       		.byte	33
 4570 0001 0B0C000C 		.ascii	"\013\014\000\014\001\000\015\000\000;\007\000.\007\000"
 4570      01000D00 
 4570      003B0700 
 4570      2E0700
 4571 0010 05060006 		.ascii	"\005\006\000\006\001\000\007\002\0005\011\000\001\006"
 4571      01000702 
 4571      00350900 
 4571      0106
 4572 001e 00010600 		.ascii	"\000\001\006\000\000"
 4572      00
 4573 0023 00000000 		.space	50
 4573      00000000 
 4573      00000000 
 4573      00000000 
 4573      00000000 
 4574              		.section	.rodata.klattvocab_bug,"a"
 4575              		.align	2
 4576              		.type	klattvocab_bug, %object
 4577              		.size	klattvocab_bug, 85
 4578              	klattvocab_bug:
 4579 0000 1B       		.byte	27
 4580 0001 0B0C000C 		.ascii	"\013\014\000\014\001\000\015\000\0001\007\000\021\014"
 4580      01000D00 
 4580      00310700 
 4580      110C
 4581 000f 00120100 		.ascii	"\000\022\001\000\023\002\000\001\006\000\001\006\000"
 4581      13020001 
 4581      06000106 
 4581      00
 4582 001c 00       		.ascii	"\000"
 4583 001d 00000000 		.space	56
 4583      00000000 
 4583      00000000 
 4583      00000000 
 4583      00000000 
 4584              		.section	.rodata.klattvocab_break,"a"
ARM GAS  /tmp/ccsO36p4.s 			page 105


 4585              		.align	2
 4586              		.type	klattvocab_break, %object
 4587              		.size	klattvocab_break, 85
 4588              	klattvocab_break:
 4589 0000 1E       		.byte	30
 4590 0001 0B0C000C 		.ascii	"\013\014\000\014\001\000\015\000\000+\013\0005\011\000"
 4590      01000D00 
 4590      002B0B00 
 4590      350900
 4591 0010 08080009 		.ascii	"\010\010\000\011\001\000\012\004\000\001\006\000\001"
 4591      01000A04 
 4591      00010600 
 4591      01
 4592 001d 060000   		.ascii	"\006\000\000"
 4593 0020 00000000 		.space	53
 4593      00000000 
 4593      00000000 
 4593      00000000 
 4593      00000000 
 4594              		.section	.rodata.klattvocab_brain,"a"
 4595              		.align	2
 4596              		.type	klattvocab_brain, %object
 4597              		.size	klattvocab_brain, 85
 4598              	klattvocab_brain:
 4599 0000 1B       		.byte	27
 4600 0001 0B0C000C 		.ascii	"\013\014\000\014\001\000\015\000\000+\013\000:\007\000"
 4600      01000D00 
 4600      002B0B00 
 4600      3A0700
 4601 0010 2E070015 		.ascii	".\007\000\025\010\000\001\006\000\001\006\000\000"
 4601      08000106 
 4601      00010600 
 4601      00
 4602 001d 00000000 		.space	56
 4602      00000000 
 4602      00000000 
 4602      00000000 
 4602      00000000 
 4603              		.section	.rodata.klattvocab_body,"a"
 4604              		.align	2
 4605              		.type	klattvocab_body, %object
 4606              		.size	klattvocab_body, 85
 4607              	klattvocab_body:
 4608 0000 1E       		.byte	30
 4609 0001 0B0C000C 		.ascii	"\013\014\000\014\001\000\015\000\0002\007\000\016\010"
 4609      01000D00 
 4609      00320700 
 4609      0E08
 4610 000f 000F0100 		.ascii	"\000\017\001\000\020\001\0005\011\000\001\006\000\001"
 4610      10010035 
 4610      09000106 
 4610      0001
 4611 001d 060000   		.ascii	"\006\000\000"
 4612 0020 00000000 		.space	53
 4612      00000000 
 4612      00000000 
 4612      00000000 
ARM GAS  /tmp/ccsO36p4.s 			page 106


 4612      00000000 
 4613              		.section	.rodata.klattvocab_blood,"a"
 4614              		.align	2
 4615              		.type	klattvocab_blood, %object
 4616              		.size	klattvocab_blood, 85
 4617              	klattvocab_blood:
 4618 0000 1E       		.byte	30
 4619 0001 0B0C000C 		.ascii	"\013\014\000\014\001\000\015\000\000(\010\0003\005\000"
 4619      01000D00 
 4619      00280800 
 4619      330500
 4620 0010 0E08000F 		.ascii	"\016\010\000\017\001\000\020\001\000\001\006\000\001"
 4620      01001001 
 4620      00010600 
 4620      01
 4621 001d 060000   		.ascii	"\006\000\000"
 4622 0020 00000000 		.space	53
 4622      00000000 
 4622      00000000 
 4622      00000000 
 4622      00000000 
 4623              		.section	.rodata.klattvocab_black,"a"
 4624              		.align	2
 4625              		.type	klattvocab_black, %object
 4626              		.size	klattvocab_black, 85
 4627              	klattvocab_black:
 4628 0000 1E       		.byte	30
 4629 0001 0B0C000C 		.ascii	"\013\014\000\014\001\000\015\000\000(\010\0000\007\000"
 4629      01000D00 
 4629      00280800 
 4629      300700
 4630 0010 08080009 		.ascii	"\010\010\000\011\001\000\012\004\000\001\006\000\001"
 4630      01000A04 
 4630      00010600 
 4630      01
 4631 001d 060000   		.ascii	"\006\000\000"
 4632 0020 00000000 		.space	53
 4632      00000000 
 4632      00000000 
 4632      00000000 
 4632      00000000 
 4633              		.section	.rodata.klattvocab_bit,"a"
 4634              		.align	2
 4635              		.type	klattvocab_bit, %object
 4636              		.size	klattvocab_bit, 85
 4637              	klattvocab_bit:
 4638 0000 1B       		.byte	27
 4639 0001 0B0C000C 		.ascii	"\013\014\000\014\001\000\015\000\000.\007\000\005\006"
 4639      01000D00 
 4639      002E0700 
 4639      0506
 4640 000f 00060100 		.ascii	"\000\006\001\000\007\002\000\001\006\000\001\006\000"
 4640      07020001 
 4640      06000106 
 4640      00
 4641 001c 00       		.ascii	"\000"
 4642 001d 00000000 		.space	56
ARM GAS  /tmp/ccsO36p4.s 			page 107


 4642      00000000 
 4642      00000000 
 4642      00000000 
 4642      00000000 
 4643              		.section	.rodata.klattvocab_biological,"a"
 4644              		.align	2
 4645              		.type	klattvocab_biological, %object
 4646              		.size	klattvocab_biological, 85
 4647              	klattvocab_biological:
 4648 0000 3C       		.byte	60
 4649 0001 0B0C000C 		.ascii	"\013\014\000\014\001\000\015\000\000.\007\0002\007\000"
 4649      01000D00 
 4649      002E0700 
 4649      320700
 4650 0010 28080032 		.ascii	"(\010\0002\007\000&\004\000'\003\000\036\000\000'\003"
 4650      07002604 
 4650      00270300 
 4650      1E000027 
 4650      03
 4651 0021 003B0700 		.ascii	"\000;\007\000.\007\000\010\010\000\011\001\000\012\004"
 4651      2E070008 
 4651      08000901 
 4651      000A04
 4652 0030 00340400 		.ascii	"\0004\004\000(\010\000\001\006\000\001\006\000\000"
 4652      28080001 
 4652      06000106 
 4652      0000
 4653 003e 00000000 		.space	23
 4653      00000000 
 4653      00000000 
 4653      00000000 
 4653      00000000 
 4654              		.section	.rodata.klattvocab_beauty,"a"
 4655              		.align	2
 4656              		.type	klattvocab_beauty, %object
 4657              		.size	klattvocab_beauty, 85
 4658              	klattvocab_beauty:
 4659 0000 21       		.byte	33
 4660 0001 0B0C000C 		.ascii	"\013\014\000\014\001\000\015\000\0005\011\0001\007\000"
 4660      01000D00 
 4660      00350900 
 4660      310700
 4661 0010 05060006 		.ascii	"\005\006\000\006\001\000\007\002\0005\011\000\001\006"
 4661      01000702 
 4661      00350900 
 4661      0106
 4662 001e 00010600 		.ascii	"\000\001\006\000\000"
 4662      00
 4663 0023 00000000 		.space	50
 4663      00000000 
 4663      00000000 
 4663      00000000 
 4663      00000000 
 4664              		.section	.rodata.klattvocab_atom,"a"
 4665              		.align	2
 4666              		.type	klattvocab_atom, %object
 4667              		.size	klattvocab_atom, 85
ARM GAS  /tmp/ccsO36p4.s 			page 108


 4668              	klattvocab_atom:
 4669 0000 18       		.byte	24
 4670 0001 30070005 		.ascii	"0\007\000\005\006\000\006\001\000\007\002\0001\007\000"
 4670      06000601 
 4670      00070200 
 4670      310700
 4671 0010 14080001 		.ascii	"\024\010\000\001\006\000\001\006\000\000"
 4671      06000106 
 4671      0000
 4672 001a 00000000 		.space	59
 4672      00000000 
 4672      00000000 
 4672      00000000 
 4672      00000000 
 4673              		.section	.rodata.klattvocab_anguish,"a"
 4674              		.align	2
 4675              		.type	klattvocab_anguish, %object
 4676              		.size	klattvocab_anguish, 85
 4677              	klattvocab_anguish:
 4678 0000 1E       		.byte	30
 4679 0001 30070016 		.ascii	"0\007\000\026\010\000\021\014\000\022\001\000\023\002"
 4679      0800110C 
 4679      00120100 
 4679      1302
 4680 000f 002C0800 		.ascii	"\000,\010\000.\007\000\032\014\000\001\006\000\001\006"
 4680      2E07001A 
 4680      0C000106 
 4680      000106
 4681 001e 0000     		.ascii	"\000\000"
 4682 0020 00000000 		.space	53
 4682      00000000 
 4682      00000000 
 4682      00000000 
 4682      00000000 
 4683              		.section	.rodata.klattvocab_acid,"a"
 4684              		.align	2
 4685              		.type	klattvocab_acid, %object
 4686              		.size	klattvocab_acid, 85
 4687              	klattvocab_acid:
 4688 0000 18       		.byte	24
 4689 0001 30070019 		.ascii	"0\007\000\031\014\000.\007\000\016\010\000\017\001\000"
 4689      0C002E07 
 4689      000E0800 
 4689      0F0100
 4690 0010 10010001 		.ascii	"\020\001\000\001\006\000\001\006\000\000"
 4690      06000106 
 4690      0000
 4691 001a 00000000 		.space	59
 4691      00000000 
 4691      00000000 
 4691      00000000 
 4691      00000000 
 4692              		.ident	"GCC: (Arm GNU Toolchain 13.2.rel1 (Build arm-13.7)) 13.2.1 20231009"
ARM GAS  /tmp/ccsO36p4.s 			page 109

